GAS LISTING /tmp/ccGTdBzt.s 			page 1


   1              		.file	"artificial_dissipation.cpp"
   2              		.text
   3              	.Ltext0:
   4              		.section	.rodata
   7              	_ZStL19piecewise_construct:
   8 0000 00       		.zero	1
   9              		.section	.text._ZN4Mesh15get_total_cellsEv,"axG",@progbits,_ZN4Mesh15get_total_cellsEv,comdat
  10              		.align 2
  11              		.weak	_ZN4Mesh15get_total_cellsEv
  13              	_ZN4Mesh15get_total_cellsEv:
  14              	.LFB876:
  15              		.file 1 "include/Mesh.h"
   1:include/Mesh.h **** #ifndef Mesh_H
   2:include/Mesh.h **** #define Mesh_H
   3:include/Mesh.h **** 
   4:include/Mesh.h **** #include "domain_geometry.h"
   5:include/Mesh.h **** #include "global_variables.h"
   6:include/Mesh.h **** class Mesh
   7:include/Mesh.h **** {
   8:include/Mesh.h ****     public:
   9:include/Mesh.h ****         Mesh(domain_geometry domain, global_variables globals);
  10:include/Mesh.h ****         virtual ~Mesh();
  11:include/Mesh.h ****         double get_node_x(int node_num);
  12:include/Mesh.h ****         int get_num_x() { return num_x_cells; };
  13:include/Mesh.h ****         int get_num_y () { return num_y_cells; };
  14:include/Mesh.h ****         int get_total_cells () { return total_cells; };
  16              		.loc 1 14 0
  17              		.cfi_startproc
  18 0000 55       		pushq	%rbp
  19              		.cfi_def_cfa_offset 16
  20              		.cfi_offset 6, -16
  21 0001 4889E5   		movq	%rsp, %rbp
  22              		.cfi_def_cfa_register 6
  23 0004 48897DF8 		movq	%rdi, -8(%rbp)
  24              		.loc 1 14 0
  25 0008 488B45F8 		movq	-8(%rbp), %rax
  26 000c 8B4010   		movl	16(%rax), %eax
  27 000f 5D       		popq	%rbp
  28              		.cfi_def_cfa 7, 8
  29 0010 C3       		ret
  30              		.cfi_endproc
  31              	.LFE876:
  33              		.section	.text._ZN4Mesh10get_n_nodeEi,"axG",@progbits,_ZN4Mesh10get_n_nodeEi,comdat
  34              		.align 2
  35              		.weak	_ZN4Mesh10get_n_nodeEi
  37              	_ZN4Mesh10get_n_nodeEi:
  38              	.LFB913:
  15:include/Mesh.h ****         double get_dx() { return dx;};
  16:include/Mesh.h ****         double get_dy() { return dy;};
  17:include/Mesh.h ****         double get_X() { return X;};
  18:include/Mesh.h ****         double get_Y() { return Y;};
  19:include/Mesh.h ****         double get_centroid_x( int i) {return centroid_x[i];};
  20:include/Mesh.h ****         double get_centroid_y( int i) {return centroid_y[i];};
  21:include/Mesh.h ****         double get_centroid_z( int i) {return centroid_z[i];};
  22:include/Mesh.h ****         double get_north_x( int i) {return north_x[i];};
  23:include/Mesh.h ****         double get_north_y( int i) {return north_y[i];};
  24:include/Mesh.h ****         double get_north_z( int i) {return north_z[i];};
GAS LISTING /tmp/ccGTdBzt.s 			page 2


  25:include/Mesh.h ****         double get_east_x( int i) {return east_x[i];};
  26:include/Mesh.h ****         double get_east_y( int i) {return east_y[i];};
  27:include/Mesh.h ****         double get_east_z( int i) {return east_z[i];};
  28:include/Mesh.h ****         double get_west_x( int i) {return west_x[i];};
  29:include/Mesh.h ****         double get_west_y( int i) {return west_y[i];};
  30:include/Mesh.h ****         double get_west_z( int i) {return west_z[i];};
  31:include/Mesh.h ****         double get_south_x( int i) {return south_x[i];};
  32:include/Mesh.h ****         double get_south_y( int i) {return south_y[i];};
  33:include/Mesh.h ****         double get_south_z( int i) {return south_z[i];};
  34:include/Mesh.h ****         double get_n_area( int i) {return n_area[i];};
  35:include/Mesh.h ****         double get_s_area( int i) {return s_area[i];};
  36:include/Mesh.h ****         double get_w_area( int i) {return w_area[i];};
  37:include/Mesh.h ****         double get_e_area( int i) {return e_area[i];};
  38:include/Mesh.h ****         double get_n_i( int i) {return n_i[i];};
  39:include/Mesh.h ****         double get_n_j( int i) {return n_j[i];};
  40:include/Mesh.h ****         double get_n_k( int i) {return n_k[i];};
  41:include/Mesh.h ****         double get_s_i( int i) {return s_i[i];};
  42:include/Mesh.h ****         double get_s_j( int i) {return s_j[i];};
  43:include/Mesh.h ****         double get_s_k( int i) {return s_k[i];};
  44:include/Mesh.h ****         double get_w_i( int i) {return w_i[i];};
  45:include/Mesh.h ****         double get_w_j( int i) {return w_j[i];};
  46:include/Mesh.h ****         double get_w_k( int i) {return w_k[i];};
  47:include/Mesh.h ****         double get_e_i( int i) {return e_i[i];};
  48:include/Mesh.h ****         double get_e_j( int i) {return e_j[i];};
  49:include/Mesh.h ****         double get_e_k( int i) {return e_k[i];};
  50:include/Mesh.h ****         double get_delta_t( int i) {return delta_t[i];};
  51:include/Mesh.h ****         int get_n_node( int i) {return n_node[i];};
  39              		.loc 1 51 0
  40              		.cfi_startproc
  41 0000 55       		pushq	%rbp
  42              		.cfi_def_cfa_offset 16
  43              		.cfi_offset 6, -16
  44 0001 4889E5   		movq	%rsp, %rbp
  45              		.cfi_def_cfa_register 6
  46 0004 48897DF8 		movq	%rdi, -8(%rbp)
  47 0008 8975F4   		movl	%esi, -12(%rbp)
  48              		.loc 1 51 0
  49 000b 488B45F8 		movq	-8(%rbp), %rax
  50 000f 488B8050 		movq	336(%rax), %rax
  50      010000
  51 0016 8B55F4   		movl	-12(%rbp), %edx
  52 0019 4863D2   		movslq	%edx, %rdx
  53 001c 48C1E202 		salq	$2, %rdx
  54 0020 4801D0   		addq	%rdx, %rax
  55 0023 8B00     		movl	(%rax), %eax
  56 0025 5D       		popq	%rbp
  57              		.cfi_def_cfa 7, 8
  58 0026 C3       		ret
  59              		.cfi_endproc
  60              	.LFE913:
  62              		.section	.text._ZN4Mesh10get_s_nodeEi,"axG",@progbits,_ZN4Mesh10get_s_nodeEi,comdat
  63              		.align 2
  64              		.weak	_ZN4Mesh10get_s_nodeEi
  66              	_ZN4Mesh10get_s_nodeEi:
  67              	.LFB914:
  52:include/Mesh.h ****         int get_s_node( int i) {return s_node[i];};
  68              		.loc 1 52 0
GAS LISTING /tmp/ccGTdBzt.s 			page 3


  69              		.cfi_startproc
  70 0000 55       		pushq	%rbp
  71              		.cfi_def_cfa_offset 16
  72              		.cfi_offset 6, -16
  73 0001 4889E5   		movq	%rsp, %rbp
  74              		.cfi_def_cfa_register 6
  75 0004 48897DF8 		movq	%rdi, -8(%rbp)
  76 0008 8975F4   		movl	%esi, -12(%rbp)
  77              		.loc 1 52 0
  78 000b 488B45F8 		movq	-8(%rbp), %rax
  79 000f 488B8058 		movq	344(%rax), %rax
  79      010000
  80 0016 8B55F4   		movl	-12(%rbp), %edx
  81 0019 4863D2   		movslq	%edx, %rdx
  82 001c 48C1E202 		salq	$2, %rdx
  83 0020 4801D0   		addq	%rdx, %rax
  84 0023 8B00     		movl	(%rax), %eax
  85 0025 5D       		popq	%rbp
  86              		.cfi_def_cfa 7, 8
  87 0026 C3       		ret
  88              		.cfi_endproc
  89              	.LFE914:
  91              		.section	.text._ZN4Mesh10get_e_nodeEi,"axG",@progbits,_ZN4Mesh10get_e_nodeEi,comdat
  92              		.align 2
  93              		.weak	_ZN4Mesh10get_e_nodeEi
  95              	_ZN4Mesh10get_e_nodeEi:
  96              	.LFB915:
  53:include/Mesh.h ****         int get_e_node( int i) {return e_node[i];};
  97              		.loc 1 53 0
  98              		.cfi_startproc
  99 0000 55       		pushq	%rbp
 100              		.cfi_def_cfa_offset 16
 101              		.cfi_offset 6, -16
 102 0001 4889E5   		movq	%rsp, %rbp
 103              		.cfi_def_cfa_register 6
 104 0004 48897DF8 		movq	%rdi, -8(%rbp)
 105 0008 8975F4   		movl	%esi, -12(%rbp)
 106              		.loc 1 53 0
 107 000b 488B45F8 		movq	-8(%rbp), %rax
 108 000f 488B8060 		movq	352(%rax), %rax
 108      010000
 109 0016 8B55F4   		movl	-12(%rbp), %edx
 110 0019 4863D2   		movslq	%edx, %rdx
 111 001c 48C1E202 		salq	$2, %rdx
 112 0020 4801D0   		addq	%rdx, %rax
 113 0023 8B00     		movl	(%rax), %eax
 114 0025 5D       		popq	%rbp
 115              		.cfi_def_cfa 7, 8
 116 0026 C3       		ret
 117              		.cfi_endproc
 118              	.LFE915:
 120              		.section	.text._ZN4Mesh10get_w_nodeEi,"axG",@progbits,_ZN4Mesh10get_w_nodeEi,comdat
 121              		.align 2
 122              		.weak	_ZN4Mesh10get_w_nodeEi
 124              	_ZN4Mesh10get_w_nodeEi:
 125              	.LFB916:
  54:include/Mesh.h ****         int get_w_node( int i) {return w_node[i];};
GAS LISTING /tmp/ccGTdBzt.s 			page 4


 126              		.loc 1 54 0
 127              		.cfi_startproc
 128 0000 55       		pushq	%rbp
 129              		.cfi_def_cfa_offset 16
 130              		.cfi_offset 6, -16
 131 0001 4889E5   		movq	%rsp, %rbp
 132              		.cfi_def_cfa_register 6
 133 0004 48897DF8 		movq	%rdi, -8(%rbp)
 134 0008 8975F4   		movl	%esi, -12(%rbp)
 135              		.loc 1 54 0
 136 000b 488B45F8 		movq	-8(%rbp), %rax
 137 000f 488B8068 		movq	360(%rax), %rax
 137      010000
 138 0016 8B55F4   		movl	-12(%rbp), %edx
 139 0019 4863D2   		movslq	%edx, %rdx
 140 001c 48C1E202 		salq	$2, %rdx
 141 0020 4801D0   		addq	%rdx, %rax
 142 0023 8B00     		movl	(%rax), %eax
 143 0025 5D       		popq	%rbp
 144              		.cfi_def_cfa 7, 8
 145 0026 C3       		ret
 146              		.cfi_endproc
 147              	.LFE916:
 149              		.section	.text._ZN19Boundary_Conditions6get_bcEi,"axG",@progbits,_ZN19Boundary_Conditions6get_bcEi
 150              		.align 2
 151              		.weak	_ZN19Boundary_Conditions6get_bcEi
 153              	_ZN19Boundary_Conditions6get_bcEi:
 154              	.LFB922:
 155              		.file 2 "include/Boundary_Conditions.h"
   1:include/Boundary_Conditions.h **** #include "quad_bcs.h"
   2:include/Boundary_Conditions.h **** #include "quad_bcs_plus.h"
   3:include/Boundary_Conditions.h **** 
   4:include/Boundary_Conditions.h **** #ifndef BOUNDARY_CONDITIONS_H
   5:include/Boundary_Conditions.h **** #define BOUNDARY_CONDITIONS_H
   6:include/Boundary_Conditions.h **** 
   7:include/Boundary_Conditions.h **** 
   8:include/Boundary_Conditions.h **** class Boundary_Conditions
   9:include/Boundary_Conditions.h **** {
  10:include/Boundary_Conditions.h ****     public:
  11:include/Boundary_Conditions.h ****         Boundary_Conditions(int num_x, int num_y);
  12:include/Boundary_Conditions.h ****         virtual ~Boundary_Conditions();
  13:include/Boundary_Conditions.h ****         void assign_boundary_conditions(int num_x, int num_y, quad_bcs);
  14:include/Boundary_Conditions.h ****         void assign_boundary_conditions(int num_x, int num_y, quad_bcs_plus _bc);
  15:include/Boundary_Conditions.h ****         bool get_bc( int i) {return bc[i];};
 156              		.loc 2 15 0
 157              		.cfi_startproc
 158 0000 55       		pushq	%rbp
 159              		.cfi_def_cfa_offset 16
 160              		.cfi_offset 6, -16
 161 0001 4889E5   		movq	%rsp, %rbp
 162              		.cfi_def_cfa_register 6
 163 0004 48897DF8 		movq	%rdi, -8(%rbp)
 164 0008 8975F4   		movl	%esi, -12(%rbp)
 165              		.loc 2 15 0
 166 000b 488B45F8 		movq	-8(%rbp), %rax
 167 000f 488B5008 		movq	8(%rax), %rdx
 168 0013 8B45F4   		movl	-12(%rbp), %eax
GAS LISTING /tmp/ccGTdBzt.s 			page 5


 169 0016 4898     		cltq
 170 0018 4801D0   		addq	%rdx, %rax
 171 001b 0FB600   		movzbl	(%rax), %eax
 172 001e 5D       		popq	%rbp
 173              		.cfi_def_cfa 7, 8
 174 001f C3       		ret
 175              		.cfi_endproc
 176              	.LFE922:
 178              		.section	.text._ZN8Solution7get_rhoEi,"axG",@progbits,_ZN8Solution7get_rhoEi,comdat
 179              		.align 2
 180              		.weak	_ZN8Solution7get_rhoEi
 182              	_ZN8Solution7get_rhoEi:
 183              	.LFB931:
 184              		.file 3 "include/Solution.h"
   1:include/Solution.h **** #include "Mesh.h"
   2:include/Solution.h **** #include "vector_var.h"
   3:include/Solution.h **** #include <string>
   4:include/Solution.h **** #include "global_variables.h"
   5:include/Solution.h **** #include "domain_geometry.h"
   6:include/Solution.h **** #include <Boundary_Conditions.h>
   7:include/Solution.h **** #include "initial_conditions.h"
   8:include/Solution.h **** #ifndef SOLUTION_H
   9:include/Solution.h **** #define SOLUTION_H
  10:include/Solution.h **** 
  11:include/Solution.h **** 
  12:include/Solution.h **** class Solution
  13:include/Solution.h **** {
  14:include/Solution.h ****     public:
  15:include/Solution.h ****         Solution(int _total_nodes);
  16:include/Solution.h ****         Solution();
  17:include/Solution.h ****         virtual ~Solution();
  18:include/Solution.h ****         double get_rho( int i) {return rho[i];};
 185              		.loc 3 18 0
 186              		.cfi_startproc
 187 0000 55       		pushq	%rbp
 188              		.cfi_def_cfa_offset 16
 189              		.cfi_offset 6, -16
 190 0001 4889E5   		movq	%rsp, %rbp
 191              		.cfi_def_cfa_register 6
 192 0004 48897DF8 		movq	%rdi, -8(%rbp)
 193 0008 8975F4   		movl	%esi, -12(%rbp)
 194              		.loc 3 18 0
 195 000b 488B45F8 		movq	-8(%rbp), %rax
 196 000f 488B4008 		movq	8(%rax), %rax
 197 0013 8B55F4   		movl	-12(%rbp), %edx
 198 0016 4863D2   		movslq	%edx, %rdx
 199 0019 48C1E203 		salq	$3, %rdx
 200 001d 4801D0   		addq	%rdx, %rax
 201 0020 F20F1000 		movsd	(%rax), %xmm0
 202 0024 5D       		popq	%rbp
 203              		.cfi_def_cfa 7, 8
 204 0025 C3       		ret
 205              		.cfi_endproc
 206              	.LFE931:
 208              		.section	.text._ZN8Solution5get_uEi,"axG",@progbits,_ZN8Solution5get_uEi,comdat
 209              		.align 2
 210              		.weak	_ZN8Solution5get_uEi
GAS LISTING /tmp/ccGTdBzt.s 			page 6


 212              	_ZN8Solution5get_uEi:
 213              	.LFB932:
  19:include/Solution.h ****         double get_u( int i) {return u[i];};
 214              		.loc 3 19 0
 215              		.cfi_startproc
 216 0000 55       		pushq	%rbp
 217              		.cfi_def_cfa_offset 16
 218              		.cfi_offset 6, -16
 219 0001 4889E5   		movq	%rsp, %rbp
 220              		.cfi_def_cfa_register 6
 221 0004 48897DF8 		movq	%rdi, -8(%rbp)
 222 0008 8975F4   		movl	%esi, -12(%rbp)
 223              		.loc 3 19 0
 224 000b 488B45F8 		movq	-8(%rbp), %rax
 225 000f 488B4010 		movq	16(%rax), %rax
 226 0013 8B55F4   		movl	-12(%rbp), %edx
 227 0016 4863D2   		movslq	%edx, %rdx
 228 0019 48C1E203 		salq	$3, %rdx
 229 001d 4801D0   		addq	%rdx, %rax
 230 0020 F20F1000 		movsd	(%rax), %xmm0
 231 0024 5D       		popq	%rbp
 232              		.cfi_def_cfa 7, 8
 233 0025 C3       		ret
 234              		.cfi_endproc
 235              	.LFE932:
 237              		.section	.text._ZN8Solution5get_vEi,"axG",@progbits,_ZN8Solution5get_vEi,comdat
 238              		.align 2
 239              		.weak	_ZN8Solution5get_vEi
 241              	_ZN8Solution5get_vEi:
 242              	.LFB933:
  20:include/Solution.h ****         double get_v( int i) {return v[i];};
 243              		.loc 3 20 0
 244              		.cfi_startproc
 245 0000 55       		pushq	%rbp
 246              		.cfi_def_cfa_offset 16
 247              		.cfi_offset 6, -16
 248 0001 4889E5   		movq	%rsp, %rbp
 249              		.cfi_def_cfa_register 6
 250 0004 48897DF8 		movq	%rdi, -8(%rbp)
 251 0008 8975F4   		movl	%esi, -12(%rbp)
 252              		.loc 3 20 0
 253 000b 488B45F8 		movq	-8(%rbp), %rax
 254 000f 488B4018 		movq	24(%rax), %rax
 255 0013 8B55F4   		movl	-12(%rbp), %edx
 256 0016 4863D2   		movslq	%edx, %rdx
 257 0019 48C1E203 		salq	$3, %rdx
 258 001d 4801D0   		addq	%rdx, %rax
 259 0020 F20F1000 		movsd	(%rax), %xmm0
 260 0024 5D       		popq	%rbp
 261              		.cfi_def_cfa 7, 8
 262 0025 C3       		ret
 263              		.cfi_endproc
 264              	.LFE933:
 266              		.section	.text._ZN8Solution5get_wEi,"axG",@progbits,_ZN8Solution5get_wEi,comdat
 267              		.align 2
 268              		.weak	_ZN8Solution5get_wEi
 270              	_ZN8Solution5get_wEi:
GAS LISTING /tmp/ccGTdBzt.s 			page 7


 271              	.LFB934:
  21:include/Solution.h ****         double get_w( int i) {return w[i];};
 272              		.loc 3 21 0
 273              		.cfi_startproc
 274 0000 55       		pushq	%rbp
 275              		.cfi_def_cfa_offset 16
 276              		.cfi_offset 6, -16
 277 0001 4889E5   		movq	%rsp, %rbp
 278              		.cfi_def_cfa_register 6
 279 0004 48897DF8 		movq	%rdi, -8(%rbp)
 280 0008 8975F4   		movl	%esi, -12(%rbp)
 281              		.loc 3 21 0
 282 000b 488B45F8 		movq	-8(%rbp), %rax
 283 000f 488B4020 		movq	32(%rax), %rax
 284 0013 8B55F4   		movl	-12(%rbp), %edx
 285 0016 4863D2   		movslq	%edx, %rdx
 286 0019 48C1E203 		salq	$3, %rdx
 287 001d 4801D0   		addq	%rdx, %rax
 288 0020 F20F1000 		movsd	(%rax), %xmm0
 289 0024 5D       		popq	%rbp
 290              		.cfi_def_cfa 7, 8
 291 0025 C3       		ret
 292              		.cfi_endproc
 293              	.LFE934:
 295              		.text
 296              		.align 2
 297              		.globl	_ZN22artificial_dissipationC2Ev
 299              	_ZN22artificial_dissipationC2Ev:
 300              	.LFB6195:
 301              		.file 4 "/home/brendan/Dropbox/PhD/Code/LBM/2D LBFS/src/artificial_dissipation.cpp"
   1:/home/brendan/Dropbox/PhD/Code/LBM/2D LBFS/src/artificial_dissipation.cpp **** #include "artificial_dissipation.h"
   2:/home/brendan/Dropbox/PhD/Code/LBM/2D LBFS/src/artificial_dissipation.cpp **** #include <stdlib.h>
   3:/home/brendan/Dropbox/PhD/Code/LBM/2D LBFS/src/artificial_dissipation.cpp **** #include <math.h>
   4:/home/brendan/Dropbox/PhD/Code/LBM/2D LBFS/src/artificial_dissipation.cpp **** #include <vector>
   5:/home/brendan/Dropbox/PhD/Code/LBM/2D LBFS/src/artificial_dissipation.cpp **** #include <algorithm>
   6:/home/brendan/Dropbox/PhD/Code/LBM/2D LBFS/src/artificial_dissipation.cpp **** 
   7:/home/brendan/Dropbox/PhD/Code/LBM/2D LBFS/src/artificial_dissipation.cpp **** 
   8:/home/brendan/Dropbox/PhD/Code/LBM/2D LBFS/src/artificial_dissipation.cpp **** artificial_dissipation::artificial_dissipation()
 302              		.loc 4 8 0
 303              		.cfi_startproc
 304 0000 55       		pushq	%rbp
 305              		.cfi_def_cfa_offset 16
 306              		.cfi_offset 6, -16
 307 0001 4889E5   		movq	%rsp, %rbp
 308              		.cfi_def_cfa_register 6
 309 0004 4883EC10 		subq	$16, %rsp
 310 0008 48897DF8 		movq	%rdi, -8(%rbp)
 311              	.LBB2:
 312              		.loc 4 8 0
 313 000c BA000000 		movl	$_ZTV22artificial_dissipation+16, %edx
 313      00
 314 0011 488B45F8 		movq	-8(%rbp), %rax
 315 0015 488910   		movq	%rdx, (%rax)
 316 0018 488B45F8 		movq	-8(%rbp), %rax
 317 001c 4883C070 		addq	$112, %rax
 318 0020 4889C7   		movq	%rax, %rdi
 319 0023 E8000000 		call	_ZN8flux_varC1Ev
GAS LISTING /tmp/ccGTdBzt.s 			page 8


 319      00
 320              	.LBE2:
   9:/home/brendan/Dropbox/PhD/Code/LBM/2D LBFS/src/artificial_dissipation.cpp **** {
  10:/home/brendan/Dropbox/PhD/Code/LBM/2D LBFS/src/artificial_dissipation.cpp ****     //ctor
  11:/home/brendan/Dropbox/PhD/Code/LBM/2D LBFS/src/artificial_dissipation.cpp **** }
 321              		.loc 4 11 0
 322 0028 90       		nop
 323 0029 C9       		leave
 324              		.cfi_def_cfa 7, 8
 325 002a C3       		ret
 326              		.cfi_endproc
 327              	.LFE6195:
 329              		.globl	_ZN22artificial_dissipationC1Ev
 330              		.set	_ZN22artificial_dissipationC1Ev,_ZN22artificial_dissipationC2Ev
 331 002b 90       		.align 2
 332              		.globl	_ZN22artificial_dissipationC2EiR16global_variables
 334              	_ZN22artificial_dissipationC2EiR16global_variables:
 335              	.LFB6198:
  12:/home/brendan/Dropbox/PhD/Code/LBM/2D LBFS/src/artificial_dissipation.cpp **** artificial_dissipation::artificial_dissipation(int total_nodes, global_variables &globals)
 336              		.loc 4 12 0
 337              		.cfi_startproc
 338              		.cfi_personality 0x3,__gxx_personality_v0
 339              		.cfi_lsda 0x3,.LLSDA6198
 340 002c 55       		pushq	%rbp
 341              		.cfi_def_cfa_offset 16
 342              		.cfi_offset 6, -16
 343 002d 4889E5   		movq	%rsp, %rbp
 344              		.cfi_def_cfa_register 6
 345 0030 53       		pushq	%rbx
 346 0031 4883EC28 		subq	$40, %rsp
 347              		.cfi_offset 3, -24
 348 0035 48897DE8 		movq	%rdi, -24(%rbp)
 349 0039 8975E4   		movl	%esi, -28(%rbp)
 350 003c 488955D8 		movq	%rdx, -40(%rbp)
 351              	.LBB3:
 352              		.loc 4 12 0
 353 0040 BA000000 		movl	$_ZTV22artificial_dissipation+16, %edx
 353      00
 354 0045 488B45E8 		movq	-24(%rbp), %rax
 355 0049 488910   		movq	%rdx, (%rax)
 356 004c 488B45E8 		movq	-24(%rbp), %rax
 357 0050 4883C070 		addq	$112, %rax
 358 0054 4889C7   		movq	%rax, %rdi
 359              	.LEHB0:
 360 0057 E8000000 		call	_ZN8flux_varC1Ev
 360      00
 361              	.LEHE0:
  13:/home/brendan/Dropbox/PhD/Code/LBM/2D LBFS/src/artificial_dissipation.cpp **** {
  14:/home/brendan/Dropbox/PhD/Code/LBM/2D LBFS/src/artificial_dissipation.cpp ****     //ctor
  15:/home/brendan/Dropbox/PhD/Code/LBM/2D LBFS/src/artificial_dissipation.cpp ****      global_JST_switch_x = new double [total_nodes +1];
 362              		.loc 4 15 0
 363 005c 8B45E4   		movl	-28(%rbp), %eax
 364 005f 83C001   		addl	$1, %eax
 365 0062 4898     		cltq
 366 0064 48BA0000 		movabsq	$1143914305352105984, %rdx
 366      00000000 
 366      E00F
GAS LISTING /tmp/ccGTdBzt.s 			page 9


 367 006e 4839D0   		cmpq	%rdx, %rax
 368 0071 770E     		ja	.L23
 369              		.loc 4 15 0 is_stmt 0 discriminator 1
 370 0073 48C1E003 		salq	$3, %rax
 371 0077 4889C7   		movq	%rax, %rdi
 372              	.LEHB1:
 373 007a E8000000 		call	_Znam
 373      00
 374 007f EB05     		jmp	.L31
 375              	.L23:
 376              		.loc 4 15 0 discriminator 2
 377 0081 E8000000 		call	__cxa_throw_bad_array_new_length
 377      00
 378              	.L31:
 379              		.loc 4 15 0 discriminator 3
 380 0086 4889C2   		movq	%rax, %rdx
 381 0089 488B45E8 		movq	-24(%rbp), %rax
 382 008d 48895008 		movq	%rdx, 8(%rax)
  16:/home/brendan/Dropbox/PhD/Code/LBM/2D LBFS/src/artificial_dissipation.cpp ****         if (global_JST_switch_x==NULL) exit (1);
 383              		.loc 4 16 0 is_stmt 1 discriminator 3
 384 0091 488B45E8 		movq	-24(%rbp), %rax
 385 0095 488B4008 		movq	8(%rax), %rax
 386 0099 4885C0   		testq	%rax, %rax
 387 009c 750A     		jne	.L25
 388              		.loc 4 16 0 is_stmt 0 discriminator 1
 389 009e BF010000 		movl	$1, %edi
 389      00
 390 00a3 E8000000 		call	exit
 390      00
 391              	.L25:
  17:/home/brendan/Dropbox/PhD/Code/LBM/2D LBFS/src/artificial_dissipation.cpp ****     global_JST_switch_y = new double [total_nodes +1];
 392              		.loc 4 17 0 is_stmt 1
 393 00a8 8B45E4   		movl	-28(%rbp), %eax
 394 00ab 83C001   		addl	$1, %eax
 395 00ae 4898     		cltq
 396 00b0 48BA0000 		movabsq	$1143914305352105984, %rdx
 396      00000000 
 396      E00F
 397 00ba 4839D0   		cmpq	%rdx, %rax
 398 00bd 770E     		ja	.L26
 399              		.loc 4 17 0 is_stmt 0 discriminator 1
 400 00bf 48C1E003 		salq	$3, %rax
 401 00c3 4889C7   		movq	%rax, %rdi
 402 00c6 E8000000 		call	_Znam
 402      00
 403 00cb EB05     		jmp	.L32
 404              	.L26:
 405              		.loc 4 17 0 discriminator 2
 406 00cd E8000000 		call	__cxa_throw_bad_array_new_length
 406      00
 407              	.LEHE1:
 408              	.L32:
 409              		.loc 4 17 0 discriminator 3
 410 00d2 4889C2   		movq	%rax, %rdx
 411 00d5 488B45E8 		movq	-24(%rbp), %rax
 412 00d9 48895010 		movq	%rdx, 16(%rax)
  18:/home/brendan/Dropbox/PhD/Code/LBM/2D LBFS/src/artificial_dissipation.cpp ****     if (global_JST_switch_y==NULL) exit (1);
GAS LISTING /tmp/ccGTdBzt.s 			page 10


 413              		.loc 4 18 0 is_stmt 1 discriminator 3
 414 00dd 488B45E8 		movq	-24(%rbp), %rax
 415 00e1 488B4010 		movq	16(%rax), %rax
 416 00e5 4885C0   		testq	%rax, %rax
 417 00e8 750A     		jne	.L28
 418              		.loc 4 18 0 is_stmt 0 discriminator 1
 419 00ea BF010000 		movl	$1, %edi
 419      00
 420 00ef E8000000 		call	exit
 420      00
 421              	.L28:
  19:/home/brendan/Dropbox/PhD/Code/LBM/2D LBFS/src/artificial_dissipation.cpp **** 
  20:/home/brendan/Dropbox/PhD/Code/LBM/2D LBFS/src/artificial_dissipation.cpp ****     martinelli_exponent = globals.martinelli;
 422              		.loc 4 20 0 is_stmt 1
 423 00f4 488B45D8 		movq	-40(%rbp), %rax
 424 00f8 F20F1040 		movsd	120(%rax), %xmm0
 424      78
 425 00fd 488B45E8 		movq	-24(%rbp), %rax
 426 0101 F20F1140 		movsd	%xmm0, 104(%rax)
 426      68
  21:/home/brendan/Dropbox/PhD/Code/LBM/2D LBFS/src/artificial_dissipation.cpp ****     kappa_2 = globals.arti_disp_kappa_2;
 427              		.loc 4 21 0
 428 0106 488B45D8 		movq	-40(%rbp), %rax
 429 010a F20F1040 		movsd	104(%rax), %xmm0
 429      68
 430 010f 488B45E8 		movq	-24(%rbp), %rax
 431 0113 F20F1140 		movsd	%xmm0, 40(%rax)
 431      28
  22:/home/brendan/Dropbox/PhD/Code/LBM/2D LBFS/src/artificial_dissipation.cpp ****     kappa_4 = globals.arti_disp_kappa_4;
 432              		.loc 4 22 0
 433 0118 488B45D8 		movq	-40(%rbp), %rax
 434 011c F20F1040 		movsd	112(%rax), %xmm0
 434      70
 435 0121 488B45E8 		movq	-24(%rbp), %rax
 436 0125 F20F1140 		movsd	%xmm0, 48(%rax)
 436      30
 437              	.LBE3:
  23:/home/brendan/Dropbox/PhD/Code/LBM/2D LBFS/src/artificial_dissipation.cpp **** 
  24:/home/brendan/Dropbox/PhD/Code/LBM/2D LBFS/src/artificial_dissipation.cpp **** }
 438              		.loc 4 24 0
 439 012a EB1E     		jmp	.L33
 440              	.L30:
 441 012c 4889C3   		movq	%rax, %rbx
 442              	.LBB4:
  12:/home/brendan/Dropbox/PhD/Code/LBM/2D LBFS/src/artificial_dissipation.cpp **** {
 443              		.loc 4 12 0
 444 012f 488B45E8 		movq	-24(%rbp), %rax
 445 0133 4883C070 		addq	$112, %rax
 446 0137 4889C7   		movq	%rax, %rdi
 447 013a E8000000 		call	_ZN8flux_varD1Ev
 447      00
 448 013f 4889D8   		movq	%rbx, %rax
 449 0142 4889C7   		movq	%rax, %rdi
 450              	.LEHB2:
 451 0145 E8000000 		call	_Unwind_Resume
 451      00
 452              	.LEHE2:
GAS LISTING /tmp/ccGTdBzt.s 			page 11


 453              	.L33:
 454              	.LBE4:
 455              		.loc 4 24 0
 456 014a 4883C428 		addq	$40, %rsp
 457 014e 5B       		popq	%rbx
 458 014f 5D       		popq	%rbp
 459              		.cfi_def_cfa 7, 8
 460 0150 C3       		ret
 461              		.cfi_endproc
 462              	.LFE6198:
 463              		.globl	__gxx_personality_v0
 464              		.section	.gcc_except_table,"a",@progbits
 465              	.LLSDA6198:
 466 0000 FF       		.byte	0xff
 467 0001 FF       		.byte	0xff
 468 0002 01       		.byte	0x1
 469 0003 0E       		.uleb128 .LLSDACSE6198-.LLSDACSB6198
 470              	.LLSDACSB6198:
 471 0004 2B       		.uleb128 .LEHB0-.LFB6198
 472 0005 05       		.uleb128 .LEHE0-.LEHB0
 473 0006 00       		.uleb128 0
 474 0007 00       		.uleb128 0
 475 0008 4E       		.uleb128 .LEHB1-.LFB6198
 476 0009 58       		.uleb128 .LEHE1-.LEHB1
 477 000a 8002     		.uleb128 .L30-.LFB6198
 478 000c 00       		.uleb128 0
 479 000d 9902     		.uleb128 .LEHB2-.LFB6198
 480 000f 05       		.uleb128 .LEHE2-.LEHB2
 481 0010 00       		.uleb128 0
 482 0011 00       		.uleb128 0
 483              	.LLSDACSE6198:
 484              		.text
 486              		.globl	_ZN22artificial_dissipationC1EiR16global_variables
 487              		.set	_ZN22artificial_dissipationC1EiR16global_variables,_ZN22artificial_dissipationC2EiR16global_v
 488 0151 90       		.align 2
 489              		.globl	_ZN22artificial_dissipationD2Ev
 491              	_ZN22artificial_dissipationD2Ev:
 492              	.LFB6201:
  25:/home/brendan/Dropbox/PhD/Code/LBM/2D LBFS/src/artificial_dissipation.cpp **** 
  26:/home/brendan/Dropbox/PhD/Code/LBM/2D LBFS/src/artificial_dissipation.cpp **** artificial_dissipation::~artificial_dissipation()
 493              		.loc 4 26 0
 494              		.cfi_startproc
 495 0152 55       		pushq	%rbp
 496              		.cfi_def_cfa_offset 16
 497              		.cfi_offset 6, -16
 498 0153 4889E5   		movq	%rsp, %rbp
 499              		.cfi_def_cfa_register 6
 500 0156 4883EC10 		subq	$16, %rsp
 501 015a 48897DF8 		movq	%rdi, -8(%rbp)
 502              	.LBB5:
 503              		.loc 4 26 0
 504 015e BA000000 		movl	$_ZTV22artificial_dissipation+16, %edx
 504      00
 505 0163 488B45F8 		movq	-8(%rbp), %rax
 506 0167 488910   		movq	%rdx, (%rax)
  27:/home/brendan/Dropbox/PhD/Code/LBM/2D LBFS/src/artificial_dissipation.cpp **** {
  28:/home/brendan/Dropbox/PhD/Code/LBM/2D LBFS/src/artificial_dissipation.cpp ****     //dtor
GAS LISTING /tmp/ccGTdBzt.s 			page 12


  29:/home/brendan/Dropbox/PhD/Code/LBM/2D LBFS/src/artificial_dissipation.cpp ****     delete [] (global_JST_switch_x);
 507              		.loc 4 29 0
 508 016a 488B45F8 		movq	-8(%rbp), %rax
 509 016e 488B4008 		movq	8(%rax), %rax
 510 0172 4885C0   		testq	%rax, %rax
 511 0175 7410     		je	.L35
 512              		.loc 4 29 0 is_stmt 0 discriminator 1
 513 0177 488B45F8 		movq	-8(%rbp), %rax
 514 017b 488B4008 		movq	8(%rax), %rax
 515 017f 4889C7   		movq	%rax, %rdi
 516 0182 E8000000 		call	_ZdaPv
 516      00
 517              	.L35:
  30:/home/brendan/Dropbox/PhD/Code/LBM/2D LBFS/src/artificial_dissipation.cpp ****     global_JST_switch_x = NULL;
 518              		.loc 4 30 0 is_stmt 1
 519 0187 488B45F8 		movq	-8(%rbp), %rax
 520 018b 48C74008 		movq	$0, 8(%rax)
 520      00000000 
  31:/home/brendan/Dropbox/PhD/Code/LBM/2D LBFS/src/artificial_dissipation.cpp ****     delete [] (global_JST_switch_y);
 521              		.loc 4 31 0
 522 0193 488B45F8 		movq	-8(%rbp), %rax
 523 0197 488B4010 		movq	16(%rax), %rax
 524 019b 4885C0   		testq	%rax, %rax
 525 019e 7410     		je	.L36
 526              		.loc 4 31 0 is_stmt 0 discriminator 1
 527 01a0 488B45F8 		movq	-8(%rbp), %rax
 528 01a4 488B4010 		movq	16(%rax), %rax
 529 01a8 4889C7   		movq	%rax, %rdi
 530 01ab E8000000 		call	_ZdaPv
 530      00
 531              	.L36:
  32:/home/brendan/Dropbox/PhD/Code/LBM/2D LBFS/src/artificial_dissipation.cpp ****     global_JST_switch_y = NULL;
 532              		.loc 4 32 0 is_stmt 1
 533 01b0 488B45F8 		movq	-8(%rbp), %rax
 534 01b4 48C74010 		movq	$0, 16(%rax)
 534      00000000 
  26:/home/brendan/Dropbox/PhD/Code/LBM/2D LBFS/src/artificial_dissipation.cpp **** {
 535              		.loc 4 26 0
 536 01bc 488B45F8 		movq	-8(%rbp), %rax
 537 01c0 4883C070 		addq	$112, %rax
 538 01c4 4889C7   		movq	%rax, %rdi
 539 01c7 E8000000 		call	_ZN8flux_varD1Ev
 539      00
 540              	.LBE5:
  33:/home/brendan/Dropbox/PhD/Code/LBM/2D LBFS/src/artificial_dissipation.cpp **** 
  34:/home/brendan/Dropbox/PhD/Code/LBM/2D LBFS/src/artificial_dissipation.cpp **** }
 541              		.loc 4 34 0
 542 01cc B8000000 		movl	$0, %eax
 542      00
 543 01d1 85C0     		testl	%eax, %eax
 544 01d3 740C     		je	.L34
 545              		.loc 4 34 0 is_stmt 0 discriminator 1
 546 01d5 488B45F8 		movq	-8(%rbp), %rax
 547 01d9 4889C7   		movq	%rax, %rdi
 548 01dc E8000000 		call	_ZdlPv
 548      00
 549              	.L34:
GAS LISTING /tmp/ccGTdBzt.s 			page 13


 550              		.loc 4 34 0
 551 01e1 C9       		leave
 552              		.cfi_def_cfa 7, 8
 553 01e2 C3       		ret
 554              		.cfi_endproc
 555              	.LFE6201:
 557              		.globl	_ZN22artificial_dissipationD1Ev
 558              		.set	_ZN22artificial_dissipationD1Ev,_ZN22artificial_dissipationD2Ev
 559 01e3 90       		.align 2
 560              		.globl	_ZN22artificial_dissipationD0Ev
 562              	_ZN22artificial_dissipationD0Ev:
 563              	.LFB6203:
  26:/home/brendan/Dropbox/PhD/Code/LBM/2D LBFS/src/artificial_dissipation.cpp **** {
 564              		.loc 4 26 0 is_stmt 1
 565              		.cfi_startproc
 566 01e4 55       		pushq	%rbp
 567              		.cfi_def_cfa_offset 16
 568              		.cfi_offset 6, -16
 569 01e5 4889E5   		movq	%rsp, %rbp
 570              		.cfi_def_cfa_register 6
 571 01e8 4883EC10 		subq	$16, %rsp
 572 01ec 48897DF8 		movq	%rdi, -8(%rbp)
 573              		.loc 4 34 0
 574 01f0 488B45F8 		movq	-8(%rbp), %rax
 575 01f4 4889C7   		movq	%rax, %rdi
 576 01f7 E8000000 		call	_ZN22artificial_dissipationD1Ev
 576      00
 577 01fc 488B45F8 		movq	-8(%rbp), %rax
 578 0200 4889C7   		movq	%rax, %rdi
 579 0203 E8000000 		call	_ZdlPv
 579      00
 580 0208 C9       		leave
 581              		.cfi_def_cfa 7, 8
 582 0209 C3       		ret
 583              		.cfi_endproc
 584              	.LFE6203:
 586              		.align 2
 587              		.globl	_ZN22artificial_dissipation14get_global_jstER8SolutionR19Boundary_ConditionsR4MeshR15domain
 589              	_ZN22artificial_dissipation14get_global_jstER8SolutionR19Boundary_ConditionsR4MeshR15domain_geometr
 590              	.LFB6204:
  35:/home/brendan/Dropbox/PhD/Code/LBM/2D LBFS/src/artificial_dissipation.cpp **** 
  36:/home/brendan/Dropbox/PhD/Code/LBM/2D LBFS/src/artificial_dissipation.cpp **** void artificial_dissipation::get_global_jst(Solution &soln, Boundary_Conditions &bcs,
  37:/home/brendan/Dropbox/PhD/Code/LBM/2D LBFS/src/artificial_dissipation.cpp ****                                             Mesh &Mesh, domain_geometry &domain)
  38:/home/brendan/Dropbox/PhD/Code/LBM/2D LBFS/src/artificial_dissipation.cpp **** {
 591              		.loc 4 38 0
 592              		.cfi_startproc
 593 020a 55       		pushq	%rbp
 594              		.cfi_def_cfa_offset 16
 595              		.cfi_offset 6, -16
 596 020b 4889E5   		movq	%rsp, %rbp
 597              		.cfi_def_cfa_register 6
 598 020e 4883EC50 		subq	$80, %rsp
 599 0212 48897DD8 		movq	%rdi, -40(%rbp)
 600 0216 488975D0 		movq	%rsi, -48(%rbp)
 601 021a 488955C8 		movq	%rdx, -56(%rbp)
 602 021e 48894DC0 		movq	%rcx, -64(%rbp)
 603 0222 4C8945B8 		movq	%r8, -72(%rbp)
GAS LISTING /tmp/ccGTdBzt.s 			page 14


 604              	.LBB6:
  39:/home/brendan/Dropbox/PhD/Code/LBM/2D LBFS/src/artificial_dissipation.cpp ****     int neighbour;
  40:/home/brendan/Dropbox/PhD/Code/LBM/2D LBFS/src/artificial_dissipation.cpp **** 
  41:/home/brendan/Dropbox/PhD/Code/LBM/2D LBFS/src/artificial_dissipation.cpp ****     for(int i = 0; i < Mesh.get_total_cells(); i++){
 605              		.loc 4 41 0
 606 0226 C745E000 		movl	$0, -32(%rbp)
 606      000000
 607              	.L43:
 608              		.loc 4 41 0 is_stmt 0 discriminator 1
 609 022d 488B45C0 		movq	-64(%rbp), %rax
 610 0231 4889C7   		movq	%rax, %rdi
 611 0234 E8000000 		call	_ZN4Mesh15get_total_cellsEv
 611      00
 612 0239 3B45E0   		cmpl	-32(%rbp), %eax
 613 023c 0F9FC0   		setg	%al
 614 023f 84C0     		testb	%al, %al
 615 0241 0F84ED01 		je	.L44
 615      0000
 616              	.LBB7:
 617              	.LBB8:
  42:/home/brendan/Dropbox/PhD/Code/LBM/2D LBFS/src/artificial_dissipation.cpp **** 
  43:/home/brendan/Dropbox/PhD/Code/LBM/2D LBFS/src/artificial_dissipation.cpp ****         if (bcs.get_bc(i)){
 618              		.loc 4 43 0 is_stmt 1
 619 0247 8B55E0   		movl	-32(%rbp), %edx
 620 024a 488B45C8 		movq	-56(%rbp), %rax
 621 024e 89D6     		movl	%edx, %esi
 622 0250 4889C7   		movq	%rax, %rdi
 623 0253 E8000000 		call	_ZN19Boundary_Conditions6get_bcEi
 623      00
 624 0258 84C0     		testb	%al, %al
 625 025a 743F     		je	.L41
  44:/home/brendan/Dropbox/PhD/Code/LBM/2D LBFS/src/artificial_dissipation.cpp ****             global_JST_switch_x[i] = 0.0;
 626              		.loc 4 44 0
 627 025c 488B45D8 		movq	-40(%rbp), %rax
 628 0260 488B4008 		movq	8(%rax), %rax
 629 0264 8B55E0   		movl	-32(%rbp), %edx
 630 0267 4863D2   		movslq	%edx, %rdx
 631 026a 48C1E203 		salq	$3, %rdx
 632 026e 4801D0   		addq	%rdx, %rax
 633 0271 660FEFC0 		pxor	%xmm0, %xmm0
 634 0275 F20F1100 		movsd	%xmm0, (%rax)
  45:/home/brendan/Dropbox/PhD/Code/LBM/2D LBFS/src/artificial_dissipation.cpp ****              global_JST_switch_y[i] = 0.0;
 635              		.loc 4 45 0
 636 0279 488B45D8 		movq	-40(%rbp), %rax
 637 027d 488B4010 		movq	16(%rax), %rax
 638 0281 8B55E0   		movl	-32(%rbp), %edx
 639 0284 4863D2   		movslq	%edx, %rdx
 640 0287 48C1E203 		salq	$3, %rdx
 641 028b 4801D0   		addq	%rdx, %rax
 642 028e 660FEFC0 		pxor	%xmm0, %xmm0
 643 0292 F20F1100 		movsd	%xmm0, (%rax)
 644 0296 E9900100 		jmp	.L42
 644      00
 645              	.L41:
 646              	.LBB9:
  46:/home/brendan/Dropbox/PhD/Code/LBM/2D LBFS/src/artificial_dissipation.cpp **** 
  47:/home/brendan/Dropbox/PhD/Code/LBM/2D LBFS/src/artificial_dissipation.cpp ****         }else{
GAS LISTING /tmp/ccGTdBzt.s 			page 15


  48:/home/brendan/Dropbox/PhD/Code/LBM/2D LBFS/src/artificial_dissipation.cpp **** 
  49:/home/brendan/Dropbox/PhD/Code/LBM/2D LBFS/src/artificial_dissipation.cpp **** 
  50:/home/brendan/Dropbox/PhD/Code/LBM/2D LBFS/src/artificial_dissipation.cpp ****         //first go x-direction
  51:/home/brendan/Dropbox/PhD/Code/LBM/2D LBFS/src/artificial_dissipation.cpp ****         // m1 = minus 1
  52:/home/brendan/Dropbox/PhD/Code/LBM/2D LBFS/src/artificial_dissipation.cpp ****         //p1 = plus1
  53:/home/brendan/Dropbox/PhD/Code/LBM/2D LBFS/src/artificial_dissipation.cpp ****         // zero = current node
  54:/home/brendan/Dropbox/PhD/Code/LBM/2D LBFS/src/artificial_dissipation.cpp ****         double m1,p1,zero;
  55:/home/brendan/Dropbox/PhD/Code/LBM/2D LBFS/src/artificial_dissipation.cpp ****         neighbour = Mesh.get_w_node(i);
 647              		.loc 4 55 0
 648 029b 8B55E0   		movl	-32(%rbp), %edx
 649 029e 488B45C0 		movq	-64(%rbp), %rax
 650 02a2 89D6     		movl	%edx, %esi
 651 02a4 4889C7   		movq	%rax, %rdi
 652 02a7 E8000000 		call	_ZN4Mesh10get_w_nodeEi
 652      00
 653 02ac 8945E4   		movl	%eax, -28(%rbp)
  56:/home/brendan/Dropbox/PhD/Code/LBM/2D LBFS/src/artificial_dissipation.cpp ****         zero = soln.get_rho(i);
 654              		.loc 4 56 0
 655 02af 8B55E0   		movl	-32(%rbp), %edx
 656 02b2 488B45D0 		movq	-48(%rbp), %rax
 657 02b6 89D6     		movl	%edx, %esi
 658 02b8 4889C7   		movq	%rax, %rdi
 659 02bb E8000000 		call	_ZN8Solution7get_rhoEi
 659      00
 660 02c0 66480F7E 		movq	%xmm0, %rax
 660      C0
 661 02c5 488945E8 		movq	%rax, -24(%rbp)
  57:/home/brendan/Dropbox/PhD/Code/LBM/2D LBFS/src/artificial_dissipation.cpp ****         m1 = soln.get_rho(neighbour);
 662              		.loc 4 57 0
 663 02c9 8B55E4   		movl	-28(%rbp), %edx
 664 02cc 488B45D0 		movq	-48(%rbp), %rax
 665 02d0 89D6     		movl	%edx, %esi
 666 02d2 4889C7   		movq	%rax, %rdi
 667 02d5 E8000000 		call	_ZN8Solution7get_rhoEi
 667      00
 668 02da 66480F7E 		movq	%xmm0, %rax
 668      C0
 669 02df 488945F0 		movq	%rax, -16(%rbp)
  58:/home/brendan/Dropbox/PhD/Code/LBM/2D LBFS/src/artificial_dissipation.cpp ****         neighbour = Mesh.get_e_node(i);
 670              		.loc 4 58 0
 671 02e3 8B55E0   		movl	-32(%rbp), %edx
 672 02e6 488B45C0 		movq	-64(%rbp), %rax
 673 02ea 89D6     		movl	%edx, %esi
 674 02ec 4889C7   		movq	%rax, %rdi
 675 02ef E8000000 		call	_ZN4Mesh10get_e_nodeEi
 675      00
 676 02f4 8945E4   		movl	%eax, -28(%rbp)
  59:/home/brendan/Dropbox/PhD/Code/LBM/2D LBFS/src/artificial_dissipation.cpp ****         p1 = soln.get_rho(neighbour);
 677              		.loc 4 59 0
 678 02f7 8B55E4   		movl	-28(%rbp), %edx
 679 02fa 488B45D0 		movq	-48(%rbp), %rax
 680 02fe 89D6     		movl	%edx, %esi
 681 0300 4889C7   		movq	%rax, %rdi
 682 0303 E8000000 		call	_ZN8Solution7get_rhoEi
 682      00
 683 0308 66480F7E 		movq	%xmm0, %rax
 683      C0
GAS LISTING /tmp/ccGTdBzt.s 			page 16


 684 030d 488945F8 		movq	%rax, -8(%rbp)
  60:/home/brendan/Dropbox/PhD/Code/LBM/2D LBFS/src/artificial_dissipation.cpp **** 
  61:/home/brendan/Dropbox/PhD/Code/LBM/2D LBFS/src/artificial_dissipation.cpp ****         global_JST_switch_x[i] = fabs( (m1 - 2*zero + p1)/ (m1 + 2*zero + p1));
 685              		.loc 4 61 0
 686 0311 488B45D8 		movq	-40(%rbp), %rax
 687 0315 488B4008 		movq	8(%rax), %rax
 688 0319 8B55E0   		movl	-32(%rbp), %edx
 689 031c 4863D2   		movslq	%edx, %rdx
 690 031f 48C1E203 		salq	$3, %rdx
 691 0323 4801D0   		addq	%rdx, %rax
 692 0326 F20F1045 		movsd	-24(%rbp), %xmm0
 692      E8
 693 032b F20F58C0 		addsd	%xmm0, %xmm0
 694 032f F20F104D 		movsd	-16(%rbp), %xmm1
 694      F0
 695 0334 F20F5CC8 		subsd	%xmm0, %xmm1
 696 0338 660F28C1 		movapd	%xmm1, %xmm0
 697 033c 660F28C8 		movapd	%xmm0, %xmm1
 698 0340 F20F584D 		addsd	-8(%rbp), %xmm1
 698      F8
 699 0345 F20F1045 		movsd	-24(%rbp), %xmm0
 699      E8
 700 034a F20F58C0 		addsd	%xmm0, %xmm0
 701 034e F20F5845 		addsd	-16(%rbp), %xmm0
 701      F0
 702 0353 F20F5845 		addsd	-8(%rbp), %xmm0
 702      F8
 703 0358 F20F5EC8 		divsd	%xmm0, %xmm1
 704 035c 660F28C1 		movapd	%xmm1, %xmm0
 705 0360 F20F100D 		movsd	.LC1(%rip), %xmm1
 705      00000000 
 706 0368 660F54C1 		andpd	%xmm1, %xmm0
 707 036c F20F1100 		movsd	%xmm0, (%rax)
  62:/home/brendan/Dropbox/PhD/Code/LBM/2D LBFS/src/artificial_dissipation.cpp ****         neighbour = Mesh.get_s_node(i);
 708              		.loc 4 62 0
 709 0370 8B55E0   		movl	-32(%rbp), %edx
 710 0373 488B45C0 		movq	-64(%rbp), %rax
 711 0377 89D6     		movl	%edx, %esi
 712 0379 4889C7   		movq	%rax, %rdi
 713 037c E8000000 		call	_ZN4Mesh10get_s_nodeEi
 713      00
 714 0381 8945E4   		movl	%eax, -28(%rbp)
  63:/home/brendan/Dropbox/PhD/Code/LBM/2D LBFS/src/artificial_dissipation.cpp ****         m1 = soln.get_rho(neighbour);
 715              		.loc 4 63 0
 716 0384 8B55E4   		movl	-28(%rbp), %edx
 717 0387 488B45D0 		movq	-48(%rbp), %rax
 718 038b 89D6     		movl	%edx, %esi
 719 038d 4889C7   		movq	%rax, %rdi
 720 0390 E8000000 		call	_ZN8Solution7get_rhoEi
 720      00
 721 0395 66480F7E 		movq	%xmm0, %rax
 721      C0
 722 039a 488945F0 		movq	%rax, -16(%rbp)
  64:/home/brendan/Dropbox/PhD/Code/LBM/2D LBFS/src/artificial_dissipation.cpp **** 
  65:/home/brendan/Dropbox/PhD/Code/LBM/2D LBFS/src/artificial_dissipation.cpp ****         neighbour = Mesh.get_n_node(i);
 723              		.loc 4 65 0
 724 039e 8B55E0   		movl	-32(%rbp), %edx
GAS LISTING /tmp/ccGTdBzt.s 			page 17


 725 03a1 488B45C0 		movq	-64(%rbp), %rax
 726 03a5 89D6     		movl	%edx, %esi
 727 03a7 4889C7   		movq	%rax, %rdi
 728 03aa E8000000 		call	_ZN4Mesh10get_n_nodeEi
 728      00
 729 03af 8945E4   		movl	%eax, -28(%rbp)
  66:/home/brendan/Dropbox/PhD/Code/LBM/2D LBFS/src/artificial_dissipation.cpp ****         p1 = soln.get_rho(neighbour);
 730              		.loc 4 66 0
 731 03b2 8B55E4   		movl	-28(%rbp), %edx
 732 03b5 488B45D0 		movq	-48(%rbp), %rax
 733 03b9 89D6     		movl	%edx, %esi
 734 03bb 4889C7   		movq	%rax, %rdi
 735 03be E8000000 		call	_ZN8Solution7get_rhoEi
 735      00
 736 03c3 66480F7E 		movq	%xmm0, %rax
 736      C0
 737 03c8 488945F8 		movq	%rax, -8(%rbp)
  67:/home/brendan/Dropbox/PhD/Code/LBM/2D LBFS/src/artificial_dissipation.cpp **** 
  68:/home/brendan/Dropbox/PhD/Code/LBM/2D LBFS/src/artificial_dissipation.cpp **** 
  69:/home/brendan/Dropbox/PhD/Code/LBM/2D LBFS/src/artificial_dissipation.cpp **** 
  70:/home/brendan/Dropbox/PhD/Code/LBM/2D LBFS/src/artificial_dissipation.cpp ****         global_JST_switch_y[i] = fabs( (m1 - 2*zero + p1)/ (m1 + 2*zero + p1));
 738              		.loc 4 70 0
 739 03cc 488B45D8 		movq	-40(%rbp), %rax
 740 03d0 488B4010 		movq	16(%rax), %rax
 741 03d4 8B55E0   		movl	-32(%rbp), %edx
 742 03d7 4863D2   		movslq	%edx, %rdx
 743 03da 48C1E203 		salq	$3, %rdx
 744 03de 4801D0   		addq	%rdx, %rax
 745 03e1 F20F1045 		movsd	-24(%rbp), %xmm0
 745      E8
 746 03e6 F20F58C0 		addsd	%xmm0, %xmm0
 747 03ea F20F104D 		movsd	-16(%rbp), %xmm1
 747      F0
 748 03ef F20F5CC8 		subsd	%xmm0, %xmm1
 749 03f3 660F28C1 		movapd	%xmm1, %xmm0
 750 03f7 660F28C8 		movapd	%xmm0, %xmm1
 751 03fb F20F584D 		addsd	-8(%rbp), %xmm1
 751      F8
 752 0400 F20F1045 		movsd	-24(%rbp), %xmm0
 752      E8
 753 0405 F20F58C0 		addsd	%xmm0, %xmm0
 754 0409 F20F5845 		addsd	-16(%rbp), %xmm0
 754      F0
 755 040e F20F5845 		addsd	-8(%rbp), %xmm0
 755      F8
 756 0413 F20F5EC8 		divsd	%xmm0, %xmm1
 757 0417 660F28C1 		movapd	%xmm1, %xmm0
 758 041b F20F100D 		movsd	.LC1(%rip), %xmm1
 758      00000000 
 759 0423 660F54C1 		andpd	%xmm1, %xmm0
 760 0427 F20F1100 		movsd	%xmm0, (%rax)
 761              	.L42:
 762              	.LBE9:
 763              	.LBE8:
 764              	.LBE7:
  41:/home/brendan/Dropbox/PhD/Code/LBM/2D LBFS/src/artificial_dissipation.cpp **** 
 765              		.loc 4 41 0 discriminator 2
GAS LISTING /tmp/ccGTdBzt.s 			page 18


 766 042b 8345E001 		addl	$1, -32(%rbp)
 767 042f E9F9FDFF 		jmp	.L43
 767      FF
 768              	.L44:
 769              	.LBE6:
  71:/home/brendan/Dropbox/PhD/Code/LBM/2D LBFS/src/artificial_dissipation.cpp ****         }
  72:/home/brendan/Dropbox/PhD/Code/LBM/2D LBFS/src/artificial_dissipation.cpp ****     }
  73:/home/brendan/Dropbox/PhD/Code/LBM/2D LBFS/src/artificial_dissipation.cpp **** 
  74:/home/brendan/Dropbox/PhD/Code/LBM/2D LBFS/src/artificial_dissipation.cpp **** 
  75:/home/brendan/Dropbox/PhD/Code/LBM/2D LBFS/src/artificial_dissipation.cpp **** 
  76:/home/brendan/Dropbox/PhD/Code/LBM/2D LBFS/src/artificial_dissipation.cpp **** }
 770              		.loc 4 76 0
 771 0434 90       		nop
 772 0435 C9       		leave
 773              		.cfi_def_cfa 7, 8
 774 0436 C3       		ret
 775              		.cfi_endproc
 776              	.LFE6204:
 778 0437 90       		.align 2
 779              		.globl	_ZN22artificial_dissipation16get_local_coeffsER8SolutionR19Boundary_ConditionsR4MeshS1_R15d
 781              	_ZN22artificial_dissipation16get_local_coeffsER8SolutionR19Boundary_ConditionsR4MeshS1_R15domain_ge
 782              	.LFB6205:
  77:/home/brendan/Dropbox/PhD/Code/LBM/2D LBFS/src/artificial_dissipation.cpp **** void artificial_dissipation::get_local_coeffs(Solution &soln, Boundary_Conditions &bcs,
  78:/home/brendan/Dropbox/PhD/Code/LBM/2D LBFS/src/artificial_dissipation.cpp ****                                             Mesh &Mesh, Solution &local_soln, domain_geometry &doma
  79:/home/brendan/Dropbox/PhD/Code/LBM/2D LBFS/src/artificial_dissipation.cpp ****                                             int j, int i)
  80:/home/brendan/Dropbox/PhD/Code/LBM/2D LBFS/src/artificial_dissipation.cpp **** {
 783              		.loc 4 80 0
 784              		.cfi_startproc
 785 0438 55       		pushq	%rbp
 786              		.cfi_def_cfa_offset 16
 787              		.cfi_offset 6, -16
 788 0439 4889E5   		movq	%rsp, %rbp
 789              		.cfi_def_cfa_register 6
 790 043c 4881ECA0 		subq	$160, %rsp
 790      000000
 791 0443 48897D98 		movq	%rdi, -104(%rbp)
 792 0447 48897590 		movq	%rsi, -112(%rbp)
 793 044b 48895588 		movq	%rdx, -120(%rbp)
 794 044f 48894D80 		movq	%rcx, -128(%rbp)
 795 0453 4C898578 		movq	%r8, -136(%rbp)
 795      FFFFFF
 796 045a 4C898D70 		movq	%r9, -144(%rbp)
 796      FFFFFF
 797              		.loc 4 80 0
 798 0461 64488B04 		movq	%fs:40, %rax
 798      25280000 
 798      00
 799 046a 488945F8 		movq	%rax, -8(%rbp)
 800 046e 31C0     		xorl	%eax, %eax
 801              	.LBB10:
  81:/home/brendan/Dropbox/PhD/Code/LBM/2D LBFS/src/artificial_dissipation.cpp ****     int neighbour;
  82:/home/brendan/Dropbox/PhD/Code/LBM/2D LBFS/src/artificial_dissipation.cpp ****     double phi_i, phi_i_p1;
  83:/home/brendan/Dropbox/PhD/Code/LBM/2D LBFS/src/artificial_dissipation.cpp ****     double lambda_flux;
  84:/home/brendan/Dropbox/PhD/Code/LBM/2D LBFS/src/artificial_dissipation.cpp **** 
  85:/home/brendan/Dropbox/PhD/Code/LBM/2D LBFS/src/artificial_dissipation.cpp ****         if (bcs.get_bc(i)){
 802              		.loc 4 85 0
 803 0470 8B5518   		movl	24(%rbp), %edx
GAS LISTING /tmp/ccGTdBzt.s 			page 19


 804 0473 488B4588 		movq	-120(%rbp), %rax
 805 0477 89D6     		movl	%edx, %esi
 806 0479 4889C7   		movq	%rax, %rdi
 807 047c E8000000 		call	_ZN19Boundary_Conditions6get_bcEi
 807      00
 808 0481 84C0     		testb	%al, %al
 809 0483 745C     		je	.L46
  86:/home/brendan/Dropbox/PhD/Code/LBM/2D LBFS/src/artificial_dissipation.cpp ****             global_2nd_order = 0.0;
 810              		.loc 4 86 0
 811 0485 488B4598 		movq	-104(%rbp), %rax
 812 0489 660FEFC0 		pxor	%xmm0, %xmm0
 813 048d F20F1140 		movsd	%xmm0, 56(%rax)
 813      38
  87:/home/brendan/Dropbox/PhD/Code/LBM/2D LBFS/src/artificial_dissipation.cpp ****              global_4th_order = 0.0;
 814              		.loc 4 87 0
 815 0492 488B4598 		movq	-104(%rbp), %rax
 816 0496 660FEFC0 		pxor	%xmm0, %xmm0
 817 049a F20F1140 		movsd	%xmm0, 64(%rax)
 817      40
  88:/home/brendan/Dropbox/PhD/Code/LBM/2D LBFS/src/artificial_dissipation.cpp ****              local_flux.P =0.0;
 818              		.loc 4 88 0
 819 049f 488B4598 		movq	-104(%rbp), %rax
 820 04a3 660FEFC0 		pxor	%xmm0, %xmm0
 821 04a7 F20F1140 		movsd	%xmm0, 120(%rax)
 821      78
  89:/home/brendan/Dropbox/PhD/Code/LBM/2D LBFS/src/artificial_dissipation.cpp ****              local_flux.momentum_x =0.0;
 822              		.loc 4 89 0
 823 04ac 488B4598 		movq	-104(%rbp), %rax
 824 04b0 660FEFC0 		pxor	%xmm0, %xmm0
 825 04b4 F20F1180 		movsd	%xmm0, 128(%rax)
 825      80000000 
  90:/home/brendan/Dropbox/PhD/Code/LBM/2D LBFS/src/artificial_dissipation.cpp ****              local_flux.momentum_y = 0.0;
 826              		.loc 4 90 0
 827 04bc 488B4598 		movq	-104(%rbp), %rax
 828 04c0 660FEFC0 		pxor	%xmm0, %xmm0
 829 04c4 F20F1180 		movsd	%xmm0, 136(%rax)
 829      88000000 
  91:/home/brendan/Dropbox/PhD/Code/LBM/2D LBFS/src/artificial_dissipation.cpp ****              local_flux.momentum_z = 0.0;
 830              		.loc 4 91 0
 831 04cc 488B4598 		movq	-104(%rbp), %rax
 832 04d0 660FEFC0 		pxor	%xmm0, %xmm0
 833 04d4 F20F1180 		movsd	%xmm0, 144(%rax)
 833      90000000 
 834              	.LBE10:
  92:/home/brendan/Dropbox/PhD/Code/LBM/2D LBFS/src/artificial_dissipation.cpp **** 
  93:/home/brendan/Dropbox/PhD/Code/LBM/2D LBFS/src/artificial_dissipation.cpp **** 
  94:/home/brendan/Dropbox/PhD/Code/LBM/2D LBFS/src/artificial_dissipation.cpp ****         }else{
  95:/home/brendan/Dropbox/PhD/Code/LBM/2D LBFS/src/artificial_dissipation.cpp **** 
  96:/home/brendan/Dropbox/PhD/Code/LBM/2D LBFS/src/artificial_dissipation.cpp ****         /// Get dissipation coefficients
  97:/home/brendan/Dropbox/PhD/Code/LBM/2D LBFS/src/artificial_dissipation.cpp ****         double m1,p1,zero,p2;
  98:/home/brendan/Dropbox/PhD/Code/LBM/2D LBFS/src/artificial_dissipation.cpp ****         jst_num = -2*local_soln.get_rho(i);
  99:/home/brendan/Dropbox/PhD/Code/LBM/2D LBFS/src/artificial_dissipation.cpp ****         jst_den = 2*local_soln.get_rho(i);
 100:/home/brendan/Dropbox/PhD/Code/LBM/2D LBFS/src/artificial_dissipation.cpp ****         if( j == 0 || j == 2){
 101:/home/brendan/Dropbox/PhD/Code/LBM/2D LBFS/src/artificial_dissipation.cpp **** 
 102:/home/brendan/Dropbox/PhD/Code/LBM/2D LBFS/src/artificial_dissipation.cpp **** 
 103:/home/brendan/Dropbox/PhD/Code/LBM/2D LBFS/src/artificial_dissipation.cpp ****             neighbour = Mesh.get_w_node(i);
 104:/home/brendan/Dropbox/PhD/Code/LBM/2D LBFS/src/artificial_dissipation.cpp ****             m1 = global_JST_switch_x[neighbour];
GAS LISTING /tmp/ccGTdBzt.s 			page 20


 105:/home/brendan/Dropbox/PhD/Code/LBM/2D LBFS/src/artificial_dissipation.cpp ****             jst_num = jst_num + soln.get_rho(neighbour);
 106:/home/brendan/Dropbox/PhD/Code/LBM/2D LBFS/src/artificial_dissipation.cpp ****             jst_den = jst_den  + soln.get_rho(neighbour);
 107:/home/brendan/Dropbox/PhD/Code/LBM/2D LBFS/src/artificial_dissipation.cpp ****             neighbour = Mesh.get_e_node(i);
 108:/home/brendan/Dropbox/PhD/Code/LBM/2D LBFS/src/artificial_dissipation.cpp ****             p1 = global_JST_switch_x[neighbour];
 109:/home/brendan/Dropbox/PhD/Code/LBM/2D LBFS/src/artificial_dissipation.cpp ****             jst_num = jst_num + soln.get_rho(neighbour);
 110:/home/brendan/Dropbox/PhD/Code/LBM/2D LBFS/src/artificial_dissipation.cpp ****             jst_den = jst_den + soln.get_rho(neighbour);
 111:/home/brendan/Dropbox/PhD/Code/LBM/2D LBFS/src/artificial_dissipation.cpp **** 
 112:/home/brendan/Dropbox/PhD/Code/LBM/2D LBFS/src/artificial_dissipation.cpp ****             neighbour = Mesh.get_e_node(neighbour);
 113:/home/brendan/Dropbox/PhD/Code/LBM/2D LBFS/src/artificial_dissipation.cpp ****             p2 = global_JST_switch_x[neighbour];
 114:/home/brendan/Dropbox/PhD/Code/LBM/2D LBFS/src/artificial_dissipation.cpp **** 
 115:/home/brendan/Dropbox/PhD/Code/LBM/2D LBFS/src/artificial_dissipation.cpp ****         }else{
 116:/home/brendan/Dropbox/PhD/Code/LBM/2D LBFS/src/artificial_dissipation.cpp **** 
 117:/home/brendan/Dropbox/PhD/Code/LBM/2D LBFS/src/artificial_dissipation.cpp ****             neighbour = Mesh.get_s_node(i);
 118:/home/brendan/Dropbox/PhD/Code/LBM/2D LBFS/src/artificial_dissipation.cpp ****             m1 = global_JST_switch_y[neighbour];
 119:/home/brendan/Dropbox/PhD/Code/LBM/2D LBFS/src/artificial_dissipation.cpp ****             jst_num = jst_num + soln.get_rho(neighbour);
 120:/home/brendan/Dropbox/PhD/Code/LBM/2D LBFS/src/artificial_dissipation.cpp ****             jst_den = jst_den  + soln.get_rho(neighbour);
 121:/home/brendan/Dropbox/PhD/Code/LBM/2D LBFS/src/artificial_dissipation.cpp ****             neighbour = Mesh.get_n_node(i);
 122:/home/brendan/Dropbox/PhD/Code/LBM/2D LBFS/src/artificial_dissipation.cpp ****             p1 = global_JST_switch_y[neighbour];
 123:/home/brendan/Dropbox/PhD/Code/LBM/2D LBFS/src/artificial_dissipation.cpp ****             jst_num = jst_num + soln.get_rho(neighbour);
 124:/home/brendan/Dropbox/PhD/Code/LBM/2D LBFS/src/artificial_dissipation.cpp ****             jst_den = jst_den + soln.get_rho(neighbour);
 125:/home/brendan/Dropbox/PhD/Code/LBM/2D LBFS/src/artificial_dissipation.cpp ****             neighbour = Mesh.get_n_node(neighbour);
 126:/home/brendan/Dropbox/PhD/Code/LBM/2D LBFS/src/artificial_dissipation.cpp ****             p2 = global_JST_switch_y[neighbour];
 127:/home/brendan/Dropbox/PhD/Code/LBM/2D LBFS/src/artificial_dissipation.cpp **** 
 128:/home/brendan/Dropbox/PhD/Code/LBM/2D LBFS/src/artificial_dissipation.cpp ****         }
 129:/home/brendan/Dropbox/PhD/Code/LBM/2D LBFS/src/artificial_dissipation.cpp **** 
 130:/home/brendan/Dropbox/PhD/Code/LBM/2D LBFS/src/artificial_dissipation.cpp ****         zero = jst_num/jst_den;
 131:/home/brendan/Dropbox/PhD/Code/LBM/2D LBFS/src/artificial_dissipation.cpp **** 
 132:/home/brendan/Dropbox/PhD/Code/LBM/2D LBFS/src/artificial_dissipation.cpp ****         global_2nd_order = std::max(m1,std::max(zero,std::max(p1,p2))) * kappa_2;
 133:/home/brendan/Dropbox/PhD/Code/LBM/2D LBFS/src/artificial_dissipation.cpp ****         global_4th_order = std::max(0.0,(kappa_4 - global_2nd_order));
 134:/home/brendan/Dropbox/PhD/Code/LBM/2D LBFS/src/artificial_dissipation.cpp **** 
 135:/home/brendan/Dropbox/PhD/Code/LBM/2D LBFS/src/artificial_dissipation.cpp **** 
 136:/home/brendan/Dropbox/PhD/Code/LBM/2D LBFS/src/artificial_dissipation.cpp **** 
 137:/home/brendan/Dropbox/PhD/Code/LBM/2D LBFS/src/artificial_dissipation.cpp **** 
 138:/home/brendan/Dropbox/PhD/Code/LBM/2D LBFS/src/artificial_dissipation.cpp ****         /// Get spectral radii for euler equations (inviscid)
 139:/home/brendan/Dropbox/PhD/Code/LBM/2D LBFS/src/artificial_dissipation.cpp **** 
 140:/home/brendan/Dropbox/PhD/Code/LBM/2D LBFS/src/artificial_dissipation.cpp ****         /// needs allowances for pre conditioning
 141:/home/brendan/Dropbox/PhD/Code/LBM/2D LBFS/src/artificial_dissipation.cpp **** 
 142:/home/brendan/Dropbox/PhD/Code/LBM/2D LBFS/src/artificial_dissipation.cpp **** 
 143:/home/brendan/Dropbox/PhD/Code/LBM/2D LBFS/src/artificial_dissipation.cpp ****         /// artificial dissipation calcs to get lambda x
 144:/home/brendan/Dropbox/PhD/Code/LBM/2D LBFS/src/artificial_dissipation.cpp **** 
 145:/home/brendan/Dropbox/PhD/Code/LBM/2D LBFS/src/artificial_dissipation.cpp ****          // spectral radii for cell center
 146:/home/brendan/Dropbox/PhD/Code/LBM/2D LBFS/src/artificial_dissipation.cpp ****         spectral_radii[0] = fabs( local_soln.get_u(i))+ domain.cs;  // x-direction
 147:/home/brendan/Dropbox/PhD/Code/LBM/2D LBFS/src/artificial_dissipation.cpp ****         spectral_radii[2] = fabs( local_soln.get_v(i))+ domain.cs;  // y-direction
 148:/home/brendan/Dropbox/PhD/Code/LBM/2D LBFS/src/artificial_dissipation.cpp **** 
 149:/home/brendan/Dropbox/PhD/Code/LBM/2D LBFS/src/artificial_dissipation.cpp **** 
 150:/home/brendan/Dropbox/PhD/Code/LBM/2D LBFS/src/artificial_dissipation.cpp **** 
 151:/home/brendan/Dropbox/PhD/Code/LBM/2D LBFS/src/artificial_dissipation.cpp **** 
 152:/home/brendan/Dropbox/PhD/Code/LBM/2D LBFS/src/artificial_dissipation.cpp ****         switch(j){
 153:/home/brendan/Dropbox/PhD/Code/LBM/2D LBFS/src/artificial_dissipation.cpp **** 
 154:/home/brendan/Dropbox/PhD/Code/LBM/2D LBFS/src/artificial_dissipation.cpp ****             case 0: //west
 155:/home/brendan/Dropbox/PhD/Code/LBM/2D LBFS/src/artificial_dissipation.cpp ****                 neighbour = Mesh.get_w_node(i);
 156:/home/brendan/Dropbox/PhD/Code/LBM/2D LBFS/src/artificial_dissipation.cpp ****                 break;
 157:/home/brendan/Dropbox/PhD/Code/LBM/2D LBFS/src/artificial_dissipation.cpp ****             case 1: // south
 158:/home/brendan/Dropbox/PhD/Code/LBM/2D LBFS/src/artificial_dissipation.cpp ****                 neighbour = Mesh.get_s_node(i);
 159:/home/brendan/Dropbox/PhD/Code/LBM/2D LBFS/src/artificial_dissipation.cpp ****                 break;
 160:/home/brendan/Dropbox/PhD/Code/LBM/2D LBFS/src/artificial_dissipation.cpp ****             case 2: // east
 161:/home/brendan/Dropbox/PhD/Code/LBM/2D LBFS/src/artificial_dissipation.cpp ****                 neighbour = Mesh.get_e_node(i);
GAS LISTING /tmp/ccGTdBzt.s 			page 21


 162:/home/brendan/Dropbox/PhD/Code/LBM/2D LBFS/src/artificial_dissipation.cpp ****                 break;
 163:/home/brendan/Dropbox/PhD/Code/LBM/2D LBFS/src/artificial_dissipation.cpp ****             case 3: // north
 164:/home/brendan/Dropbox/PhD/Code/LBM/2D LBFS/src/artificial_dissipation.cpp ****                 neighbour = Mesh.get_n_node(i);
 165:/home/brendan/Dropbox/PhD/Code/LBM/2D LBFS/src/artificial_dissipation.cpp ****                 break;
 166:/home/brendan/Dropbox/PhD/Code/LBM/2D LBFS/src/artificial_dissipation.cpp **** 
 167:/home/brendan/Dropbox/PhD/Code/LBM/2D LBFS/src/artificial_dissipation.cpp ****             }
 168:/home/brendan/Dropbox/PhD/Code/LBM/2D LBFS/src/artificial_dissipation.cpp **** 
 169:/home/brendan/Dropbox/PhD/Code/LBM/2D LBFS/src/artificial_dissipation.cpp ****         //neighbour node spectral radii
 170:/home/brendan/Dropbox/PhD/Code/LBM/2D LBFS/src/artificial_dissipation.cpp ****         spectral_radii[1] = fabs( soln.get_u(neighbour))+ domain.cs; // x direction
 171:/home/brendan/Dropbox/PhD/Code/LBM/2D LBFS/src/artificial_dissipation.cpp ****         spectral_radii[3] = fabs( soln.get_v(neighbour))+ domain.cs; // y-direction
 172:/home/brendan/Dropbox/PhD/Code/LBM/2D LBFS/src/artificial_dissipation.cpp **** 
 173:/home/brendan/Dropbox/PhD/Code/LBM/2D LBFS/src/artificial_dissipation.cpp **** 
 174:/home/brendan/Dropbox/PhD/Code/LBM/2D LBFS/src/artificial_dissipation.cpp **** 
 175:/home/brendan/Dropbox/PhD/Code/LBM/2D LBFS/src/artificial_dissipation.cpp ****         // Martinelli scaling
 176:/home/brendan/Dropbox/PhD/Code/LBM/2D LBFS/src/artificial_dissipation.cpp **** 
 177:/home/brendan/Dropbox/PhD/Code/LBM/2D LBFS/src/artificial_dissipation.cpp ****         switch(j){
 178:/home/brendan/Dropbox/PhD/Code/LBM/2D LBFS/src/artificial_dissipation.cpp **** 
 179:/home/brendan/Dropbox/PhD/Code/LBM/2D LBFS/src/artificial_dissipation.cpp ****             case 0:
 180:/home/brendan/Dropbox/PhD/Code/LBM/2D LBFS/src/artificial_dissipation.cpp ****             case 2: //west or east
 181:/home/brendan/Dropbox/PhD/Code/LBM/2D LBFS/src/artificial_dissipation.cpp ****                     phi_i = 1 +pow( (spectral_radii[2]/spectral_radii[0]), martinelli_exponent) ;
 182:/home/brendan/Dropbox/PhD/Code/LBM/2D LBFS/src/artificial_dissipation.cpp **** 
 183:/home/brendan/Dropbox/PhD/Code/LBM/2D LBFS/src/artificial_dissipation.cpp ****                     phi_i_p1 = 1 + pow((spectral_radii[3]/spectral_radii[1]),martinelli_exponent);
 184:/home/brendan/Dropbox/PhD/Code/LBM/2D LBFS/src/artificial_dissipation.cpp **** 
 185:/home/brendan/Dropbox/PhD/Code/LBM/2D LBFS/src/artificial_dissipation.cpp ****                     lambda_flux = 0.5* ( phi_i * spectral_radii[0] + phi_i_p1 *spectral_radii[1]);
 186:/home/brendan/Dropbox/PhD/Code/LBM/2D LBFS/src/artificial_dissipation.cpp **** 
 187:/home/brendan/Dropbox/PhD/Code/LBM/2D LBFS/src/artificial_dissipation.cpp ****                 break;
 188:/home/brendan/Dropbox/PhD/Code/LBM/2D LBFS/src/artificial_dissipation.cpp ****             case 1:
 189:/home/brendan/Dropbox/PhD/Code/LBM/2D LBFS/src/artificial_dissipation.cpp ****             case 3: // south or north
 190:/home/brendan/Dropbox/PhD/Code/LBM/2D LBFS/src/artificial_dissipation.cpp ****                     phi_i = 1 +pow( (spectral_radii[0]/spectral_radii[2]), martinelli_exponent) ;
 191:/home/brendan/Dropbox/PhD/Code/LBM/2D LBFS/src/artificial_dissipation.cpp **** 
 192:/home/brendan/Dropbox/PhD/Code/LBM/2D LBFS/src/artificial_dissipation.cpp ****                     phi_i_p1 = 1 + pow((spectral_radii[1]/spectral_radii[3]),martinelli_exponent);
 193:/home/brendan/Dropbox/PhD/Code/LBM/2D LBFS/src/artificial_dissipation.cpp ****                      lambda_flux = 0.5* ( phi_i * spectral_radii[2] + phi_i_p1 *spectral_radii[3]);
 194:/home/brendan/Dropbox/PhD/Code/LBM/2D LBFS/src/artificial_dissipation.cpp ****                 break;
 195:/home/brendan/Dropbox/PhD/Code/LBM/2D LBFS/src/artificial_dissipation.cpp **** 
 196:/home/brendan/Dropbox/PhD/Code/LBM/2D LBFS/src/artificial_dissipation.cpp **** 
 197:/home/brendan/Dropbox/PhD/Code/LBM/2D LBFS/src/artificial_dissipation.cpp ****             }
 198:/home/brendan/Dropbox/PhD/Code/LBM/2D LBFS/src/artificial_dissipation.cpp **** 
 199:/home/brendan/Dropbox/PhD/Code/LBM/2D LBFS/src/artificial_dissipation.cpp **** 
 200:/home/brendan/Dropbox/PhD/Code/LBM/2D LBFS/src/artificial_dissipation.cpp ****         local_flux.P =  lambda_flux *global_2nd_order
 201:/home/brendan/Dropbox/PhD/Code/LBM/2D LBFS/src/artificial_dissipation.cpp ****                     * second_order_difference(1,neighbour,i,soln,local_soln)
 202:/home/brendan/Dropbox/PhD/Code/LBM/2D LBFS/src/artificial_dissipation.cpp ****                 - lambda_flux  * global_4th_order
 203:/home/brendan/Dropbox/PhD/Code/LBM/2D LBFS/src/artificial_dissipation.cpp ****                 * _4th_order_difference(1,neighbour,i,soln,bcs,Mesh,local_soln,domain,j);
 204:/home/brendan/Dropbox/PhD/Code/LBM/2D LBFS/src/artificial_dissipation.cpp ****         local_flux.momentum_x =  lambda_flux *global_2nd_order
 205:/home/brendan/Dropbox/PhD/Code/LBM/2D LBFS/src/artificial_dissipation.cpp ****                 * second_order_difference(2,neighbour,i,soln,local_soln)
 206:/home/brendan/Dropbox/PhD/Code/LBM/2D LBFS/src/artificial_dissipation.cpp ****                 - lambda_flux  * global_4th_order
 207:/home/brendan/Dropbox/PhD/Code/LBM/2D LBFS/src/artificial_dissipation.cpp ****                 * _4th_order_difference(2,neighbour,i,soln,bcs,Mesh,local_soln,domain,j);
 208:/home/brendan/Dropbox/PhD/Code/LBM/2D LBFS/src/artificial_dissipation.cpp ****         local_flux.momentum_y = lambda_flux *global_2nd_order
 209:/home/brendan/Dropbox/PhD/Code/LBM/2D LBFS/src/artificial_dissipation.cpp ****                 * second_order_difference(3,neighbour,i,soln,local_soln)
 210:/home/brendan/Dropbox/PhD/Code/LBM/2D LBFS/src/artificial_dissipation.cpp ****                 - lambda_flux  * global_4th_order
 211:/home/brendan/Dropbox/PhD/Code/LBM/2D LBFS/src/artificial_dissipation.cpp ****                 * _4th_order_difference(3,neighbour,i,soln,bcs,Mesh,local_soln,domain,j);
 212:/home/brendan/Dropbox/PhD/Code/LBM/2D LBFS/src/artificial_dissipation.cpp ****         local_flux.momentum_z = 0.0;
 213:/home/brendan/Dropbox/PhD/Code/LBM/2D LBFS/src/artificial_dissipation.cpp **** 
 214:/home/brendan/Dropbox/PhD/Code/LBM/2D LBFS/src/artificial_dissipation.cpp **** 
 215:/home/brendan/Dropbox/PhD/Code/LBM/2D LBFS/src/artificial_dissipation.cpp **** 
 216:/home/brendan/Dropbox/PhD/Code/LBM/2D LBFS/src/artificial_dissipation.cpp **** 
 217:/home/brendan/Dropbox/PhD/Code/LBM/2D LBFS/src/artificial_dissipation.cpp ****     }
 218:/home/brendan/Dropbox/PhD/Code/LBM/2D LBFS/src/artificial_dissipation.cpp **** 
GAS LISTING /tmp/ccGTdBzt.s 			page 22


 219:/home/brendan/Dropbox/PhD/Code/LBM/2D LBFS/src/artificial_dissipation.cpp **** 
 220:/home/brendan/Dropbox/PhD/Code/LBM/2D LBFS/src/artificial_dissipation.cpp **** 
 221:/home/brendan/Dropbox/PhD/Code/LBM/2D LBFS/src/artificial_dissipation.cpp **** }
 835              		.loc 4 221 0
 836 04dc E96D0900 		jmp	.L62
 836      00
 837              	.L46:
 838              	.LBB12:
 839              	.LBB11:
  98:/home/brendan/Dropbox/PhD/Code/LBM/2D LBFS/src/artificial_dissipation.cpp ****         jst_den = 2*local_soln.get_rho(i);
 840              		.loc 4 98 0
 841 04e1 8B5518   		movl	24(%rbp), %edx
 842 04e4 488B8578 		movq	-136(%rbp), %rax
 842      FFFFFF
 843 04eb 89D6     		movl	%edx, %esi
 844 04ed 4889C7   		movq	%rax, %rdi
 845 04f0 E8000000 		call	_ZN8Solution7get_rhoEi
 845      00
 846 04f5 660F28C8 		movapd	%xmm0, %xmm1
 847 04f9 F20F1005 		movsd	.LC2(%rip), %xmm0
 847      00000000 
 848 0501 F20F59C1 		mulsd	%xmm1, %xmm0
 849 0505 488B4598 		movq	-104(%rbp), %rax
 850 0509 F20F1180 		movsd	%xmm0, 152(%rax)
 850      98000000 
  99:/home/brendan/Dropbox/PhD/Code/LBM/2D LBFS/src/artificial_dissipation.cpp ****         if( j == 0 || j == 2){
 851              		.loc 4 99 0
 852 0511 8B5518   		movl	24(%rbp), %edx
 853 0514 488B8578 		movq	-136(%rbp), %rax
 853      FFFFFF
 854 051b 89D6     		movl	%edx, %esi
 855 051d 4889C7   		movq	%rax, %rdi
 856 0520 E8000000 		call	_ZN8Solution7get_rhoEi
 856      00
 857 0525 F20F58C0 		addsd	%xmm0, %xmm0
 858 0529 488B4598 		movq	-104(%rbp), %rax
 859 052d F20F1180 		movsd	%xmm0, 160(%rax)
 859      A0000000 
 100:/home/brendan/Dropbox/PhD/Code/LBM/2D LBFS/src/artificial_dissipation.cpp **** 
 860              		.loc 4 100 0
 861 0535 837D1000 		cmpl	$0, 16(%rbp)
 862 0539 740A     		je	.L48
 100:/home/brendan/Dropbox/PhD/Code/LBM/2D LBFS/src/artificial_dissipation.cpp **** 
 863              		.loc 4 100 0 is_stmt 0 discriminator 1
 864 053b 837D1002 		cmpl	$2, 16(%rbp)
 865 053f 0F857F01 		jne	.L49
 865      0000
 866              	.L48:
 103:/home/brendan/Dropbox/PhD/Code/LBM/2D LBFS/src/artificial_dissipation.cpp ****             m1 = global_JST_switch_x[neighbour];
 867              		.loc 4 103 0 is_stmt 1
 868 0545 8B5518   		movl	24(%rbp), %edx
 869 0548 488B4580 		movq	-128(%rbp), %rax
 870 054c 89D6     		movl	%edx, %esi
 871 054e 4889C7   		movq	%rax, %rdi
 872 0551 E8000000 		call	_ZN4Mesh10get_w_nodeEi
 872      00
 873 0556 8945AC   		movl	%eax, -84(%rbp)
GAS LISTING /tmp/ccGTdBzt.s 			page 23


 104:/home/brendan/Dropbox/PhD/Code/LBM/2D LBFS/src/artificial_dissipation.cpp ****             jst_num = jst_num + soln.get_rho(neighbour);
 874              		.loc 4 104 0
 875 0559 488B4598 		movq	-104(%rbp), %rax
 876 055d 488B4008 		movq	8(%rax), %rax
 877 0561 8B55AC   		movl	-84(%rbp), %edx
 878 0564 4863D2   		movslq	%edx, %rdx
 879 0567 48C1E203 		salq	$3, %rdx
 880 056b 4801D0   		addq	%rdx, %rax
 881 056e F20F1000 		movsd	(%rax), %xmm0
 882 0572 F20F1145 		movsd	%xmm0, -80(%rbp)
 882      B0
 105:/home/brendan/Dropbox/PhD/Code/LBM/2D LBFS/src/artificial_dissipation.cpp ****             jst_den = jst_den  + soln.get_rho(neighbour);
 883              		.loc 4 105 0
 884 0577 488B4598 		movq	-104(%rbp), %rax
 885 057b F20F10A8 		movsd	152(%rax), %xmm5
 885      98000000 
 886 0583 F20F11AD 		movsd	%xmm5, -152(%rbp)
 886      68FFFFFF 
 887 058b 8B55AC   		movl	-84(%rbp), %edx
 888 058e 488B4590 		movq	-112(%rbp), %rax
 889 0592 89D6     		movl	%edx, %esi
 890 0594 4889C7   		movq	%rax, %rdi
 891 0597 E8000000 		call	_ZN8Solution7get_rhoEi
 891      00
 892 059c F20F5885 		addsd	-152(%rbp), %xmm0
 892      68FFFFFF 
 893 05a4 488B4598 		movq	-104(%rbp), %rax
 894 05a8 F20F1180 		movsd	%xmm0, 152(%rax)
 894      98000000 
 106:/home/brendan/Dropbox/PhD/Code/LBM/2D LBFS/src/artificial_dissipation.cpp ****             neighbour = Mesh.get_e_node(i);
 895              		.loc 4 106 0
 896 05b0 488B4598 		movq	-104(%rbp), %rax
 897 05b4 F20F10A0 		movsd	160(%rax), %xmm4
 897      A0000000 
 898 05bc F20F11A5 		movsd	%xmm4, -152(%rbp)
 898      68FFFFFF 
 899 05c4 8B55AC   		movl	-84(%rbp), %edx
 900 05c7 488B4590 		movq	-112(%rbp), %rax
 901 05cb 89D6     		movl	%edx, %esi
 902 05cd 4889C7   		movq	%rax, %rdi
 903 05d0 E8000000 		call	_ZN8Solution7get_rhoEi
 903      00
 904 05d5 F20F5885 		addsd	-152(%rbp), %xmm0
 904      68FFFFFF 
 905 05dd 488B4598 		movq	-104(%rbp), %rax
 906 05e1 F20F1180 		movsd	%xmm0, 160(%rax)
 906      A0000000 
 107:/home/brendan/Dropbox/PhD/Code/LBM/2D LBFS/src/artificial_dissipation.cpp ****             p1 = global_JST_switch_x[neighbour];
 907              		.loc 4 107 0
 908 05e9 8B5518   		movl	24(%rbp), %edx
 909 05ec 488B4580 		movq	-128(%rbp), %rax
 910 05f0 89D6     		movl	%edx, %esi
 911 05f2 4889C7   		movq	%rax, %rdi
 912 05f5 E8000000 		call	_ZN4Mesh10get_e_nodeEi
 912      00
 913 05fa 8945AC   		movl	%eax, -84(%rbp)
 108:/home/brendan/Dropbox/PhD/Code/LBM/2D LBFS/src/artificial_dissipation.cpp ****             jst_num = jst_num + soln.get_rho(neighbour);
GAS LISTING /tmp/ccGTdBzt.s 			page 24


 914              		.loc 4 108 0
 915 05fd 488B4598 		movq	-104(%rbp), %rax
 916 0601 488B4008 		movq	8(%rax), %rax
 917 0605 8B55AC   		movl	-84(%rbp), %edx
 918 0608 4863D2   		movslq	%edx, %rdx
 919 060b 48C1E203 		salq	$3, %rdx
 920 060f 4801D0   		addq	%rdx, %rax
 921 0612 F20F1000 		movsd	(%rax), %xmm0
 922 0616 F20F1145 		movsd	%xmm0, -72(%rbp)
 922      B8
 109:/home/brendan/Dropbox/PhD/Code/LBM/2D LBFS/src/artificial_dissipation.cpp ****             jst_den = jst_den + soln.get_rho(neighbour);
 923              		.loc 4 109 0
 924 061b 488B4598 		movq	-104(%rbp), %rax
 925 061f F20F10B8 		movsd	152(%rax), %xmm7
 925      98000000 
 926 0627 F20F11BD 		movsd	%xmm7, -152(%rbp)
 926      68FFFFFF 
 927 062f 8B55AC   		movl	-84(%rbp), %edx
 928 0632 488B4590 		movq	-112(%rbp), %rax
 929 0636 89D6     		movl	%edx, %esi
 930 0638 4889C7   		movq	%rax, %rdi
 931 063b E8000000 		call	_ZN8Solution7get_rhoEi
 931      00
 932 0640 F20F5885 		addsd	-152(%rbp), %xmm0
 932      68FFFFFF 
 933 0648 488B4598 		movq	-104(%rbp), %rax
 934 064c F20F1180 		movsd	%xmm0, 152(%rax)
 934      98000000 
 110:/home/brendan/Dropbox/PhD/Code/LBM/2D LBFS/src/artificial_dissipation.cpp **** 
 935              		.loc 4 110 0
 936 0654 488B4598 		movq	-104(%rbp), %rax
 937 0658 F20F10A8 		movsd	160(%rax), %xmm5
 937      A0000000 
 938 0660 F20F11AD 		movsd	%xmm5, -152(%rbp)
 938      68FFFFFF 
 939 0668 8B55AC   		movl	-84(%rbp), %edx
 940 066b 488B4590 		movq	-112(%rbp), %rax
 941 066f 89D6     		movl	%edx, %esi
 942 0671 4889C7   		movq	%rax, %rdi
 943 0674 E8000000 		call	_ZN8Solution7get_rhoEi
 943      00
 944 0679 F20F5885 		addsd	-152(%rbp), %xmm0
 944      68FFFFFF 
 945 0681 488B4598 		movq	-104(%rbp), %rax
 946 0685 F20F1180 		movsd	%xmm0, 160(%rax)
 946      A0000000 
 112:/home/brendan/Dropbox/PhD/Code/LBM/2D LBFS/src/artificial_dissipation.cpp ****             p2 = global_JST_switch_x[neighbour];
 947              		.loc 4 112 0
 948 068d 8B55AC   		movl	-84(%rbp), %edx
 949 0690 488B4580 		movq	-128(%rbp), %rax
 950 0694 89D6     		movl	%edx, %esi
 951 0696 4889C7   		movq	%rax, %rdi
 952 0699 E8000000 		call	_ZN4Mesh10get_e_nodeEi
 952      00
 953 069e 8945AC   		movl	%eax, -84(%rbp)
 113:/home/brendan/Dropbox/PhD/Code/LBM/2D LBFS/src/artificial_dissipation.cpp **** 
 954              		.loc 4 113 0
GAS LISTING /tmp/ccGTdBzt.s 			page 25


 955 06a1 488B4598 		movq	-104(%rbp), %rax
 956 06a5 488B4008 		movq	8(%rax), %rax
 957 06a9 8B55AC   		movl	-84(%rbp), %edx
 958 06ac 4863D2   		movslq	%edx, %rdx
 959 06af 48C1E203 		salq	$3, %rdx
 960 06b3 4801D0   		addq	%rdx, %rax
 961 06b6 F20F1000 		movsd	(%rax), %xmm0
 962 06ba F20F1145 		movsd	%xmm0, -56(%rbp)
 962      C8
 963 06bf E97A0100 		jmp	.L50
 963      00
 964              	.L49:
 117:/home/brendan/Dropbox/PhD/Code/LBM/2D LBFS/src/artificial_dissipation.cpp ****             m1 = global_JST_switch_y[neighbour];
 965              		.loc 4 117 0
 966 06c4 8B5518   		movl	24(%rbp), %edx
 967 06c7 488B4580 		movq	-128(%rbp), %rax
 968 06cb 89D6     		movl	%edx, %esi
 969 06cd 4889C7   		movq	%rax, %rdi
 970 06d0 E8000000 		call	_ZN4Mesh10get_s_nodeEi
 970      00
 971 06d5 8945AC   		movl	%eax, -84(%rbp)
 118:/home/brendan/Dropbox/PhD/Code/LBM/2D LBFS/src/artificial_dissipation.cpp ****             jst_num = jst_num + soln.get_rho(neighbour);
 972              		.loc 4 118 0
 973 06d8 488B4598 		movq	-104(%rbp), %rax
 974 06dc 488B4010 		movq	16(%rax), %rax
 975 06e0 8B55AC   		movl	-84(%rbp), %edx
 976 06e3 4863D2   		movslq	%edx, %rdx
 977 06e6 48C1E203 		salq	$3, %rdx
 978 06ea 4801D0   		addq	%rdx, %rax
 979 06ed F20F1000 		movsd	(%rax), %xmm0
 980 06f1 F20F1145 		movsd	%xmm0, -80(%rbp)
 980      B0
 119:/home/brendan/Dropbox/PhD/Code/LBM/2D LBFS/src/artificial_dissipation.cpp ****             jst_den = jst_den  + soln.get_rho(neighbour);
 981              		.loc 4 119 0
 982 06f6 488B4598 		movq	-104(%rbp), %rax
 983 06fa F20F1090 		movsd	152(%rax), %xmm2
 983      98000000 
 984 0702 F20F1195 		movsd	%xmm2, -152(%rbp)
 984      68FFFFFF 
 985 070a 8B55AC   		movl	-84(%rbp), %edx
 986 070d 488B4590 		movq	-112(%rbp), %rax
 987 0711 89D6     		movl	%edx, %esi
 988 0713 4889C7   		movq	%rax, %rdi
 989 0716 E8000000 		call	_ZN8Solution7get_rhoEi
 989      00
 990 071b F20F5885 		addsd	-152(%rbp), %xmm0
 990      68FFFFFF 
 991 0723 488B4598 		movq	-104(%rbp), %rax
 992 0727 F20F1180 		movsd	%xmm0, 152(%rax)
 992      98000000 
 120:/home/brendan/Dropbox/PhD/Code/LBM/2D LBFS/src/artificial_dissipation.cpp ****             neighbour = Mesh.get_n_node(i);
 993              		.loc 4 120 0
 994 072f 488B4598 		movq	-104(%rbp), %rax
 995 0733 F20F1098 		movsd	160(%rax), %xmm3
 995      A0000000 
 996 073b F20F119D 		movsd	%xmm3, -152(%rbp)
 996      68FFFFFF 
GAS LISTING /tmp/ccGTdBzt.s 			page 26


 997 0743 8B55AC   		movl	-84(%rbp), %edx
 998 0746 488B4590 		movq	-112(%rbp), %rax
 999 074a 89D6     		movl	%edx, %esi
 1000 074c 4889C7   		movq	%rax, %rdi
 1001 074f E8000000 		call	_ZN8Solution7get_rhoEi
 1001      00
 1002 0754 F20F5885 		addsd	-152(%rbp), %xmm0
 1002      68FFFFFF 
 1003 075c 488B4598 		movq	-104(%rbp), %rax
 1004 0760 F20F1180 		movsd	%xmm0, 160(%rax)
 1004      A0000000 
 121:/home/brendan/Dropbox/PhD/Code/LBM/2D LBFS/src/artificial_dissipation.cpp ****             p1 = global_JST_switch_y[neighbour];
 1005              		.loc 4 121 0
 1006 0768 8B5518   		movl	24(%rbp), %edx
 1007 076b 488B4580 		movq	-128(%rbp), %rax
 1008 076f 89D6     		movl	%edx, %esi
 1009 0771 4889C7   		movq	%rax, %rdi
 1010 0774 E8000000 		call	_ZN4Mesh10get_n_nodeEi
 1010      00
 1011 0779 8945AC   		movl	%eax, -84(%rbp)
 122:/home/brendan/Dropbox/PhD/Code/LBM/2D LBFS/src/artificial_dissipation.cpp ****             jst_num = jst_num + soln.get_rho(neighbour);
 1012              		.loc 4 122 0
 1013 077c 488B4598 		movq	-104(%rbp), %rax
 1014 0780 488B4010 		movq	16(%rax), %rax
 1015 0784 8B55AC   		movl	-84(%rbp), %edx
 1016 0787 4863D2   		movslq	%edx, %rdx
 1017 078a 48C1E203 		salq	$3, %rdx
 1018 078e 4801D0   		addq	%rdx, %rax
 1019 0791 F20F1000 		movsd	(%rax), %xmm0
 1020 0795 F20F1145 		movsd	%xmm0, -72(%rbp)
 1020      B8
 123:/home/brendan/Dropbox/PhD/Code/LBM/2D LBFS/src/artificial_dissipation.cpp ****             jst_den = jst_den + soln.get_rho(neighbour);
 1021              		.loc 4 123 0
 1022 079a 488B4598 		movq	-104(%rbp), %rax
 1023 079e F20F10A0 		movsd	152(%rax), %xmm4
 1023      98000000 
 1024 07a6 F20F11A5 		movsd	%xmm4, -152(%rbp)
 1024      68FFFFFF 
 1025 07ae 8B55AC   		movl	-84(%rbp), %edx
 1026 07b1 488B4590 		movq	-112(%rbp), %rax
 1027 07b5 89D6     		movl	%edx, %esi
 1028 07b7 4889C7   		movq	%rax, %rdi
 1029 07ba E8000000 		call	_ZN8Solution7get_rhoEi
 1029      00
 1030 07bf F20F5885 		addsd	-152(%rbp), %xmm0
 1030      68FFFFFF 
 1031 07c7 488B4598 		movq	-104(%rbp), %rax
 1032 07cb F20F1180 		movsd	%xmm0, 152(%rax)
 1032      98000000 
 124:/home/brendan/Dropbox/PhD/Code/LBM/2D LBFS/src/artificial_dissipation.cpp ****             neighbour = Mesh.get_n_node(neighbour);
 1033              		.loc 4 124 0
 1034 07d3 488B4598 		movq	-104(%rbp), %rax
 1035 07d7 F20F10B0 		movsd	160(%rax), %xmm6
 1035      A0000000 
 1036 07df F20F11B5 		movsd	%xmm6, -152(%rbp)
 1036      68FFFFFF 
 1037 07e7 8B55AC   		movl	-84(%rbp), %edx
GAS LISTING /tmp/ccGTdBzt.s 			page 27


 1038 07ea 488B4590 		movq	-112(%rbp), %rax
 1039 07ee 89D6     		movl	%edx, %esi
 1040 07f0 4889C7   		movq	%rax, %rdi
 1041 07f3 E8000000 		call	_ZN8Solution7get_rhoEi
 1041      00
 1042 07f8 F20F5885 		addsd	-152(%rbp), %xmm0
 1042      68FFFFFF 
 1043 0800 488B4598 		movq	-104(%rbp), %rax
 1044 0804 F20F1180 		movsd	%xmm0, 160(%rax)
 1044      A0000000 
 125:/home/brendan/Dropbox/PhD/Code/LBM/2D LBFS/src/artificial_dissipation.cpp ****             p2 = global_JST_switch_y[neighbour];
 1045              		.loc 4 125 0
 1046 080c 8B55AC   		movl	-84(%rbp), %edx
 1047 080f 488B4580 		movq	-128(%rbp), %rax
 1048 0813 89D6     		movl	%edx, %esi
 1049 0815 4889C7   		movq	%rax, %rdi
 1050 0818 E8000000 		call	_ZN4Mesh10get_n_nodeEi
 1050      00
 1051 081d 8945AC   		movl	%eax, -84(%rbp)
 126:/home/brendan/Dropbox/PhD/Code/LBM/2D LBFS/src/artificial_dissipation.cpp **** 
 1052              		.loc 4 126 0
 1053 0820 488B4598 		movq	-104(%rbp), %rax
 1054 0824 488B4010 		movq	16(%rax), %rax
 1055 0828 8B55AC   		movl	-84(%rbp), %edx
 1056 082b 4863D2   		movslq	%edx, %rdx
 1057 082e 48C1E203 		salq	$3, %rdx
 1058 0832 4801D0   		addq	%rdx, %rax
 1059 0835 F20F1000 		movsd	(%rax), %xmm0
 1060 0839 F20F1145 		movsd	%xmm0, -56(%rbp)
 1060      C8
 1061              	.L50:
 130:/home/brendan/Dropbox/PhD/Code/LBM/2D LBFS/src/artificial_dissipation.cpp **** 
 1062              		.loc 4 130 0
 1063 083e 488B4598 		movq	-104(%rbp), %rax
 1064 0842 F20F1080 		movsd	152(%rax), %xmm0
 1064      98000000 
 1065 084a 488B4598 		movq	-104(%rbp), %rax
 1066 084e F20F1088 		movsd	160(%rax), %xmm1
 1066      A0000000 
 1067 0856 F20F5EC1 		divsd	%xmm1, %xmm0
 1068 085a F20F1145 		movsd	%xmm0, -64(%rbp)
 1068      C0
 132:/home/brendan/Dropbox/PhD/Code/LBM/2D LBFS/src/artificial_dissipation.cpp ****         global_4th_order = std::max(0.0,(kappa_4 - global_2nd_order));
 1069              		.loc 4 132 0
 1070 085f 488D55C8 		leaq	-56(%rbp), %rdx
 1071 0863 488D45B8 		leaq	-72(%rbp), %rax
 1072 0867 4889D6   		movq	%rdx, %rsi
 1073 086a 4889C7   		movq	%rax, %rdi
 1074 086d E8000000 		call	_ZSt3maxIdERKT_S2_S2_
 1074      00
 1075 0872 4889C2   		movq	%rax, %rdx
 1076 0875 488D45C0 		leaq	-64(%rbp), %rax
 1077 0879 4889D6   		movq	%rdx, %rsi
 1078 087c 4889C7   		movq	%rax, %rdi
 1079 087f E8000000 		call	_ZSt3maxIdERKT_S2_S2_
 1079      00
 1080 0884 4889C2   		movq	%rax, %rdx
GAS LISTING /tmp/ccGTdBzt.s 			page 28


 1081 0887 488D45B0 		leaq	-80(%rbp), %rax
 1082 088b 4889D6   		movq	%rdx, %rsi
 1083 088e 4889C7   		movq	%rax, %rdi
 1084 0891 E8000000 		call	_ZSt3maxIdERKT_S2_S2_
 1084      00
 1085 0896 F20F1008 		movsd	(%rax), %xmm1
 1086 089a 488B4598 		movq	-104(%rbp), %rax
 1087 089e F20F1040 		movsd	40(%rax), %xmm0
 1087      28
 1088 08a3 F20F59C1 		mulsd	%xmm1, %xmm0
 1089 08a7 488B4598 		movq	-104(%rbp), %rax
 1090 08ab F20F1140 		movsd	%xmm0, 56(%rax)
 1090      38
 133:/home/brendan/Dropbox/PhD/Code/LBM/2D LBFS/src/artificial_dissipation.cpp **** 
 1091              		.loc 4 133 0
 1092 08b0 488B4598 		movq	-104(%rbp), %rax
 1093 08b4 F20F1040 		movsd	48(%rax), %xmm0
 1093      30
 1094 08b9 488B4598 		movq	-104(%rbp), %rax
 1095 08bd F20F1048 		movsd	56(%rax), %xmm1
 1095      38
 1096 08c2 F20F5CC1 		subsd	%xmm1, %xmm0
 1097 08c6 F20F1145 		movsd	%xmm0, -40(%rbp)
 1097      D8
 1098 08cb 660FEFC0 		pxor	%xmm0, %xmm0
 1099 08cf F20F1145 		movsd	%xmm0, -48(%rbp)
 1099      D0
 1100 08d4 488D55D8 		leaq	-40(%rbp), %rdx
 1101 08d8 488D45D0 		leaq	-48(%rbp), %rax
 1102 08dc 4889D6   		movq	%rdx, %rsi
 1103 08df 4889C7   		movq	%rax, %rdi
 1104 08e2 E8000000 		call	_ZSt3maxIdERKT_S2_S2_
 1104      00
 1105 08e7 F20F1000 		movsd	(%rax), %xmm0
 1106 08eb 488B4598 		movq	-104(%rbp), %rax
 1107 08ef F20F1140 		movsd	%xmm0, 64(%rax)
 1107      40
 146:/home/brendan/Dropbox/PhD/Code/LBM/2D LBFS/src/artificial_dissipation.cpp ****         spectral_radii[2] = fabs( local_soln.get_v(i))+ domain.cs;  // y-direction
 1108              		.loc 4 146 0
 1109 08f4 8B5518   		movl	24(%rbp), %edx
 1110 08f7 488B8578 		movq	-136(%rbp), %rax
 1110      FFFFFF
 1111 08fe 89D6     		movl	%edx, %esi
 1112 0900 4889C7   		movq	%rax, %rdi
 1113 0903 E8000000 		call	_ZN8Solution5get_uEi
 1113      00
 1114 0908 660F28C8 		movapd	%xmm0, %xmm1
 1115 090c F20F1005 		movsd	.LC1(%rip), %xmm0
 1115      00000000 
 1116 0914 660F54C1 		andpd	%xmm1, %xmm0
 1117 0918 488B8570 		movq	-144(%rbp), %rax
 1117      FFFFFF
 1118 091f F20F1048 		movsd	48(%rax), %xmm1
 1118      30
 1119 0924 F20F58C1 		addsd	%xmm1, %xmm0
 1120 0928 488B4598 		movq	-104(%rbp), %rax
 1121 092c F20F1140 		movsd	%xmm0, 72(%rax)
GAS LISTING /tmp/ccGTdBzt.s 			page 29


 1121      48
 147:/home/brendan/Dropbox/PhD/Code/LBM/2D LBFS/src/artificial_dissipation.cpp **** 
 1122              		.loc 4 147 0
 1123 0931 8B5518   		movl	24(%rbp), %edx
 1124 0934 488B8578 		movq	-136(%rbp), %rax
 1124      FFFFFF
 1125 093b 89D6     		movl	%edx, %esi
 1126 093d 4889C7   		movq	%rax, %rdi
 1127 0940 E8000000 		call	_ZN8Solution5get_vEi
 1127      00
 1128 0945 660F28C8 		movapd	%xmm0, %xmm1
 1129 0949 F20F1005 		movsd	.LC1(%rip), %xmm0
 1129      00000000 
 1130 0951 660F54C1 		andpd	%xmm1, %xmm0
 1131 0955 488B8570 		movq	-144(%rbp), %rax
 1131      FFFFFF
 1132 095c F20F1048 		movsd	48(%rax), %xmm1
 1132      30
 1133 0961 F20F58C1 		addsd	%xmm1, %xmm0
 1134 0965 488B4598 		movq	-104(%rbp), %rax
 1135 0969 F20F1140 		movsd	%xmm0, 88(%rax)
 1135      58
 152:/home/brendan/Dropbox/PhD/Code/LBM/2D LBFS/src/artificial_dissipation.cpp **** 
 1136              		.loc 4 152 0
 1137 096e 8B4510   		movl	16(%rbp), %eax
 1138 0971 83F801   		cmpl	$1, %eax
 1139 0974 742D     		je	.L52
 1140 0976 83F801   		cmpl	$1, %eax
 1141 0979 7F06     		jg	.L53
 1142 097b 85C0     		testl	%eax, %eax
 1143 097d 740E     		je	.L54
 1144 097f EB63     		jmp	.L51
 1145              	.L53:
 1146 0981 83F802   		cmpl	$2, %eax
 1147 0984 7433     		je	.L55
 1148 0986 83F803   		cmpl	$3, %eax
 1149 0989 7444     		je	.L56
 1150 098b EB57     		jmp	.L51
 1151              	.L54:
 155:/home/brendan/Dropbox/PhD/Code/LBM/2D LBFS/src/artificial_dissipation.cpp ****                 break;
 1152              		.loc 4 155 0
 1153 098d 8B5518   		movl	24(%rbp), %edx
 1154 0990 488B4580 		movq	-128(%rbp), %rax
 1155 0994 89D6     		movl	%edx, %esi
 1156 0996 4889C7   		movq	%rax, %rdi
 1157 0999 E8000000 		call	_ZN4Mesh10get_w_nodeEi
 1157      00
 1158 099e 8945AC   		movl	%eax, -84(%rbp)
 156:/home/brendan/Dropbox/PhD/Code/LBM/2D LBFS/src/artificial_dissipation.cpp ****             case 1: // south
 1159              		.loc 4 156 0
 1160 09a1 EB41     		jmp	.L51
 1161              	.L52:
 158:/home/brendan/Dropbox/PhD/Code/LBM/2D LBFS/src/artificial_dissipation.cpp ****                 break;
 1162              		.loc 4 158 0
 1163 09a3 8B5518   		movl	24(%rbp), %edx
 1164 09a6 488B4580 		movq	-128(%rbp), %rax
 1165 09aa 89D6     		movl	%edx, %esi
GAS LISTING /tmp/ccGTdBzt.s 			page 30


 1166 09ac 4889C7   		movq	%rax, %rdi
 1167 09af E8000000 		call	_ZN4Mesh10get_s_nodeEi
 1167      00
 1168 09b4 8945AC   		movl	%eax, -84(%rbp)
 159:/home/brendan/Dropbox/PhD/Code/LBM/2D LBFS/src/artificial_dissipation.cpp ****             case 2: // east
 1169              		.loc 4 159 0
 1170 09b7 EB2B     		jmp	.L51
 1171              	.L55:
 161:/home/brendan/Dropbox/PhD/Code/LBM/2D LBFS/src/artificial_dissipation.cpp ****                 break;
 1172              		.loc 4 161 0
 1173 09b9 8B5518   		movl	24(%rbp), %edx
 1174 09bc 488B4580 		movq	-128(%rbp), %rax
 1175 09c0 89D6     		movl	%edx, %esi
 1176 09c2 4889C7   		movq	%rax, %rdi
 1177 09c5 E8000000 		call	_ZN4Mesh10get_e_nodeEi
 1177      00
 1178 09ca 8945AC   		movl	%eax, -84(%rbp)
 162:/home/brendan/Dropbox/PhD/Code/LBM/2D LBFS/src/artificial_dissipation.cpp ****             case 3: // north
 1179              		.loc 4 162 0
 1180 09cd EB15     		jmp	.L51
 1181              	.L56:
 164:/home/brendan/Dropbox/PhD/Code/LBM/2D LBFS/src/artificial_dissipation.cpp ****                 break;
 1182              		.loc 4 164 0
 1183 09cf 8B5518   		movl	24(%rbp), %edx
 1184 09d2 488B4580 		movq	-128(%rbp), %rax
 1185 09d6 89D6     		movl	%edx, %esi
 1186 09d8 4889C7   		movq	%rax, %rdi
 1187 09db E8000000 		call	_ZN4Mesh10get_n_nodeEi
 1187      00
 1188 09e0 8945AC   		movl	%eax, -84(%rbp)
 165:/home/brendan/Dropbox/PhD/Code/LBM/2D LBFS/src/artificial_dissipation.cpp **** 
 1189              		.loc 4 165 0
 1190 09e3 90       		nop
 1191              	.L51:
 170:/home/brendan/Dropbox/PhD/Code/LBM/2D LBFS/src/artificial_dissipation.cpp ****         spectral_radii[3] = fabs( soln.get_v(neighbour))+ domain.cs; // y-direction
 1192              		.loc 4 170 0
 1193 09e4 8B55AC   		movl	-84(%rbp), %edx
 1194 09e7 488B4590 		movq	-112(%rbp), %rax
 1195 09eb 89D6     		movl	%edx, %esi
 1196 09ed 4889C7   		movq	%rax, %rdi
 1197 09f0 E8000000 		call	_ZN8Solution5get_uEi
 1197      00
 1198 09f5 660F28C8 		movapd	%xmm0, %xmm1
 1199 09f9 F20F1005 		movsd	.LC1(%rip), %xmm0
 1199      00000000 
 1200 0a01 660F54C1 		andpd	%xmm1, %xmm0
 1201 0a05 488B8570 		movq	-144(%rbp), %rax
 1201      FFFFFF
 1202 0a0c F20F1048 		movsd	48(%rax), %xmm1
 1202      30
 1203 0a11 F20F58C1 		addsd	%xmm1, %xmm0
 1204 0a15 488B4598 		movq	-104(%rbp), %rax
 1205 0a19 F20F1140 		movsd	%xmm0, 80(%rax)
 1205      50
 171:/home/brendan/Dropbox/PhD/Code/LBM/2D LBFS/src/artificial_dissipation.cpp **** 
 1206              		.loc 4 171 0
 1207 0a1e 8B55AC   		movl	-84(%rbp), %edx
GAS LISTING /tmp/ccGTdBzt.s 			page 31


 1208 0a21 488B4590 		movq	-112(%rbp), %rax
 1209 0a25 89D6     		movl	%edx, %esi
 1210 0a27 4889C7   		movq	%rax, %rdi
 1211 0a2a E8000000 		call	_ZN8Solution5get_vEi
 1211      00
 1212 0a2f 660F28C8 		movapd	%xmm0, %xmm1
 1213 0a33 F20F1005 		movsd	.LC1(%rip), %xmm0
 1213      00000000 
 1214 0a3b 660F54C1 		andpd	%xmm1, %xmm0
 1215 0a3f 488B8570 		movq	-144(%rbp), %rax
 1215      FFFFFF
 1216 0a46 F20F1048 		movsd	48(%rax), %xmm1
 1216      30
 1217 0a4b F20F58C1 		addsd	%xmm1, %xmm0
 1218 0a4f 488B4598 		movq	-104(%rbp), %rax
 1219 0a53 F20F1140 		movsd	%xmm0, 96(%rax)
 1219      60
 177:/home/brendan/Dropbox/PhD/Code/LBM/2D LBFS/src/artificial_dissipation.cpp **** 
 1220              		.loc 4 177 0
 1221 0a58 8B4510   		movl	16(%rbp), %eax
 1222 0a5b 83F801   		cmpl	$1, %eax
 1223 0a5e 0F84D500 		je	.L58
 1223      0000
 1224 0a64 83F801   		cmpl	$1, %eax
 1225 0a67 7F09     		jg	.L59
 1226 0a69 85C0     		testl	%eax, %eax
 1227 0a6b 7418     		je	.L60
 1228 0a6d E9770100 		jmp	.L57
 1228      00
 1229              	.L59:
 1230 0a72 83F802   		cmpl	$2, %eax
 1231 0a75 740E     		je	.L60
 1232 0a77 83F803   		cmpl	$3, %eax
 1233 0a7a 0F84B900 		je	.L58
 1233      0000
 1234 0a80 E9640100 		jmp	.L57
 1234      00
 1235              	.L60:
 181:/home/brendan/Dropbox/PhD/Code/LBM/2D LBFS/src/artificial_dissipation.cpp **** 
 1236              		.loc 4 181 0
 1237 0a85 488B4598 		movq	-104(%rbp), %rax
 1238 0a89 F20F1050 		movsd	104(%rax), %xmm2
 1238      68
 1239 0a8e 488B4598 		movq	-104(%rbp), %rax
 1240 0a92 F20F1040 		movsd	88(%rax), %xmm0
 1240      58
 1241 0a97 488B4598 		movq	-104(%rbp), %rax
 1242 0a9b F20F1048 		movsd	72(%rax), %xmm1
 1242      48
 1243 0aa0 F20F5EC1 		divsd	%xmm1, %xmm0
 1244 0aa4 660F28CA 		movapd	%xmm2, %xmm1
 1245 0aa8 E8000000 		call	pow
 1245      00
 1246 0aad 660F28C8 		movapd	%xmm0, %xmm1
 1247 0ab1 F20F1005 		movsd	.LC3(%rip), %xmm0
 1247      00000000 
 1248 0ab9 F20F58C1 		addsd	%xmm1, %xmm0
GAS LISTING /tmp/ccGTdBzt.s 			page 32


 1249 0abd F20F1145 		movsd	%xmm0, -24(%rbp)
 1249      E8
 183:/home/brendan/Dropbox/PhD/Code/LBM/2D LBFS/src/artificial_dissipation.cpp **** 
 1250              		.loc 4 183 0
 1251 0ac2 488B4598 		movq	-104(%rbp), %rax
 1252 0ac6 F20F1050 		movsd	104(%rax), %xmm2
 1252      68
 1253 0acb 488B4598 		movq	-104(%rbp), %rax
 1254 0acf F20F1040 		movsd	96(%rax), %xmm0
 1254      60
 1255 0ad4 488B4598 		movq	-104(%rbp), %rax
 1256 0ad8 F20F1048 		movsd	80(%rax), %xmm1
 1256      50
 1257 0add F20F5EC1 		divsd	%xmm1, %xmm0
 1258 0ae1 660F28CA 		movapd	%xmm2, %xmm1
 1259 0ae5 E8000000 		call	pow
 1259      00
 1260 0aea 660F28C8 		movapd	%xmm0, %xmm1
 1261 0aee F20F1005 		movsd	.LC3(%rip), %xmm0
 1261      00000000 
 1262 0af6 F20F58C1 		addsd	%xmm1, %xmm0
 1263 0afa F20F1145 		movsd	%xmm0, -16(%rbp)
 1263      F0
 185:/home/brendan/Dropbox/PhD/Code/LBM/2D LBFS/src/artificial_dissipation.cpp **** 
 1264              		.loc 4 185 0
 1265 0aff 488B4598 		movq	-104(%rbp), %rax
 1266 0b03 F20F1040 		movsd	72(%rax), %xmm0
 1266      48
 1267 0b08 660F28C8 		movapd	%xmm0, %xmm1
 1268 0b0c F20F594D 		mulsd	-24(%rbp), %xmm1
 1268      E8
 1269 0b11 488B4598 		movq	-104(%rbp), %rax
 1270 0b15 F20F1040 		movsd	80(%rax), %xmm0
 1270      50
 1271 0b1a F20F5945 		mulsd	-16(%rbp), %xmm0
 1271      F0
 1272 0b1f F20F58C1 		addsd	%xmm1, %xmm0
 1273 0b23 F20F100D 		movsd	.LC4(%rip), %xmm1
 1273      00000000 
 1274 0b2b F20F59C1 		mulsd	%xmm1, %xmm0
 1275 0b2f F20F1145 		movsd	%xmm0, -32(%rbp)
 1275      E0
 187:/home/brendan/Dropbox/PhD/Code/LBM/2D LBFS/src/artificial_dissipation.cpp ****             case 1:
 1276              		.loc 4 187 0
 1277 0b34 E9B00000 		jmp	.L57
 1277      00
 1278              	.L58:
 190:/home/brendan/Dropbox/PhD/Code/LBM/2D LBFS/src/artificial_dissipation.cpp **** 
 1279              		.loc 4 190 0
 1280 0b39 488B4598 		movq	-104(%rbp), %rax
 1281 0b3d F20F1050 		movsd	104(%rax), %xmm2
 1281      68
 1282 0b42 488B4598 		movq	-104(%rbp), %rax
 1283 0b46 F20F1040 		movsd	72(%rax), %xmm0
 1283      48
 1284 0b4b 488B4598 		movq	-104(%rbp), %rax
 1285 0b4f F20F1048 		movsd	88(%rax), %xmm1
GAS LISTING /tmp/ccGTdBzt.s 			page 33


 1285      58
 1286 0b54 F20F5EC1 		divsd	%xmm1, %xmm0
 1287 0b58 660F28CA 		movapd	%xmm2, %xmm1
 1288 0b5c E8000000 		call	pow
 1288      00
 1289 0b61 660F28C8 		movapd	%xmm0, %xmm1
 1290 0b65 F20F1005 		movsd	.LC3(%rip), %xmm0
 1290      00000000 
 1291 0b6d F20F58C1 		addsd	%xmm1, %xmm0
 1292 0b71 F20F1145 		movsd	%xmm0, -24(%rbp)
 1292      E8
 192:/home/brendan/Dropbox/PhD/Code/LBM/2D LBFS/src/artificial_dissipation.cpp ****                      lambda_flux = 0.5* ( phi_i * spectral_radii[2] + phi_i_p1 *spectral_radii[3]);
 1293              		.loc 4 192 0
 1294 0b76 488B4598 		movq	-104(%rbp), %rax
 1295 0b7a F20F1050 		movsd	104(%rax), %xmm2
 1295      68
 1296 0b7f 488B4598 		movq	-104(%rbp), %rax
 1297 0b83 F20F1040 		movsd	80(%rax), %xmm0
 1297      50
 1298 0b88 488B4598 		movq	-104(%rbp), %rax
 1299 0b8c F20F1048 		movsd	96(%rax), %xmm1
 1299      60
 1300 0b91 F20F5EC1 		divsd	%xmm1, %xmm0
 1301 0b95 660F28CA 		movapd	%xmm2, %xmm1
 1302 0b99 E8000000 		call	pow
 1302      00
 1303 0b9e 660F28C8 		movapd	%xmm0, %xmm1
 1304 0ba2 F20F1005 		movsd	.LC3(%rip), %xmm0
 1304      00000000 
 1305 0baa F20F58C1 		addsd	%xmm1, %xmm0
 1306 0bae F20F1145 		movsd	%xmm0, -16(%rbp)
 1306      F0
 193:/home/brendan/Dropbox/PhD/Code/LBM/2D LBFS/src/artificial_dissipation.cpp ****                 break;
 1307              		.loc 4 193 0
 1308 0bb3 488B4598 		movq	-104(%rbp), %rax
 1309 0bb7 F20F1040 		movsd	88(%rax), %xmm0
 1309      58
 1310 0bbc 660F28C8 		movapd	%xmm0, %xmm1
 1311 0bc0 F20F594D 		mulsd	-24(%rbp), %xmm1
 1311      E8
 1312 0bc5 488B4598 		movq	-104(%rbp), %rax
 1313 0bc9 F20F1040 		movsd	96(%rax), %xmm0
 1313      60
 1314 0bce F20F5945 		mulsd	-16(%rbp), %xmm0
 1314      F0
 1315 0bd3 F20F58C1 		addsd	%xmm1, %xmm0
 1316 0bd7 F20F100D 		movsd	.LC4(%rip), %xmm1
 1316      00000000 
 1317 0bdf F20F59C1 		mulsd	%xmm1, %xmm0
 1318 0be3 F20F1145 		movsd	%xmm0, -32(%rbp)
 1318      E0
 194:/home/brendan/Dropbox/PhD/Code/LBM/2D LBFS/src/artificial_dissipation.cpp **** 
 1319              		.loc 4 194 0
 1320 0be8 90       		nop
 1321              	.L57:
 200:/home/brendan/Dropbox/PhD/Code/LBM/2D LBFS/src/artificial_dissipation.cpp ****                     * second_order_difference(1,neighbour,i,soln,local_soln)
 1322              		.loc 4 200 0
GAS LISTING /tmp/ccGTdBzt.s 			page 34


 1323 0be9 488B4598 		movq	-104(%rbp), %rax
 1324 0bed F20F1040 		movsd	56(%rax), %xmm0
 1324      38
 1325 0bf2 F20F5945 		mulsd	-32(%rbp), %xmm0
 1325      E0
 1326 0bf7 F20F1185 		movsd	%xmm0, -152(%rbp)
 1326      68FFFFFF 
 201:/home/brendan/Dropbox/PhD/Code/LBM/2D LBFS/src/artificial_dissipation.cpp ****                 - lambda_flux  * global_4th_order
 1327              		.loc 4 201 0
 1328 0bff 488BBD78 		movq	-136(%rbp), %rdi
 1328      FFFFFF
 1329 0c06 488B7590 		movq	-112(%rbp), %rsi
 1330 0c0a 8B4D18   		movl	24(%rbp), %ecx
 1331 0c0d 8B55AC   		movl	-84(%rbp), %edx
 1332 0c10 488B4598 		movq	-104(%rbp), %rax
 1333 0c14 4989F9   		movq	%rdi, %r9
 1334 0c17 4989F0   		movq	%rsi, %r8
 1335 0c1a BE010000 		movl	$1, %esi
 1335      00
 1336 0c1f 4889C7   		movq	%rax, %rdi
 1337 0c22 E8000000 		call	_ZN22artificial_dissipation23second_order_differenceEiiiR8SolutionS1_
 1337      00
 1338 0c27 F20F5985 		mulsd	-152(%rbp), %xmm0
 1338      68FFFFFF 
 1339 0c2f F20F1185 		movsd	%xmm0, -152(%rbp)
 1339      68FFFFFF 
 202:/home/brendan/Dropbox/PhD/Code/LBM/2D LBFS/src/artificial_dissipation.cpp ****                 * _4th_order_difference(1,neighbour,i,soln,bcs,Mesh,local_soln,domain,j);
 1340              		.loc 4 202 0
 1341 0c37 488B4598 		movq	-104(%rbp), %rax
 1342 0c3b F20F1040 		movsd	64(%rax), %xmm0
 1342      40
 1343 0c40 660F28F8 		movapd	%xmm0, %xmm7
 1344 0c44 F20F597D 		mulsd	-32(%rbp), %xmm7
 1344      E0
 1345 0c49 F20F11BD 		movsd	%xmm7, -160(%rbp)
 1345      60FFFFFF 
 203:/home/brendan/Dropbox/PhD/Code/LBM/2D LBFS/src/artificial_dissipation.cpp ****         local_flux.momentum_x =  lambda_flux *global_2nd_order
 1346              		.loc 4 203 0
 1347 0c51 4C8B4588 		movq	-120(%rbp), %r8
 1348 0c55 488B7D90 		movq	-112(%rbp), %rdi
 1349 0c59 8B4D18   		movl	24(%rbp), %ecx
 1350 0c5c 8B55AC   		movl	-84(%rbp), %edx
 1351 0c5f 488B4598 		movq	-104(%rbp), %rax
 1352 0c63 8B7510   		movl	16(%rbp), %esi
 1353 0c66 56       		pushq	%rsi
 1354 0c67 FFB570FF 		pushq	-144(%rbp)
 1354      FFFF
 1355 0c6d FFB578FF 		pushq	-136(%rbp)
 1355      FFFF
 1356 0c73 FF7580   		pushq	-128(%rbp)
 1357 0c76 4D89C1   		movq	%r8, %r9
 1358 0c79 4989F8   		movq	%rdi, %r8
 1359 0c7c BE010000 		movl	$1, %esi
 1359      00
 1360 0c81 4889C7   		movq	%rax, %rdi
 1361 0c84 E8000000 		call	_ZN22artificial_dissipation21_4th_order_differenceEiiiR8SolutionR19Boundary_ConditionsR4MeshS
 1361      00
GAS LISTING /tmp/ccGTdBzt.s 			page 35


 1362 0c89 4883C420 		addq	$32, %rsp
 1363 0c8d F20F5985 		mulsd	-160(%rbp), %xmm0
 1363      60FFFFFF 
 202:/home/brendan/Dropbox/PhD/Code/LBM/2D LBFS/src/artificial_dissipation.cpp ****                 * _4th_order_difference(1,neighbour,i,soln,bcs,Mesh,local_soln,domain,j);
 1364              		.loc 4 202 0
 1365 0c95 F20F109D 		movsd	-152(%rbp), %xmm3
 1365      68FFFFFF 
 1366 0c9d F20F5CD8 		subsd	%xmm0, %xmm3
 1367 0ca1 660F28C3 		movapd	%xmm3, %xmm0
 203:/home/brendan/Dropbox/PhD/Code/LBM/2D LBFS/src/artificial_dissipation.cpp ****         local_flux.momentum_x =  lambda_flux *global_2nd_order
 1368              		.loc 4 203 0
 1369 0ca5 488B4598 		movq	-104(%rbp), %rax
 1370 0ca9 F20F1140 		movsd	%xmm0, 120(%rax)
 1370      78
 204:/home/brendan/Dropbox/PhD/Code/LBM/2D LBFS/src/artificial_dissipation.cpp ****                 * second_order_difference(2,neighbour,i,soln,local_soln)
 1371              		.loc 4 204 0
 1372 0cae 488B4598 		movq	-104(%rbp), %rax
 1373 0cb2 F20F1040 		movsd	56(%rax), %xmm0
 1373      38
 1374 0cb7 F20F5945 		mulsd	-32(%rbp), %xmm0
 1374      E0
 1375 0cbc F20F1185 		movsd	%xmm0, -152(%rbp)
 1375      68FFFFFF 
 205:/home/brendan/Dropbox/PhD/Code/LBM/2D LBFS/src/artificial_dissipation.cpp ****                 - lambda_flux  * global_4th_order
 1376              		.loc 4 205 0
 1377 0cc4 488BBD78 		movq	-136(%rbp), %rdi
 1377      FFFFFF
 1378 0ccb 488B7590 		movq	-112(%rbp), %rsi
 1379 0ccf 8B4D18   		movl	24(%rbp), %ecx
 1380 0cd2 8B55AC   		movl	-84(%rbp), %edx
 1381 0cd5 488B4598 		movq	-104(%rbp), %rax
 1382 0cd9 4989F9   		movq	%rdi, %r9
 1383 0cdc 4989F0   		movq	%rsi, %r8
 1384 0cdf BE020000 		movl	$2, %esi
 1384      00
 1385 0ce4 4889C7   		movq	%rax, %rdi
 1386 0ce7 E8000000 		call	_ZN22artificial_dissipation23second_order_differenceEiiiR8SolutionS1_
 1386      00
 1387 0cec F20F5985 		mulsd	-152(%rbp), %xmm0
 1387      68FFFFFF 
 1388 0cf4 F20F1185 		movsd	%xmm0, -152(%rbp)
 1388      68FFFFFF 
 206:/home/brendan/Dropbox/PhD/Code/LBM/2D LBFS/src/artificial_dissipation.cpp ****                 * _4th_order_difference(2,neighbour,i,soln,bcs,Mesh,local_soln,domain,j);
 1389              		.loc 4 206 0
 1390 0cfc 488B4598 		movq	-104(%rbp), %rax
 1391 0d00 F20F1040 		movsd	64(%rax), %xmm0
 1391      40
 1392 0d05 660F28D8 		movapd	%xmm0, %xmm3
 1393 0d09 F20F595D 		mulsd	-32(%rbp), %xmm3
 1393      E0
 1394 0d0e F20F119D 		movsd	%xmm3, -160(%rbp)
 1394      60FFFFFF 
 207:/home/brendan/Dropbox/PhD/Code/LBM/2D LBFS/src/artificial_dissipation.cpp ****         local_flux.momentum_y = lambda_flux *global_2nd_order
 1395              		.loc 4 207 0
 1396 0d16 4C8B4588 		movq	-120(%rbp), %r8
 1397 0d1a 488B7D90 		movq	-112(%rbp), %rdi
 1398 0d1e 8B4D18   		movl	24(%rbp), %ecx
GAS LISTING /tmp/ccGTdBzt.s 			page 36


 1399 0d21 8B55AC   		movl	-84(%rbp), %edx
 1400 0d24 488B4598 		movq	-104(%rbp), %rax
 1401 0d28 8B7510   		movl	16(%rbp), %esi
 1402 0d2b 56       		pushq	%rsi
 1403 0d2c FFB570FF 		pushq	-144(%rbp)
 1403      FFFF
 1404 0d32 FFB578FF 		pushq	-136(%rbp)
 1404      FFFF
 1405 0d38 FF7580   		pushq	-128(%rbp)
 1406 0d3b 4D89C1   		movq	%r8, %r9
 1407 0d3e 4989F8   		movq	%rdi, %r8
 1408 0d41 BE020000 		movl	$2, %esi
 1408      00
 1409 0d46 4889C7   		movq	%rax, %rdi
 1410 0d49 E8000000 		call	_ZN22artificial_dissipation21_4th_order_differenceEiiiR8SolutionR19Boundary_ConditionsR4MeshS
 1410      00
 1411 0d4e 4883C420 		addq	$32, %rsp
 1412 0d52 F20F5985 		mulsd	-160(%rbp), %xmm0
 1412      60FFFFFF 
 206:/home/brendan/Dropbox/PhD/Code/LBM/2D LBFS/src/artificial_dissipation.cpp ****                 * _4th_order_difference(2,neighbour,i,soln,bcs,Mesh,local_soln,domain,j);
 1413              		.loc 4 206 0
 1414 0d5a F20F10A5 		movsd	-152(%rbp), %xmm4
 1414      68FFFFFF 
 1415 0d62 F20F5CE0 		subsd	%xmm0, %xmm4
 1416 0d66 660F28C4 		movapd	%xmm4, %xmm0
 207:/home/brendan/Dropbox/PhD/Code/LBM/2D LBFS/src/artificial_dissipation.cpp ****         local_flux.momentum_y = lambda_flux *global_2nd_order
 1417              		.loc 4 207 0
 1418 0d6a 488B4598 		movq	-104(%rbp), %rax
 1419 0d6e F20F1180 		movsd	%xmm0, 128(%rax)
 1419      80000000 
 208:/home/brendan/Dropbox/PhD/Code/LBM/2D LBFS/src/artificial_dissipation.cpp ****                 * second_order_difference(3,neighbour,i,soln,local_soln)
 1420              		.loc 4 208 0
 1421 0d76 488B4598 		movq	-104(%rbp), %rax
 1422 0d7a F20F1040 		movsd	56(%rax), %xmm0
 1422      38
 1423 0d7f F20F5945 		mulsd	-32(%rbp), %xmm0
 1423      E0
 1424 0d84 F20F1185 		movsd	%xmm0, -152(%rbp)
 1424      68FFFFFF 
 209:/home/brendan/Dropbox/PhD/Code/LBM/2D LBFS/src/artificial_dissipation.cpp ****                 - lambda_flux  * global_4th_order
 1425              		.loc 4 209 0
 1426 0d8c 488BBD78 		movq	-136(%rbp), %rdi
 1426      FFFFFF
 1427 0d93 488B7590 		movq	-112(%rbp), %rsi
 1428 0d97 8B4D18   		movl	24(%rbp), %ecx
 1429 0d9a 8B55AC   		movl	-84(%rbp), %edx
 1430 0d9d 488B4598 		movq	-104(%rbp), %rax
 1431 0da1 4989F9   		movq	%rdi, %r9
 1432 0da4 4989F0   		movq	%rsi, %r8
 1433 0da7 BE030000 		movl	$3, %esi
 1433      00
 1434 0dac 4889C7   		movq	%rax, %rdi
 1435 0daf E8000000 		call	_ZN22artificial_dissipation23second_order_differenceEiiiR8SolutionS1_
 1435      00
 1436 0db4 F20F5985 		mulsd	-152(%rbp), %xmm0
 1436      68FFFFFF 
 1437 0dbc F20F1185 		movsd	%xmm0, -152(%rbp)
GAS LISTING /tmp/ccGTdBzt.s 			page 37


 1437      68FFFFFF 
 210:/home/brendan/Dropbox/PhD/Code/LBM/2D LBFS/src/artificial_dissipation.cpp ****                 * _4th_order_difference(3,neighbour,i,soln,bcs,Mesh,local_soln,domain,j);
 1438              		.loc 4 210 0
 1439 0dc4 488B4598 		movq	-104(%rbp), %rax
 1440 0dc8 F20F1040 		movsd	64(%rax), %xmm0
 1440      40
 1441 0dcd 660F28F0 		movapd	%xmm0, %xmm6
 1442 0dd1 F20F5975 		mulsd	-32(%rbp), %xmm6
 1442      E0
 1443 0dd6 F20F11B5 		movsd	%xmm6, -160(%rbp)
 1443      60FFFFFF 
 211:/home/brendan/Dropbox/PhD/Code/LBM/2D LBFS/src/artificial_dissipation.cpp ****         local_flux.momentum_z = 0.0;
 1444              		.loc 4 211 0
 1445 0dde 4C8B4588 		movq	-120(%rbp), %r8
 1446 0de2 488B7D90 		movq	-112(%rbp), %rdi
 1447 0de6 8B4D18   		movl	24(%rbp), %ecx
 1448 0de9 8B55AC   		movl	-84(%rbp), %edx
 1449 0dec 488B4598 		movq	-104(%rbp), %rax
 1450 0df0 8B7510   		movl	16(%rbp), %esi
 1451 0df3 56       		pushq	%rsi
 1452 0df4 FFB570FF 		pushq	-144(%rbp)
 1452      FFFF
 1453 0dfa FFB578FF 		pushq	-136(%rbp)
 1453      FFFF
 1454 0e00 FF7580   		pushq	-128(%rbp)
 1455 0e03 4D89C1   		movq	%r8, %r9
 1456 0e06 4989F8   		movq	%rdi, %r8
 1457 0e09 BE030000 		movl	$3, %esi
 1457      00
 1458 0e0e 4889C7   		movq	%rax, %rdi
 1459 0e11 E8000000 		call	_ZN22artificial_dissipation21_4th_order_differenceEiiiR8SolutionR19Boundary_ConditionsR4MeshS
 1459      00
 1460 0e16 4883C420 		addq	$32, %rsp
 1461 0e1a F20F5985 		mulsd	-160(%rbp), %xmm0
 1461      60FFFFFF 
 210:/home/brendan/Dropbox/PhD/Code/LBM/2D LBFS/src/artificial_dissipation.cpp ****                 * _4th_order_difference(3,neighbour,i,soln,bcs,Mesh,local_soln,domain,j);
 1462              		.loc 4 210 0
 1463 0e22 F20F10AD 		movsd	-152(%rbp), %xmm5
 1463      68FFFFFF 
 1464 0e2a F20F5CE8 		subsd	%xmm0, %xmm5
 1465 0e2e 660F28C5 		movapd	%xmm5, %xmm0
 211:/home/brendan/Dropbox/PhD/Code/LBM/2D LBFS/src/artificial_dissipation.cpp ****         local_flux.momentum_z = 0.0;
 1466              		.loc 4 211 0
 1467 0e32 488B4598 		movq	-104(%rbp), %rax
 1468 0e36 F20F1180 		movsd	%xmm0, 136(%rax)
 1468      88000000 
 212:/home/brendan/Dropbox/PhD/Code/LBM/2D LBFS/src/artificial_dissipation.cpp **** 
 1469              		.loc 4 212 0
 1470 0e3e 488B4598 		movq	-104(%rbp), %rax
 1471 0e42 660FEFC0 		pxor	%xmm0, %xmm0
 1472 0e46 F20F1180 		movsd	%xmm0, 144(%rax)
 1472      90000000 
 1473              	.L62:
 1474              	.LBE11:
 1475              	.LBE12:
 1476              		.loc 4 221 0
 1477 0e4e 90       		nop
GAS LISTING /tmp/ccGTdBzt.s 			page 38


 1478 0e4f 488B45F8 		movq	-8(%rbp), %rax
 1479 0e53 64483304 		xorq	%fs:40, %rax
 1479      25280000 
 1479      00
 1480 0e5c 7405     		je	.L61
 1481 0e5e E8000000 		call	__stack_chk_fail
 1481      00
 1482              	.L61:
 1483 0e63 C9       		leave
 1484              		.cfi_def_cfa 7, 8
 1485 0e64 C3       		ret
 1486              		.cfi_endproc
 1487              	.LFE6205:
 1489 0e65 90       		.align 2
 1490              		.globl	_ZN22artificial_dissipation22reset_local_jst_switchEv
 1492              	_ZN22artificial_dissipation22reset_local_jst_switchEv:
 1493              	.LFB6206:
 222:/home/brendan/Dropbox/PhD/Code/LBM/2D LBFS/src/artificial_dissipation.cpp **** 
 223:/home/brendan/Dropbox/PhD/Code/LBM/2D LBFS/src/artificial_dissipation.cpp **** 
 224:/home/brendan/Dropbox/PhD/Code/LBM/2D LBFS/src/artificial_dissipation.cpp **** 
 225:/home/brendan/Dropbox/PhD/Code/LBM/2D LBFS/src/artificial_dissipation.cpp **** void artificial_dissipation::reset_local_jst_switch(){
 1494              		.loc 4 225 0
 1495              		.cfi_startproc
 1496 0e66 55       		pushq	%rbp
 1497              		.cfi_def_cfa_offset 16
 1498              		.cfi_offset 6, -16
 1499 0e67 4889E5   		movq	%rsp, %rbp
 1500              		.cfi_def_cfa_register 6
 1501 0e6a 48897DF8 		movq	%rdi, -8(%rbp)
 226:/home/brendan/Dropbox/PhD/Code/LBM/2D LBFS/src/artificial_dissipation.cpp ****     local_jst_switch_x = 0.0;
 1502              		.loc 4 226 0
 1503 0e6e 488B45F8 		movq	-8(%rbp), %rax
 1504 0e72 660FEFC0 		pxor	%xmm0, %xmm0
 1505 0e76 F20F1140 		movsd	%xmm0, 24(%rax)
 1505      18
 227:/home/brendan/Dropbox/PhD/Code/LBM/2D LBFS/src/artificial_dissipation.cpp ****     local_jst_switch_y = 0.0;
 1506              		.loc 4 227 0
 1507 0e7b 488B45F8 		movq	-8(%rbp), %rax
 1508 0e7f 660FEFC0 		pxor	%xmm0, %xmm0
 1509 0e83 F20F1140 		movsd	%xmm0, 32(%rax)
 1509      20
 228:/home/brendan/Dropbox/PhD/Code/LBM/2D LBFS/src/artificial_dissipation.cpp ****     jst_num = 0.0;
 1510              		.loc 4 228 0
 1511 0e88 488B45F8 		movq	-8(%rbp), %rax
 1512 0e8c 660FEFC0 		pxor	%xmm0, %xmm0
 1513 0e90 F20F1180 		movsd	%xmm0, 152(%rax)
 1513      98000000 
 229:/home/brendan/Dropbox/PhD/Code/LBM/2D LBFS/src/artificial_dissipation.cpp ****     jst_den = 0.0;
 1514              		.loc 4 229 0
 1515 0e98 488B45F8 		movq	-8(%rbp), %rax
 1516 0e9c 660FEFC0 		pxor	%xmm0, %xmm0
 1517 0ea0 F20F1180 		movsd	%xmm0, 160(%rax)
 1517      A0000000 
 230:/home/brendan/Dropbox/PhD/Code/LBM/2D LBFS/src/artificial_dissipation.cpp **** 
 231:/home/brendan/Dropbox/PhD/Code/LBM/2D LBFS/src/artificial_dissipation.cpp ****     local_flux.P = 0.0;
 1518              		.loc 4 231 0
 1519 0ea8 488B45F8 		movq	-8(%rbp), %rax
GAS LISTING /tmp/ccGTdBzt.s 			page 39


 1520 0eac 660FEFC0 		pxor	%xmm0, %xmm0
 1521 0eb0 F20F1140 		movsd	%xmm0, 120(%rax)
 1521      78
 232:/home/brendan/Dropbox/PhD/Code/LBM/2D LBFS/src/artificial_dissipation.cpp ****     local_flux.momentum_x = 0.0;
 1522              		.loc 4 232 0
 1523 0eb5 488B45F8 		movq	-8(%rbp), %rax
 1524 0eb9 660FEFC0 		pxor	%xmm0, %xmm0
 1525 0ebd F20F1180 		movsd	%xmm0, 128(%rax)
 1525      80000000 
 233:/home/brendan/Dropbox/PhD/Code/LBM/2D LBFS/src/artificial_dissipation.cpp ****     local_flux.momentum_y = 0.0;
 1526              		.loc 4 233 0
 1527 0ec5 488B45F8 		movq	-8(%rbp), %rax
 1528 0ec9 660FEFC0 		pxor	%xmm0, %xmm0
 1529 0ecd F20F1180 		movsd	%xmm0, 136(%rax)
 1529      88000000 
 234:/home/brendan/Dropbox/PhD/Code/LBM/2D LBFS/src/artificial_dissipation.cpp ****     local_flux.momentum_z = 0.0;
 1530              		.loc 4 234 0
 1531 0ed5 488B45F8 		movq	-8(%rbp), %rax
 1532 0ed9 660FEFC0 		pxor	%xmm0, %xmm0
 1533 0edd F20F1180 		movsd	%xmm0, 144(%rax)
 1533      90000000 
 235:/home/brendan/Dropbox/PhD/Code/LBM/2D LBFS/src/artificial_dissipation.cpp **** }
 1534              		.loc 4 235 0
 1535 0ee5 90       		nop
 1536 0ee6 5D       		popq	%rbp
 1537              		.cfi_def_cfa 7, 8
 1538 0ee7 C3       		ret
 1539              		.cfi_endproc
 1540              	.LFE6206:
 1542              		.align 2
 1543              		.globl	_ZN22artificial_dissipation23second_order_differenceEiiiR8SolutionS1_
 1545              	_ZN22artificial_dissipation23second_order_differenceEiiiR8SolutionS1_:
 1546              	.LFB6207:
 236:/home/brendan/Dropbox/PhD/Code/LBM/2D LBFS/src/artificial_dissipation.cpp **** 
 237:/home/brendan/Dropbox/PhD/Code/LBM/2D LBFS/src/artificial_dissipation.cpp **** 
 238:/home/brendan/Dropbox/PhD/Code/LBM/2D LBFS/src/artificial_dissipation.cpp **** //use local_soln for current volume as this is the must up to date in the multi stage solution
 239:/home/brendan/Dropbox/PhD/Code/LBM/2D LBFS/src/artificial_dissipation.cpp **** double artificial_dissipation::second_order_difference(int var, int neighbour, int i,Solution &soln
 240:/home/brendan/Dropbox/PhD/Code/LBM/2D LBFS/src/artificial_dissipation.cpp ****                                                        Solution &local_soln){
 1547              		.loc 4 240 0
 1548              		.cfi_startproc
 1549 0ee8 55       		pushq	%rbp
 1550              		.cfi_def_cfa_offset 16
 1551              		.cfi_offset 6, -16
 1552 0ee9 4889E5   		movq	%rsp, %rbp
 1553              		.cfi_def_cfa_register 6
 1554 0eec 4883EC40 		subq	$64, %rsp
 1555 0ef0 48897DE8 		movq	%rdi, -24(%rbp)
 1556 0ef4 8975E4   		movl	%esi, -28(%rbp)
 1557 0ef7 8955E0   		movl	%edx, -32(%rbp)
 1558 0efa 894DDC   		movl	%ecx, -36(%rbp)
 1559 0efd 4C8945D0 		movq	%r8, -48(%rbp)
 1560 0f01 4C894DC8 		movq	%r9, -56(%rbp)
 241:/home/brendan/Dropbox/PhD/Code/LBM/2D LBFS/src/artificial_dissipation.cpp **** 
 242:/home/brendan/Dropbox/PhD/Code/LBM/2D LBFS/src/artificial_dissipation.cpp ****                     double temp;
 243:/home/brendan/Dropbox/PhD/Code/LBM/2D LBFS/src/artificial_dissipation.cpp **** 
 244:/home/brendan/Dropbox/PhD/Code/LBM/2D LBFS/src/artificial_dissipation.cpp ****                     switch(var){
 1561              		.loc 4 244 0
GAS LISTING /tmp/ccGTdBzt.s 			page 40


 1562 0f05 8B45E4   		movl	-28(%rbp), %eax
 1563 0f08 83F802   		cmpl	$2, %eax
 1564 0f0b 7464     		je	.L66
 1565 0f0d 83F802   		cmpl	$2, %eax
 1566 0f10 7F0A     		jg	.L67
 1567 0f12 83F801   		cmpl	$1, %eax
 1568 0f15 741C     		je	.L68
 1569 0f17 E9050100 		jmp	.L65
 1569      00
 1570              	.L67:
 1571 0f1c 83F803   		cmpl	$3, %eax
 1572 0f1f 0F848700 		je	.L69
 1572      0000
 1573 0f25 83F804   		cmpl	$4, %eax
 1574 0f28 0F84B900 		je	.L70
 1574      0000
 1575 0f2e E9EE0000 		jmp	.L65
 1575      00
 1576              	.L68:
 245:/home/brendan/Dropbox/PhD/Code/LBM/2D LBFS/src/artificial_dissipation.cpp **** 
 246:/home/brendan/Dropbox/PhD/Code/LBM/2D LBFS/src/artificial_dissipation.cpp ****                         case(1):
 247:/home/brendan/Dropbox/PhD/Code/LBM/2D LBFS/src/artificial_dissipation.cpp ****                             temp = soln.get_rho(neighbour) - local_soln.get_rho(i);
 1577              		.loc 4 247 0
 1578 0f33 8B55E0   		movl	-32(%rbp), %edx
 1579 0f36 488B45D0 		movq	-48(%rbp), %rax
 1580 0f3a 89D6     		movl	%edx, %esi
 1581 0f3c 4889C7   		movq	%rax, %rdi
 1582 0f3f E8000000 		call	_ZN8Solution7get_rhoEi
 1582      00
 1583 0f44 F20F1145 		movsd	%xmm0, -64(%rbp)
 1583      C0
 1584 0f49 8B55DC   		movl	-36(%rbp), %edx
 1585 0f4c 488B45C8 		movq	-56(%rbp), %rax
 1586 0f50 89D6     		movl	%edx, %esi
 1587 0f52 4889C7   		movq	%rax, %rdi
 1588 0f55 E8000000 		call	_ZN8Solution7get_rhoEi
 1588      00
 1589 0f5a F20F104D 		movsd	-64(%rbp), %xmm1
 1589      C0
 1590 0f5f F20F5CC8 		subsd	%xmm0, %xmm1
 1591 0f63 660F28C1 		movapd	%xmm1, %xmm0
 1592 0f67 F20F1145 		movsd	%xmm0, -8(%rbp)
 1592      F8
 248:/home/brendan/Dropbox/PhD/Code/LBM/2D LBFS/src/artificial_dissipation.cpp ****                             break;
 1593              		.loc 4 248 0
 1594 0f6c E9B00000 		jmp	.L65
 1594      00
 1595              	.L66:
 249:/home/brendan/Dropbox/PhD/Code/LBM/2D LBFS/src/artificial_dissipation.cpp ****                         case(2):
 250:/home/brendan/Dropbox/PhD/Code/LBM/2D LBFS/src/artificial_dissipation.cpp ****                             temp = soln.get_u(neighbour) - local_soln.get_u(i);
 1596              		.loc 4 250 0
 1597 0f71 8B55E0   		movl	-32(%rbp), %edx
 1598 0f74 488B45D0 		movq	-48(%rbp), %rax
 1599 0f78 89D6     		movl	%edx, %esi
 1600 0f7a 4889C7   		movq	%rax, %rdi
 1601 0f7d E8000000 		call	_ZN8Solution5get_uEi
 1601      00
GAS LISTING /tmp/ccGTdBzt.s 			page 41


 1602 0f82 F20F1145 		movsd	%xmm0, -64(%rbp)
 1602      C0
 1603 0f87 8B55DC   		movl	-36(%rbp), %edx
 1604 0f8a 488B45C8 		movq	-56(%rbp), %rax
 1605 0f8e 89D6     		movl	%edx, %esi
 1606 0f90 4889C7   		movq	%rax, %rdi
 1607 0f93 E8000000 		call	_ZN8Solution5get_uEi
 1607      00
 1608 0f98 F20F1055 		movsd	-64(%rbp), %xmm2
 1608      C0
 1609 0f9d F20F5CD0 		subsd	%xmm0, %xmm2
 1610 0fa1 660F28C2 		movapd	%xmm2, %xmm0
 1611 0fa5 F20F1145 		movsd	%xmm0, -8(%rbp)
 1611      F8
 251:/home/brendan/Dropbox/PhD/Code/LBM/2D LBFS/src/artificial_dissipation.cpp ****                             break;
 1612              		.loc 4 251 0
 1613 0faa EB75     		jmp	.L65
 1614              	.L69:
 252:/home/brendan/Dropbox/PhD/Code/LBM/2D LBFS/src/artificial_dissipation.cpp ****                         case(3):
 253:/home/brendan/Dropbox/PhD/Code/LBM/2D LBFS/src/artificial_dissipation.cpp ****                             temp = soln.get_v(neighbour) - local_soln.get_v(i);
 1615              		.loc 4 253 0
 1616 0fac 8B55E0   		movl	-32(%rbp), %edx
 1617 0faf 488B45D0 		movq	-48(%rbp), %rax
 1618 0fb3 89D6     		movl	%edx, %esi
 1619 0fb5 4889C7   		movq	%rax, %rdi
 1620 0fb8 E8000000 		call	_ZN8Solution5get_vEi
 1620      00
 1621 0fbd F20F1145 		movsd	%xmm0, -64(%rbp)
 1621      C0
 1622 0fc2 8B55DC   		movl	-36(%rbp), %edx
 1623 0fc5 488B45C8 		movq	-56(%rbp), %rax
 1624 0fc9 89D6     		movl	%edx, %esi
 1625 0fcb 4889C7   		movq	%rax, %rdi
 1626 0fce E8000000 		call	_ZN8Solution5get_vEi
 1626      00
 1627 0fd3 F20F105D 		movsd	-64(%rbp), %xmm3
 1627      C0
 1628 0fd8 F20F5CD8 		subsd	%xmm0, %xmm3
 1629 0fdc 660F28C3 		movapd	%xmm3, %xmm0
 1630 0fe0 F20F1145 		movsd	%xmm0, -8(%rbp)
 1630      F8
 254:/home/brendan/Dropbox/PhD/Code/LBM/2D LBFS/src/artificial_dissipation.cpp ****                             break;
 1631              		.loc 4 254 0
 1632 0fe5 EB3A     		jmp	.L65
 1633              	.L70:
 255:/home/brendan/Dropbox/PhD/Code/LBM/2D LBFS/src/artificial_dissipation.cpp ****                         case(4):
 256:/home/brendan/Dropbox/PhD/Code/LBM/2D LBFS/src/artificial_dissipation.cpp ****                             temp = soln.get_w(neighbour) - local_soln.get_w(i);
 1634              		.loc 4 256 0
 1635 0fe7 8B55E0   		movl	-32(%rbp), %edx
 1636 0fea 488B45D0 		movq	-48(%rbp), %rax
 1637 0fee 89D6     		movl	%edx, %esi
 1638 0ff0 4889C7   		movq	%rax, %rdi
 1639 0ff3 E8000000 		call	_ZN8Solution5get_wEi
 1639      00
 1640 0ff8 F20F1145 		movsd	%xmm0, -64(%rbp)
 1640      C0
 1641 0ffd 8B55DC   		movl	-36(%rbp), %edx
GAS LISTING /tmp/ccGTdBzt.s 			page 42


 1642 1000 488B45C8 		movq	-56(%rbp), %rax
 1643 1004 89D6     		movl	%edx, %esi
 1644 1006 4889C7   		movq	%rax, %rdi
 1645 1009 E8000000 		call	_ZN8Solution5get_wEi
 1645      00
 1646 100e F20F1065 		movsd	-64(%rbp), %xmm4
 1646      C0
 1647 1013 F20F5CE0 		subsd	%xmm0, %xmm4
 1648 1017 660F28C4 		movapd	%xmm4, %xmm0
 1649 101b F20F1145 		movsd	%xmm0, -8(%rbp)
 1649      F8
 257:/home/brendan/Dropbox/PhD/Code/LBM/2D LBFS/src/artificial_dissipation.cpp ****                             break;
 1650              		.loc 4 257 0
 1651 1020 90       		nop
 1652              	.L65:
 258:/home/brendan/Dropbox/PhD/Code/LBM/2D LBFS/src/artificial_dissipation.cpp **** 
 259:/home/brendan/Dropbox/PhD/Code/LBM/2D LBFS/src/artificial_dissipation.cpp **** 
 260:/home/brendan/Dropbox/PhD/Code/LBM/2D LBFS/src/artificial_dissipation.cpp ****                     }
 261:/home/brendan/Dropbox/PhD/Code/LBM/2D LBFS/src/artificial_dissipation.cpp **** 
 262:/home/brendan/Dropbox/PhD/Code/LBM/2D LBFS/src/artificial_dissipation.cpp ****                            return temp;
 1653              		.loc 4 262 0
 1654 1021 F20F1045 		movsd	-8(%rbp), %xmm0
 1654      F8
 263:/home/brendan/Dropbox/PhD/Code/LBM/2D LBFS/src/artificial_dissipation.cpp **** 
 264:/home/brendan/Dropbox/PhD/Code/LBM/2D LBFS/src/artificial_dissipation.cpp ****                     }
 1655              		.loc 4 264 0
 1656 1026 C9       		leave
 1657              		.cfi_def_cfa 7, 8
 1658 1027 C3       		ret
 1659              		.cfi_endproc
 1660              	.LFE6207:
 1662              		.align 2
 1663              		.globl	_ZN22artificial_dissipation21_4th_order_differenceEiiiR8SolutionR19Boundary_ConditionsR4Mes
 1665              	_ZN22artificial_dissipation21_4th_order_differenceEiiiR8SolutionR19Boundary_ConditionsR4MeshS1_R15d
 1666              	.LFB6208:
 265:/home/brendan/Dropbox/PhD/Code/LBM/2D LBFS/src/artificial_dissipation.cpp **** double artificial_dissipation::_4th_order_difference(int var, int neighbour, int i,Solution &soln,
 266:/home/brendan/Dropbox/PhD/Code/LBM/2D LBFS/src/artificial_dissipation.cpp ****                         Boundary_Conditions &bcs,Mesh &Mesh, Solution &local_soln,
 267:/home/brendan/Dropbox/PhD/Code/LBM/2D LBFS/src/artificial_dissipation.cpp ****                         domain_geometry &domain,int j){
 1667              		.loc 4 267 0
 1668              		.cfi_startproc
 1669 1028 55       		pushq	%rbp
 1670              		.cfi_def_cfa_offset 16
 1671              		.cfi_offset 6, -16
 1672 1029 4889E5   		movq	%rsp, %rbp
 1673              		.cfi_def_cfa_register 6
 1674 102c 4883EC40 		subq	$64, %rsp
 1675 1030 48897DE8 		movq	%rdi, -24(%rbp)
 1676 1034 8975E4   		movl	%esi, -28(%rbp)
 1677 1037 8955E0   		movl	%edx, -32(%rbp)
 1678 103a 894DDC   		movl	%ecx, -36(%rbp)
 1679 103d 4C8945D0 		movq	%r8, -48(%rbp)
 1680 1041 4C894DC8 		movq	%r9, -56(%rbp)
 268:/home/brendan/Dropbox/PhD/Code/LBM/2D LBFS/src/artificial_dissipation.cpp **** 
 269:/home/brendan/Dropbox/PhD/Code/LBM/2D LBFS/src/artificial_dissipation.cpp ****                     double temp;
 270:/home/brendan/Dropbox/PhD/Code/LBM/2D LBFS/src/artificial_dissipation.cpp **** 
 271:/home/brendan/Dropbox/PhD/Code/LBM/2D LBFS/src/artificial_dissipation.cpp ****                     switch(var){
 1681              		.loc 4 271 0
GAS LISTING /tmp/ccGTdBzt.s 			page 43


 1682 1045 8B45E4   		movl	-28(%rbp), %eax
 1683 1048 83F802   		cmpl	$2, %eax
 1684 104b 0F843C05 		je	.L74
 1684      0000
 1685 1051 83F802   		cmpl	$2, %eax
 1686 1054 7F0A     		jg	.L75
 1687 1056 83F801   		cmpl	$1, %eax
 1688 1059 741C     		je	.L76
 1689 105b E96B1400 		jmp	.L73
 1689      00
 1690              	.L75:
 1691 1060 83F803   		cmpl	$3, %eax
 1692 1063 0F843A0A 		je	.L77
 1692      0000
 1693 1069 83F804   		cmpl	$4, %eax
 1694 106c 0F84470F 		je	.L78
 1694      0000
 1695 1072 E9541400 		jmp	.L73
 1695      00
 1696              	.L76:
 272:/home/brendan/Dropbox/PhD/Code/LBM/2D LBFS/src/artificial_dissipation.cpp **** 
 273:/home/brendan/Dropbox/PhD/Code/LBM/2D LBFS/src/artificial_dissipation.cpp ****                         case(1):
 274:/home/brendan/Dropbox/PhD/Code/LBM/2D LBFS/src/artificial_dissipation.cpp **** 
 275:/home/brendan/Dropbox/PhD/Code/LBM/2D LBFS/src/artificial_dissipation.cpp ****                             switch(j){
 1697              		.loc 4 275 0
 1698 1077 8B4528   		movl	40(%rbp), %eax
 1699 107a 83F801   		cmpl	$1, %eax
 1700 107d 0F845E01 		je	.L80
 1700      0000
 1701 1083 83F801   		cmpl	$1, %eax
 1702 1086 7F09     		jg	.L81
 1703 1088 85C0     		testl	%eax, %eax
 1704 108a 741C     		je	.L82
 276:/home/brendan/Dropbox/PhD/Code/LBM/2D LBFS/src/artificial_dissipation.cpp ****                                 case(0):
 277:/home/brendan/Dropbox/PhD/Code/LBM/2D LBFS/src/artificial_dissipation.cpp ****                                     if(bcs.get_bc(neighbour)){
 278:/home/brendan/Dropbox/PhD/Code/LBM/2D LBFS/src/artificial_dissipation.cpp ****                                             temp = 2*local_soln.get_rho(i)      // U j
 279:/home/brendan/Dropbox/PhD/Code/LBM/2D LBFS/src/artificial_dissipation.cpp ****                                                 -soln.get_rho(neighbour)      // U j+1
 280:/home/brendan/Dropbox/PhD/Code/LBM/2D LBFS/src/artificial_dissipation.cpp ****                                                 - soln.get_rho(Mesh.get_e_node(neighbour));
 281:/home/brendan/Dropbox/PhD/Code/LBM/2D LBFS/src/artificial_dissipation.cpp **** 
 282:/home/brendan/Dropbox/PhD/Code/LBM/2D LBFS/src/artificial_dissipation.cpp ****                                     }else{
 283:/home/brendan/Dropbox/PhD/Code/LBM/2D LBFS/src/artificial_dissipation.cpp ****                                         temp = soln.get_rho(Mesh.get_w_node(neighbour) ) // U j+2
 284:/home/brendan/Dropbox/PhD/Code/LBM/2D LBFS/src/artificial_dissipation.cpp ****                                         - 3* soln.get_rho(neighbour)                //U j+1
 285:/home/brendan/Dropbox/PhD/Code/LBM/2D LBFS/src/artificial_dissipation.cpp ****                                         + 3* local_soln.get_rho(i)                  // U j
 286:/home/brendan/Dropbox/PhD/Code/LBM/2D LBFS/src/artificial_dissipation.cpp ****                                         - soln.get_rho(Mesh.get_e_node(neighbour));  // U j-1
 287:/home/brendan/Dropbox/PhD/Code/LBM/2D LBFS/src/artificial_dissipation.cpp **** 
 288:/home/brendan/Dropbox/PhD/Code/LBM/2D LBFS/src/artificial_dissipation.cpp ****                                     }
 289:/home/brendan/Dropbox/PhD/Code/LBM/2D LBFS/src/artificial_dissipation.cpp **** 
 290:/home/brendan/Dropbox/PhD/Code/LBM/2D LBFS/src/artificial_dissipation.cpp ****                                     break;
 291:/home/brendan/Dropbox/PhD/Code/LBM/2D LBFS/src/artificial_dissipation.cpp ****                                 case(1):
 292:/home/brendan/Dropbox/PhD/Code/LBM/2D LBFS/src/artificial_dissipation.cpp ****                                       if(bcs.get_bc(neighbour)){
 293:/home/brendan/Dropbox/PhD/Code/LBM/2D LBFS/src/artificial_dissipation.cpp ****                                             temp = 2*local_soln.get_rho(i)      // U j
 294:/home/brendan/Dropbox/PhD/Code/LBM/2D LBFS/src/artificial_dissipation.cpp ****                                                 -soln.get_rho(neighbour)      // U j+1
 295:/home/brendan/Dropbox/PhD/Code/LBM/2D LBFS/src/artificial_dissipation.cpp ****                                                 - soln.get_rho(Mesh.get_n_node(neighbour));
 296:/home/brendan/Dropbox/PhD/Code/LBM/2D LBFS/src/artificial_dissipation.cpp **** 
 297:/home/brendan/Dropbox/PhD/Code/LBM/2D LBFS/src/artificial_dissipation.cpp ****                                         }else{
 298:/home/brendan/Dropbox/PhD/Code/LBM/2D LBFS/src/artificial_dissipation.cpp **** 
 299:/home/brendan/Dropbox/PhD/Code/LBM/2D LBFS/src/artificial_dissipation.cpp ****                                         temp = soln.get_rho(Mesh.get_s_node(neighbour) ) // U j+2
GAS LISTING /tmp/ccGTdBzt.s 			page 44


 300:/home/brendan/Dropbox/PhD/Code/LBM/2D LBFS/src/artificial_dissipation.cpp ****                                             - 3* soln.get_rho(neighbour)                //U j+1
 301:/home/brendan/Dropbox/PhD/Code/LBM/2D LBFS/src/artificial_dissipation.cpp ****                                             + 3* local_soln.get_rho(i)                  // U j
 302:/home/brendan/Dropbox/PhD/Code/LBM/2D LBFS/src/artificial_dissipation.cpp ****                                             - soln.get_rho(Mesh.get_n_node(neighbour));  // U j-1
 303:/home/brendan/Dropbox/PhD/Code/LBM/2D LBFS/src/artificial_dissipation.cpp ****                                         }
 304:/home/brendan/Dropbox/PhD/Code/LBM/2D LBFS/src/artificial_dissipation.cpp ****                                     break;
 305:/home/brendan/Dropbox/PhD/Code/LBM/2D LBFS/src/artificial_dissipation.cpp ****                                 case(2):
 306:/home/brendan/Dropbox/PhD/Code/LBM/2D LBFS/src/artificial_dissipation.cpp ****                                       if(bcs.get_bc(neighbour)){
 307:/home/brendan/Dropbox/PhD/Code/LBM/2D LBFS/src/artificial_dissipation.cpp ****                                             temp = 2*local_soln.get_rho(i)      // U j
 308:/home/brendan/Dropbox/PhD/Code/LBM/2D LBFS/src/artificial_dissipation.cpp ****                                                 -soln.get_rho(neighbour)      // U j+1
 309:/home/brendan/Dropbox/PhD/Code/LBM/2D LBFS/src/artificial_dissipation.cpp ****                                                 - soln.get_rho(Mesh.get_w_node(neighbour));
 310:/home/brendan/Dropbox/PhD/Code/LBM/2D LBFS/src/artificial_dissipation.cpp **** 
 311:/home/brendan/Dropbox/PhD/Code/LBM/2D LBFS/src/artificial_dissipation.cpp ****                                         }else{
 312:/home/brendan/Dropbox/PhD/Code/LBM/2D LBFS/src/artificial_dissipation.cpp ****                                             temp = soln.get_rho(Mesh.get_e_node(neighbour) ) // U j
 313:/home/brendan/Dropbox/PhD/Code/LBM/2D LBFS/src/artificial_dissipation.cpp ****                                                 - 3* soln.get_rho(neighbour)                //U j+1
 314:/home/brendan/Dropbox/PhD/Code/LBM/2D LBFS/src/artificial_dissipation.cpp ****                                                 + 3* local_soln.get_rho(i)                  // U j
 315:/home/brendan/Dropbox/PhD/Code/LBM/2D LBFS/src/artificial_dissipation.cpp ****                                             - soln.get_rho(Mesh.get_w_node(neighbour));  // U j-1
 316:/home/brendan/Dropbox/PhD/Code/LBM/2D LBFS/src/artificial_dissipation.cpp ****                                         }
 317:/home/brendan/Dropbox/PhD/Code/LBM/2D LBFS/src/artificial_dissipation.cpp ****                                     break;
 318:/home/brendan/Dropbox/PhD/Code/LBM/2D LBFS/src/artificial_dissipation.cpp ****                                 case(3):
 319:/home/brendan/Dropbox/PhD/Code/LBM/2D LBFS/src/artificial_dissipation.cpp ****                                       if(bcs.get_bc(neighbour)){
 320:/home/brendan/Dropbox/PhD/Code/LBM/2D LBFS/src/artificial_dissipation.cpp ****                                             temp = 2*local_soln.get_rho(i)      // U j
 321:/home/brendan/Dropbox/PhD/Code/LBM/2D LBFS/src/artificial_dissipation.cpp ****                                                 -soln.get_rho(neighbour)      // U j+1
 322:/home/brendan/Dropbox/PhD/Code/LBM/2D LBFS/src/artificial_dissipation.cpp ****                                                 - soln.get_rho(Mesh.get_s_node(neighbour));
 323:/home/brendan/Dropbox/PhD/Code/LBM/2D LBFS/src/artificial_dissipation.cpp **** 
 324:/home/brendan/Dropbox/PhD/Code/LBM/2D LBFS/src/artificial_dissipation.cpp ****                                         }else{
 325:/home/brendan/Dropbox/PhD/Code/LBM/2D LBFS/src/artificial_dissipation.cpp ****                                             temp = soln.get_rho(Mesh.get_n_node(neighbour) ) // U j
 326:/home/brendan/Dropbox/PhD/Code/LBM/2D LBFS/src/artificial_dissipation.cpp ****                                                 - 3* soln.get_rho(neighbour)                //U j+1
 327:/home/brendan/Dropbox/PhD/Code/LBM/2D LBFS/src/artificial_dissipation.cpp ****                                                 + 3* local_soln.get_rho(i)                  // U j
 328:/home/brendan/Dropbox/PhD/Code/LBM/2D LBFS/src/artificial_dissipation.cpp ****                                                 - soln.get_rho(Mesh.get_s_node(neighbour));  // U j
 329:/home/brendan/Dropbox/PhD/Code/LBM/2D LBFS/src/artificial_dissipation.cpp ****                                         }
 330:/home/brendan/Dropbox/PhD/Code/LBM/2D LBFS/src/artificial_dissipation.cpp ****                                     break;
 331:/home/brendan/Dropbox/PhD/Code/LBM/2D LBFS/src/artificial_dissipation.cpp **** 
 332:/home/brendan/Dropbox/PhD/Code/LBM/2D LBFS/src/artificial_dissipation.cpp ****                             }
 333:/home/brendan/Dropbox/PhD/Code/LBM/2D LBFS/src/artificial_dissipation.cpp ****                             break;
 1705              		.loc 4 333 0
 1706 108c E93A1400 		jmp	.L73
 1706      00
 1707              	.L81:
 275:/home/brendan/Dropbox/PhD/Code/LBM/2D LBFS/src/artificial_dissipation.cpp ****                                 case(0):
 1708              		.loc 4 275 0
 1709 1091 83F802   		cmpl	$2, %eax
 1710 1094 0F848002 		je	.L83
 1710      0000
 1711 109a 83F803   		cmpl	$3, %eax
 1712 109d 0F84B003 		je	.L84
 1712      0000
 1713              		.loc 4 333 0
 1714 10a3 E9231400 		jmp	.L73
 1714      00
 1715              	.L82:
 277:/home/brendan/Dropbox/PhD/Code/LBM/2D LBFS/src/artificial_dissipation.cpp ****                                             temp = 2*local_soln.get_rho(i)      // U j
 1716              		.loc 4 277 0
 1717 10a8 8B55E0   		movl	-32(%rbp), %edx
 1718 10ab 488B45C8 		movq	-56(%rbp), %rax
 1719 10af 89D6     		movl	%edx, %esi
 1720 10b1 4889C7   		movq	%rax, %rdi
 1721 10b4 E8000000 		call	_ZN19Boundary_Conditions6get_bcEi
GAS LISTING /tmp/ccGTdBzt.s 			page 45


 1721      00
 1722 10b9 84C0     		testb	%al, %al
 1723 10bb 7472     		je	.L85
 278:/home/brendan/Dropbox/PhD/Code/LBM/2D LBFS/src/artificial_dissipation.cpp ****                                                 -soln.get_rho(neighbour)      // U j+1
 1724              		.loc 4 278 0
 1725 10bd 8B55DC   		movl	-36(%rbp), %edx
 1726 10c0 488B4518 		movq	24(%rbp), %rax
 1727 10c4 89D6     		movl	%edx, %esi
 1728 10c6 4889C7   		movq	%rax, %rdi
 1729 10c9 E8000000 		call	_ZN8Solution7get_rhoEi
 1729      00
 1730 10ce 660F28D0 		movapd	%xmm0, %xmm2
 1731 10d2 F20F58D0 		addsd	%xmm0, %xmm2
 1732 10d6 F20F1155 		movsd	%xmm2, -64(%rbp)
 1732      C0
 279:/home/brendan/Dropbox/PhD/Code/LBM/2D LBFS/src/artificial_dissipation.cpp ****                                                 - soln.get_rho(Mesh.get_e_node(neighbour));
 1733              		.loc 4 279 0
 1734 10db 8B55E0   		movl	-32(%rbp), %edx
 1735 10de 488B45D0 		movq	-48(%rbp), %rax
 1736 10e2 89D6     		movl	%edx, %esi
 1737 10e4 4889C7   		movq	%rax, %rdi
 1738 10e7 E8000000 		call	_ZN8Solution7get_rhoEi
 1738      00
 1739 10ec F20F1055 		movsd	-64(%rbp), %xmm2
 1739      C0
 1740 10f1 F20F5CD0 		subsd	%xmm0, %xmm2
 1741 10f5 F20F1155 		movsd	%xmm2, -64(%rbp)
 1741      C0
 280:/home/brendan/Dropbox/PhD/Code/LBM/2D LBFS/src/artificial_dissipation.cpp **** 
 1742              		.loc 4 280 0
 1743 10fa 8B45E0   		movl	-32(%rbp), %eax
 1744 10fd 89C6     		movl	%eax, %esi
 1745 10ff 488B7D10 		movq	16(%rbp), %rdi
 1746 1103 E8000000 		call	_ZN4Mesh10get_e_nodeEi
 1746      00
 1747 1108 89C2     		movl	%eax, %edx
 1748 110a 488B45D0 		movq	-48(%rbp), %rax
 1749 110e 89D6     		movl	%edx, %esi
 1750 1110 4889C7   		movq	%rax, %rdi
 1751 1113 E8000000 		call	_ZN8Solution7get_rhoEi
 1751      00
 1752 1118 F20F1055 		movsd	-64(%rbp), %xmm2
 1752      C0
 1753 111d F20F5CD0 		subsd	%xmm0, %xmm2
 1754 1121 660F28C2 		movapd	%xmm2, %xmm0
 1755 1125 F20F1145 		movsd	%xmm0, -8(%rbp)
 1755      F8
 290:/home/brendan/Dropbox/PhD/Code/LBM/2D LBFS/src/artificial_dissipation.cpp ****                                 case(1):
 1756              		.loc 4 290 0
 1757 112a E9590400 		jmp	.L79
 1757      00
 1758              	.L85:
 283:/home/brendan/Dropbox/PhD/Code/LBM/2D LBFS/src/artificial_dissipation.cpp ****                                         - 3* soln.get_rho(neighbour)                //U j+1
 1759              		.loc 4 283 0
 1760 112f 8B45E0   		movl	-32(%rbp), %eax
 1761 1132 89C6     		movl	%eax, %esi
 1762 1134 488B7D10 		movq	16(%rbp), %rdi
GAS LISTING /tmp/ccGTdBzt.s 			page 46


 1763 1138 E8000000 		call	_ZN4Mesh10get_w_nodeEi
 1763      00
 1764 113d 89C2     		movl	%eax, %edx
 1765 113f 488B45D0 		movq	-48(%rbp), %rax
 1766 1143 89D6     		movl	%edx, %esi
 1767 1145 4889C7   		movq	%rax, %rdi
 1768 1148 E8000000 		call	_ZN8Solution7get_rhoEi
 1768      00
 1769 114d F20F1145 		movsd	%xmm0, -64(%rbp)
 1769      C0
 284:/home/brendan/Dropbox/PhD/Code/LBM/2D LBFS/src/artificial_dissipation.cpp ****                                         + 3* local_soln.get_rho(i)                  // U j
 1770              		.loc 4 284 0
 1771 1152 8B55E0   		movl	-32(%rbp), %edx
 1772 1155 488B45D0 		movq	-48(%rbp), %rax
 1773 1159 89D6     		movl	%edx, %esi
 1774 115b 4889C7   		movq	%rax, %rdi
 1775 115e E8000000 		call	_ZN8Solution7get_rhoEi
 1775      00
 1776 1163 660F28C8 		movapd	%xmm0, %xmm1
 1777 1167 F20F1005 		movsd	.LC5(%rip), %xmm0
 1777      00000000 
 1778 116f F20F59C1 		mulsd	%xmm1, %xmm0
 1779 1173 F20F1075 		movsd	-64(%rbp), %xmm6
 1779      C0
 1780 1178 F20F5CF0 		subsd	%xmm0, %xmm6
 1781 117c F20F1175 		movsd	%xmm6, -64(%rbp)
 1781      C0
 285:/home/brendan/Dropbox/PhD/Code/LBM/2D LBFS/src/artificial_dissipation.cpp ****                                         - soln.get_rho(Mesh.get_e_node(neighbour));  // U j-1
 1782              		.loc 4 285 0
 1783 1181 8B55DC   		movl	-36(%rbp), %edx
 1784 1184 488B4518 		movq	24(%rbp), %rax
 1785 1188 89D6     		movl	%edx, %esi
 1786 118a 4889C7   		movq	%rax, %rdi
 1787 118d E8000000 		call	_ZN8Solution7get_rhoEi
 1787      00
 1788 1192 660F28C8 		movapd	%xmm0, %xmm1
 1789 1196 F20F1005 		movsd	.LC5(%rip), %xmm0
 1789      00000000 
 1790 119e F20F59C1 		mulsd	%xmm1, %xmm0
 1791 11a2 F20F5845 		addsd	-64(%rbp), %xmm0
 1791      C0
 1792 11a7 F20F1145 		movsd	%xmm0, -64(%rbp)
 1792      C0
 286:/home/brendan/Dropbox/PhD/Code/LBM/2D LBFS/src/artificial_dissipation.cpp **** 
 1793              		.loc 4 286 0
 1794 11ac 8B45E0   		movl	-32(%rbp), %eax
 1795 11af 89C6     		movl	%eax, %esi
 1796 11b1 488B7D10 		movq	16(%rbp), %rdi
 1797 11b5 E8000000 		call	_ZN4Mesh10get_e_nodeEi
 1797      00
 1798 11ba 89C2     		movl	%eax, %edx
 1799 11bc 488B45D0 		movq	-48(%rbp), %rax
 1800 11c0 89D6     		movl	%edx, %esi
 1801 11c2 4889C7   		movq	%rax, %rdi
 1802 11c5 E8000000 		call	_ZN8Solution7get_rhoEi
 1802      00
 1803 11ca F20F1075 		movsd	-64(%rbp), %xmm6
GAS LISTING /tmp/ccGTdBzt.s 			page 47


 1803      C0
 1804 11cf F20F5CF0 		subsd	%xmm0, %xmm6
 1805 11d3 660F28C6 		movapd	%xmm6, %xmm0
 1806 11d7 F20F1145 		movsd	%xmm0, -8(%rbp)
 1806      F8
 290:/home/brendan/Dropbox/PhD/Code/LBM/2D LBFS/src/artificial_dissipation.cpp ****                                 case(1):
 1807              		.loc 4 290 0
 1808 11dc E9A70300 		jmp	.L79
 1808      00
 1809              	.L80:
 292:/home/brendan/Dropbox/PhD/Code/LBM/2D LBFS/src/artificial_dissipation.cpp ****                                             temp = 2*local_soln.get_rho(i)      // U j
 1810              		.loc 4 292 0
 1811 11e1 8B55E0   		movl	-32(%rbp), %edx
 1812 11e4 488B45C8 		movq	-56(%rbp), %rax
 1813 11e8 89D6     		movl	%edx, %esi
 1814 11ea 4889C7   		movq	%rax, %rdi
 1815 11ed E8000000 		call	_ZN19Boundary_Conditions6get_bcEi
 1815      00
 1816 11f2 84C0     		testb	%al, %al
 1817 11f4 7472     		je	.L87
 293:/home/brendan/Dropbox/PhD/Code/LBM/2D LBFS/src/artificial_dissipation.cpp ****                                                 -soln.get_rho(neighbour)      // U j+1
 1818              		.loc 4 293 0
 1819 11f6 8B55DC   		movl	-36(%rbp), %edx
 1820 11f9 488B4518 		movq	24(%rbp), %rax
 1821 11fd 89D6     		movl	%edx, %esi
 1822 11ff 4889C7   		movq	%rax, %rdi
 1823 1202 E8000000 		call	_ZN8Solution7get_rhoEi
 1823      00
 1824 1207 660F28D8 		movapd	%xmm0, %xmm3
 1825 120b F20F58D8 		addsd	%xmm0, %xmm3
 1826 120f F20F115D 		movsd	%xmm3, -64(%rbp)
 1826      C0
 294:/home/brendan/Dropbox/PhD/Code/LBM/2D LBFS/src/artificial_dissipation.cpp ****                                                 - soln.get_rho(Mesh.get_n_node(neighbour));
 1827              		.loc 4 294 0
 1828 1214 8B55E0   		movl	-32(%rbp), %edx
 1829 1217 488B45D0 		movq	-48(%rbp), %rax
 1830 121b 89D6     		movl	%edx, %esi
 1831 121d 4889C7   		movq	%rax, %rdi
 1832 1220 E8000000 		call	_ZN8Solution7get_rhoEi
 1832      00
 1833 1225 F20F105D 		movsd	-64(%rbp), %xmm3
 1833      C0
 1834 122a F20F5CD8 		subsd	%xmm0, %xmm3
 1835 122e F20F115D 		movsd	%xmm3, -64(%rbp)
 1835      C0
 295:/home/brendan/Dropbox/PhD/Code/LBM/2D LBFS/src/artificial_dissipation.cpp **** 
 1836              		.loc 4 295 0
 1837 1233 8B45E0   		movl	-32(%rbp), %eax
 1838 1236 89C6     		movl	%eax, %esi
 1839 1238 488B7D10 		movq	16(%rbp), %rdi
 1840 123c E8000000 		call	_ZN4Mesh10get_n_nodeEi
 1840      00
 1841 1241 89C2     		movl	%eax, %edx
 1842 1243 488B45D0 		movq	-48(%rbp), %rax
 1843 1247 89D6     		movl	%edx, %esi
 1844 1249 4889C7   		movq	%rax, %rdi
 1845 124c E8000000 		call	_ZN8Solution7get_rhoEi
GAS LISTING /tmp/ccGTdBzt.s 			page 48


 1845      00
 1846 1251 F20F105D 		movsd	-64(%rbp), %xmm3
 1846      C0
 1847 1256 F20F5CD8 		subsd	%xmm0, %xmm3
 1848 125a 660F28C3 		movapd	%xmm3, %xmm0
 1849 125e F20F1145 		movsd	%xmm0, -8(%rbp)
 1849      F8
 304:/home/brendan/Dropbox/PhD/Code/LBM/2D LBFS/src/artificial_dissipation.cpp ****                                 case(2):
 1850              		.loc 4 304 0
 1851 1263 E9200300 		jmp	.L79
 1851      00
 1852              	.L87:
 299:/home/brendan/Dropbox/PhD/Code/LBM/2D LBFS/src/artificial_dissipation.cpp ****                                             - 3* soln.get_rho(neighbour)                //U j+1
 1853              		.loc 4 299 0
 1854 1268 8B45E0   		movl	-32(%rbp), %eax
 1855 126b 89C6     		movl	%eax, %esi
 1856 126d 488B7D10 		movq	16(%rbp), %rdi
 1857 1271 E8000000 		call	_ZN4Mesh10get_s_nodeEi
 1857      00
 1858 1276 89C2     		movl	%eax, %edx
 1859 1278 488B45D0 		movq	-48(%rbp), %rax
 1860 127c 89D6     		movl	%edx, %esi
 1861 127e 4889C7   		movq	%rax, %rdi
 1862 1281 E8000000 		call	_ZN8Solution7get_rhoEi
 1862      00
 1863 1286 F20F1145 		movsd	%xmm0, -64(%rbp)
 1863      C0
 300:/home/brendan/Dropbox/PhD/Code/LBM/2D LBFS/src/artificial_dissipation.cpp ****                                             + 3* local_soln.get_rho(i)                  // U j
 1864              		.loc 4 300 0
 1865 128b 8B55E0   		movl	-32(%rbp), %edx
 1866 128e 488B45D0 		movq	-48(%rbp), %rax
 1867 1292 89D6     		movl	%edx, %esi
 1868 1294 4889C7   		movq	%rax, %rdi
 1869 1297 E8000000 		call	_ZN8Solution7get_rhoEi
 1869      00
 1870 129c 660F28C8 		movapd	%xmm0, %xmm1
 1871 12a0 F20F1005 		movsd	.LC5(%rip), %xmm0
 1871      00000000 
 1872 12a8 F20F59C1 		mulsd	%xmm1, %xmm0
 1873 12ac F20F107D 		movsd	-64(%rbp), %xmm7
 1873      C0
 1874 12b1 F20F5CF8 		subsd	%xmm0, %xmm7
 1875 12b5 F20F117D 		movsd	%xmm7, -64(%rbp)
 1875      C0
 301:/home/brendan/Dropbox/PhD/Code/LBM/2D LBFS/src/artificial_dissipation.cpp ****                                             - soln.get_rho(Mesh.get_n_node(neighbour));  // U j-1
 1876              		.loc 4 301 0
 1877 12ba 8B55DC   		movl	-36(%rbp), %edx
 1878 12bd 488B4518 		movq	24(%rbp), %rax
 1879 12c1 89D6     		movl	%edx, %esi
 1880 12c3 4889C7   		movq	%rax, %rdi
 1881 12c6 E8000000 		call	_ZN8Solution7get_rhoEi
 1881      00
 1882 12cb 660F28C8 		movapd	%xmm0, %xmm1
 1883 12cf F20F1005 		movsd	.LC5(%rip), %xmm0
 1883      00000000 
 1884 12d7 F20F59C1 		mulsd	%xmm1, %xmm0
 1885 12db F20F5845 		addsd	-64(%rbp), %xmm0
GAS LISTING /tmp/ccGTdBzt.s 			page 49


 1885      C0
 1886 12e0 F20F1145 		movsd	%xmm0, -64(%rbp)
 1886      C0
 302:/home/brendan/Dropbox/PhD/Code/LBM/2D LBFS/src/artificial_dissipation.cpp ****                                         }
 1887              		.loc 4 302 0
 1888 12e5 8B45E0   		movl	-32(%rbp), %eax
 1889 12e8 89C6     		movl	%eax, %esi
 1890 12ea 488B7D10 		movq	16(%rbp), %rdi
 1891 12ee E8000000 		call	_ZN4Mesh10get_n_nodeEi
 1891      00
 1892 12f3 89C2     		movl	%eax, %edx
 1893 12f5 488B45D0 		movq	-48(%rbp), %rax
 1894 12f9 89D6     		movl	%edx, %esi
 1895 12fb 4889C7   		movq	%rax, %rdi
 1896 12fe E8000000 		call	_ZN8Solution7get_rhoEi
 1896      00
 1897 1303 F20F107D 		movsd	-64(%rbp), %xmm7
 1897      C0
 1898 1308 F20F5CF8 		subsd	%xmm0, %xmm7
 1899 130c 660F28C7 		movapd	%xmm7, %xmm0
 1900 1310 F20F1145 		movsd	%xmm0, -8(%rbp)
 1900      F8
 304:/home/brendan/Dropbox/PhD/Code/LBM/2D LBFS/src/artificial_dissipation.cpp ****                                 case(2):
 1901              		.loc 4 304 0
 1902 1315 E96E0200 		jmp	.L79
 1902      00
 1903              	.L83:
 306:/home/brendan/Dropbox/PhD/Code/LBM/2D LBFS/src/artificial_dissipation.cpp ****                                             temp = 2*local_soln.get_rho(i)      // U j
 1904              		.loc 4 306 0
 1905 131a 8B55E0   		movl	-32(%rbp), %edx
 1906 131d 488B45C8 		movq	-56(%rbp), %rax
 1907 1321 89D6     		movl	%edx, %esi
 1908 1323 4889C7   		movq	%rax, %rdi
 1909 1326 E8000000 		call	_ZN19Boundary_Conditions6get_bcEi
 1909      00
 1910 132b 84C0     		testb	%al, %al
 1911 132d 7472     		je	.L89
 307:/home/brendan/Dropbox/PhD/Code/LBM/2D LBFS/src/artificial_dissipation.cpp ****                                                 -soln.get_rho(neighbour)      // U j+1
 1912              		.loc 4 307 0
 1913 132f 8B55DC   		movl	-36(%rbp), %edx
 1914 1332 488B4518 		movq	24(%rbp), %rax
 1915 1336 89D6     		movl	%edx, %esi
 1916 1338 4889C7   		movq	%rax, %rdi
 1917 133b E8000000 		call	_ZN8Solution7get_rhoEi
 1917      00
 1918 1340 660F28E0 		movapd	%xmm0, %xmm4
 1919 1344 F20F58E0 		addsd	%xmm0, %xmm4
 1920 1348 F20F1165 		movsd	%xmm4, -64(%rbp)
 1920      C0
 308:/home/brendan/Dropbox/PhD/Code/LBM/2D LBFS/src/artificial_dissipation.cpp ****                                                 - soln.get_rho(Mesh.get_w_node(neighbour));
 1921              		.loc 4 308 0
 1922 134d 8B55E0   		movl	-32(%rbp), %edx
 1923 1350 488B45D0 		movq	-48(%rbp), %rax
 1924 1354 89D6     		movl	%edx, %esi
 1925 1356 4889C7   		movq	%rax, %rdi
 1926 1359 E8000000 		call	_ZN8Solution7get_rhoEi
 1926      00
GAS LISTING /tmp/ccGTdBzt.s 			page 50


 1927 135e F20F1065 		movsd	-64(%rbp), %xmm4
 1927      C0
 1928 1363 F20F5CE0 		subsd	%xmm0, %xmm4
 1929 1367 F20F1165 		movsd	%xmm4, -64(%rbp)
 1929      C0
 309:/home/brendan/Dropbox/PhD/Code/LBM/2D LBFS/src/artificial_dissipation.cpp **** 
 1930              		.loc 4 309 0
 1931 136c 8B45E0   		movl	-32(%rbp), %eax
 1932 136f 89C6     		movl	%eax, %esi
 1933 1371 488B7D10 		movq	16(%rbp), %rdi
 1934 1375 E8000000 		call	_ZN4Mesh10get_w_nodeEi
 1934      00
 1935 137a 89C2     		movl	%eax, %edx
 1936 137c 488B45D0 		movq	-48(%rbp), %rax
 1937 1380 89D6     		movl	%edx, %esi
 1938 1382 4889C7   		movq	%rax, %rdi
 1939 1385 E8000000 		call	_ZN8Solution7get_rhoEi
 1939      00
 1940 138a F20F1065 		movsd	-64(%rbp), %xmm4
 1940      C0
 1941 138f F20F5CE0 		subsd	%xmm0, %xmm4
 1942 1393 660F28C4 		movapd	%xmm4, %xmm0
 1943 1397 F20F1145 		movsd	%xmm0, -8(%rbp)
 1943      F8
 317:/home/brendan/Dropbox/PhD/Code/LBM/2D LBFS/src/artificial_dissipation.cpp ****                                 case(3):
 1944              		.loc 4 317 0
 1945 139c E9E70100 		jmp	.L79
 1945      00
 1946              	.L89:
 312:/home/brendan/Dropbox/PhD/Code/LBM/2D LBFS/src/artificial_dissipation.cpp ****                                                 - 3* soln.get_rho(neighbour)                //U j+1
 1947              		.loc 4 312 0
 1948 13a1 8B45E0   		movl	-32(%rbp), %eax
 1949 13a4 89C6     		movl	%eax, %esi
 1950 13a6 488B7D10 		movq	16(%rbp), %rdi
 1951 13aa E8000000 		call	_ZN4Mesh10get_e_nodeEi
 1951      00
 1952 13af 89C2     		movl	%eax, %edx
 1953 13b1 488B45D0 		movq	-48(%rbp), %rax
 1954 13b5 89D6     		movl	%edx, %esi
 1955 13b7 4889C7   		movq	%rax, %rdi
 1956 13ba E8000000 		call	_ZN8Solution7get_rhoEi
 1956      00
 1957 13bf F20F1145 		movsd	%xmm0, -64(%rbp)
 1957      C0
 313:/home/brendan/Dropbox/PhD/Code/LBM/2D LBFS/src/artificial_dissipation.cpp ****                                                 + 3* local_soln.get_rho(i)                  // U j
 1958              		.loc 4 313 0
 1959 13c4 8B55E0   		movl	-32(%rbp), %edx
 1960 13c7 488B45D0 		movq	-48(%rbp), %rax
 1961 13cb 89D6     		movl	%edx, %esi
 1962 13cd 4889C7   		movq	%rax, %rdi
 1963 13d0 E8000000 		call	_ZN8Solution7get_rhoEi
 1963      00
 1964 13d5 660F28C8 		movapd	%xmm0, %xmm1
 1965 13d9 F20F1005 		movsd	.LC5(%rip), %xmm0
 1965      00000000 
 1966 13e1 F20F59C1 		mulsd	%xmm1, %xmm0
 1967 13e5 F20F1055 		movsd	-64(%rbp), %xmm2
GAS LISTING /tmp/ccGTdBzt.s 			page 51


 1967      C0
 1968 13ea F20F5CD0 		subsd	%xmm0, %xmm2
 1969 13ee F20F1155 		movsd	%xmm2, -64(%rbp)
 1969      C0
 314:/home/brendan/Dropbox/PhD/Code/LBM/2D LBFS/src/artificial_dissipation.cpp ****                                             - soln.get_rho(Mesh.get_w_node(neighbour));  // U j-1
 1970              		.loc 4 314 0
 1971 13f3 8B55DC   		movl	-36(%rbp), %edx
 1972 13f6 488B4518 		movq	24(%rbp), %rax
 1973 13fa 89D6     		movl	%edx, %esi
 1974 13fc 4889C7   		movq	%rax, %rdi
 1975 13ff E8000000 		call	_ZN8Solution7get_rhoEi
 1975      00
 1976 1404 660F28C8 		movapd	%xmm0, %xmm1
 1977 1408 F20F1005 		movsd	.LC5(%rip), %xmm0
 1977      00000000 
 1978 1410 F20F59C1 		mulsd	%xmm1, %xmm0
 1979 1414 F20F5845 		addsd	-64(%rbp), %xmm0
 1979      C0
 1980 1419 F20F1145 		movsd	%xmm0, -64(%rbp)
 1980      C0
 315:/home/brendan/Dropbox/PhD/Code/LBM/2D LBFS/src/artificial_dissipation.cpp ****                                         }
 1981              		.loc 4 315 0
 1982 141e 8B45E0   		movl	-32(%rbp), %eax
 1983 1421 89C6     		movl	%eax, %esi
 1984 1423 488B7D10 		movq	16(%rbp), %rdi
 1985 1427 E8000000 		call	_ZN4Mesh10get_w_nodeEi
 1985      00
 1986 142c 89C2     		movl	%eax, %edx
 1987 142e 488B45D0 		movq	-48(%rbp), %rax
 1988 1432 89D6     		movl	%edx, %esi
 1989 1434 4889C7   		movq	%rax, %rdi
 1990 1437 E8000000 		call	_ZN8Solution7get_rhoEi
 1990      00
 1991 143c F20F1075 		movsd	-64(%rbp), %xmm6
 1991      C0
 1992 1441 F20F5CF0 		subsd	%xmm0, %xmm6
 1993 1445 660F28C6 		movapd	%xmm6, %xmm0
 1994 1449 F20F1145 		movsd	%xmm0, -8(%rbp)
 1994      F8
 317:/home/brendan/Dropbox/PhD/Code/LBM/2D LBFS/src/artificial_dissipation.cpp ****                                 case(3):
 1995              		.loc 4 317 0
 1996 144e E9350100 		jmp	.L79
 1996      00
 1997              	.L84:
 319:/home/brendan/Dropbox/PhD/Code/LBM/2D LBFS/src/artificial_dissipation.cpp ****                                             temp = 2*local_soln.get_rho(i)      // U j
 1998              		.loc 4 319 0
 1999 1453 8B55E0   		movl	-32(%rbp), %edx
 2000 1456 488B45C8 		movq	-56(%rbp), %rax
 2001 145a 89D6     		movl	%edx, %esi
 2002 145c 4889C7   		movq	%rax, %rdi
 2003 145f E8000000 		call	_ZN19Boundary_Conditions6get_bcEi
 2003      00
 2004 1464 84C0     		testb	%al, %al
 2005 1466 7472     		je	.L91
 320:/home/brendan/Dropbox/PhD/Code/LBM/2D LBFS/src/artificial_dissipation.cpp ****                                                 -soln.get_rho(neighbour)      // U j+1
 2006              		.loc 4 320 0
 2007 1468 8B55DC   		movl	-36(%rbp), %edx
GAS LISTING /tmp/ccGTdBzt.s 			page 52


 2008 146b 488B4518 		movq	24(%rbp), %rax
 2009 146f 89D6     		movl	%edx, %esi
 2010 1471 4889C7   		movq	%rax, %rdi
 2011 1474 E8000000 		call	_ZN8Solution7get_rhoEi
 2011      00
 2012 1479 660F28E8 		movapd	%xmm0, %xmm5
 2013 147d F20F58E8 		addsd	%xmm0, %xmm5
 2014 1481 F20F116D 		movsd	%xmm5, -64(%rbp)
 2014      C0
 321:/home/brendan/Dropbox/PhD/Code/LBM/2D LBFS/src/artificial_dissipation.cpp ****                                                 - soln.get_rho(Mesh.get_s_node(neighbour));
 2015              		.loc 4 321 0
 2016 1486 8B55E0   		movl	-32(%rbp), %edx
 2017 1489 488B45D0 		movq	-48(%rbp), %rax
 2018 148d 89D6     		movl	%edx, %esi
 2019 148f 4889C7   		movq	%rax, %rdi
 2020 1492 E8000000 		call	_ZN8Solution7get_rhoEi
 2020      00
 2021 1497 F20F106D 		movsd	-64(%rbp), %xmm5
 2021      C0
 2022 149c F20F5CE8 		subsd	%xmm0, %xmm5
 2023 14a0 F20F116D 		movsd	%xmm5, -64(%rbp)
 2023      C0
 322:/home/brendan/Dropbox/PhD/Code/LBM/2D LBFS/src/artificial_dissipation.cpp **** 
 2024              		.loc 4 322 0
 2025 14a5 8B45E0   		movl	-32(%rbp), %eax
 2026 14a8 89C6     		movl	%eax, %esi
 2027 14aa 488B7D10 		movq	16(%rbp), %rdi
 2028 14ae E8000000 		call	_ZN4Mesh10get_s_nodeEi
 2028      00
 2029 14b3 89C2     		movl	%eax, %edx
 2030 14b5 488B45D0 		movq	-48(%rbp), %rax
 2031 14b9 89D6     		movl	%edx, %esi
 2032 14bb 4889C7   		movq	%rax, %rdi
 2033 14be E8000000 		call	_ZN8Solution7get_rhoEi
 2033      00
 2034 14c3 F20F106D 		movsd	-64(%rbp), %xmm5
 2034      C0
 2035 14c8 F20F5CE8 		subsd	%xmm0, %xmm5
 2036 14cc 660F28C5 		movapd	%xmm5, %xmm0
 2037 14d0 F20F1145 		movsd	%xmm0, -8(%rbp)
 2037      F8
 330:/home/brendan/Dropbox/PhD/Code/LBM/2D LBFS/src/artificial_dissipation.cpp **** 
 2038              		.loc 4 330 0
 2039 14d5 E9AD0000 		jmp	.L136
 2039      00
 2040              	.L91:
 325:/home/brendan/Dropbox/PhD/Code/LBM/2D LBFS/src/artificial_dissipation.cpp ****                                                 - 3* soln.get_rho(neighbour)                //U j+1
 2041              		.loc 4 325 0
 2042 14da 8B45E0   		movl	-32(%rbp), %eax
 2043 14dd 89C6     		movl	%eax, %esi
 2044 14df 488B7D10 		movq	16(%rbp), %rdi
 2045 14e3 E8000000 		call	_ZN4Mesh10get_n_nodeEi
 2045      00
 2046 14e8 89C2     		movl	%eax, %edx
 2047 14ea 488B45D0 		movq	-48(%rbp), %rax
 2048 14ee 89D6     		movl	%edx, %esi
 2049 14f0 4889C7   		movq	%rax, %rdi
GAS LISTING /tmp/ccGTdBzt.s 			page 53


 2050 14f3 E8000000 		call	_ZN8Solution7get_rhoEi
 2050      00
 2051 14f8 F20F1145 		movsd	%xmm0, -64(%rbp)
 2051      C0
 326:/home/brendan/Dropbox/PhD/Code/LBM/2D LBFS/src/artificial_dissipation.cpp ****                                                 + 3* local_soln.get_rho(i)                  // U j
 2052              		.loc 4 326 0
 2053 14fd 8B55E0   		movl	-32(%rbp), %edx
 2054 1500 488B45D0 		movq	-48(%rbp), %rax
 2055 1504 89D6     		movl	%edx, %esi
 2056 1506 4889C7   		movq	%rax, %rdi
 2057 1509 E8000000 		call	_ZN8Solution7get_rhoEi
 2057      00
 2058 150e 660F28C8 		movapd	%xmm0, %xmm1
 2059 1512 F20F1005 		movsd	.LC5(%rip), %xmm0
 2059      00000000 
 2060 151a F20F59C1 		mulsd	%xmm1, %xmm0
 2061 151e F20F105D 		movsd	-64(%rbp), %xmm3
 2061      C0
 2062 1523 F20F5CD8 		subsd	%xmm0, %xmm3
 2063 1527 F20F115D 		movsd	%xmm3, -64(%rbp)
 2063      C0
 327:/home/brendan/Dropbox/PhD/Code/LBM/2D LBFS/src/artificial_dissipation.cpp ****                                                 - soln.get_rho(Mesh.get_s_node(neighbour));  // U j
 2064              		.loc 4 327 0
 2065 152c 8B55DC   		movl	-36(%rbp), %edx
 2066 152f 488B4518 		movq	24(%rbp), %rax
 2067 1533 89D6     		movl	%edx, %esi
 2068 1535 4889C7   		movq	%rax, %rdi
 2069 1538 E8000000 		call	_ZN8Solution7get_rhoEi
 2069      00
 2070 153d 660F28C8 		movapd	%xmm0, %xmm1
 2071 1541 F20F1005 		movsd	.LC5(%rip), %xmm0
 2071      00000000 
 2072 1549 F20F59C1 		mulsd	%xmm1, %xmm0
 2073 154d F20F5845 		addsd	-64(%rbp), %xmm0
 2073      C0
 2074 1552 F20F1145 		movsd	%xmm0, -64(%rbp)
 2074      C0
 328:/home/brendan/Dropbox/PhD/Code/LBM/2D LBFS/src/artificial_dissipation.cpp ****                                         }
 2075              		.loc 4 328 0
 2076 1557 8B45E0   		movl	-32(%rbp), %eax
 2077 155a 89C6     		movl	%eax, %esi
 2078 155c 488B7D10 		movq	16(%rbp), %rdi
 2079 1560 E8000000 		call	_ZN4Mesh10get_s_nodeEi
 2079      00
 2080 1565 89C2     		movl	%eax, %edx
 2081 1567 488B45D0 		movq	-48(%rbp), %rax
 2082 156b 89D6     		movl	%edx, %esi
 2083 156d 4889C7   		movq	%rax, %rdi
 2084 1570 E8000000 		call	_ZN8Solution7get_rhoEi
 2084      00
 2085 1575 F20F107D 		movsd	-64(%rbp), %xmm7
 2085      C0
 2086 157a F20F5CF8 		subsd	%xmm0, %xmm7
 2087 157e 660F28C7 		movapd	%xmm7, %xmm0
 2088 1582 F20F1145 		movsd	%xmm0, -8(%rbp)
 2088      F8
 2089              	.L136:
GAS LISTING /tmp/ccGTdBzt.s 			page 54


 330:/home/brendan/Dropbox/PhD/Code/LBM/2D LBFS/src/artificial_dissipation.cpp **** 
 2090              		.loc 4 330 0
 2091 1587 90       		nop
 2092              	.L79:
 2093              		.loc 4 333 0 discriminator 1
 2094 1588 E93E0F00 		jmp	.L73
 2094      00
 2095              	.L74:
 334:/home/brendan/Dropbox/PhD/Code/LBM/2D LBFS/src/artificial_dissipation.cpp **** 
 335:/home/brendan/Dropbox/PhD/Code/LBM/2D LBFS/src/artificial_dissipation.cpp ****                         case(2):
 336:/home/brendan/Dropbox/PhD/Code/LBM/2D LBFS/src/artificial_dissipation.cpp **** 
 337:/home/brendan/Dropbox/PhD/Code/LBM/2D LBFS/src/artificial_dissipation.cpp ****                              switch(j){
 2096              		.loc 4 337 0
 2097 158d 8B4528   		movl	40(%rbp), %eax
 2098 1590 83F801   		cmpl	$1, %eax
 2099 1593 0F845E01 		je	.L94
 2099      0000
 2100 1599 83F801   		cmpl	$1, %eax
 2101 159c 7F09     		jg	.L95
 2102 159e 85C0     		testl	%eax, %eax
 2103 15a0 741C     		je	.L96
 338:/home/brendan/Dropbox/PhD/Code/LBM/2D LBFS/src/artificial_dissipation.cpp ****                                 case(0):
 339:/home/brendan/Dropbox/PhD/Code/LBM/2D LBFS/src/artificial_dissipation.cpp ****                                     if(bcs.get_bc(neighbour)){
 340:/home/brendan/Dropbox/PhD/Code/LBM/2D LBFS/src/artificial_dissipation.cpp ****                                             temp = 2*local_soln.get_u(i)      // U j
 341:/home/brendan/Dropbox/PhD/Code/LBM/2D LBFS/src/artificial_dissipation.cpp ****                                                 -soln.get_u(neighbour)      // U j+1
 342:/home/brendan/Dropbox/PhD/Code/LBM/2D LBFS/src/artificial_dissipation.cpp ****                                                 - soln.get_u(Mesh.get_e_node(neighbour));
 343:/home/brendan/Dropbox/PhD/Code/LBM/2D LBFS/src/artificial_dissipation.cpp **** 
 344:/home/brendan/Dropbox/PhD/Code/LBM/2D LBFS/src/artificial_dissipation.cpp ****                                     }else{
 345:/home/brendan/Dropbox/PhD/Code/LBM/2D LBFS/src/artificial_dissipation.cpp ****                                         temp = soln.get_u(Mesh.get_w_node(neighbour) ) // U j+2
 346:/home/brendan/Dropbox/PhD/Code/LBM/2D LBFS/src/artificial_dissipation.cpp ****                                         - 3* soln.get_u(neighbour)                //U j+1
 347:/home/brendan/Dropbox/PhD/Code/LBM/2D LBFS/src/artificial_dissipation.cpp ****                                         + 3* local_soln.get_u(i)                  // U j
 348:/home/brendan/Dropbox/PhD/Code/LBM/2D LBFS/src/artificial_dissipation.cpp ****                                         - soln.get_u(Mesh.get_e_node(neighbour));  // U j-1
 349:/home/brendan/Dropbox/PhD/Code/LBM/2D LBFS/src/artificial_dissipation.cpp **** 
 350:/home/brendan/Dropbox/PhD/Code/LBM/2D LBFS/src/artificial_dissipation.cpp ****                                     }
 351:/home/brendan/Dropbox/PhD/Code/LBM/2D LBFS/src/artificial_dissipation.cpp **** 
 352:/home/brendan/Dropbox/PhD/Code/LBM/2D LBFS/src/artificial_dissipation.cpp ****                                     break;
 353:/home/brendan/Dropbox/PhD/Code/LBM/2D LBFS/src/artificial_dissipation.cpp ****                                 case(1):
 354:/home/brendan/Dropbox/PhD/Code/LBM/2D LBFS/src/artificial_dissipation.cpp ****                                       if(bcs.get_bc(neighbour)){
 355:/home/brendan/Dropbox/PhD/Code/LBM/2D LBFS/src/artificial_dissipation.cpp ****                                             temp = 2*local_soln.get_u(i)      // U j
 356:/home/brendan/Dropbox/PhD/Code/LBM/2D LBFS/src/artificial_dissipation.cpp ****                                                 -soln.get_u(neighbour)      // U j+1
 357:/home/brendan/Dropbox/PhD/Code/LBM/2D LBFS/src/artificial_dissipation.cpp ****                                                 - soln.get_u(Mesh.get_n_node(neighbour));
 358:/home/brendan/Dropbox/PhD/Code/LBM/2D LBFS/src/artificial_dissipation.cpp **** 
 359:/home/brendan/Dropbox/PhD/Code/LBM/2D LBFS/src/artificial_dissipation.cpp ****                                         }else{
 360:/home/brendan/Dropbox/PhD/Code/LBM/2D LBFS/src/artificial_dissipation.cpp **** 
 361:/home/brendan/Dropbox/PhD/Code/LBM/2D LBFS/src/artificial_dissipation.cpp ****                                         temp = soln.get_u(Mesh.get_s_node(neighbour) ) // U j+2
 362:/home/brendan/Dropbox/PhD/Code/LBM/2D LBFS/src/artificial_dissipation.cpp ****                                             - 3* soln.get_u(neighbour)                //U j+1
 363:/home/brendan/Dropbox/PhD/Code/LBM/2D LBFS/src/artificial_dissipation.cpp ****                                             + 3* local_soln.get_u(i)                  // U j
 364:/home/brendan/Dropbox/PhD/Code/LBM/2D LBFS/src/artificial_dissipation.cpp ****                                             - soln.get_u(Mesh.get_n_node(neighbour));  // U j-1
 365:/home/brendan/Dropbox/PhD/Code/LBM/2D LBFS/src/artificial_dissipation.cpp ****                                         }
 366:/home/brendan/Dropbox/PhD/Code/LBM/2D LBFS/src/artificial_dissipation.cpp ****                                     break;
 367:/home/brendan/Dropbox/PhD/Code/LBM/2D LBFS/src/artificial_dissipation.cpp ****                                 case(2):
 368:/home/brendan/Dropbox/PhD/Code/LBM/2D LBFS/src/artificial_dissipation.cpp ****                                       if(bcs.get_bc(neighbour)){
 369:/home/brendan/Dropbox/PhD/Code/LBM/2D LBFS/src/artificial_dissipation.cpp ****                                             temp = 2*local_soln.get_u(i)      // U j
 370:/home/brendan/Dropbox/PhD/Code/LBM/2D LBFS/src/artificial_dissipation.cpp ****                                                 -soln.get_u(neighbour)      // U j+1
 371:/home/brendan/Dropbox/PhD/Code/LBM/2D LBFS/src/artificial_dissipation.cpp ****                                                 - soln.get_u(Mesh.get_w_node(neighbour));
 372:/home/brendan/Dropbox/PhD/Code/LBM/2D LBFS/src/artificial_dissipation.cpp **** 
 373:/home/brendan/Dropbox/PhD/Code/LBM/2D LBFS/src/artificial_dissipation.cpp ****                                         }else{
GAS LISTING /tmp/ccGTdBzt.s 			page 55


 374:/home/brendan/Dropbox/PhD/Code/LBM/2D LBFS/src/artificial_dissipation.cpp ****                                             temp = soln.get_u(Mesh.get_e_node(neighbour) ) // U j+2
 375:/home/brendan/Dropbox/PhD/Code/LBM/2D LBFS/src/artificial_dissipation.cpp ****                                                 - 3* soln.get_u(neighbour)                //U j+1
 376:/home/brendan/Dropbox/PhD/Code/LBM/2D LBFS/src/artificial_dissipation.cpp ****                                                 + 3* local_soln.get_u(i)                  // U j
 377:/home/brendan/Dropbox/PhD/Code/LBM/2D LBFS/src/artificial_dissipation.cpp ****                                             - soln.get_u(Mesh.get_w_node(neighbour));  // U j-1
 378:/home/brendan/Dropbox/PhD/Code/LBM/2D LBFS/src/artificial_dissipation.cpp ****                                         }
 379:/home/brendan/Dropbox/PhD/Code/LBM/2D LBFS/src/artificial_dissipation.cpp ****                                     break;
 380:/home/brendan/Dropbox/PhD/Code/LBM/2D LBFS/src/artificial_dissipation.cpp ****                                 case(3):
 381:/home/brendan/Dropbox/PhD/Code/LBM/2D LBFS/src/artificial_dissipation.cpp ****                                       if(bcs.get_bc(neighbour)){
 382:/home/brendan/Dropbox/PhD/Code/LBM/2D LBFS/src/artificial_dissipation.cpp ****                                             temp = 2*local_soln.get_u(i)      // U j
 383:/home/brendan/Dropbox/PhD/Code/LBM/2D LBFS/src/artificial_dissipation.cpp ****                                                 -soln.get_u(neighbour)      // U j+1
 384:/home/brendan/Dropbox/PhD/Code/LBM/2D LBFS/src/artificial_dissipation.cpp ****                                                 - soln.get_u(Mesh.get_s_node(neighbour));
 385:/home/brendan/Dropbox/PhD/Code/LBM/2D LBFS/src/artificial_dissipation.cpp **** 
 386:/home/brendan/Dropbox/PhD/Code/LBM/2D LBFS/src/artificial_dissipation.cpp ****                                         }else{
 387:/home/brendan/Dropbox/PhD/Code/LBM/2D LBFS/src/artificial_dissipation.cpp ****                                             temp = soln.get_u(Mesh.get_n_node(neighbour) ) // U j+2
 388:/home/brendan/Dropbox/PhD/Code/LBM/2D LBFS/src/artificial_dissipation.cpp ****                                                 - 3* soln.get_u(neighbour)                //U j+1
 389:/home/brendan/Dropbox/PhD/Code/LBM/2D LBFS/src/artificial_dissipation.cpp ****                                                 + 3* local_soln.get_u(i)                  // U j
 390:/home/brendan/Dropbox/PhD/Code/LBM/2D LBFS/src/artificial_dissipation.cpp ****                                                 - soln.get_u(Mesh.get_s_node(neighbour));  // U j-1
 391:/home/brendan/Dropbox/PhD/Code/LBM/2D LBFS/src/artificial_dissipation.cpp ****                                         }
 392:/home/brendan/Dropbox/PhD/Code/LBM/2D LBFS/src/artificial_dissipation.cpp ****                                     break;
 393:/home/brendan/Dropbox/PhD/Code/LBM/2D LBFS/src/artificial_dissipation.cpp **** 
 394:/home/brendan/Dropbox/PhD/Code/LBM/2D LBFS/src/artificial_dissipation.cpp ****                             }
 395:/home/brendan/Dropbox/PhD/Code/LBM/2D LBFS/src/artificial_dissipation.cpp ****                             break;
 2104              		.loc 4 395 0
 2105 15a2 E9240F00 		jmp	.L73
 2105      00
 2106              	.L95:
 337:/home/brendan/Dropbox/PhD/Code/LBM/2D LBFS/src/artificial_dissipation.cpp ****                                 case(0):
 2107              		.loc 4 337 0
 2108 15a7 83F802   		cmpl	$2, %eax
 2109 15aa 0F848002 		je	.L97
 2109      0000
 2110 15b0 83F803   		cmpl	$3, %eax
 2111 15b3 0F84B003 		je	.L98
 2111      0000
 2112              		.loc 4 395 0
 2113 15b9 E90D0F00 		jmp	.L73
 2113      00
 2114              	.L96:
 339:/home/brendan/Dropbox/PhD/Code/LBM/2D LBFS/src/artificial_dissipation.cpp ****                                             temp = 2*local_soln.get_u(i)      // U j
 2115              		.loc 4 339 0
 2116 15be 8B55E0   		movl	-32(%rbp), %edx
 2117 15c1 488B45C8 		movq	-56(%rbp), %rax
 2118 15c5 89D6     		movl	%edx, %esi
 2119 15c7 4889C7   		movq	%rax, %rdi
 2120 15ca E8000000 		call	_ZN19Boundary_Conditions6get_bcEi
 2120      00
 2121 15cf 84C0     		testb	%al, %al
 2122 15d1 7472     		je	.L99
 340:/home/brendan/Dropbox/PhD/Code/LBM/2D LBFS/src/artificial_dissipation.cpp ****                                                 -soln.get_u(neighbour)      // U j+1
 2123              		.loc 4 340 0
 2124 15d3 8B55DC   		movl	-36(%rbp), %edx
 2125 15d6 488B4518 		movq	24(%rbp), %rax
 2126 15da 89D6     		movl	%edx, %esi
 2127 15dc 4889C7   		movq	%rax, %rdi
 2128 15df E8000000 		call	_ZN8Solution5get_uEi
 2128      00
 2129 15e4 660F28F0 		movapd	%xmm0, %xmm6
GAS LISTING /tmp/ccGTdBzt.s 			page 56


 2130 15e8 F20F58F0 		addsd	%xmm0, %xmm6
 2131 15ec F20F1175 		movsd	%xmm6, -64(%rbp)
 2131      C0
 341:/home/brendan/Dropbox/PhD/Code/LBM/2D LBFS/src/artificial_dissipation.cpp ****                                                 - soln.get_u(Mesh.get_e_node(neighbour));
 2132              		.loc 4 341 0
 2133 15f1 8B55E0   		movl	-32(%rbp), %edx
 2134 15f4 488B45D0 		movq	-48(%rbp), %rax
 2135 15f8 89D6     		movl	%edx, %esi
 2136 15fa 4889C7   		movq	%rax, %rdi
 2137 15fd E8000000 		call	_ZN8Solution5get_uEi
 2137      00
 2138 1602 F20F1075 		movsd	-64(%rbp), %xmm6
 2138      C0
 2139 1607 F20F5CF0 		subsd	%xmm0, %xmm6
 2140 160b F20F1175 		movsd	%xmm6, -64(%rbp)
 2140      C0
 342:/home/brendan/Dropbox/PhD/Code/LBM/2D LBFS/src/artificial_dissipation.cpp **** 
 2141              		.loc 4 342 0
 2142 1610 8B45E0   		movl	-32(%rbp), %eax
 2143 1613 89C6     		movl	%eax, %esi
 2144 1615 488B7D10 		movq	16(%rbp), %rdi
 2145 1619 E8000000 		call	_ZN4Mesh10get_e_nodeEi
 2145      00
 2146 161e 89C2     		movl	%eax, %edx
 2147 1620 488B45D0 		movq	-48(%rbp), %rax
 2148 1624 89D6     		movl	%edx, %esi
 2149 1626 4889C7   		movq	%rax, %rdi
 2150 1629 E8000000 		call	_ZN8Solution5get_uEi
 2150      00
 2151 162e F20F1075 		movsd	-64(%rbp), %xmm6
 2151      C0
 2152 1633 F20F5CF0 		subsd	%xmm0, %xmm6
 2153 1637 660F28C6 		movapd	%xmm6, %xmm0
 2154 163b F20F1145 		movsd	%xmm0, -8(%rbp)
 2154      F8
 352:/home/brendan/Dropbox/PhD/Code/LBM/2D LBFS/src/artificial_dissipation.cpp ****                                 case(1):
 2155              		.loc 4 352 0
 2156 1640 E9590400 		jmp	.L93
 2156      00
 2157              	.L99:
 345:/home/brendan/Dropbox/PhD/Code/LBM/2D LBFS/src/artificial_dissipation.cpp ****                                         - 3* soln.get_u(neighbour)                //U j+1
 2158              		.loc 4 345 0
 2159 1645 8B45E0   		movl	-32(%rbp), %eax
 2160 1648 89C6     		movl	%eax, %esi
 2161 164a 488B7D10 		movq	16(%rbp), %rdi
 2162 164e E8000000 		call	_ZN4Mesh10get_w_nodeEi
 2162      00
 2163 1653 89C2     		movl	%eax, %edx
 2164 1655 488B45D0 		movq	-48(%rbp), %rax
 2165 1659 89D6     		movl	%edx, %esi
 2166 165b 4889C7   		movq	%rax, %rdi
 2167 165e E8000000 		call	_ZN8Solution5get_uEi
 2167      00
 2168 1663 F20F1145 		movsd	%xmm0, -64(%rbp)
 2168      C0
 346:/home/brendan/Dropbox/PhD/Code/LBM/2D LBFS/src/artificial_dissipation.cpp ****                                         + 3* local_soln.get_u(i)                  // U j
 2169              		.loc 4 346 0
GAS LISTING /tmp/ccGTdBzt.s 			page 57


 2170 1668 8B55E0   		movl	-32(%rbp), %edx
 2171 166b 488B45D0 		movq	-48(%rbp), %rax
 2172 166f 89D6     		movl	%edx, %esi
 2173 1671 4889C7   		movq	%rax, %rdi
 2174 1674 E8000000 		call	_ZN8Solution5get_uEi
 2174      00
 2175 1679 660F28C8 		movapd	%xmm0, %xmm1
 2176 167d F20F1005 		movsd	.LC5(%rip), %xmm0
 2176      00000000 
 2177 1685 F20F59C1 		mulsd	%xmm1, %xmm0
 2178 1689 F20F1065 		movsd	-64(%rbp), %xmm4
 2178      C0
 2179 168e F20F5CE0 		subsd	%xmm0, %xmm4
 2180 1692 F20F1165 		movsd	%xmm4, -64(%rbp)
 2180      C0
 347:/home/brendan/Dropbox/PhD/Code/LBM/2D LBFS/src/artificial_dissipation.cpp ****                                         - soln.get_u(Mesh.get_e_node(neighbour));  // U j-1
 2181              		.loc 4 347 0
 2182 1697 8B55DC   		movl	-36(%rbp), %edx
 2183 169a 488B4518 		movq	24(%rbp), %rax
 2184 169e 89D6     		movl	%edx, %esi
 2185 16a0 4889C7   		movq	%rax, %rdi
 2186 16a3 E8000000 		call	_ZN8Solution5get_uEi
 2186      00
 2187 16a8 660F28C8 		movapd	%xmm0, %xmm1
 2188 16ac F20F1005 		movsd	.LC5(%rip), %xmm0
 2188      00000000 
 2189 16b4 F20F59C1 		mulsd	%xmm1, %xmm0
 2190 16b8 F20F5845 		addsd	-64(%rbp), %xmm0
 2190      C0
 2191 16bd F20F1145 		movsd	%xmm0, -64(%rbp)
 2191      C0
 348:/home/brendan/Dropbox/PhD/Code/LBM/2D LBFS/src/artificial_dissipation.cpp **** 
 2192              		.loc 4 348 0
 2193 16c2 8B45E0   		movl	-32(%rbp), %eax
 2194 16c5 89C6     		movl	%eax, %esi
 2195 16c7 488B7D10 		movq	16(%rbp), %rdi
 2196 16cb E8000000 		call	_ZN4Mesh10get_e_nodeEi
 2196      00
 2197 16d0 89C2     		movl	%eax, %edx
 2198 16d2 488B45D0 		movq	-48(%rbp), %rax
 2199 16d6 89D6     		movl	%edx, %esi
 2200 16d8 4889C7   		movq	%rax, %rdi
 2201 16db E8000000 		call	_ZN8Solution5get_uEi
 2201      00
 2202 16e0 F20F1075 		movsd	-64(%rbp), %xmm6
 2202      C0
 2203 16e5 F20F5CF0 		subsd	%xmm0, %xmm6
 2204 16e9 660F28C6 		movapd	%xmm6, %xmm0
 2205 16ed F20F1145 		movsd	%xmm0, -8(%rbp)
 2205      F8
 352:/home/brendan/Dropbox/PhD/Code/LBM/2D LBFS/src/artificial_dissipation.cpp ****                                 case(1):
 2206              		.loc 4 352 0
 2207 16f2 E9A70300 		jmp	.L93
 2207      00
 2208              	.L94:
 354:/home/brendan/Dropbox/PhD/Code/LBM/2D LBFS/src/artificial_dissipation.cpp ****                                             temp = 2*local_soln.get_u(i)      // U j
 2209              		.loc 4 354 0
GAS LISTING /tmp/ccGTdBzt.s 			page 58


 2210 16f7 8B55E0   		movl	-32(%rbp), %edx
 2211 16fa 488B45C8 		movq	-56(%rbp), %rax
 2212 16fe 89D6     		movl	%edx, %esi
 2213 1700 4889C7   		movq	%rax, %rdi
 2214 1703 E8000000 		call	_ZN19Boundary_Conditions6get_bcEi
 2214      00
 2215 1708 84C0     		testb	%al, %al
 2216 170a 7472     		je	.L101
 355:/home/brendan/Dropbox/PhD/Code/LBM/2D LBFS/src/artificial_dissipation.cpp ****                                                 -soln.get_u(neighbour)      // U j+1
 2217              		.loc 4 355 0
 2218 170c 8B55DC   		movl	-36(%rbp), %edx
 2219 170f 488B4518 		movq	24(%rbp), %rax
 2220 1713 89D6     		movl	%edx, %esi
 2221 1715 4889C7   		movq	%rax, %rdi
 2222 1718 E8000000 		call	_ZN8Solution5get_uEi
 2222      00
 2223 171d 660F28F8 		movapd	%xmm0, %xmm7
 2224 1721 F20F58F8 		addsd	%xmm0, %xmm7
 2225 1725 F20F117D 		movsd	%xmm7, -64(%rbp)
 2225      C0
 356:/home/brendan/Dropbox/PhD/Code/LBM/2D LBFS/src/artificial_dissipation.cpp ****                                                 - soln.get_u(Mesh.get_n_node(neighbour));
 2226              		.loc 4 356 0
 2227 172a 8B55E0   		movl	-32(%rbp), %edx
 2228 172d 488B45D0 		movq	-48(%rbp), %rax
 2229 1731 89D6     		movl	%edx, %esi
 2230 1733 4889C7   		movq	%rax, %rdi
 2231 1736 E8000000 		call	_ZN8Solution5get_uEi
 2231      00
 2232 173b F20F107D 		movsd	-64(%rbp), %xmm7
 2232      C0
 2233 1740 F20F5CF8 		subsd	%xmm0, %xmm7
 2234 1744 F20F117D 		movsd	%xmm7, -64(%rbp)
 2234      C0
 357:/home/brendan/Dropbox/PhD/Code/LBM/2D LBFS/src/artificial_dissipation.cpp **** 
 2235              		.loc 4 357 0
 2236 1749 8B45E0   		movl	-32(%rbp), %eax
 2237 174c 89C6     		movl	%eax, %esi
 2238 174e 488B7D10 		movq	16(%rbp), %rdi
 2239 1752 E8000000 		call	_ZN4Mesh10get_n_nodeEi
 2239      00
 2240 1757 89C2     		movl	%eax, %edx
 2241 1759 488B45D0 		movq	-48(%rbp), %rax
 2242 175d 89D6     		movl	%edx, %esi
 2243 175f 4889C7   		movq	%rax, %rdi
 2244 1762 E8000000 		call	_ZN8Solution5get_uEi
 2244      00
 2245 1767 F20F107D 		movsd	-64(%rbp), %xmm7
 2245      C0
 2246 176c F20F5CF8 		subsd	%xmm0, %xmm7
 2247 1770 660F28C7 		movapd	%xmm7, %xmm0
 2248 1774 F20F1145 		movsd	%xmm0, -8(%rbp)
 2248      F8
 366:/home/brendan/Dropbox/PhD/Code/LBM/2D LBFS/src/artificial_dissipation.cpp ****                                 case(2):
 2249              		.loc 4 366 0
 2250 1779 E9200300 		jmp	.L93
 2250      00
 2251              	.L101:
GAS LISTING /tmp/ccGTdBzt.s 			page 59


 361:/home/brendan/Dropbox/PhD/Code/LBM/2D LBFS/src/artificial_dissipation.cpp ****                                             - 3* soln.get_u(neighbour)                //U j+1
 2252              		.loc 4 361 0
 2253 177e 8B45E0   		movl	-32(%rbp), %eax
 2254 1781 89C6     		movl	%eax, %esi
 2255 1783 488B7D10 		movq	16(%rbp), %rdi
 2256 1787 E8000000 		call	_ZN4Mesh10get_s_nodeEi
 2256      00
 2257 178c 89C2     		movl	%eax, %edx
 2258 178e 488B45D0 		movq	-48(%rbp), %rax
 2259 1792 89D6     		movl	%edx, %esi
 2260 1794 4889C7   		movq	%rax, %rdi
 2261 1797 E8000000 		call	_ZN8Solution5get_uEi
 2261      00
 2262 179c F20F1145 		movsd	%xmm0, -64(%rbp)
 2262      C0
 362:/home/brendan/Dropbox/PhD/Code/LBM/2D LBFS/src/artificial_dissipation.cpp ****                                             + 3* local_soln.get_u(i)                  // U j
 2263              		.loc 4 362 0
 2264 17a1 8B55E0   		movl	-32(%rbp), %edx
 2265 17a4 488B45D0 		movq	-48(%rbp), %rax
 2266 17a8 89D6     		movl	%edx, %esi
 2267 17aa 4889C7   		movq	%rax, %rdi
 2268 17ad E8000000 		call	_ZN8Solution5get_uEi
 2268      00
 2269 17b2 660F28C8 		movapd	%xmm0, %xmm1
 2270 17b6 F20F1005 		movsd	.LC5(%rip), %xmm0
 2270      00000000 
 2271 17be F20F59C1 		mulsd	%xmm1, %xmm0
 2272 17c2 F20F106D 		movsd	-64(%rbp), %xmm5
 2272      C0
 2273 17c7 F20F5CE8 		subsd	%xmm0, %xmm5
 2274 17cb F20F116D 		movsd	%xmm5, -64(%rbp)
 2274      C0
 363:/home/brendan/Dropbox/PhD/Code/LBM/2D LBFS/src/artificial_dissipation.cpp ****                                             - soln.get_u(Mesh.get_n_node(neighbour));  // U j-1
 2275              		.loc 4 363 0
 2276 17d0 8B55DC   		movl	-36(%rbp), %edx
 2277 17d3 488B4518 		movq	24(%rbp), %rax
 2278 17d7 89D6     		movl	%edx, %esi
 2279 17d9 4889C7   		movq	%rax, %rdi
 2280 17dc E8000000 		call	_ZN8Solution5get_uEi
 2280      00
 2281 17e1 660F28C8 		movapd	%xmm0, %xmm1
 2282 17e5 F20F1005 		movsd	.LC5(%rip), %xmm0
 2282      00000000 
 2283 17ed F20F59C1 		mulsd	%xmm1, %xmm0
 2284 17f1 F20F5845 		addsd	-64(%rbp), %xmm0
 2284      C0
 2285 17f6 F20F1145 		movsd	%xmm0, -64(%rbp)
 2285      C0
 364:/home/brendan/Dropbox/PhD/Code/LBM/2D LBFS/src/artificial_dissipation.cpp ****                                         }
 2286              		.loc 4 364 0
 2287 17fb 8B45E0   		movl	-32(%rbp), %eax
 2288 17fe 89C6     		movl	%eax, %esi
 2289 1800 488B7D10 		movq	16(%rbp), %rdi
 2290 1804 E8000000 		call	_ZN4Mesh10get_n_nodeEi
 2290      00
 2291 1809 89C2     		movl	%eax, %edx
 2292 180b 488B45D0 		movq	-48(%rbp), %rax
GAS LISTING /tmp/ccGTdBzt.s 			page 60


 2293 180f 89D6     		movl	%edx, %esi
 2294 1811 4889C7   		movq	%rax, %rdi
 2295 1814 E8000000 		call	_ZN8Solution5get_uEi
 2295      00
 2296 1819 F20F107D 		movsd	-64(%rbp), %xmm7
 2296      C0
 2297 181e F20F5CF8 		subsd	%xmm0, %xmm7
 2298 1822 660F28C7 		movapd	%xmm7, %xmm0
 2299 1826 F20F1145 		movsd	%xmm0, -8(%rbp)
 2299      F8
 366:/home/brendan/Dropbox/PhD/Code/LBM/2D LBFS/src/artificial_dissipation.cpp ****                                 case(2):
 2300              		.loc 4 366 0
 2301 182b E96E0200 		jmp	.L93
 2301      00
 2302              	.L97:
 368:/home/brendan/Dropbox/PhD/Code/LBM/2D LBFS/src/artificial_dissipation.cpp ****                                             temp = 2*local_soln.get_u(i)      // U j
 2303              		.loc 4 368 0
 2304 1830 8B55E0   		movl	-32(%rbp), %edx
 2305 1833 488B45C8 		movq	-56(%rbp), %rax
 2306 1837 89D6     		movl	%edx, %esi
 2307 1839 4889C7   		movq	%rax, %rdi
 2308 183c E8000000 		call	_ZN19Boundary_Conditions6get_bcEi
 2308      00
 2309 1841 84C0     		testb	%al, %al
 2310 1843 7472     		je	.L103
 369:/home/brendan/Dropbox/PhD/Code/LBM/2D LBFS/src/artificial_dissipation.cpp ****                                                 -soln.get_u(neighbour)      // U j+1
 2311              		.loc 4 369 0
 2312 1845 8B55DC   		movl	-36(%rbp), %edx
 2313 1848 488B4518 		movq	24(%rbp), %rax
 2314 184c 89D6     		movl	%edx, %esi
 2315 184e 4889C7   		movq	%rax, %rdi
 2316 1851 E8000000 		call	_ZN8Solution5get_uEi
 2316      00
 2317 1856 660F28D0 		movapd	%xmm0, %xmm2
 2318 185a F20F58D0 		addsd	%xmm0, %xmm2
 2319 185e F20F1155 		movsd	%xmm2, -64(%rbp)
 2319      C0
 370:/home/brendan/Dropbox/PhD/Code/LBM/2D LBFS/src/artificial_dissipation.cpp ****                                                 - soln.get_u(Mesh.get_w_node(neighbour));
 2320              		.loc 4 370 0
 2321 1863 8B55E0   		movl	-32(%rbp), %edx
 2322 1866 488B45D0 		movq	-48(%rbp), %rax
 2323 186a 89D6     		movl	%edx, %esi
 2324 186c 4889C7   		movq	%rax, %rdi
 2325 186f E8000000 		call	_ZN8Solution5get_uEi
 2325      00
 2326 1874 F20F1055 		movsd	-64(%rbp), %xmm2
 2326      C0
 2327 1879 F20F5CD0 		subsd	%xmm0, %xmm2
 2328 187d F20F1155 		movsd	%xmm2, -64(%rbp)
 2328      C0
 371:/home/brendan/Dropbox/PhD/Code/LBM/2D LBFS/src/artificial_dissipation.cpp **** 
 2329              		.loc 4 371 0
 2330 1882 8B45E0   		movl	-32(%rbp), %eax
 2331 1885 89C6     		movl	%eax, %esi
 2332 1887 488B7D10 		movq	16(%rbp), %rdi
 2333 188b E8000000 		call	_ZN4Mesh10get_w_nodeEi
 2333      00
GAS LISTING /tmp/ccGTdBzt.s 			page 61


 2334 1890 89C2     		movl	%eax, %edx
 2335 1892 488B45D0 		movq	-48(%rbp), %rax
 2336 1896 89D6     		movl	%edx, %esi
 2337 1898 4889C7   		movq	%rax, %rdi
 2338 189b E8000000 		call	_ZN8Solution5get_uEi
 2338      00
 2339 18a0 F20F1055 		movsd	-64(%rbp), %xmm2
 2339      C0
 2340 18a5 F20F5CD0 		subsd	%xmm0, %xmm2
 2341 18a9 660F28C2 		movapd	%xmm2, %xmm0
 2342 18ad F20F1145 		movsd	%xmm0, -8(%rbp)
 2342      F8
 379:/home/brendan/Dropbox/PhD/Code/LBM/2D LBFS/src/artificial_dissipation.cpp ****                                 case(3):
 2343              		.loc 4 379 0
 2344 18b2 E9E70100 		jmp	.L93
 2344      00
 2345              	.L103:
 374:/home/brendan/Dropbox/PhD/Code/LBM/2D LBFS/src/artificial_dissipation.cpp ****                                                 - 3* soln.get_u(neighbour)                //U j+1
 2346              		.loc 4 374 0
 2347 18b7 8B45E0   		movl	-32(%rbp), %eax
 2348 18ba 89C6     		movl	%eax, %esi
 2349 18bc 488B7D10 		movq	16(%rbp), %rdi
 2350 18c0 E8000000 		call	_ZN4Mesh10get_e_nodeEi
 2350      00
 2351 18c5 89C2     		movl	%eax, %edx
 2352 18c7 488B45D0 		movq	-48(%rbp), %rax
 2353 18cb 89D6     		movl	%edx, %esi
 2354 18cd 4889C7   		movq	%rax, %rdi
 2355 18d0 E8000000 		call	_ZN8Solution5get_uEi
 2355      00
 2356 18d5 F20F1145 		movsd	%xmm0, -64(%rbp)
 2356      C0
 375:/home/brendan/Dropbox/PhD/Code/LBM/2D LBFS/src/artificial_dissipation.cpp ****                                                 + 3* local_soln.get_u(i)                  // U j
 2357              		.loc 4 375 0
 2358 18da 8B55E0   		movl	-32(%rbp), %edx
 2359 18dd 488B45D0 		movq	-48(%rbp), %rax
 2360 18e1 89D6     		movl	%edx, %esi
 2361 18e3 4889C7   		movq	%rax, %rdi
 2362 18e6 E8000000 		call	_ZN8Solution5get_uEi
 2362      00
 2363 18eb 660F28C8 		movapd	%xmm0, %xmm1
 2364 18ef F20F1005 		movsd	.LC5(%rip), %xmm0
 2364      00000000 
 2365 18f7 F20F59C1 		mulsd	%xmm1, %xmm0
 2366 18fb F20F1075 		movsd	-64(%rbp), %xmm6
 2366      C0
 2367 1900 F20F5CF0 		subsd	%xmm0, %xmm6
 2368 1904 F20F1175 		movsd	%xmm6, -64(%rbp)
 2368      C0
 376:/home/brendan/Dropbox/PhD/Code/LBM/2D LBFS/src/artificial_dissipation.cpp ****                                             - soln.get_u(Mesh.get_w_node(neighbour));  // U j-1
 2369              		.loc 4 376 0
 2370 1909 8B55DC   		movl	-36(%rbp), %edx
 2371 190c 488B4518 		movq	24(%rbp), %rax
 2372 1910 89D6     		movl	%edx, %esi
 2373 1912 4889C7   		movq	%rax, %rdi
 2374 1915 E8000000 		call	_ZN8Solution5get_uEi
 2374      00
GAS LISTING /tmp/ccGTdBzt.s 			page 62


 2375 191a 660F28C8 		movapd	%xmm0, %xmm1
 2376 191e F20F1005 		movsd	.LC5(%rip), %xmm0
 2376      00000000 
 2377 1926 F20F59C1 		mulsd	%xmm1, %xmm0
 2378 192a F20F5845 		addsd	-64(%rbp), %xmm0
 2378      C0
 2379 192f F20F1145 		movsd	%xmm0, -64(%rbp)
 2379      C0
 377:/home/brendan/Dropbox/PhD/Code/LBM/2D LBFS/src/artificial_dissipation.cpp ****                                         }
 2380              		.loc 4 377 0
 2381 1934 8B45E0   		movl	-32(%rbp), %eax
 2382 1937 89C6     		movl	%eax, %esi
 2383 1939 488B7D10 		movq	16(%rbp), %rdi
 2384 193d E8000000 		call	_ZN4Mesh10get_w_nodeEi
 2384      00
 2385 1942 89C2     		movl	%eax, %edx
 2386 1944 488B45D0 		movq	-48(%rbp), %rax
 2387 1948 89D6     		movl	%edx, %esi
 2388 194a 4889C7   		movq	%rax, %rdi
 2389 194d E8000000 		call	_ZN8Solution5get_uEi
 2389      00
 2390 1952 F20F1055 		movsd	-64(%rbp), %xmm2
 2390      C0
 2391 1957 F20F5CD0 		subsd	%xmm0, %xmm2
 2392 195b 660F28C2 		movapd	%xmm2, %xmm0
 2393 195f F20F1145 		movsd	%xmm0, -8(%rbp)
 2393      F8
 379:/home/brendan/Dropbox/PhD/Code/LBM/2D LBFS/src/artificial_dissipation.cpp ****                                 case(3):
 2394              		.loc 4 379 0
 2395 1964 E9350100 		jmp	.L93
 2395      00
 2396              	.L98:
 381:/home/brendan/Dropbox/PhD/Code/LBM/2D LBFS/src/artificial_dissipation.cpp ****                                             temp = 2*local_soln.get_u(i)      // U j
 2397              		.loc 4 381 0
 2398 1969 8B55E0   		movl	-32(%rbp), %edx
 2399 196c 488B45C8 		movq	-56(%rbp), %rax
 2400 1970 89D6     		movl	%edx, %esi
 2401 1972 4889C7   		movq	%rax, %rdi
 2402 1975 E8000000 		call	_ZN19Boundary_Conditions6get_bcEi
 2402      00
 2403 197a 84C0     		testb	%al, %al
 2404 197c 7472     		je	.L105
 382:/home/brendan/Dropbox/PhD/Code/LBM/2D LBFS/src/artificial_dissipation.cpp ****                                                 -soln.get_u(neighbour)      // U j+1
 2405              		.loc 4 382 0
 2406 197e 8B55DC   		movl	-36(%rbp), %edx
 2407 1981 488B4518 		movq	24(%rbp), %rax
 2408 1985 89D6     		movl	%edx, %esi
 2409 1987 4889C7   		movq	%rax, %rdi
 2410 198a E8000000 		call	_ZN8Solution5get_uEi
 2410      00
 2411 198f 660F28D8 		movapd	%xmm0, %xmm3
 2412 1993 F20F58D8 		addsd	%xmm0, %xmm3
 2413 1997 F20F115D 		movsd	%xmm3, -64(%rbp)
 2413      C0
 383:/home/brendan/Dropbox/PhD/Code/LBM/2D LBFS/src/artificial_dissipation.cpp ****                                                 - soln.get_u(Mesh.get_s_node(neighbour));
 2414              		.loc 4 383 0
 2415 199c 8B55E0   		movl	-32(%rbp), %edx
GAS LISTING /tmp/ccGTdBzt.s 			page 63


 2416 199f 488B45D0 		movq	-48(%rbp), %rax
 2417 19a3 89D6     		movl	%edx, %esi
 2418 19a5 4889C7   		movq	%rax, %rdi
 2419 19a8 E8000000 		call	_ZN8Solution5get_uEi
 2419      00
 2420 19ad F20F105D 		movsd	-64(%rbp), %xmm3
 2420      C0
 2421 19b2 F20F5CD8 		subsd	%xmm0, %xmm3
 2422 19b6 F20F115D 		movsd	%xmm3, -64(%rbp)
 2422      C0
 384:/home/brendan/Dropbox/PhD/Code/LBM/2D LBFS/src/artificial_dissipation.cpp **** 
 2423              		.loc 4 384 0
 2424 19bb 8B45E0   		movl	-32(%rbp), %eax
 2425 19be 89C6     		movl	%eax, %esi
 2426 19c0 488B7D10 		movq	16(%rbp), %rdi
 2427 19c4 E8000000 		call	_ZN4Mesh10get_s_nodeEi
 2427      00
 2428 19c9 89C2     		movl	%eax, %edx
 2429 19cb 488B45D0 		movq	-48(%rbp), %rax
 2430 19cf 89D6     		movl	%edx, %esi
 2431 19d1 4889C7   		movq	%rax, %rdi
 2432 19d4 E8000000 		call	_ZN8Solution5get_uEi
 2432      00
 2433 19d9 F20F105D 		movsd	-64(%rbp), %xmm3
 2433      C0
 2434 19de F20F5CD8 		subsd	%xmm0, %xmm3
 2435 19e2 660F28C3 		movapd	%xmm3, %xmm0
 2436 19e6 F20F1145 		movsd	%xmm0, -8(%rbp)
 2436      F8
 392:/home/brendan/Dropbox/PhD/Code/LBM/2D LBFS/src/artificial_dissipation.cpp **** 
 2437              		.loc 4 392 0
 2438 19eb E9AD0000 		jmp	.L137
 2438      00
 2439              	.L105:
 387:/home/brendan/Dropbox/PhD/Code/LBM/2D LBFS/src/artificial_dissipation.cpp ****                                                 - 3* soln.get_u(neighbour)                //U j+1
 2440              		.loc 4 387 0
 2441 19f0 8B45E0   		movl	-32(%rbp), %eax
 2442 19f3 89C6     		movl	%eax, %esi
 2443 19f5 488B7D10 		movq	16(%rbp), %rdi
 2444 19f9 E8000000 		call	_ZN4Mesh10get_n_nodeEi
 2444      00
 2445 19fe 89C2     		movl	%eax, %edx
 2446 1a00 488B45D0 		movq	-48(%rbp), %rax
 2447 1a04 89D6     		movl	%edx, %esi
 2448 1a06 4889C7   		movq	%rax, %rdi
 2449 1a09 E8000000 		call	_ZN8Solution5get_uEi
 2449      00
 2450 1a0e F20F1145 		movsd	%xmm0, -64(%rbp)
 2450      C0
 388:/home/brendan/Dropbox/PhD/Code/LBM/2D LBFS/src/artificial_dissipation.cpp ****                                                 + 3* local_soln.get_u(i)                  // U j
 2451              		.loc 4 388 0
 2452 1a13 8B55E0   		movl	-32(%rbp), %edx
 2453 1a16 488B45D0 		movq	-48(%rbp), %rax
 2454 1a1a 89D6     		movl	%edx, %esi
 2455 1a1c 4889C7   		movq	%rax, %rdi
 2456 1a1f E8000000 		call	_ZN8Solution5get_uEi
 2456      00
GAS LISTING /tmp/ccGTdBzt.s 			page 64


 2457 1a24 660F28C8 		movapd	%xmm0, %xmm1
 2458 1a28 F20F1005 		movsd	.LC5(%rip), %xmm0
 2458      00000000 
 2459 1a30 F20F59C1 		mulsd	%xmm1, %xmm0
 2460 1a34 F20F107D 		movsd	-64(%rbp), %xmm7
 2460      C0
 2461 1a39 F20F5CF8 		subsd	%xmm0, %xmm7
 2462 1a3d F20F117D 		movsd	%xmm7, -64(%rbp)
 2462      C0
 389:/home/brendan/Dropbox/PhD/Code/LBM/2D LBFS/src/artificial_dissipation.cpp ****                                                 - soln.get_u(Mesh.get_s_node(neighbour));  // U j-1
 2463              		.loc 4 389 0
 2464 1a42 8B55DC   		movl	-36(%rbp), %edx
 2465 1a45 488B4518 		movq	24(%rbp), %rax
 2466 1a49 89D6     		movl	%edx, %esi
 2467 1a4b 4889C7   		movq	%rax, %rdi
 2468 1a4e E8000000 		call	_ZN8Solution5get_uEi
 2468      00
 2469 1a53 660F28C8 		movapd	%xmm0, %xmm1
 2470 1a57 F20F1005 		movsd	.LC5(%rip), %xmm0
 2470      00000000 
 2471 1a5f F20F59C1 		mulsd	%xmm1, %xmm0
 2472 1a63 F20F5845 		addsd	-64(%rbp), %xmm0
 2472      C0
 2473 1a68 F20F1145 		movsd	%xmm0, -64(%rbp)
 2473      C0
 390:/home/brendan/Dropbox/PhD/Code/LBM/2D LBFS/src/artificial_dissipation.cpp ****                                         }
 2474              		.loc 4 390 0
 2475 1a6d 8B45E0   		movl	-32(%rbp), %eax
 2476 1a70 89C6     		movl	%eax, %esi
 2477 1a72 488B7D10 		movq	16(%rbp), %rdi
 2478 1a76 E8000000 		call	_ZN4Mesh10get_s_nodeEi
 2478      00
 2479 1a7b 89C2     		movl	%eax, %edx
 2480 1a7d 488B45D0 		movq	-48(%rbp), %rax
 2481 1a81 89D6     		movl	%edx, %esi
 2482 1a83 4889C7   		movq	%rax, %rdi
 2483 1a86 E8000000 		call	_ZN8Solution5get_uEi
 2483      00
 2484 1a8b F20F105D 		movsd	-64(%rbp), %xmm3
 2484      C0
 2485 1a90 F20F5CD8 		subsd	%xmm0, %xmm3
 2486 1a94 660F28C3 		movapd	%xmm3, %xmm0
 2487 1a98 F20F1145 		movsd	%xmm0, -8(%rbp)
 2487      F8
 2488              	.L137:
 392:/home/brendan/Dropbox/PhD/Code/LBM/2D LBFS/src/artificial_dissipation.cpp **** 
 2489              		.loc 4 392 0
 2490 1a9d 90       		nop
 2491              	.L93:
 2492              		.loc 4 395 0 discriminator 5
 2493 1a9e E9280A00 		jmp	.L73
 2493      00
 2494              	.L77:
 396:/home/brendan/Dropbox/PhD/Code/LBM/2D LBFS/src/artificial_dissipation.cpp ****                         case(3):
 397:/home/brendan/Dropbox/PhD/Code/LBM/2D LBFS/src/artificial_dissipation.cpp ****                             switch(j){
 2495              		.loc 4 397 0
 2496 1aa3 8B4528   		movl	40(%rbp), %eax
GAS LISTING /tmp/ccGTdBzt.s 			page 65


 2497 1aa6 83F801   		cmpl	$1, %eax
 2498 1aa9 0F845E01 		je	.L108
 2498      0000
 2499 1aaf 83F801   		cmpl	$1, %eax
 2500 1ab2 7F09     		jg	.L109
 2501 1ab4 85C0     		testl	%eax, %eax
 2502 1ab6 741C     		je	.L110
 398:/home/brendan/Dropbox/PhD/Code/LBM/2D LBFS/src/artificial_dissipation.cpp ****                                 case(0):
 399:/home/brendan/Dropbox/PhD/Code/LBM/2D LBFS/src/artificial_dissipation.cpp ****                                     if(bcs.get_bc(neighbour)){
 400:/home/brendan/Dropbox/PhD/Code/LBM/2D LBFS/src/artificial_dissipation.cpp ****                                             temp = 2*local_soln.get_v(i)      // U j
 401:/home/brendan/Dropbox/PhD/Code/LBM/2D LBFS/src/artificial_dissipation.cpp ****                                                 -soln.get_v(neighbour)      // U j+1
 402:/home/brendan/Dropbox/PhD/Code/LBM/2D LBFS/src/artificial_dissipation.cpp ****                                                 - soln.get_v(Mesh.get_e_node(neighbour));
 403:/home/brendan/Dropbox/PhD/Code/LBM/2D LBFS/src/artificial_dissipation.cpp **** 
 404:/home/brendan/Dropbox/PhD/Code/LBM/2D LBFS/src/artificial_dissipation.cpp ****                                     }else{
 405:/home/brendan/Dropbox/PhD/Code/LBM/2D LBFS/src/artificial_dissipation.cpp ****                                         temp = soln.get_v(Mesh.get_w_node(neighbour) ) // U j+2
 406:/home/brendan/Dropbox/PhD/Code/LBM/2D LBFS/src/artificial_dissipation.cpp ****                                         - 3* soln.get_v(neighbour)                //U j+1
 407:/home/brendan/Dropbox/PhD/Code/LBM/2D LBFS/src/artificial_dissipation.cpp ****                                         + 3* local_soln.get_v(i)                  // U j
 408:/home/brendan/Dropbox/PhD/Code/LBM/2D LBFS/src/artificial_dissipation.cpp ****                                         - soln.get_v(Mesh.get_e_node(neighbour));  // U j-1
 409:/home/brendan/Dropbox/PhD/Code/LBM/2D LBFS/src/artificial_dissipation.cpp **** 
 410:/home/brendan/Dropbox/PhD/Code/LBM/2D LBFS/src/artificial_dissipation.cpp ****                                     }
 411:/home/brendan/Dropbox/PhD/Code/LBM/2D LBFS/src/artificial_dissipation.cpp **** 
 412:/home/brendan/Dropbox/PhD/Code/LBM/2D LBFS/src/artificial_dissipation.cpp ****                                     break;
 413:/home/brendan/Dropbox/PhD/Code/LBM/2D LBFS/src/artificial_dissipation.cpp ****                                 case(1):
 414:/home/brendan/Dropbox/PhD/Code/LBM/2D LBFS/src/artificial_dissipation.cpp ****                                       if(bcs.get_bc(neighbour)){
 415:/home/brendan/Dropbox/PhD/Code/LBM/2D LBFS/src/artificial_dissipation.cpp ****                                             temp = 2*local_soln.get_v(i)      // U j
 416:/home/brendan/Dropbox/PhD/Code/LBM/2D LBFS/src/artificial_dissipation.cpp ****                                                 -soln.get_v(neighbour)      // U j+1
 417:/home/brendan/Dropbox/PhD/Code/LBM/2D LBFS/src/artificial_dissipation.cpp ****                                                 - soln.get_v(Mesh.get_n_node(neighbour));
 418:/home/brendan/Dropbox/PhD/Code/LBM/2D LBFS/src/artificial_dissipation.cpp **** 
 419:/home/brendan/Dropbox/PhD/Code/LBM/2D LBFS/src/artificial_dissipation.cpp ****                                         }else{
 420:/home/brendan/Dropbox/PhD/Code/LBM/2D LBFS/src/artificial_dissipation.cpp **** 
 421:/home/brendan/Dropbox/PhD/Code/LBM/2D LBFS/src/artificial_dissipation.cpp ****                                         temp = soln.get_v(Mesh.get_s_node(neighbour) ) // U j+2
 422:/home/brendan/Dropbox/PhD/Code/LBM/2D LBFS/src/artificial_dissipation.cpp ****                                             - 3* soln.get_v(neighbour)                //U j+1
 423:/home/brendan/Dropbox/PhD/Code/LBM/2D LBFS/src/artificial_dissipation.cpp ****                                             + 3* local_soln.get_v(i)                  // U j
 424:/home/brendan/Dropbox/PhD/Code/LBM/2D LBFS/src/artificial_dissipation.cpp ****                                             - soln.get_v(Mesh.get_n_node(neighbour));  // U j-1
 425:/home/brendan/Dropbox/PhD/Code/LBM/2D LBFS/src/artificial_dissipation.cpp ****                                         }
 426:/home/brendan/Dropbox/PhD/Code/LBM/2D LBFS/src/artificial_dissipation.cpp ****                                     break;
 427:/home/brendan/Dropbox/PhD/Code/LBM/2D LBFS/src/artificial_dissipation.cpp ****                                 case(2):
 428:/home/brendan/Dropbox/PhD/Code/LBM/2D LBFS/src/artificial_dissipation.cpp ****                                       if(bcs.get_bc(neighbour)){
 429:/home/brendan/Dropbox/PhD/Code/LBM/2D LBFS/src/artificial_dissipation.cpp ****                                             temp = 2*local_soln.get_v(i)      // U j
 430:/home/brendan/Dropbox/PhD/Code/LBM/2D LBFS/src/artificial_dissipation.cpp ****                                                 -soln.get_v(neighbour)      // U j+1
 431:/home/brendan/Dropbox/PhD/Code/LBM/2D LBFS/src/artificial_dissipation.cpp ****                                                 - soln.get_v(Mesh.get_w_node(neighbour));
 432:/home/brendan/Dropbox/PhD/Code/LBM/2D LBFS/src/artificial_dissipation.cpp **** 
 433:/home/brendan/Dropbox/PhD/Code/LBM/2D LBFS/src/artificial_dissipation.cpp ****                                         }else{
 434:/home/brendan/Dropbox/PhD/Code/LBM/2D LBFS/src/artificial_dissipation.cpp ****                                             temp = soln.get_v(Mesh.get_e_node(neighbour) ) // U j+2
 435:/home/brendan/Dropbox/PhD/Code/LBM/2D LBFS/src/artificial_dissipation.cpp ****                                                 - 3* soln.get_v(neighbour)                //U j+1
 436:/home/brendan/Dropbox/PhD/Code/LBM/2D LBFS/src/artificial_dissipation.cpp ****                                                 + 3* local_soln.get_v(i)                  // U j
 437:/home/brendan/Dropbox/PhD/Code/LBM/2D LBFS/src/artificial_dissipation.cpp ****                                             - soln.get_v(Mesh.get_w_node(neighbour));  // U j-1
 438:/home/brendan/Dropbox/PhD/Code/LBM/2D LBFS/src/artificial_dissipation.cpp ****                                         }
 439:/home/brendan/Dropbox/PhD/Code/LBM/2D LBFS/src/artificial_dissipation.cpp ****                                     break;
 440:/home/brendan/Dropbox/PhD/Code/LBM/2D LBFS/src/artificial_dissipation.cpp ****                                 case(3):
 441:/home/brendan/Dropbox/PhD/Code/LBM/2D LBFS/src/artificial_dissipation.cpp ****                                       if(bcs.get_bc(neighbour)){
 442:/home/brendan/Dropbox/PhD/Code/LBM/2D LBFS/src/artificial_dissipation.cpp ****                                             temp = 2*local_soln.get_v(i)      // U j
 443:/home/brendan/Dropbox/PhD/Code/LBM/2D LBFS/src/artificial_dissipation.cpp ****                                                 -soln.get_v(neighbour)      // U j+1
 444:/home/brendan/Dropbox/PhD/Code/LBM/2D LBFS/src/artificial_dissipation.cpp ****                                                 - soln.get_v(Mesh.get_s_node(neighbour));
 445:/home/brendan/Dropbox/PhD/Code/LBM/2D LBFS/src/artificial_dissipation.cpp **** 
 446:/home/brendan/Dropbox/PhD/Code/LBM/2D LBFS/src/artificial_dissipation.cpp ****                                         }else{
 447:/home/brendan/Dropbox/PhD/Code/LBM/2D LBFS/src/artificial_dissipation.cpp ****                                             temp = soln.get_v(Mesh.get_n_node(neighbour) ) // U j+2
GAS LISTING /tmp/ccGTdBzt.s 			page 66


 448:/home/brendan/Dropbox/PhD/Code/LBM/2D LBFS/src/artificial_dissipation.cpp ****                                                 - 3* soln.get_v(neighbour)                //U j+1
 449:/home/brendan/Dropbox/PhD/Code/LBM/2D LBFS/src/artificial_dissipation.cpp ****                                                 + 3* local_soln.get_v(i)                  // U j
 450:/home/brendan/Dropbox/PhD/Code/LBM/2D LBFS/src/artificial_dissipation.cpp ****                                                 - soln.get_v(Mesh.get_s_node(neighbour));  // U j-1
 451:/home/brendan/Dropbox/PhD/Code/LBM/2D LBFS/src/artificial_dissipation.cpp ****                                         }
 452:/home/brendan/Dropbox/PhD/Code/LBM/2D LBFS/src/artificial_dissipation.cpp ****                                     break;
 453:/home/brendan/Dropbox/PhD/Code/LBM/2D LBFS/src/artificial_dissipation.cpp **** 
 454:/home/brendan/Dropbox/PhD/Code/LBM/2D LBFS/src/artificial_dissipation.cpp ****                             }
 455:/home/brendan/Dropbox/PhD/Code/LBM/2D LBFS/src/artificial_dissipation.cpp ****                             break;
 2503              		.loc 4 455 0
 2504 1ab8 E90E0A00 		jmp	.L73
 2504      00
 2505              	.L109:
 397:/home/brendan/Dropbox/PhD/Code/LBM/2D LBFS/src/artificial_dissipation.cpp ****                                 case(0):
 2506              		.loc 4 397 0
 2507 1abd 83F802   		cmpl	$2, %eax
 2508 1ac0 0F848002 		je	.L111
 2508      0000
 2509 1ac6 83F803   		cmpl	$3, %eax
 2510 1ac9 0F84B003 		je	.L112
 2510      0000
 2511              		.loc 4 455 0
 2512 1acf E9F70900 		jmp	.L73
 2512      00
 2513              	.L110:
 399:/home/brendan/Dropbox/PhD/Code/LBM/2D LBFS/src/artificial_dissipation.cpp ****                                             temp = 2*local_soln.get_v(i)      // U j
 2514              		.loc 4 399 0
 2515 1ad4 8B55E0   		movl	-32(%rbp), %edx
 2516 1ad7 488B45C8 		movq	-56(%rbp), %rax
 2517 1adb 89D6     		movl	%edx, %esi
 2518 1add 4889C7   		movq	%rax, %rdi
 2519 1ae0 E8000000 		call	_ZN19Boundary_Conditions6get_bcEi
 2519      00
 2520 1ae5 84C0     		testb	%al, %al
 2521 1ae7 7472     		je	.L113
 400:/home/brendan/Dropbox/PhD/Code/LBM/2D LBFS/src/artificial_dissipation.cpp ****                                                 -soln.get_v(neighbour)      // U j+1
 2522              		.loc 4 400 0
 2523 1ae9 8B55DC   		movl	-36(%rbp), %edx
 2524 1aec 488B4518 		movq	24(%rbp), %rax
 2525 1af0 89D6     		movl	%edx, %esi
 2526 1af2 4889C7   		movq	%rax, %rdi
 2527 1af5 E8000000 		call	_ZN8Solution5get_vEi
 2527      00
 2528 1afa 660F28E0 		movapd	%xmm0, %xmm4
 2529 1afe F20F58E0 		addsd	%xmm0, %xmm4
 2530 1b02 F20F1165 		movsd	%xmm4, -64(%rbp)
 2530      C0
 401:/home/brendan/Dropbox/PhD/Code/LBM/2D LBFS/src/artificial_dissipation.cpp ****                                                 - soln.get_v(Mesh.get_e_node(neighbour));
 2531              		.loc 4 401 0
 2532 1b07 8B55E0   		movl	-32(%rbp), %edx
 2533 1b0a 488B45D0 		movq	-48(%rbp), %rax
 2534 1b0e 89D6     		movl	%edx, %esi
 2535 1b10 4889C7   		movq	%rax, %rdi
 2536 1b13 E8000000 		call	_ZN8Solution5get_vEi
 2536      00
 2537 1b18 F20F1065 		movsd	-64(%rbp), %xmm4
 2537      C0
 2538 1b1d F20F5CE0 		subsd	%xmm0, %xmm4
GAS LISTING /tmp/ccGTdBzt.s 			page 67


 2539 1b21 F20F1165 		movsd	%xmm4, -64(%rbp)
 2539      C0
 402:/home/brendan/Dropbox/PhD/Code/LBM/2D LBFS/src/artificial_dissipation.cpp **** 
 2540              		.loc 4 402 0
 2541 1b26 8B45E0   		movl	-32(%rbp), %eax
 2542 1b29 89C6     		movl	%eax, %esi
 2543 1b2b 488B7D10 		movq	16(%rbp), %rdi
 2544 1b2f E8000000 		call	_ZN4Mesh10get_e_nodeEi
 2544      00
 2545 1b34 89C2     		movl	%eax, %edx
 2546 1b36 488B45D0 		movq	-48(%rbp), %rax
 2547 1b3a 89D6     		movl	%edx, %esi
 2548 1b3c 4889C7   		movq	%rax, %rdi
 2549 1b3f E8000000 		call	_ZN8Solution5get_vEi
 2549      00
 2550 1b44 F20F1065 		movsd	-64(%rbp), %xmm4
 2550      C0
 2551 1b49 F20F5CE0 		subsd	%xmm0, %xmm4
 2552 1b4d 660F28C4 		movapd	%xmm4, %xmm0
 2553 1b51 F20F1145 		movsd	%xmm0, -8(%rbp)
 2553      F8
 412:/home/brendan/Dropbox/PhD/Code/LBM/2D LBFS/src/artificial_dissipation.cpp ****                                 case(1):
 2554              		.loc 4 412 0
 2555 1b56 E9590400 		jmp	.L107
 2555      00
 2556              	.L113:
 405:/home/brendan/Dropbox/PhD/Code/LBM/2D LBFS/src/artificial_dissipation.cpp ****                                         - 3* soln.get_v(neighbour)                //U j+1
 2557              		.loc 4 405 0
 2558 1b5b 8B45E0   		movl	-32(%rbp), %eax
 2559 1b5e 89C6     		movl	%eax, %esi
 2560 1b60 488B7D10 		movq	16(%rbp), %rdi
 2561 1b64 E8000000 		call	_ZN4Mesh10get_w_nodeEi
 2561      00
 2562 1b69 89C2     		movl	%eax, %edx
 2563 1b6b 488B45D0 		movq	-48(%rbp), %rax
 2564 1b6f 89D6     		movl	%edx, %esi
 2565 1b71 4889C7   		movq	%rax, %rdi
 2566 1b74 E8000000 		call	_ZN8Solution5get_vEi
 2566      00
 2567 1b79 F20F1145 		movsd	%xmm0, -64(%rbp)
 2567      C0
 406:/home/brendan/Dropbox/PhD/Code/LBM/2D LBFS/src/artificial_dissipation.cpp ****                                         + 3* local_soln.get_v(i)                  // U j
 2568              		.loc 4 406 0
 2569 1b7e 8B55E0   		movl	-32(%rbp), %edx
 2570 1b81 488B45D0 		movq	-48(%rbp), %rax
 2571 1b85 89D6     		movl	%edx, %esi
 2572 1b87 4889C7   		movq	%rax, %rdi
 2573 1b8a E8000000 		call	_ZN8Solution5get_vEi
 2573      00
 2574 1b8f 660F28C8 		movapd	%xmm0, %xmm1
 2575 1b93 F20F1005 		movsd	.LC5(%rip), %xmm0
 2575      00000000 
 2576 1b9b F20F59C1 		mulsd	%xmm1, %xmm0
 2577 1b9f F20F1055 		movsd	-64(%rbp), %xmm2
 2577      C0
 2578 1ba4 F20F5CD0 		subsd	%xmm0, %xmm2
 2579 1ba8 F20F1155 		movsd	%xmm2, -64(%rbp)
GAS LISTING /tmp/ccGTdBzt.s 			page 68


 2579      C0
 407:/home/brendan/Dropbox/PhD/Code/LBM/2D LBFS/src/artificial_dissipation.cpp ****                                         - soln.get_v(Mesh.get_e_node(neighbour));  // U j-1
 2580              		.loc 4 407 0
 2581 1bad 8B55DC   		movl	-36(%rbp), %edx
 2582 1bb0 488B4518 		movq	24(%rbp), %rax
 2583 1bb4 89D6     		movl	%edx, %esi
 2584 1bb6 4889C7   		movq	%rax, %rdi
 2585 1bb9 E8000000 		call	_ZN8Solution5get_vEi
 2585      00
 2586 1bbe 660F28C8 		movapd	%xmm0, %xmm1
 2587 1bc2 F20F1005 		movsd	.LC5(%rip), %xmm0
 2587      00000000 
 2588 1bca F20F59C1 		mulsd	%xmm1, %xmm0
 2589 1bce F20F5845 		addsd	-64(%rbp), %xmm0
 2589      C0
 2590 1bd3 F20F1145 		movsd	%xmm0, -64(%rbp)
 2590      C0
 408:/home/brendan/Dropbox/PhD/Code/LBM/2D LBFS/src/artificial_dissipation.cpp **** 
 2591              		.loc 4 408 0
 2592 1bd8 8B45E0   		movl	-32(%rbp), %eax
 2593 1bdb 89C6     		movl	%eax, %esi
 2594 1bdd 488B7D10 		movq	16(%rbp), %rdi
 2595 1be1 E8000000 		call	_ZN4Mesh10get_e_nodeEi
 2595      00
 2596 1be6 89C2     		movl	%eax, %edx
 2597 1be8 488B45D0 		movq	-48(%rbp), %rax
 2598 1bec 89D6     		movl	%edx, %esi
 2599 1bee 4889C7   		movq	%rax, %rdi
 2600 1bf1 E8000000 		call	_ZN8Solution5get_vEi
 2600      00
 2601 1bf6 F20F1065 		movsd	-64(%rbp), %xmm4
 2601      C0
 2602 1bfb F20F5CE0 		subsd	%xmm0, %xmm4
 2603 1bff 660F28C4 		movapd	%xmm4, %xmm0
 2604 1c03 F20F1145 		movsd	%xmm0, -8(%rbp)
 2604      F8
 412:/home/brendan/Dropbox/PhD/Code/LBM/2D LBFS/src/artificial_dissipation.cpp ****                                 case(1):
 2605              		.loc 4 412 0
 2606 1c08 E9A70300 		jmp	.L107
 2606      00
 2607              	.L108:
 414:/home/brendan/Dropbox/PhD/Code/LBM/2D LBFS/src/artificial_dissipation.cpp ****                                             temp = 2*local_soln.get_v(i)      // U j
 2608              		.loc 4 414 0
 2609 1c0d 8B55E0   		movl	-32(%rbp), %edx
 2610 1c10 488B45C8 		movq	-56(%rbp), %rax
 2611 1c14 89D6     		movl	%edx, %esi
 2612 1c16 4889C7   		movq	%rax, %rdi
 2613 1c19 E8000000 		call	_ZN19Boundary_Conditions6get_bcEi
 2613      00
 2614 1c1e 84C0     		testb	%al, %al
 2615 1c20 7472     		je	.L115
 415:/home/brendan/Dropbox/PhD/Code/LBM/2D LBFS/src/artificial_dissipation.cpp ****                                                 -soln.get_v(neighbour)      // U j+1
 2616              		.loc 4 415 0
 2617 1c22 8B55DC   		movl	-36(%rbp), %edx
 2618 1c25 488B4518 		movq	24(%rbp), %rax
 2619 1c29 89D6     		movl	%edx, %esi
 2620 1c2b 4889C7   		movq	%rax, %rdi
GAS LISTING /tmp/ccGTdBzt.s 			page 69


 2621 1c2e E8000000 		call	_ZN8Solution5get_vEi
 2621      00
 2622 1c33 660F28E8 		movapd	%xmm0, %xmm5
 2623 1c37 F20F58E8 		addsd	%xmm0, %xmm5
 2624 1c3b F20F116D 		movsd	%xmm5, -64(%rbp)
 2624      C0
 416:/home/brendan/Dropbox/PhD/Code/LBM/2D LBFS/src/artificial_dissipation.cpp ****                                                 - soln.get_v(Mesh.get_n_node(neighbour));
 2625              		.loc 4 416 0
 2626 1c40 8B55E0   		movl	-32(%rbp), %edx
 2627 1c43 488B45D0 		movq	-48(%rbp), %rax
 2628 1c47 89D6     		movl	%edx, %esi
 2629 1c49 4889C7   		movq	%rax, %rdi
 2630 1c4c E8000000 		call	_ZN8Solution5get_vEi
 2630      00
 2631 1c51 F20F106D 		movsd	-64(%rbp), %xmm5
 2631      C0
 2632 1c56 F20F5CE8 		subsd	%xmm0, %xmm5
 2633 1c5a F20F116D 		movsd	%xmm5, -64(%rbp)
 2633      C0
 417:/home/brendan/Dropbox/PhD/Code/LBM/2D LBFS/src/artificial_dissipation.cpp **** 
 2634              		.loc 4 417 0
 2635 1c5f 8B45E0   		movl	-32(%rbp), %eax
 2636 1c62 89C6     		movl	%eax, %esi
 2637 1c64 488B7D10 		movq	16(%rbp), %rdi
 2638 1c68 E8000000 		call	_ZN4Mesh10get_n_nodeEi
 2638      00
 2639 1c6d 89C2     		movl	%eax, %edx
 2640 1c6f 488B45D0 		movq	-48(%rbp), %rax
 2641 1c73 89D6     		movl	%edx, %esi
 2642 1c75 4889C7   		movq	%rax, %rdi
 2643 1c78 E8000000 		call	_ZN8Solution5get_vEi
 2643      00
 2644 1c7d F20F106D 		movsd	-64(%rbp), %xmm5
 2644      C0
 2645 1c82 F20F5CE8 		subsd	%xmm0, %xmm5
 2646 1c86 660F28C5 		movapd	%xmm5, %xmm0
 2647 1c8a F20F1145 		movsd	%xmm0, -8(%rbp)
 2647      F8
 426:/home/brendan/Dropbox/PhD/Code/LBM/2D LBFS/src/artificial_dissipation.cpp ****                                 case(2):
 2648              		.loc 4 426 0
 2649 1c8f E9200300 		jmp	.L107
 2649      00
 2650              	.L115:
 421:/home/brendan/Dropbox/PhD/Code/LBM/2D LBFS/src/artificial_dissipation.cpp ****                                             - 3* soln.get_v(neighbour)                //U j+1
 2651              		.loc 4 421 0
 2652 1c94 8B45E0   		movl	-32(%rbp), %eax
 2653 1c97 89C6     		movl	%eax, %esi
 2654 1c99 488B7D10 		movq	16(%rbp), %rdi
 2655 1c9d E8000000 		call	_ZN4Mesh10get_s_nodeEi
 2655      00
 2656 1ca2 89C2     		movl	%eax, %edx
 2657 1ca4 488B45D0 		movq	-48(%rbp), %rax
 2658 1ca8 89D6     		movl	%edx, %esi
 2659 1caa 4889C7   		movq	%rax, %rdi
 2660 1cad E8000000 		call	_ZN8Solution5get_vEi
 2660      00
 2661 1cb2 F20F1145 		movsd	%xmm0, -64(%rbp)
GAS LISTING /tmp/ccGTdBzt.s 			page 70


 2661      C0
 422:/home/brendan/Dropbox/PhD/Code/LBM/2D LBFS/src/artificial_dissipation.cpp ****                                             + 3* local_soln.get_v(i)                  // U j
 2662              		.loc 4 422 0
 2663 1cb7 8B55E0   		movl	-32(%rbp), %edx
 2664 1cba 488B45D0 		movq	-48(%rbp), %rax
 2665 1cbe 89D6     		movl	%edx, %esi
 2666 1cc0 4889C7   		movq	%rax, %rdi
 2667 1cc3 E8000000 		call	_ZN8Solution5get_vEi
 2667      00
 2668 1cc8 660F28C8 		movapd	%xmm0, %xmm1
 2669 1ccc F20F1005 		movsd	.LC5(%rip), %xmm0
 2669      00000000 
 2670 1cd4 F20F59C1 		mulsd	%xmm1, %xmm0
 2671 1cd8 F20F105D 		movsd	-64(%rbp), %xmm3
 2671      C0
 2672 1cdd F20F5CD8 		subsd	%xmm0, %xmm3
 2673 1ce1 F20F115D 		movsd	%xmm3, -64(%rbp)
 2673      C0
 423:/home/brendan/Dropbox/PhD/Code/LBM/2D LBFS/src/artificial_dissipation.cpp ****                                             - soln.get_v(Mesh.get_n_node(neighbour));  // U j-1
 2674              		.loc 4 423 0
 2675 1ce6 8B55DC   		movl	-36(%rbp), %edx
 2676 1ce9 488B4518 		movq	24(%rbp), %rax
 2677 1ced 89D6     		movl	%edx, %esi
 2678 1cef 4889C7   		movq	%rax, %rdi
 2679 1cf2 E8000000 		call	_ZN8Solution5get_vEi
 2679      00
 2680 1cf7 660F28C8 		movapd	%xmm0, %xmm1
 2681 1cfb F20F1005 		movsd	.LC5(%rip), %xmm0
 2681      00000000 
 2682 1d03 F20F59C1 		mulsd	%xmm1, %xmm0
 2683 1d07 F20F5845 		addsd	-64(%rbp), %xmm0
 2683      C0
 2684 1d0c F20F1145 		movsd	%xmm0, -64(%rbp)
 2684      C0
 424:/home/brendan/Dropbox/PhD/Code/LBM/2D LBFS/src/artificial_dissipation.cpp ****                                         }
 2685              		.loc 4 424 0
 2686 1d11 8B45E0   		movl	-32(%rbp), %eax
 2687 1d14 89C6     		movl	%eax, %esi
 2688 1d16 488B7D10 		movq	16(%rbp), %rdi
 2689 1d1a E8000000 		call	_ZN4Mesh10get_n_nodeEi
 2689      00
 2690 1d1f 89C2     		movl	%eax, %edx
 2691 1d21 488B45D0 		movq	-48(%rbp), %rax
 2692 1d25 89D6     		movl	%edx, %esi
 2693 1d27 4889C7   		movq	%rax, %rdi
 2694 1d2a E8000000 		call	_ZN8Solution5get_vEi
 2694      00
 2695 1d2f F20F106D 		movsd	-64(%rbp), %xmm5
 2695      C0
 2696 1d34 F20F5CE8 		subsd	%xmm0, %xmm5
 2697 1d38 660F28C5 		movapd	%xmm5, %xmm0
 2698 1d3c F20F1145 		movsd	%xmm0, -8(%rbp)
 2698      F8
 426:/home/brendan/Dropbox/PhD/Code/LBM/2D LBFS/src/artificial_dissipation.cpp ****                                 case(2):
 2699              		.loc 4 426 0
 2700 1d41 E96E0200 		jmp	.L107
 2700      00
GAS LISTING /tmp/ccGTdBzt.s 			page 71


 2701              	.L111:
 428:/home/brendan/Dropbox/PhD/Code/LBM/2D LBFS/src/artificial_dissipation.cpp ****                                             temp = 2*local_soln.get_v(i)      // U j
 2702              		.loc 4 428 0
 2703 1d46 8B55E0   		movl	-32(%rbp), %edx
 2704 1d49 488B45C8 		movq	-56(%rbp), %rax
 2705 1d4d 89D6     		movl	%edx, %esi
 2706 1d4f 4889C7   		movq	%rax, %rdi
 2707 1d52 E8000000 		call	_ZN19Boundary_Conditions6get_bcEi
 2707      00
 2708 1d57 84C0     		testb	%al, %al
 2709 1d59 7472     		je	.L117
 429:/home/brendan/Dropbox/PhD/Code/LBM/2D LBFS/src/artificial_dissipation.cpp ****                                                 -soln.get_v(neighbour)      // U j+1
 2710              		.loc 4 429 0
 2711 1d5b 8B55DC   		movl	-36(%rbp), %edx
 2712 1d5e 488B4518 		movq	24(%rbp), %rax
 2713 1d62 89D6     		movl	%edx, %esi
 2714 1d64 4889C7   		movq	%rax, %rdi
 2715 1d67 E8000000 		call	_ZN8Solution5get_vEi
 2715      00
 2716 1d6c 660F28F0 		movapd	%xmm0, %xmm6
 2717 1d70 F20F58F0 		addsd	%xmm0, %xmm6
 2718 1d74 F20F1175 		movsd	%xmm6, -64(%rbp)
 2718      C0
 430:/home/brendan/Dropbox/PhD/Code/LBM/2D LBFS/src/artificial_dissipation.cpp ****                                                 - soln.get_v(Mesh.get_w_node(neighbour));
 2719              		.loc 4 430 0
 2720 1d79 8B55E0   		movl	-32(%rbp), %edx
 2721 1d7c 488B45D0 		movq	-48(%rbp), %rax
 2722 1d80 89D6     		movl	%edx, %esi
 2723 1d82 4889C7   		movq	%rax, %rdi
 2724 1d85 E8000000 		call	_ZN8Solution5get_vEi
 2724      00
 2725 1d8a F20F1075 		movsd	-64(%rbp), %xmm6
 2725      C0
 2726 1d8f F20F5CF0 		subsd	%xmm0, %xmm6
 2727 1d93 F20F1175 		movsd	%xmm6, -64(%rbp)
 2727      C0
 431:/home/brendan/Dropbox/PhD/Code/LBM/2D LBFS/src/artificial_dissipation.cpp **** 
 2728              		.loc 4 431 0
 2729 1d98 8B45E0   		movl	-32(%rbp), %eax
 2730 1d9b 89C6     		movl	%eax, %esi
 2731 1d9d 488B7D10 		movq	16(%rbp), %rdi
 2732 1da1 E8000000 		call	_ZN4Mesh10get_w_nodeEi
 2732      00
 2733 1da6 89C2     		movl	%eax, %edx
 2734 1da8 488B45D0 		movq	-48(%rbp), %rax
 2735 1dac 89D6     		movl	%edx, %esi
 2736 1dae 4889C7   		movq	%rax, %rdi
 2737 1db1 E8000000 		call	_ZN8Solution5get_vEi
 2737      00
 2738 1db6 F20F1075 		movsd	-64(%rbp), %xmm6
 2738      C0
 2739 1dbb F20F5CF0 		subsd	%xmm0, %xmm6
 2740 1dbf 660F28C6 		movapd	%xmm6, %xmm0
 2741 1dc3 F20F1145 		movsd	%xmm0, -8(%rbp)
 2741      F8
 439:/home/brendan/Dropbox/PhD/Code/LBM/2D LBFS/src/artificial_dissipation.cpp ****                                 case(3):
 2742              		.loc 4 439 0
GAS LISTING /tmp/ccGTdBzt.s 			page 72


 2743 1dc8 E9E70100 		jmp	.L107
 2743      00
 2744              	.L117:
 434:/home/brendan/Dropbox/PhD/Code/LBM/2D LBFS/src/artificial_dissipation.cpp ****                                                 - 3* soln.get_v(neighbour)                //U j+1
 2745              		.loc 4 434 0
 2746 1dcd 8B45E0   		movl	-32(%rbp), %eax
 2747 1dd0 89C6     		movl	%eax, %esi
 2748 1dd2 488B7D10 		movq	16(%rbp), %rdi
 2749 1dd6 E8000000 		call	_ZN4Mesh10get_e_nodeEi
 2749      00
 2750 1ddb 89C2     		movl	%eax, %edx
 2751 1ddd 488B45D0 		movq	-48(%rbp), %rax
 2752 1de1 89D6     		movl	%edx, %esi
 2753 1de3 4889C7   		movq	%rax, %rdi
 2754 1de6 E8000000 		call	_ZN8Solution5get_vEi
 2754      00
 2755 1deb F20F1145 		movsd	%xmm0, -64(%rbp)
 2755      C0
 435:/home/brendan/Dropbox/PhD/Code/LBM/2D LBFS/src/artificial_dissipation.cpp ****                                                 + 3* local_soln.get_v(i)                  // U j
 2756              		.loc 4 435 0
 2757 1df0 8B55E0   		movl	-32(%rbp), %edx
 2758 1df3 488B45D0 		movq	-48(%rbp), %rax
 2759 1df7 89D6     		movl	%edx, %esi
 2760 1df9 4889C7   		movq	%rax, %rdi
 2761 1dfc E8000000 		call	_ZN8Solution5get_vEi
 2761      00
 2762 1e01 660F28C8 		movapd	%xmm0, %xmm1
 2763 1e05 F20F1005 		movsd	.LC5(%rip), %xmm0
 2763      00000000 
 2764 1e0d F20F59C1 		mulsd	%xmm1, %xmm0
 2765 1e11 F20F1065 		movsd	-64(%rbp), %xmm4
 2765      C0
 2766 1e16 F20F5CE0 		subsd	%xmm0, %xmm4
 2767 1e1a F20F1165 		movsd	%xmm4, -64(%rbp)
 2767      C0
 436:/home/brendan/Dropbox/PhD/Code/LBM/2D LBFS/src/artificial_dissipation.cpp ****                                             - soln.get_v(Mesh.get_w_node(neighbour));  // U j-1
 2768              		.loc 4 436 0
 2769 1e1f 8B55DC   		movl	-36(%rbp), %edx
 2770 1e22 488B4518 		movq	24(%rbp), %rax
 2771 1e26 89D6     		movl	%edx, %esi
 2772 1e28 4889C7   		movq	%rax, %rdi
 2773 1e2b E8000000 		call	_ZN8Solution5get_vEi
 2773      00
 2774 1e30 660F28C8 		movapd	%xmm0, %xmm1
 2775 1e34 F20F1005 		movsd	.LC5(%rip), %xmm0
 2775      00000000 
 2776 1e3c F20F59C1 		mulsd	%xmm1, %xmm0
 2777 1e40 F20F5845 		addsd	-64(%rbp), %xmm0
 2777      C0
 2778 1e45 F20F1145 		movsd	%xmm0, -64(%rbp)
 2778      C0
 437:/home/brendan/Dropbox/PhD/Code/LBM/2D LBFS/src/artificial_dissipation.cpp ****                                         }
 2779              		.loc 4 437 0
 2780 1e4a 8B45E0   		movl	-32(%rbp), %eax
 2781 1e4d 89C6     		movl	%eax, %esi
 2782 1e4f 488B7D10 		movq	16(%rbp), %rdi
 2783 1e53 E8000000 		call	_ZN4Mesh10get_w_nodeEi
GAS LISTING /tmp/ccGTdBzt.s 			page 73


 2783      00
 2784 1e58 89C2     		movl	%eax, %edx
 2785 1e5a 488B45D0 		movq	-48(%rbp), %rax
 2786 1e5e 89D6     		movl	%edx, %esi
 2787 1e60 4889C7   		movq	%rax, %rdi
 2788 1e63 E8000000 		call	_ZN8Solution5get_vEi
 2788      00
 2789 1e68 F20F1075 		movsd	-64(%rbp), %xmm6
 2789      C0
 2790 1e6d F20F5CF0 		subsd	%xmm0, %xmm6
 2791 1e71 660F28C6 		movapd	%xmm6, %xmm0
 2792 1e75 F20F1145 		movsd	%xmm0, -8(%rbp)
 2792      F8
 439:/home/brendan/Dropbox/PhD/Code/LBM/2D LBFS/src/artificial_dissipation.cpp ****                                 case(3):
 2793              		.loc 4 439 0
 2794 1e7a E9350100 		jmp	.L107
 2794      00
 2795              	.L112:
 441:/home/brendan/Dropbox/PhD/Code/LBM/2D LBFS/src/artificial_dissipation.cpp ****                                             temp = 2*local_soln.get_v(i)      // U j
 2796              		.loc 4 441 0
 2797 1e7f 8B55E0   		movl	-32(%rbp), %edx
 2798 1e82 488B45C8 		movq	-56(%rbp), %rax
 2799 1e86 89D6     		movl	%edx, %esi
 2800 1e88 4889C7   		movq	%rax, %rdi
 2801 1e8b E8000000 		call	_ZN19Boundary_Conditions6get_bcEi
 2801      00
 2802 1e90 84C0     		testb	%al, %al
 2803 1e92 7472     		je	.L119
 442:/home/brendan/Dropbox/PhD/Code/LBM/2D LBFS/src/artificial_dissipation.cpp ****                                                 -soln.get_v(neighbour)      // U j+1
 2804              		.loc 4 442 0
 2805 1e94 8B55DC   		movl	-36(%rbp), %edx
 2806 1e97 488B4518 		movq	24(%rbp), %rax
 2807 1e9b 89D6     		movl	%edx, %esi
 2808 1e9d 4889C7   		movq	%rax, %rdi
 2809 1ea0 E8000000 		call	_ZN8Solution5get_vEi
 2809      00
 2810 1ea5 660F28F8 		movapd	%xmm0, %xmm7
 2811 1ea9 F20F58F8 		addsd	%xmm0, %xmm7
 2812 1ead F20F117D 		movsd	%xmm7, -64(%rbp)
 2812      C0
 443:/home/brendan/Dropbox/PhD/Code/LBM/2D LBFS/src/artificial_dissipation.cpp ****                                                 - soln.get_v(Mesh.get_s_node(neighbour));
 2813              		.loc 4 443 0
 2814 1eb2 8B55E0   		movl	-32(%rbp), %edx
 2815 1eb5 488B45D0 		movq	-48(%rbp), %rax
 2816 1eb9 89D6     		movl	%edx, %esi
 2817 1ebb 4889C7   		movq	%rax, %rdi
 2818 1ebe E8000000 		call	_ZN8Solution5get_vEi
 2818      00
 2819 1ec3 F20F107D 		movsd	-64(%rbp), %xmm7
 2819      C0
 2820 1ec8 F20F5CF8 		subsd	%xmm0, %xmm7
 2821 1ecc F20F117D 		movsd	%xmm7, -64(%rbp)
 2821      C0
 444:/home/brendan/Dropbox/PhD/Code/LBM/2D LBFS/src/artificial_dissipation.cpp **** 
 2822              		.loc 4 444 0
 2823 1ed1 8B45E0   		movl	-32(%rbp), %eax
 2824 1ed4 89C6     		movl	%eax, %esi
GAS LISTING /tmp/ccGTdBzt.s 			page 74


 2825 1ed6 488B7D10 		movq	16(%rbp), %rdi
 2826 1eda E8000000 		call	_ZN4Mesh10get_s_nodeEi
 2826      00
 2827 1edf 89C2     		movl	%eax, %edx
 2828 1ee1 488B45D0 		movq	-48(%rbp), %rax
 2829 1ee5 89D6     		movl	%edx, %esi
 2830 1ee7 4889C7   		movq	%rax, %rdi
 2831 1eea E8000000 		call	_ZN8Solution5get_vEi
 2831      00
 2832 1eef F20F107D 		movsd	-64(%rbp), %xmm7
 2832      C0
 2833 1ef4 F20F5CF8 		subsd	%xmm0, %xmm7
 2834 1ef8 660F28C7 		movapd	%xmm7, %xmm0
 2835 1efc F20F1145 		movsd	%xmm0, -8(%rbp)
 2835      F8
 452:/home/brendan/Dropbox/PhD/Code/LBM/2D LBFS/src/artificial_dissipation.cpp **** 
 2836              		.loc 4 452 0
 2837 1f01 E9AD0000 		jmp	.L138
 2837      00
 2838              	.L119:
 447:/home/brendan/Dropbox/PhD/Code/LBM/2D LBFS/src/artificial_dissipation.cpp ****                                                 - 3* soln.get_v(neighbour)                //U j+1
 2839              		.loc 4 447 0
 2840 1f06 8B45E0   		movl	-32(%rbp), %eax
 2841 1f09 89C6     		movl	%eax, %esi
 2842 1f0b 488B7D10 		movq	16(%rbp), %rdi
 2843 1f0f E8000000 		call	_ZN4Mesh10get_n_nodeEi
 2843      00
 2844 1f14 89C2     		movl	%eax, %edx
 2845 1f16 488B45D0 		movq	-48(%rbp), %rax
 2846 1f1a 89D6     		movl	%edx, %esi
 2847 1f1c 4889C7   		movq	%rax, %rdi
 2848 1f1f E8000000 		call	_ZN8Solution5get_vEi
 2848      00
 2849 1f24 F20F1145 		movsd	%xmm0, -64(%rbp)
 2849      C0
 448:/home/brendan/Dropbox/PhD/Code/LBM/2D LBFS/src/artificial_dissipation.cpp ****                                                 + 3* local_soln.get_v(i)                  // U j
 2850              		.loc 4 448 0
 2851 1f29 8B55E0   		movl	-32(%rbp), %edx
 2852 1f2c 488B45D0 		movq	-48(%rbp), %rax
 2853 1f30 89D6     		movl	%edx, %esi
 2854 1f32 4889C7   		movq	%rax, %rdi
 2855 1f35 E8000000 		call	_ZN8Solution5get_vEi
 2855      00
 2856 1f3a 660F28C8 		movapd	%xmm0, %xmm1
 2857 1f3e F20F1005 		movsd	.LC5(%rip), %xmm0
 2857      00000000 
 2858 1f46 F20F59C1 		mulsd	%xmm1, %xmm0
 2859 1f4a F20F106D 		movsd	-64(%rbp), %xmm5
 2859      C0
 2860 1f4f F20F5CE8 		subsd	%xmm0, %xmm5
 2861 1f53 F20F116D 		movsd	%xmm5, -64(%rbp)
 2861      C0
 449:/home/brendan/Dropbox/PhD/Code/LBM/2D LBFS/src/artificial_dissipation.cpp ****                                                 - soln.get_v(Mesh.get_s_node(neighbour));  // U j-1
 2862              		.loc 4 449 0
 2863 1f58 8B55DC   		movl	-36(%rbp), %edx
 2864 1f5b 488B4518 		movq	24(%rbp), %rax
 2865 1f5f 89D6     		movl	%edx, %esi
GAS LISTING /tmp/ccGTdBzt.s 			page 75


 2866 1f61 4889C7   		movq	%rax, %rdi
 2867 1f64 E8000000 		call	_ZN8Solution5get_vEi
 2867      00
 2868 1f69 660F28C8 		movapd	%xmm0, %xmm1
 2869 1f6d F20F1005 		movsd	.LC5(%rip), %xmm0
 2869      00000000 
 2870 1f75 F20F59C1 		mulsd	%xmm1, %xmm0
 2871 1f79 F20F5845 		addsd	-64(%rbp), %xmm0
 2871      C0
 2872 1f7e F20F1145 		movsd	%xmm0, -64(%rbp)
 2872      C0
 450:/home/brendan/Dropbox/PhD/Code/LBM/2D LBFS/src/artificial_dissipation.cpp ****                                         }
 2873              		.loc 4 450 0
 2874 1f83 8B45E0   		movl	-32(%rbp), %eax
 2875 1f86 89C6     		movl	%eax, %esi
 2876 1f88 488B7D10 		movq	16(%rbp), %rdi
 2877 1f8c E8000000 		call	_ZN4Mesh10get_s_nodeEi
 2877      00
 2878 1f91 89C2     		movl	%eax, %edx
 2879 1f93 488B45D0 		movq	-48(%rbp), %rax
 2880 1f97 89D6     		movl	%edx, %esi
 2881 1f99 4889C7   		movq	%rax, %rdi
 2882 1f9c E8000000 		call	_ZN8Solution5get_vEi
 2882      00
 2883 1fa1 F20F107D 		movsd	-64(%rbp), %xmm7
 2883      C0
 2884 1fa6 F20F5CF8 		subsd	%xmm0, %xmm7
 2885 1faa 660F28C7 		movapd	%xmm7, %xmm0
 2886 1fae F20F1145 		movsd	%xmm0, -8(%rbp)
 2886      F8
 2887              	.L138:
 452:/home/brendan/Dropbox/PhD/Code/LBM/2D LBFS/src/artificial_dissipation.cpp **** 
 2888              		.loc 4 452 0
 2889 1fb3 90       		nop
 2890              	.L107:
 2891              		.loc 4 455 0 discriminator 9
 2892 1fb4 E9120500 		jmp	.L73
 2892      00
 2893              	.L78:
 456:/home/brendan/Dropbox/PhD/Code/LBM/2D LBFS/src/artificial_dissipation.cpp ****                         case(4):
 457:/home/brendan/Dropbox/PhD/Code/LBM/2D LBFS/src/artificial_dissipation.cpp ****                             switch(j){
 2894              		.loc 4 457 0
 2895 1fb9 8B4528   		movl	40(%rbp), %eax
 2896 1fbc 83F801   		cmpl	$1, %eax
 2897 1fbf 0F845E01 		je	.L122
 2897      0000
 2898 1fc5 83F801   		cmpl	$1, %eax
 2899 1fc8 7F09     		jg	.L123
 2900 1fca 85C0     		testl	%eax, %eax
 2901 1fcc 741C     		je	.L124
 458:/home/brendan/Dropbox/PhD/Code/LBM/2D LBFS/src/artificial_dissipation.cpp ****                                 case(0):
 459:/home/brendan/Dropbox/PhD/Code/LBM/2D LBFS/src/artificial_dissipation.cpp ****                                     if(bcs.get_bc(neighbour)){
 460:/home/brendan/Dropbox/PhD/Code/LBM/2D LBFS/src/artificial_dissipation.cpp ****                                             temp = 2*local_soln.get_w(i)      // U j
 461:/home/brendan/Dropbox/PhD/Code/LBM/2D LBFS/src/artificial_dissipation.cpp ****                                                 -soln.get_w(neighbour)      // U j+1
 462:/home/brendan/Dropbox/PhD/Code/LBM/2D LBFS/src/artificial_dissipation.cpp ****                                                 - soln.get_w(Mesh.get_e_node(neighbour));
 463:/home/brendan/Dropbox/PhD/Code/LBM/2D LBFS/src/artificial_dissipation.cpp **** 
 464:/home/brendan/Dropbox/PhD/Code/LBM/2D LBFS/src/artificial_dissipation.cpp ****                                     }else{
GAS LISTING /tmp/ccGTdBzt.s 			page 76


 465:/home/brendan/Dropbox/PhD/Code/LBM/2D LBFS/src/artificial_dissipation.cpp ****                                         temp = soln.get_w(Mesh.get_w_node(neighbour) ) // U j+2
 466:/home/brendan/Dropbox/PhD/Code/LBM/2D LBFS/src/artificial_dissipation.cpp ****                                         - 3* soln.get_w(neighbour)                //U j+1
 467:/home/brendan/Dropbox/PhD/Code/LBM/2D LBFS/src/artificial_dissipation.cpp ****                                         + 3* local_soln.get_w(i)                  // U j
 468:/home/brendan/Dropbox/PhD/Code/LBM/2D LBFS/src/artificial_dissipation.cpp ****                                         - soln.get_w(Mesh.get_e_node(neighbour));  // U j-1
 469:/home/brendan/Dropbox/PhD/Code/LBM/2D LBFS/src/artificial_dissipation.cpp **** 
 470:/home/brendan/Dropbox/PhD/Code/LBM/2D LBFS/src/artificial_dissipation.cpp ****                                     }
 471:/home/brendan/Dropbox/PhD/Code/LBM/2D LBFS/src/artificial_dissipation.cpp **** 
 472:/home/brendan/Dropbox/PhD/Code/LBM/2D LBFS/src/artificial_dissipation.cpp ****                                     break;
 473:/home/brendan/Dropbox/PhD/Code/LBM/2D LBFS/src/artificial_dissipation.cpp ****                                 case(1):
 474:/home/brendan/Dropbox/PhD/Code/LBM/2D LBFS/src/artificial_dissipation.cpp ****                                       if(bcs.get_bc(neighbour)){
 475:/home/brendan/Dropbox/PhD/Code/LBM/2D LBFS/src/artificial_dissipation.cpp ****                                             temp = 2*local_soln.get_w(i)      // U j
 476:/home/brendan/Dropbox/PhD/Code/LBM/2D LBFS/src/artificial_dissipation.cpp ****                                                 -soln.get_w(neighbour)      // U j+1
 477:/home/brendan/Dropbox/PhD/Code/LBM/2D LBFS/src/artificial_dissipation.cpp ****                                                 - soln.get_w(Mesh.get_n_node(neighbour));
 478:/home/brendan/Dropbox/PhD/Code/LBM/2D LBFS/src/artificial_dissipation.cpp **** 
 479:/home/brendan/Dropbox/PhD/Code/LBM/2D LBFS/src/artificial_dissipation.cpp ****                                         }else{
 480:/home/brendan/Dropbox/PhD/Code/LBM/2D LBFS/src/artificial_dissipation.cpp **** 
 481:/home/brendan/Dropbox/PhD/Code/LBM/2D LBFS/src/artificial_dissipation.cpp ****                                         temp = soln.get_w(Mesh.get_s_node(neighbour) ) // U j+2
 482:/home/brendan/Dropbox/PhD/Code/LBM/2D LBFS/src/artificial_dissipation.cpp ****                                             - 3* soln.get_w(neighbour)                //U j+1
 483:/home/brendan/Dropbox/PhD/Code/LBM/2D LBFS/src/artificial_dissipation.cpp ****                                             + 3* local_soln.get_w(i)                  // U j
 484:/home/brendan/Dropbox/PhD/Code/LBM/2D LBFS/src/artificial_dissipation.cpp ****                                             - soln.get_w(Mesh.get_n_node(neighbour));  // U j-1
 485:/home/brendan/Dropbox/PhD/Code/LBM/2D LBFS/src/artificial_dissipation.cpp ****                                         }
 486:/home/brendan/Dropbox/PhD/Code/LBM/2D LBFS/src/artificial_dissipation.cpp ****                                     break;
 487:/home/brendan/Dropbox/PhD/Code/LBM/2D LBFS/src/artificial_dissipation.cpp ****                                 case(2):
 488:/home/brendan/Dropbox/PhD/Code/LBM/2D LBFS/src/artificial_dissipation.cpp ****                                       if(bcs.get_bc(neighbour)){
 489:/home/brendan/Dropbox/PhD/Code/LBM/2D LBFS/src/artificial_dissipation.cpp ****                                             temp = 2*local_soln.get_w(i)      // U j
 490:/home/brendan/Dropbox/PhD/Code/LBM/2D LBFS/src/artificial_dissipation.cpp ****                                                 -soln.get_w(neighbour)      // U j+1
 491:/home/brendan/Dropbox/PhD/Code/LBM/2D LBFS/src/artificial_dissipation.cpp ****                                                 - soln.get_w(Mesh.get_w_node(neighbour));
 492:/home/brendan/Dropbox/PhD/Code/LBM/2D LBFS/src/artificial_dissipation.cpp **** 
 493:/home/brendan/Dropbox/PhD/Code/LBM/2D LBFS/src/artificial_dissipation.cpp ****                                         }else{
 494:/home/brendan/Dropbox/PhD/Code/LBM/2D LBFS/src/artificial_dissipation.cpp ****                                             temp = soln.get_w(Mesh.get_e_node(neighbour) ) // U j+2
 495:/home/brendan/Dropbox/PhD/Code/LBM/2D LBFS/src/artificial_dissipation.cpp ****                                                 - 3* soln.get_w(neighbour)                //U j+1
 496:/home/brendan/Dropbox/PhD/Code/LBM/2D LBFS/src/artificial_dissipation.cpp ****                                                 + 3* local_soln.get_w(i)                  // U j
 497:/home/brendan/Dropbox/PhD/Code/LBM/2D LBFS/src/artificial_dissipation.cpp ****                                             - soln.get_w(Mesh.get_w_node(neighbour));  // U j-1
 498:/home/brendan/Dropbox/PhD/Code/LBM/2D LBFS/src/artificial_dissipation.cpp ****                                         }
 499:/home/brendan/Dropbox/PhD/Code/LBM/2D LBFS/src/artificial_dissipation.cpp ****                                     break;
 500:/home/brendan/Dropbox/PhD/Code/LBM/2D LBFS/src/artificial_dissipation.cpp ****                                 case(3):
 501:/home/brendan/Dropbox/PhD/Code/LBM/2D LBFS/src/artificial_dissipation.cpp ****                                       if(bcs.get_bc(neighbour)){
 502:/home/brendan/Dropbox/PhD/Code/LBM/2D LBFS/src/artificial_dissipation.cpp ****                                             temp = 2*local_soln.get_w(i)      // U j
 503:/home/brendan/Dropbox/PhD/Code/LBM/2D LBFS/src/artificial_dissipation.cpp ****                                                 -soln.get_w(neighbour)      // U j+1
 504:/home/brendan/Dropbox/PhD/Code/LBM/2D LBFS/src/artificial_dissipation.cpp ****                                                 - soln.get_w(Mesh.get_s_node(neighbour));
 505:/home/brendan/Dropbox/PhD/Code/LBM/2D LBFS/src/artificial_dissipation.cpp **** 
 506:/home/brendan/Dropbox/PhD/Code/LBM/2D LBFS/src/artificial_dissipation.cpp ****                                         }else{
 507:/home/brendan/Dropbox/PhD/Code/LBM/2D LBFS/src/artificial_dissipation.cpp ****                                             temp = soln.get_w(Mesh.get_n_node(neighbour) ) // U j+2
 508:/home/brendan/Dropbox/PhD/Code/LBM/2D LBFS/src/artificial_dissipation.cpp ****                                                 - 3* soln.get_w(neighbour)                //U j+1
 509:/home/brendan/Dropbox/PhD/Code/LBM/2D LBFS/src/artificial_dissipation.cpp ****                                                 + 3* local_soln.get_w(i)                  // U j
 510:/home/brendan/Dropbox/PhD/Code/LBM/2D LBFS/src/artificial_dissipation.cpp ****                                                 - soln.get_w(Mesh.get_s_node(neighbour));  // U j-1
 511:/home/brendan/Dropbox/PhD/Code/LBM/2D LBFS/src/artificial_dissipation.cpp ****                                         }
 512:/home/brendan/Dropbox/PhD/Code/LBM/2D LBFS/src/artificial_dissipation.cpp ****                                     break;
 513:/home/brendan/Dropbox/PhD/Code/LBM/2D LBFS/src/artificial_dissipation.cpp **** 
 514:/home/brendan/Dropbox/PhD/Code/LBM/2D LBFS/src/artificial_dissipation.cpp ****                             }
 515:/home/brendan/Dropbox/PhD/Code/LBM/2D LBFS/src/artificial_dissipation.cpp ****                             break;
 2902              		.loc 4 515 0
 2903 1fce E9F70400 		jmp	.L140
 2903      00
 2904              	.L123:
 457:/home/brendan/Dropbox/PhD/Code/LBM/2D LBFS/src/artificial_dissipation.cpp ****                                 case(0):
 2905              		.loc 4 457 0
GAS LISTING /tmp/ccGTdBzt.s 			page 77


 2906 1fd3 83F802   		cmpl	$2, %eax
 2907 1fd6 0F848002 		je	.L125
 2907      0000
 2908 1fdc 83F803   		cmpl	$3, %eax
 2909 1fdf 0F84B003 		je	.L126
 2909      0000
 2910              		.loc 4 515 0
 2911 1fe5 E9E00400 		jmp	.L140
 2911      00
 2912              	.L124:
 459:/home/brendan/Dropbox/PhD/Code/LBM/2D LBFS/src/artificial_dissipation.cpp ****                                             temp = 2*local_soln.get_w(i)      // U j
 2913              		.loc 4 459 0
 2914 1fea 8B55E0   		movl	-32(%rbp), %edx
 2915 1fed 488B45C8 		movq	-56(%rbp), %rax
 2916 1ff1 89D6     		movl	%edx, %esi
 2917 1ff3 4889C7   		movq	%rax, %rdi
 2918 1ff6 E8000000 		call	_ZN19Boundary_Conditions6get_bcEi
 2918      00
 2919 1ffb 84C0     		testb	%al, %al
 2920 1ffd 7472     		je	.L127
 460:/home/brendan/Dropbox/PhD/Code/LBM/2D LBFS/src/artificial_dissipation.cpp ****                                                 -soln.get_w(neighbour)      // U j+1
 2921              		.loc 4 460 0
 2922 1fff 8B55DC   		movl	-36(%rbp), %edx
 2923 2002 488B4518 		movq	24(%rbp), %rax
 2924 2006 89D6     		movl	%edx, %esi
 2925 2008 4889C7   		movq	%rax, %rdi
 2926 200b E8000000 		call	_ZN8Solution5get_wEi
 2926      00
 2927 2010 660F28D0 		movapd	%xmm0, %xmm2
 2928 2014 F20F58D0 		addsd	%xmm0, %xmm2
 2929 2018 F20F1155 		movsd	%xmm2, -64(%rbp)
 2929      C0
 461:/home/brendan/Dropbox/PhD/Code/LBM/2D LBFS/src/artificial_dissipation.cpp ****                                                 - soln.get_w(Mesh.get_e_node(neighbour));
 2930              		.loc 4 461 0
 2931 201d 8B55E0   		movl	-32(%rbp), %edx
 2932 2020 488B45D0 		movq	-48(%rbp), %rax
 2933 2024 89D6     		movl	%edx, %esi
 2934 2026 4889C7   		movq	%rax, %rdi
 2935 2029 E8000000 		call	_ZN8Solution5get_wEi
 2935      00
 2936 202e F20F1055 		movsd	-64(%rbp), %xmm2
 2936      C0
 2937 2033 F20F5CD0 		subsd	%xmm0, %xmm2
 2938 2037 F20F1155 		movsd	%xmm2, -64(%rbp)
 2938      C0
 462:/home/brendan/Dropbox/PhD/Code/LBM/2D LBFS/src/artificial_dissipation.cpp **** 
 2939              		.loc 4 462 0
 2940 203c 8B45E0   		movl	-32(%rbp), %eax
 2941 203f 89C6     		movl	%eax, %esi
 2942 2041 488B7D10 		movq	16(%rbp), %rdi
 2943 2045 E8000000 		call	_ZN4Mesh10get_e_nodeEi
 2943      00
 2944 204a 89C2     		movl	%eax, %edx
 2945 204c 488B45D0 		movq	-48(%rbp), %rax
 2946 2050 89D6     		movl	%edx, %esi
 2947 2052 4889C7   		movq	%rax, %rdi
 2948 2055 E8000000 		call	_ZN8Solution5get_wEi
GAS LISTING /tmp/ccGTdBzt.s 			page 78


 2948      00
 2949 205a F20F1055 		movsd	-64(%rbp), %xmm2
 2949      C0
 2950 205f F20F5CD0 		subsd	%xmm0, %xmm2
 2951 2063 660F28C2 		movapd	%xmm2, %xmm0
 2952 2067 F20F1145 		movsd	%xmm0, -8(%rbp)
 2952      F8
 472:/home/brendan/Dropbox/PhD/Code/LBM/2D LBFS/src/artificial_dissipation.cpp ****                                 case(1):
 2953              		.loc 4 472 0
 2954 206c E9590400 		jmp	.L121
 2954      00
 2955              	.L127:
 465:/home/brendan/Dropbox/PhD/Code/LBM/2D LBFS/src/artificial_dissipation.cpp ****                                         - 3* soln.get_w(neighbour)                //U j+1
 2956              		.loc 4 465 0
 2957 2071 8B45E0   		movl	-32(%rbp), %eax
 2958 2074 89C6     		movl	%eax, %esi
 2959 2076 488B7D10 		movq	16(%rbp), %rdi
 2960 207a E8000000 		call	_ZN4Mesh10get_w_nodeEi
 2960      00
 2961 207f 89C2     		movl	%eax, %edx
 2962 2081 488B45D0 		movq	-48(%rbp), %rax
 2963 2085 89D6     		movl	%edx, %esi
 2964 2087 4889C7   		movq	%rax, %rdi
 2965 208a E8000000 		call	_ZN8Solution5get_wEi
 2965      00
 2966 208f F20F1145 		movsd	%xmm0, -64(%rbp)
 2966      C0
 466:/home/brendan/Dropbox/PhD/Code/LBM/2D LBFS/src/artificial_dissipation.cpp ****                                         + 3* local_soln.get_w(i)                  // U j
 2967              		.loc 4 466 0
 2968 2094 8B55E0   		movl	-32(%rbp), %edx
 2969 2097 488B45D0 		movq	-48(%rbp), %rax
 2970 209b 89D6     		movl	%edx, %esi
 2971 209d 4889C7   		movq	%rax, %rdi
 2972 20a0 E8000000 		call	_ZN8Solution5get_wEi
 2972      00
 2973 20a5 660F28C8 		movapd	%xmm0, %xmm1
 2974 20a9 F20F1005 		movsd	.LC5(%rip), %xmm0
 2974      00000000 
 2975 20b1 F20F59C1 		mulsd	%xmm1, %xmm0
 2976 20b5 F20F1075 		movsd	-64(%rbp), %xmm6
 2976      C0
 2977 20ba F20F5CF0 		subsd	%xmm0, %xmm6
 2978 20be F20F1175 		movsd	%xmm6, -64(%rbp)
 2978      C0
 467:/home/brendan/Dropbox/PhD/Code/LBM/2D LBFS/src/artificial_dissipation.cpp ****                                         - soln.get_w(Mesh.get_e_node(neighbour));  // U j-1
 2979              		.loc 4 467 0
 2980 20c3 8B55DC   		movl	-36(%rbp), %edx
 2981 20c6 488B4518 		movq	24(%rbp), %rax
 2982 20ca 89D6     		movl	%edx, %esi
 2983 20cc 4889C7   		movq	%rax, %rdi
 2984 20cf E8000000 		call	_ZN8Solution5get_wEi
 2984      00
 2985 20d4 660F28C8 		movapd	%xmm0, %xmm1
 2986 20d8 F20F1005 		movsd	.LC5(%rip), %xmm0
 2986      00000000 
 2987 20e0 F20F59C1 		mulsd	%xmm1, %xmm0
 2988 20e4 F20F5845 		addsd	-64(%rbp), %xmm0
GAS LISTING /tmp/ccGTdBzt.s 			page 79


 2988      C0
 2989 20e9 F20F1145 		movsd	%xmm0, -64(%rbp)
 2989      C0
 468:/home/brendan/Dropbox/PhD/Code/LBM/2D LBFS/src/artificial_dissipation.cpp **** 
 2990              		.loc 4 468 0
 2991 20ee 8B45E0   		movl	-32(%rbp), %eax
 2992 20f1 89C6     		movl	%eax, %esi
 2993 20f3 488B7D10 		movq	16(%rbp), %rdi
 2994 20f7 E8000000 		call	_ZN4Mesh10get_e_nodeEi
 2994      00
 2995 20fc 89C2     		movl	%eax, %edx
 2996 20fe 488B45D0 		movq	-48(%rbp), %rax
 2997 2102 89D6     		movl	%edx, %esi
 2998 2104 4889C7   		movq	%rax, %rdi
 2999 2107 E8000000 		call	_ZN8Solution5get_wEi
 2999      00
 3000 210c F20F1055 		movsd	-64(%rbp), %xmm2
 3000      C0
 3001 2111 F20F5CD0 		subsd	%xmm0, %xmm2
 3002 2115 660F28C2 		movapd	%xmm2, %xmm0
 3003 2119 F20F1145 		movsd	%xmm0, -8(%rbp)
 3003      F8
 472:/home/brendan/Dropbox/PhD/Code/LBM/2D LBFS/src/artificial_dissipation.cpp ****                                 case(1):
 3004              		.loc 4 472 0
 3005 211e E9A70300 		jmp	.L121
 3005      00
 3006              	.L122:
 474:/home/brendan/Dropbox/PhD/Code/LBM/2D LBFS/src/artificial_dissipation.cpp ****                                             temp = 2*local_soln.get_w(i)      // U j
 3007              		.loc 4 474 0
 3008 2123 8B55E0   		movl	-32(%rbp), %edx
 3009 2126 488B45C8 		movq	-56(%rbp), %rax
 3010 212a 89D6     		movl	%edx, %esi
 3011 212c 4889C7   		movq	%rax, %rdi
 3012 212f E8000000 		call	_ZN19Boundary_Conditions6get_bcEi
 3012      00
 3013 2134 84C0     		testb	%al, %al
 3014 2136 7472     		je	.L129
 475:/home/brendan/Dropbox/PhD/Code/LBM/2D LBFS/src/artificial_dissipation.cpp ****                                                 -soln.get_w(neighbour)      // U j+1
 3015              		.loc 4 475 0
 3016 2138 8B55DC   		movl	-36(%rbp), %edx
 3017 213b 488B4518 		movq	24(%rbp), %rax
 3018 213f 89D6     		movl	%edx, %esi
 3019 2141 4889C7   		movq	%rax, %rdi
 3020 2144 E8000000 		call	_ZN8Solution5get_wEi
 3020      00
 3021 2149 660F28D8 		movapd	%xmm0, %xmm3
 3022 214d F20F58D8 		addsd	%xmm0, %xmm3
 3023 2151 F20F115D 		movsd	%xmm3, -64(%rbp)
 3023      C0
 476:/home/brendan/Dropbox/PhD/Code/LBM/2D LBFS/src/artificial_dissipation.cpp ****                                                 - soln.get_w(Mesh.get_n_node(neighbour));
 3024              		.loc 4 476 0
 3025 2156 8B55E0   		movl	-32(%rbp), %edx
 3026 2159 488B45D0 		movq	-48(%rbp), %rax
 3027 215d 89D6     		movl	%edx, %esi
 3028 215f 4889C7   		movq	%rax, %rdi
 3029 2162 E8000000 		call	_ZN8Solution5get_wEi
 3029      00
GAS LISTING /tmp/ccGTdBzt.s 			page 80


 3030 2167 F20F105D 		movsd	-64(%rbp), %xmm3
 3030      C0
 3031 216c F20F5CD8 		subsd	%xmm0, %xmm3
 3032 2170 F20F115D 		movsd	%xmm3, -64(%rbp)
 3032      C0
 477:/home/brendan/Dropbox/PhD/Code/LBM/2D LBFS/src/artificial_dissipation.cpp **** 
 3033              		.loc 4 477 0
 3034 2175 8B45E0   		movl	-32(%rbp), %eax
 3035 2178 89C6     		movl	%eax, %esi
 3036 217a 488B7D10 		movq	16(%rbp), %rdi
 3037 217e E8000000 		call	_ZN4Mesh10get_n_nodeEi
 3037      00
 3038 2183 89C2     		movl	%eax, %edx
 3039 2185 488B45D0 		movq	-48(%rbp), %rax
 3040 2189 89D6     		movl	%edx, %esi
 3041 218b 4889C7   		movq	%rax, %rdi
 3042 218e E8000000 		call	_ZN8Solution5get_wEi
 3042      00
 3043 2193 F20F105D 		movsd	-64(%rbp), %xmm3
 3043      C0
 3044 2198 F20F5CD8 		subsd	%xmm0, %xmm3
 3045 219c 660F28C3 		movapd	%xmm3, %xmm0
 3046 21a0 F20F1145 		movsd	%xmm0, -8(%rbp)
 3046      F8
 486:/home/brendan/Dropbox/PhD/Code/LBM/2D LBFS/src/artificial_dissipation.cpp ****                                 case(2):
 3047              		.loc 4 486 0
 3048 21a5 E9200300 		jmp	.L121
 3048      00
 3049              	.L129:
 481:/home/brendan/Dropbox/PhD/Code/LBM/2D LBFS/src/artificial_dissipation.cpp ****                                             - 3* soln.get_w(neighbour)                //U j+1
 3050              		.loc 4 481 0
 3051 21aa 8B45E0   		movl	-32(%rbp), %eax
 3052 21ad 89C6     		movl	%eax, %esi
 3053 21af 488B7D10 		movq	16(%rbp), %rdi
 3054 21b3 E8000000 		call	_ZN4Mesh10get_s_nodeEi
 3054      00
 3055 21b8 89C2     		movl	%eax, %edx
 3056 21ba 488B45D0 		movq	-48(%rbp), %rax
 3057 21be 89D6     		movl	%edx, %esi
 3058 21c0 4889C7   		movq	%rax, %rdi
 3059 21c3 E8000000 		call	_ZN8Solution5get_wEi
 3059      00
 3060 21c8 F20F1145 		movsd	%xmm0, -64(%rbp)
 3060      C0
 482:/home/brendan/Dropbox/PhD/Code/LBM/2D LBFS/src/artificial_dissipation.cpp ****                                             + 3* local_soln.get_w(i)                  // U j
 3061              		.loc 4 482 0
 3062 21cd 8B55E0   		movl	-32(%rbp), %edx
 3063 21d0 488B45D0 		movq	-48(%rbp), %rax
 3064 21d4 89D6     		movl	%edx, %esi
 3065 21d6 4889C7   		movq	%rax, %rdi
 3066 21d9 E8000000 		call	_ZN8Solution5get_wEi
 3066      00
 3067 21de 660F28C8 		movapd	%xmm0, %xmm1
 3068 21e2 F20F1005 		movsd	.LC5(%rip), %xmm0
 3068      00000000 
 3069 21ea F20F59C1 		mulsd	%xmm1, %xmm0
 3070 21ee F20F107D 		movsd	-64(%rbp), %xmm7
GAS LISTING /tmp/ccGTdBzt.s 			page 81


 3070      C0
 3071 21f3 F20F5CF8 		subsd	%xmm0, %xmm7
 3072 21f7 F20F117D 		movsd	%xmm7, -64(%rbp)
 3072      C0
 483:/home/brendan/Dropbox/PhD/Code/LBM/2D LBFS/src/artificial_dissipation.cpp ****                                             - soln.get_w(Mesh.get_n_node(neighbour));  // U j-1
 3073              		.loc 4 483 0
 3074 21fc 8B55DC   		movl	-36(%rbp), %edx
 3075 21ff 488B4518 		movq	24(%rbp), %rax
 3076 2203 89D6     		movl	%edx, %esi
 3077 2205 4889C7   		movq	%rax, %rdi
 3078 2208 E8000000 		call	_ZN8Solution5get_wEi
 3078      00
 3079 220d 660F28C8 		movapd	%xmm0, %xmm1
 3080 2211 F20F1005 		movsd	.LC5(%rip), %xmm0
 3080      00000000 
 3081 2219 F20F59C1 		mulsd	%xmm1, %xmm0
 3082 221d F20F5845 		addsd	-64(%rbp), %xmm0
 3082      C0
 3083 2222 F20F1145 		movsd	%xmm0, -64(%rbp)
 3083      C0
 484:/home/brendan/Dropbox/PhD/Code/LBM/2D LBFS/src/artificial_dissipation.cpp ****                                         }
 3084              		.loc 4 484 0
 3085 2227 8B45E0   		movl	-32(%rbp), %eax
 3086 222a 89C6     		movl	%eax, %esi
 3087 222c 488B7D10 		movq	16(%rbp), %rdi
 3088 2230 E8000000 		call	_ZN4Mesh10get_n_nodeEi
 3088      00
 3089 2235 89C2     		movl	%eax, %edx
 3090 2237 488B45D0 		movq	-48(%rbp), %rax
 3091 223b 89D6     		movl	%edx, %esi
 3092 223d 4889C7   		movq	%rax, %rdi
 3093 2240 E8000000 		call	_ZN8Solution5get_wEi
 3093      00
 3094 2245 F20F105D 		movsd	-64(%rbp), %xmm3
 3094      C0
 3095 224a F20F5CD8 		subsd	%xmm0, %xmm3
 3096 224e 660F28C3 		movapd	%xmm3, %xmm0
 3097 2252 F20F1145 		movsd	%xmm0, -8(%rbp)
 3097      F8
 486:/home/brendan/Dropbox/PhD/Code/LBM/2D LBFS/src/artificial_dissipation.cpp ****                                 case(2):
 3098              		.loc 4 486 0
 3099 2257 E96E0200 		jmp	.L121
 3099      00
 3100              	.L125:
 488:/home/brendan/Dropbox/PhD/Code/LBM/2D LBFS/src/artificial_dissipation.cpp ****                                             temp = 2*local_soln.get_w(i)      // U j
 3101              		.loc 4 488 0
 3102 225c 8B55E0   		movl	-32(%rbp), %edx
 3103 225f 488B45C8 		movq	-56(%rbp), %rax
 3104 2263 89D6     		movl	%edx, %esi
 3105 2265 4889C7   		movq	%rax, %rdi
 3106 2268 E8000000 		call	_ZN19Boundary_Conditions6get_bcEi
 3106      00
 3107 226d 84C0     		testb	%al, %al
 3108 226f 7472     		je	.L131
 489:/home/brendan/Dropbox/PhD/Code/LBM/2D LBFS/src/artificial_dissipation.cpp ****                                                 -soln.get_w(neighbour)      // U j+1
 3109              		.loc 4 489 0
 3110 2271 8B55DC   		movl	-36(%rbp), %edx
GAS LISTING /tmp/ccGTdBzt.s 			page 82


 3111 2274 488B4518 		movq	24(%rbp), %rax
 3112 2278 89D6     		movl	%edx, %esi
 3113 227a 4889C7   		movq	%rax, %rdi
 3114 227d E8000000 		call	_ZN8Solution5get_wEi
 3114      00
 3115 2282 660F28E0 		movapd	%xmm0, %xmm4
 3116 2286 F20F58E0 		addsd	%xmm0, %xmm4
 3117 228a F20F1165 		movsd	%xmm4, -64(%rbp)
 3117      C0
 490:/home/brendan/Dropbox/PhD/Code/LBM/2D LBFS/src/artificial_dissipation.cpp ****                                                 - soln.get_w(Mesh.get_w_node(neighbour));
 3118              		.loc 4 490 0
 3119 228f 8B55E0   		movl	-32(%rbp), %edx
 3120 2292 488B45D0 		movq	-48(%rbp), %rax
 3121 2296 89D6     		movl	%edx, %esi
 3122 2298 4889C7   		movq	%rax, %rdi
 3123 229b E8000000 		call	_ZN8Solution5get_wEi
 3123      00
 3124 22a0 F20F1065 		movsd	-64(%rbp), %xmm4
 3124      C0
 3125 22a5 F20F5CE0 		subsd	%xmm0, %xmm4
 3126 22a9 F20F1165 		movsd	%xmm4, -64(%rbp)
 3126      C0
 491:/home/brendan/Dropbox/PhD/Code/LBM/2D LBFS/src/artificial_dissipation.cpp **** 
 3127              		.loc 4 491 0
 3128 22ae 8B45E0   		movl	-32(%rbp), %eax
 3129 22b1 89C6     		movl	%eax, %esi
 3130 22b3 488B7D10 		movq	16(%rbp), %rdi
 3131 22b7 E8000000 		call	_ZN4Mesh10get_w_nodeEi
 3131      00
 3132 22bc 89C2     		movl	%eax, %edx
 3133 22be 488B45D0 		movq	-48(%rbp), %rax
 3134 22c2 89D6     		movl	%edx, %esi
 3135 22c4 4889C7   		movq	%rax, %rdi
 3136 22c7 E8000000 		call	_ZN8Solution5get_wEi
 3136      00
 3137 22cc F20F1065 		movsd	-64(%rbp), %xmm4
 3137      C0
 3138 22d1 F20F5CE0 		subsd	%xmm0, %xmm4
 3139 22d5 660F28C4 		movapd	%xmm4, %xmm0
 3140 22d9 F20F1145 		movsd	%xmm0, -8(%rbp)
 3140      F8
 499:/home/brendan/Dropbox/PhD/Code/LBM/2D LBFS/src/artificial_dissipation.cpp ****                                 case(3):
 3141              		.loc 4 499 0
 3142 22de E9E70100 		jmp	.L121
 3142      00
 3143              	.L131:
 494:/home/brendan/Dropbox/PhD/Code/LBM/2D LBFS/src/artificial_dissipation.cpp ****                                                 - 3* soln.get_w(neighbour)                //U j+1
 3144              		.loc 4 494 0
 3145 22e3 8B45E0   		movl	-32(%rbp), %eax
 3146 22e6 89C6     		movl	%eax, %esi
 3147 22e8 488B7D10 		movq	16(%rbp), %rdi
 3148 22ec E8000000 		call	_ZN4Mesh10get_e_nodeEi
 3148      00
 3149 22f1 89C2     		movl	%eax, %edx
 3150 22f3 488B45D0 		movq	-48(%rbp), %rax
 3151 22f7 89D6     		movl	%edx, %esi
 3152 22f9 4889C7   		movq	%rax, %rdi
GAS LISTING /tmp/ccGTdBzt.s 			page 83


 3153 22fc E8000000 		call	_ZN8Solution5get_wEi
 3153      00
 3154 2301 F20F1145 		movsd	%xmm0, -64(%rbp)
 3154      C0
 495:/home/brendan/Dropbox/PhD/Code/LBM/2D LBFS/src/artificial_dissipation.cpp ****                                                 + 3* local_soln.get_w(i)                  // U j
 3155              		.loc 4 495 0
 3156 2306 8B55E0   		movl	-32(%rbp), %edx
 3157 2309 488B45D0 		movq	-48(%rbp), %rax
 3158 230d 89D6     		movl	%edx, %esi
 3159 230f 4889C7   		movq	%rax, %rdi
 3160 2312 E8000000 		call	_ZN8Solution5get_wEi
 3160      00
 3161 2317 660F28C8 		movapd	%xmm0, %xmm1
 3162 231b F20F1005 		movsd	.LC5(%rip), %xmm0
 3162      00000000 
 3163 2323 F20F59C1 		mulsd	%xmm1, %xmm0
 3164 2327 F20F1055 		movsd	-64(%rbp), %xmm2
 3164      C0
 3165 232c F20F5CD0 		subsd	%xmm0, %xmm2
 3166 2330 F20F1155 		movsd	%xmm2, -64(%rbp)
 3166      C0
 496:/home/brendan/Dropbox/PhD/Code/LBM/2D LBFS/src/artificial_dissipation.cpp ****                                             - soln.get_w(Mesh.get_w_node(neighbour));  // U j-1
 3167              		.loc 4 496 0
 3168 2335 8B55DC   		movl	-36(%rbp), %edx
 3169 2338 488B4518 		movq	24(%rbp), %rax
 3170 233c 89D6     		movl	%edx, %esi
 3171 233e 4889C7   		movq	%rax, %rdi
 3172 2341 E8000000 		call	_ZN8Solution5get_wEi
 3172      00
 3173 2346 660F28C8 		movapd	%xmm0, %xmm1
 3174 234a F20F1005 		movsd	.LC5(%rip), %xmm0
 3174      00000000 
 3175 2352 F20F59C1 		mulsd	%xmm1, %xmm0
 3176 2356 F20F5845 		addsd	-64(%rbp), %xmm0
 3176      C0
 3177 235b F20F1145 		movsd	%xmm0, -64(%rbp)
 3177      C0
 497:/home/brendan/Dropbox/PhD/Code/LBM/2D LBFS/src/artificial_dissipation.cpp ****                                         }
 3178              		.loc 4 497 0
 3179 2360 8B45E0   		movl	-32(%rbp), %eax
 3180 2363 89C6     		movl	%eax, %esi
 3181 2365 488B7D10 		movq	16(%rbp), %rdi
 3182 2369 E8000000 		call	_ZN4Mesh10get_w_nodeEi
 3182      00
 3183 236e 89C2     		movl	%eax, %edx
 3184 2370 488B45D0 		movq	-48(%rbp), %rax
 3185 2374 89D6     		movl	%edx, %esi
 3186 2376 4889C7   		movq	%rax, %rdi
 3187 2379 E8000000 		call	_ZN8Solution5get_wEi
 3187      00
 3188 237e F20F1065 		movsd	-64(%rbp), %xmm4
 3188      C0
 3189 2383 F20F5CE0 		subsd	%xmm0, %xmm4
 3190 2387 660F28C4 		movapd	%xmm4, %xmm0
 3191 238b F20F1145 		movsd	%xmm0, -8(%rbp)
 3191      F8
 499:/home/brendan/Dropbox/PhD/Code/LBM/2D LBFS/src/artificial_dissipation.cpp ****                                 case(3):
GAS LISTING /tmp/ccGTdBzt.s 			page 84


 3192              		.loc 4 499 0
 3193 2390 E9350100 		jmp	.L121
 3193      00
 3194              	.L126:
 501:/home/brendan/Dropbox/PhD/Code/LBM/2D LBFS/src/artificial_dissipation.cpp ****                                             temp = 2*local_soln.get_w(i)      // U j
 3195              		.loc 4 501 0
 3196 2395 8B55E0   		movl	-32(%rbp), %edx
 3197 2398 488B45C8 		movq	-56(%rbp), %rax
 3198 239c 89D6     		movl	%edx, %esi
 3199 239e 4889C7   		movq	%rax, %rdi
 3200 23a1 E8000000 		call	_ZN19Boundary_Conditions6get_bcEi
 3200      00
 3201 23a6 84C0     		testb	%al, %al
 3202 23a8 7472     		je	.L133
 502:/home/brendan/Dropbox/PhD/Code/LBM/2D LBFS/src/artificial_dissipation.cpp ****                                                 -soln.get_w(neighbour)      // U j+1
 3203              		.loc 4 502 0
 3204 23aa 8B55DC   		movl	-36(%rbp), %edx
 3205 23ad 488B4518 		movq	24(%rbp), %rax
 3206 23b1 89D6     		movl	%edx, %esi
 3207 23b3 4889C7   		movq	%rax, %rdi
 3208 23b6 E8000000 		call	_ZN8Solution5get_wEi
 3208      00
 3209 23bb 660F28E8 		movapd	%xmm0, %xmm5
 3210 23bf F20F58E8 		addsd	%xmm0, %xmm5
 3211 23c3 F20F116D 		movsd	%xmm5, -64(%rbp)
 3211      C0
 503:/home/brendan/Dropbox/PhD/Code/LBM/2D LBFS/src/artificial_dissipation.cpp ****                                                 - soln.get_w(Mesh.get_s_node(neighbour));
 3212              		.loc 4 503 0
 3213 23c8 8B55E0   		movl	-32(%rbp), %edx
 3214 23cb 488B45D0 		movq	-48(%rbp), %rax
 3215 23cf 89D6     		movl	%edx, %esi
 3216 23d1 4889C7   		movq	%rax, %rdi
 3217 23d4 E8000000 		call	_ZN8Solution5get_wEi
 3217      00
 3218 23d9 F20F106D 		movsd	-64(%rbp), %xmm5
 3218      C0
 3219 23de F20F5CE8 		subsd	%xmm0, %xmm5
 3220 23e2 F20F116D 		movsd	%xmm5, -64(%rbp)
 3220      C0
 504:/home/brendan/Dropbox/PhD/Code/LBM/2D LBFS/src/artificial_dissipation.cpp **** 
 3221              		.loc 4 504 0
 3222 23e7 8B45E0   		movl	-32(%rbp), %eax
 3223 23ea 89C6     		movl	%eax, %esi
 3224 23ec 488B7D10 		movq	16(%rbp), %rdi
 3225 23f0 E8000000 		call	_ZN4Mesh10get_s_nodeEi
 3225      00
 3226 23f5 89C2     		movl	%eax, %edx
 3227 23f7 488B45D0 		movq	-48(%rbp), %rax
 3228 23fb 89D6     		movl	%edx, %esi
 3229 23fd 4889C7   		movq	%rax, %rdi
 3230 2400 E8000000 		call	_ZN8Solution5get_wEi
 3230      00
 3231 2405 F20F106D 		movsd	-64(%rbp), %xmm5
 3231      C0
 3232 240a F20F5CE8 		subsd	%xmm0, %xmm5
 3233 240e 660F28C5 		movapd	%xmm5, %xmm0
 3234 2412 F20F1145 		movsd	%xmm0, -8(%rbp)
GAS LISTING /tmp/ccGTdBzt.s 			page 85


 3234      F8
 512:/home/brendan/Dropbox/PhD/Code/LBM/2D LBFS/src/artificial_dissipation.cpp **** 
 3235              		.loc 4 512 0
 3236 2417 E9AD0000 		jmp	.L139
 3236      00
 3237              	.L133:
 507:/home/brendan/Dropbox/PhD/Code/LBM/2D LBFS/src/artificial_dissipation.cpp ****                                                 - 3* soln.get_w(neighbour)                //U j+1
 3238              		.loc 4 507 0
 3239 241c 8B45E0   		movl	-32(%rbp), %eax
 3240 241f 89C6     		movl	%eax, %esi
 3241 2421 488B7D10 		movq	16(%rbp), %rdi
 3242 2425 E8000000 		call	_ZN4Mesh10get_n_nodeEi
 3242      00
 3243 242a 89C2     		movl	%eax, %edx
 3244 242c 488B45D0 		movq	-48(%rbp), %rax
 3245 2430 89D6     		movl	%edx, %esi
 3246 2432 4889C7   		movq	%rax, %rdi
 3247 2435 E8000000 		call	_ZN8Solution5get_wEi
 3247      00
 3248 243a F20F1145 		movsd	%xmm0, -64(%rbp)
 3248      C0
 508:/home/brendan/Dropbox/PhD/Code/LBM/2D LBFS/src/artificial_dissipation.cpp ****                                                 + 3* local_soln.get_w(i)                  // U j
 3249              		.loc 4 508 0
 3250 243f 8B55E0   		movl	-32(%rbp), %edx
 3251 2442 488B45D0 		movq	-48(%rbp), %rax
 3252 2446 89D6     		movl	%edx, %esi
 3253 2448 4889C7   		movq	%rax, %rdi
 3254 244b E8000000 		call	_ZN8Solution5get_wEi
 3254      00
 3255 2450 660F28C8 		movapd	%xmm0, %xmm1
 3256 2454 F20F1005 		movsd	.LC5(%rip), %xmm0
 3256      00000000 
 3257 245c F20F59C1 		mulsd	%xmm1, %xmm0
 3258 2460 F20F105D 		movsd	-64(%rbp), %xmm3
 3258      C0
 3259 2465 F20F5CD8 		subsd	%xmm0, %xmm3
 3260 2469 F20F115D 		movsd	%xmm3, -64(%rbp)
 3260      C0
 509:/home/brendan/Dropbox/PhD/Code/LBM/2D LBFS/src/artificial_dissipation.cpp ****                                                 - soln.get_w(Mesh.get_s_node(neighbour));  // U j-1
 3261              		.loc 4 509 0
 3262 246e 8B55DC   		movl	-36(%rbp), %edx
 3263 2471 488B4518 		movq	24(%rbp), %rax
 3264 2475 89D6     		movl	%edx, %esi
 3265 2477 4889C7   		movq	%rax, %rdi
 3266 247a E8000000 		call	_ZN8Solution5get_wEi
 3266      00
 3267 247f 660F28C8 		movapd	%xmm0, %xmm1
 3268 2483 F20F1005 		movsd	.LC5(%rip), %xmm0
 3268      00000000 
 3269 248b F20F59C1 		mulsd	%xmm1, %xmm0
 3270 248f F20F5845 		addsd	-64(%rbp), %xmm0
 3270      C0
 3271 2494 F20F1145 		movsd	%xmm0, -64(%rbp)
 3271      C0
 510:/home/brendan/Dropbox/PhD/Code/LBM/2D LBFS/src/artificial_dissipation.cpp ****                                         }
 3272              		.loc 4 510 0
 3273 2499 8B45E0   		movl	-32(%rbp), %eax
GAS LISTING /tmp/ccGTdBzt.s 			page 86


 3274 249c 89C6     		movl	%eax, %esi
 3275 249e 488B7D10 		movq	16(%rbp), %rdi
 3276 24a2 E8000000 		call	_ZN4Mesh10get_s_nodeEi
 3276      00
 3277 24a7 89C2     		movl	%eax, %edx
 3278 24a9 488B45D0 		movq	-48(%rbp), %rax
 3279 24ad 89D6     		movl	%edx, %esi
 3280 24af 4889C7   		movq	%rax, %rdi
 3281 24b2 E8000000 		call	_ZN8Solution5get_wEi
 3281      00
 3282 24b7 F20F106D 		movsd	-64(%rbp), %xmm5
 3282      C0
 3283 24bc F20F5CE8 		subsd	%xmm0, %xmm5
 3284 24c0 660F28C5 		movapd	%xmm5, %xmm0
 3285 24c4 F20F1145 		movsd	%xmm0, -8(%rbp)
 3285      F8
 3286              	.L139:
 512:/home/brendan/Dropbox/PhD/Code/LBM/2D LBFS/src/artificial_dissipation.cpp **** 
 3287              		.loc 4 512 0
 3288 24c9 90       		nop
 3289              	.L121:
 3290              	.L140:
 3291              		.loc 4 515 0
 3292 24ca 90       		nop
 3293              	.L73:
 516:/home/brendan/Dropbox/PhD/Code/LBM/2D LBFS/src/artificial_dissipation.cpp **** 
 517:/home/brendan/Dropbox/PhD/Code/LBM/2D LBFS/src/artificial_dissipation.cpp **** 
 518:/home/brendan/Dropbox/PhD/Code/LBM/2D LBFS/src/artificial_dissipation.cpp ****                     }
 519:/home/brendan/Dropbox/PhD/Code/LBM/2D LBFS/src/artificial_dissipation.cpp **** 
 520:/home/brendan/Dropbox/PhD/Code/LBM/2D LBFS/src/artificial_dissipation.cpp ****                return temp;
 3294              		.loc 4 520 0
 3295 24cb F20F1045 		movsd	-8(%rbp), %xmm0
 3295      F8
 521:/home/brendan/Dropbox/PhD/Code/LBM/2D LBFS/src/artificial_dissipation.cpp **** 
 522:/home/brendan/Dropbox/PhD/Code/LBM/2D LBFS/src/artificial_dissipation.cpp ****         }
 3296              		.loc 4 522 0
 3297 24d0 C9       		leave
 3298              		.cfi_def_cfa 7, 8
 3299 24d1 C3       		ret
 3300              		.cfi_endproc
 3301              	.LFE6208:
 3303              		.section	.text._ZSt3maxIdERKT_S2_S2_,"axG",@progbits,_ZSt3maxIdERKT_S2_S2_,comdat
 3304              		.weak	_ZSt3maxIdERKT_S2_S2_
 3306              	_ZSt3maxIdERKT_S2_S2_:
 3307              	.LFB6276:
 3308              		.file 5 "/usr/include/c++/5/bits/stl_algobase.h"
   1:/usr/include/c++/5/bits/stl_algobase.h **** // Core algorithmic facilities -*- C++ -*-
   2:/usr/include/c++/5/bits/stl_algobase.h **** 
   3:/usr/include/c++/5/bits/stl_algobase.h **** // Copyright (C) 2001-2015 Free Software Foundation, Inc.
   4:/usr/include/c++/5/bits/stl_algobase.h **** //
   5:/usr/include/c++/5/bits/stl_algobase.h **** // This file is part of the GNU ISO C++ Library.  This library is free
   6:/usr/include/c++/5/bits/stl_algobase.h **** // software; you can redistribute it and/or modify it under the
   7:/usr/include/c++/5/bits/stl_algobase.h **** // terms of the GNU General Public License as published by the
   8:/usr/include/c++/5/bits/stl_algobase.h **** // Free Software Foundation; either version 3, or (at your option)
   9:/usr/include/c++/5/bits/stl_algobase.h **** // any later version.
  10:/usr/include/c++/5/bits/stl_algobase.h **** 
  11:/usr/include/c++/5/bits/stl_algobase.h **** // This library is distributed in the hope that it will be useful,
GAS LISTING /tmp/ccGTdBzt.s 			page 87


  12:/usr/include/c++/5/bits/stl_algobase.h **** // but WITHOUT ANY WARRANTY; without even the implied warranty of
  13:/usr/include/c++/5/bits/stl_algobase.h **** // MERCHANTABILITY or FITNESS FOR A PARTICULAR PURPOSE.  See the
  14:/usr/include/c++/5/bits/stl_algobase.h **** // GNU General Public License for more details.
  15:/usr/include/c++/5/bits/stl_algobase.h **** 
  16:/usr/include/c++/5/bits/stl_algobase.h **** // Under Section 7 of GPL version 3, you are granted additional
  17:/usr/include/c++/5/bits/stl_algobase.h **** // permissions described in the GCC Runtime Library Exception, version
  18:/usr/include/c++/5/bits/stl_algobase.h **** // 3.1, as published by the Free Software Foundation.
  19:/usr/include/c++/5/bits/stl_algobase.h **** 
  20:/usr/include/c++/5/bits/stl_algobase.h **** // You should have received a copy of the GNU General Public License and
  21:/usr/include/c++/5/bits/stl_algobase.h **** // a copy of the GCC Runtime Library Exception along with this program;
  22:/usr/include/c++/5/bits/stl_algobase.h **** // see the files COPYING3 and COPYING.RUNTIME respectively.  If not, see
  23:/usr/include/c++/5/bits/stl_algobase.h **** // <http://www.gnu.org/licenses/>.
  24:/usr/include/c++/5/bits/stl_algobase.h **** 
  25:/usr/include/c++/5/bits/stl_algobase.h **** /*
  26:/usr/include/c++/5/bits/stl_algobase.h ****  *
  27:/usr/include/c++/5/bits/stl_algobase.h ****  * Copyright (c) 1994
  28:/usr/include/c++/5/bits/stl_algobase.h ****  * Hewlett-Packard Company
  29:/usr/include/c++/5/bits/stl_algobase.h ****  *
  30:/usr/include/c++/5/bits/stl_algobase.h ****  * Permission to use, copy, modify, distribute and sell this software
  31:/usr/include/c++/5/bits/stl_algobase.h ****  * and its documentation for any purpose is hereby granted without fee,
  32:/usr/include/c++/5/bits/stl_algobase.h ****  * provided that the above copyright notice appear in all copies and
  33:/usr/include/c++/5/bits/stl_algobase.h ****  * that both that copyright notice and this permission notice appear
  34:/usr/include/c++/5/bits/stl_algobase.h ****  * in supporting documentation.  Hewlett-Packard Company makes no
  35:/usr/include/c++/5/bits/stl_algobase.h ****  * representations about the suitability of this software for any
  36:/usr/include/c++/5/bits/stl_algobase.h ****  * purpose.  It is provided "as is" without express or implied warranty.
  37:/usr/include/c++/5/bits/stl_algobase.h ****  *
  38:/usr/include/c++/5/bits/stl_algobase.h ****  *
  39:/usr/include/c++/5/bits/stl_algobase.h ****  * Copyright (c) 1996-1998
  40:/usr/include/c++/5/bits/stl_algobase.h ****  * Silicon Graphics Computer Systems, Inc.
  41:/usr/include/c++/5/bits/stl_algobase.h ****  *
  42:/usr/include/c++/5/bits/stl_algobase.h ****  * Permission to use, copy, modify, distribute and sell this software
  43:/usr/include/c++/5/bits/stl_algobase.h ****  * and its documentation for any purpose is hereby granted without fee,
  44:/usr/include/c++/5/bits/stl_algobase.h ****  * provided that the above copyright notice appear in all copies and
  45:/usr/include/c++/5/bits/stl_algobase.h ****  * that both that copyright notice and this permission notice appear
  46:/usr/include/c++/5/bits/stl_algobase.h ****  * in supporting documentation.  Silicon Graphics makes no
  47:/usr/include/c++/5/bits/stl_algobase.h ****  * representations about the suitability of this software for any
  48:/usr/include/c++/5/bits/stl_algobase.h ****  * purpose.  It is provided "as is" without express or implied warranty.
  49:/usr/include/c++/5/bits/stl_algobase.h ****  */
  50:/usr/include/c++/5/bits/stl_algobase.h **** 
  51:/usr/include/c++/5/bits/stl_algobase.h **** /** @file bits/stl_algobase.h
  52:/usr/include/c++/5/bits/stl_algobase.h ****  *  This is an internal header file, included by other library headers.
  53:/usr/include/c++/5/bits/stl_algobase.h ****  *  Do not attempt to use it directly. @headername{algorithm}
  54:/usr/include/c++/5/bits/stl_algobase.h ****  */
  55:/usr/include/c++/5/bits/stl_algobase.h **** 
  56:/usr/include/c++/5/bits/stl_algobase.h **** #ifndef _STL_ALGOBASE_H
  57:/usr/include/c++/5/bits/stl_algobase.h **** #define _STL_ALGOBASE_H 1
  58:/usr/include/c++/5/bits/stl_algobase.h **** 
  59:/usr/include/c++/5/bits/stl_algobase.h **** #include <bits/c++config.h>
  60:/usr/include/c++/5/bits/stl_algobase.h **** #include <bits/functexcept.h>
  61:/usr/include/c++/5/bits/stl_algobase.h **** #include <bits/cpp_type_traits.h>
  62:/usr/include/c++/5/bits/stl_algobase.h **** #include <ext/type_traits.h>
  63:/usr/include/c++/5/bits/stl_algobase.h **** #include <ext/numeric_traits.h>
  64:/usr/include/c++/5/bits/stl_algobase.h **** #include <bits/stl_pair.h>
  65:/usr/include/c++/5/bits/stl_algobase.h **** #include <bits/stl_iterator_base_types.h>
  66:/usr/include/c++/5/bits/stl_algobase.h **** #include <bits/stl_iterator_base_funcs.h>
  67:/usr/include/c++/5/bits/stl_algobase.h **** #include <bits/stl_iterator.h>
  68:/usr/include/c++/5/bits/stl_algobase.h **** #include <bits/concept_check.h>
GAS LISTING /tmp/ccGTdBzt.s 			page 88


  69:/usr/include/c++/5/bits/stl_algobase.h **** #include <debug/debug.h>
  70:/usr/include/c++/5/bits/stl_algobase.h **** #include <bits/move.h> // For std::swap and _GLIBCXX_MOVE
  71:/usr/include/c++/5/bits/stl_algobase.h **** #include <bits/predefined_ops.h>
  72:/usr/include/c++/5/bits/stl_algobase.h **** 
  73:/usr/include/c++/5/bits/stl_algobase.h **** namespace std _GLIBCXX_VISIBILITY(default)
  74:/usr/include/c++/5/bits/stl_algobase.h **** {
  75:/usr/include/c++/5/bits/stl_algobase.h **** _GLIBCXX_BEGIN_NAMESPACE_VERSION
  76:/usr/include/c++/5/bits/stl_algobase.h **** 
  77:/usr/include/c++/5/bits/stl_algobase.h **** #if __cplusplus < 201103L
  78:/usr/include/c++/5/bits/stl_algobase.h ****   // See http://gcc.gnu.org/ml/libstdc++/2004-08/msg00167.html: in a
  79:/usr/include/c++/5/bits/stl_algobase.h ****   // nutshell, we are partially implementing the resolution of DR 187,
  80:/usr/include/c++/5/bits/stl_algobase.h ****   // when it's safe, i.e., the value_types are equal.
  81:/usr/include/c++/5/bits/stl_algobase.h ****   template<bool _BoolType>
  82:/usr/include/c++/5/bits/stl_algobase.h ****     struct __iter_swap
  83:/usr/include/c++/5/bits/stl_algobase.h ****     {
  84:/usr/include/c++/5/bits/stl_algobase.h ****       template<typename _ForwardIterator1, typename _ForwardIterator2>
  85:/usr/include/c++/5/bits/stl_algobase.h ****         static void
  86:/usr/include/c++/5/bits/stl_algobase.h ****         iter_swap(_ForwardIterator1 __a, _ForwardIterator2 __b)
  87:/usr/include/c++/5/bits/stl_algobase.h ****         {
  88:/usr/include/c++/5/bits/stl_algobase.h ****           typedef typename iterator_traits<_ForwardIterator1>::value_type
  89:/usr/include/c++/5/bits/stl_algobase.h ****             _ValueType1;
  90:/usr/include/c++/5/bits/stl_algobase.h ****           _ValueType1 __tmp = _GLIBCXX_MOVE(*__a);
  91:/usr/include/c++/5/bits/stl_algobase.h ****           *__a = _GLIBCXX_MOVE(*__b);
  92:/usr/include/c++/5/bits/stl_algobase.h ****           *__b = _GLIBCXX_MOVE(__tmp);
  93:/usr/include/c++/5/bits/stl_algobase.h **** 	}
  94:/usr/include/c++/5/bits/stl_algobase.h ****     };
  95:/usr/include/c++/5/bits/stl_algobase.h **** 
  96:/usr/include/c++/5/bits/stl_algobase.h ****   template<>
  97:/usr/include/c++/5/bits/stl_algobase.h ****     struct __iter_swap<true>
  98:/usr/include/c++/5/bits/stl_algobase.h ****     {
  99:/usr/include/c++/5/bits/stl_algobase.h ****       template<typename _ForwardIterator1, typename _ForwardIterator2>
 100:/usr/include/c++/5/bits/stl_algobase.h ****         static void 
 101:/usr/include/c++/5/bits/stl_algobase.h ****         iter_swap(_ForwardIterator1 __a, _ForwardIterator2 __b)
 102:/usr/include/c++/5/bits/stl_algobase.h ****         {
 103:/usr/include/c++/5/bits/stl_algobase.h ****           swap(*__a, *__b);
 104:/usr/include/c++/5/bits/stl_algobase.h ****         }
 105:/usr/include/c++/5/bits/stl_algobase.h ****     };
 106:/usr/include/c++/5/bits/stl_algobase.h **** #endif
 107:/usr/include/c++/5/bits/stl_algobase.h **** 
 108:/usr/include/c++/5/bits/stl_algobase.h ****   /**
 109:/usr/include/c++/5/bits/stl_algobase.h ****    *  @brief Swaps the contents of two iterators.
 110:/usr/include/c++/5/bits/stl_algobase.h ****    *  @ingroup mutating_algorithms
 111:/usr/include/c++/5/bits/stl_algobase.h ****    *  @param  __a  An iterator.
 112:/usr/include/c++/5/bits/stl_algobase.h ****    *  @param  __b  Another iterator.
 113:/usr/include/c++/5/bits/stl_algobase.h ****    *  @return   Nothing.
 114:/usr/include/c++/5/bits/stl_algobase.h ****    *
 115:/usr/include/c++/5/bits/stl_algobase.h ****    *  This function swaps the values pointed to by two iterators, not the
 116:/usr/include/c++/5/bits/stl_algobase.h ****    *  iterators themselves.
 117:/usr/include/c++/5/bits/stl_algobase.h ****   */
 118:/usr/include/c++/5/bits/stl_algobase.h ****   template<typename _ForwardIterator1, typename _ForwardIterator2>
 119:/usr/include/c++/5/bits/stl_algobase.h ****     inline void
 120:/usr/include/c++/5/bits/stl_algobase.h ****     iter_swap(_ForwardIterator1 __a, _ForwardIterator2 __b)
 121:/usr/include/c++/5/bits/stl_algobase.h ****     {
 122:/usr/include/c++/5/bits/stl_algobase.h ****       // concept requirements
 123:/usr/include/c++/5/bits/stl_algobase.h ****       __glibcxx_function_requires(_Mutable_ForwardIteratorConcept<
 124:/usr/include/c++/5/bits/stl_algobase.h **** 				  _ForwardIterator1>)
 125:/usr/include/c++/5/bits/stl_algobase.h ****       __glibcxx_function_requires(_Mutable_ForwardIteratorConcept<
GAS LISTING /tmp/ccGTdBzt.s 			page 89


 126:/usr/include/c++/5/bits/stl_algobase.h **** 				  _ForwardIterator2>)
 127:/usr/include/c++/5/bits/stl_algobase.h **** 
 128:/usr/include/c++/5/bits/stl_algobase.h **** #if __cplusplus < 201103L
 129:/usr/include/c++/5/bits/stl_algobase.h ****       typedef typename iterator_traits<_ForwardIterator1>::value_type
 130:/usr/include/c++/5/bits/stl_algobase.h **** 	_ValueType1;
 131:/usr/include/c++/5/bits/stl_algobase.h ****       typedef typename iterator_traits<_ForwardIterator2>::value_type
 132:/usr/include/c++/5/bits/stl_algobase.h **** 	_ValueType2;
 133:/usr/include/c++/5/bits/stl_algobase.h **** 
 134:/usr/include/c++/5/bits/stl_algobase.h ****       __glibcxx_function_requires(_ConvertibleConcept<_ValueType1,
 135:/usr/include/c++/5/bits/stl_algobase.h **** 				  _ValueType2>)
 136:/usr/include/c++/5/bits/stl_algobase.h ****       __glibcxx_function_requires(_ConvertibleConcept<_ValueType2,
 137:/usr/include/c++/5/bits/stl_algobase.h **** 				  _ValueType1>)
 138:/usr/include/c++/5/bits/stl_algobase.h **** 
 139:/usr/include/c++/5/bits/stl_algobase.h ****       typedef typename iterator_traits<_ForwardIterator1>::reference
 140:/usr/include/c++/5/bits/stl_algobase.h **** 	_ReferenceType1;
 141:/usr/include/c++/5/bits/stl_algobase.h ****       typedef typename iterator_traits<_ForwardIterator2>::reference
 142:/usr/include/c++/5/bits/stl_algobase.h **** 	_ReferenceType2;
 143:/usr/include/c++/5/bits/stl_algobase.h ****       std::__iter_swap<__are_same<_ValueType1, _ValueType2>::__value
 144:/usr/include/c++/5/bits/stl_algobase.h **** 	&& __are_same<_ValueType1&, _ReferenceType1>::__value
 145:/usr/include/c++/5/bits/stl_algobase.h **** 	&& __are_same<_ValueType2&, _ReferenceType2>::__value>::
 146:/usr/include/c++/5/bits/stl_algobase.h **** 	iter_swap(__a, __b);
 147:/usr/include/c++/5/bits/stl_algobase.h **** #else
 148:/usr/include/c++/5/bits/stl_algobase.h ****       swap(*__a, *__b);
 149:/usr/include/c++/5/bits/stl_algobase.h **** #endif
 150:/usr/include/c++/5/bits/stl_algobase.h ****     }
 151:/usr/include/c++/5/bits/stl_algobase.h **** 
 152:/usr/include/c++/5/bits/stl_algobase.h ****   /**
 153:/usr/include/c++/5/bits/stl_algobase.h ****    *  @brief Swap the elements of two sequences.
 154:/usr/include/c++/5/bits/stl_algobase.h ****    *  @ingroup mutating_algorithms
 155:/usr/include/c++/5/bits/stl_algobase.h ****    *  @param  __first1  A forward iterator.
 156:/usr/include/c++/5/bits/stl_algobase.h ****    *  @param  __last1   A forward iterator.
 157:/usr/include/c++/5/bits/stl_algobase.h ****    *  @param  __first2  A forward iterator.
 158:/usr/include/c++/5/bits/stl_algobase.h ****    *  @return   An iterator equal to @p first2+(last1-first1).
 159:/usr/include/c++/5/bits/stl_algobase.h ****    *
 160:/usr/include/c++/5/bits/stl_algobase.h ****    *  Swaps each element in the range @p [first1,last1) with the
 161:/usr/include/c++/5/bits/stl_algobase.h ****    *  corresponding element in the range @p [first2,(last1-first1)).
 162:/usr/include/c++/5/bits/stl_algobase.h ****    *  The ranges must not overlap.
 163:/usr/include/c++/5/bits/stl_algobase.h ****   */
 164:/usr/include/c++/5/bits/stl_algobase.h ****   template<typename _ForwardIterator1, typename _ForwardIterator2>
 165:/usr/include/c++/5/bits/stl_algobase.h ****     _ForwardIterator2
 166:/usr/include/c++/5/bits/stl_algobase.h ****     swap_ranges(_ForwardIterator1 __first1, _ForwardIterator1 __last1,
 167:/usr/include/c++/5/bits/stl_algobase.h **** 		_ForwardIterator2 __first2)
 168:/usr/include/c++/5/bits/stl_algobase.h ****     {
 169:/usr/include/c++/5/bits/stl_algobase.h ****       // concept requirements
 170:/usr/include/c++/5/bits/stl_algobase.h ****       __glibcxx_function_requires(_Mutable_ForwardIteratorConcept<
 171:/usr/include/c++/5/bits/stl_algobase.h **** 				  _ForwardIterator1>)
 172:/usr/include/c++/5/bits/stl_algobase.h ****       __glibcxx_function_requires(_Mutable_ForwardIteratorConcept<
 173:/usr/include/c++/5/bits/stl_algobase.h **** 				  _ForwardIterator2>)
 174:/usr/include/c++/5/bits/stl_algobase.h ****       __glibcxx_requires_valid_range(__first1, __last1);
 175:/usr/include/c++/5/bits/stl_algobase.h **** 
 176:/usr/include/c++/5/bits/stl_algobase.h ****       for (; __first1 != __last1; ++__first1, ++__first2)
 177:/usr/include/c++/5/bits/stl_algobase.h **** 	std::iter_swap(__first1, __first2);
 178:/usr/include/c++/5/bits/stl_algobase.h ****       return __first2;
 179:/usr/include/c++/5/bits/stl_algobase.h ****     }
 180:/usr/include/c++/5/bits/stl_algobase.h **** 
 181:/usr/include/c++/5/bits/stl_algobase.h ****   /**
 182:/usr/include/c++/5/bits/stl_algobase.h ****    *  @brief This does what you think it does.
GAS LISTING /tmp/ccGTdBzt.s 			page 90


 183:/usr/include/c++/5/bits/stl_algobase.h ****    *  @ingroup sorting_algorithms
 184:/usr/include/c++/5/bits/stl_algobase.h ****    *  @param  __a  A thing of arbitrary type.
 185:/usr/include/c++/5/bits/stl_algobase.h ****    *  @param  __b  Another thing of arbitrary type.
 186:/usr/include/c++/5/bits/stl_algobase.h ****    *  @return   The lesser of the parameters.
 187:/usr/include/c++/5/bits/stl_algobase.h ****    *
 188:/usr/include/c++/5/bits/stl_algobase.h ****    *  This is the simple classic generic implementation.  It will work on
 189:/usr/include/c++/5/bits/stl_algobase.h ****    *  temporary expressions, since they are only evaluated once, unlike a
 190:/usr/include/c++/5/bits/stl_algobase.h ****    *  preprocessor macro.
 191:/usr/include/c++/5/bits/stl_algobase.h ****   */
 192:/usr/include/c++/5/bits/stl_algobase.h ****   template<typename _Tp>
 193:/usr/include/c++/5/bits/stl_algobase.h ****     _GLIBCXX14_CONSTEXPR
 194:/usr/include/c++/5/bits/stl_algobase.h ****     inline const _Tp&
 195:/usr/include/c++/5/bits/stl_algobase.h ****     min(const _Tp& __a, const _Tp& __b)
 196:/usr/include/c++/5/bits/stl_algobase.h ****     {
 197:/usr/include/c++/5/bits/stl_algobase.h ****       // concept requirements
 198:/usr/include/c++/5/bits/stl_algobase.h ****       __glibcxx_function_requires(_LessThanComparableConcept<_Tp>)
 199:/usr/include/c++/5/bits/stl_algobase.h ****       //return __b < __a ? __b : __a;
 200:/usr/include/c++/5/bits/stl_algobase.h ****       if (__b < __a)
 201:/usr/include/c++/5/bits/stl_algobase.h **** 	return __b;
 202:/usr/include/c++/5/bits/stl_algobase.h ****       return __a;
 203:/usr/include/c++/5/bits/stl_algobase.h ****     }
 204:/usr/include/c++/5/bits/stl_algobase.h **** 
 205:/usr/include/c++/5/bits/stl_algobase.h ****   /**
 206:/usr/include/c++/5/bits/stl_algobase.h ****    *  @brief This does what you think it does.
 207:/usr/include/c++/5/bits/stl_algobase.h ****    *  @ingroup sorting_algorithms
 208:/usr/include/c++/5/bits/stl_algobase.h ****    *  @param  __a  A thing of arbitrary type.
 209:/usr/include/c++/5/bits/stl_algobase.h ****    *  @param  __b  Another thing of arbitrary type.
 210:/usr/include/c++/5/bits/stl_algobase.h ****    *  @return   The greater of the parameters.
 211:/usr/include/c++/5/bits/stl_algobase.h ****    *
 212:/usr/include/c++/5/bits/stl_algobase.h ****    *  This is the simple classic generic implementation.  It will work on
 213:/usr/include/c++/5/bits/stl_algobase.h ****    *  temporary expressions, since they are only evaluated once, unlike a
 214:/usr/include/c++/5/bits/stl_algobase.h ****    *  preprocessor macro.
 215:/usr/include/c++/5/bits/stl_algobase.h ****   */
 216:/usr/include/c++/5/bits/stl_algobase.h ****   template<typename _Tp>
 217:/usr/include/c++/5/bits/stl_algobase.h ****     _GLIBCXX14_CONSTEXPR
 218:/usr/include/c++/5/bits/stl_algobase.h ****     inline const _Tp&
 219:/usr/include/c++/5/bits/stl_algobase.h ****     max(const _Tp& __a, const _Tp& __b)
 3309              		.loc 5 219 0
 3310              		.cfi_startproc
 3311 0000 55       		pushq	%rbp
 3312              		.cfi_def_cfa_offset 16
 3313              		.cfi_offset 6, -16
 3314 0001 4889E5   		movq	%rsp, %rbp
 3315              		.cfi_def_cfa_register 6
 3316 0004 48897DF8 		movq	%rdi, -8(%rbp)
 3317 0008 488975F0 		movq	%rsi, -16(%rbp)
 220:/usr/include/c++/5/bits/stl_algobase.h ****     {
 221:/usr/include/c++/5/bits/stl_algobase.h ****       // concept requirements
 222:/usr/include/c++/5/bits/stl_algobase.h ****       __glibcxx_function_requires(_LessThanComparableConcept<_Tp>)
 223:/usr/include/c++/5/bits/stl_algobase.h ****       //return  __a < __b ? __b : __a;
 224:/usr/include/c++/5/bits/stl_algobase.h ****       if (__a < __b)
 3318              		.loc 5 224 0
 3319 000c 488B45F8 		movq	-8(%rbp), %rax
 3320 0010 F20F1008 		movsd	(%rax), %xmm1
 3321 0014 488B45F0 		movq	-16(%rbp), %rax
 3322 0018 F20F1000 		movsd	(%rax), %xmm0
 3323 001c 660F2EC1 		ucomisd	%xmm1, %xmm0
GAS LISTING /tmp/ccGTdBzt.s 			page 91


 3324 0020 7606     		jbe	.L146
 225:/usr/include/c++/5/bits/stl_algobase.h **** 	return __b;
 3325              		.loc 5 225 0
 3326 0022 488B45F0 		movq	-16(%rbp), %rax
 3327 0026 EB04     		jmp	.L144
 3328              	.L146:
 226:/usr/include/c++/5/bits/stl_algobase.h ****       return __a;
 3329              		.loc 5 226 0
 3330 0028 488B45F8 		movq	-8(%rbp), %rax
 3331              	.L144:
 227:/usr/include/c++/5/bits/stl_algobase.h ****     }
 3332              		.loc 5 227 0
 3333 002c 5D       		popq	%rbp
 3334              		.cfi_def_cfa 7, 8
 3335 002d C3       		ret
 3336              		.cfi_endproc
 3337              	.LFE6276:
 3339              		.weak	_ZTV22artificial_dissipation
 3340              		.section	.rodata._ZTV22artificial_dissipation,"aG",@progbits,_ZTV22artificial_dissipation,comdat
 3341              		.align 8
 3344              	_ZTV22artificial_dissipation:
 3345 0000 00000000 		.quad	0
 3345      00000000 
 3346 0008 00000000 		.quad	_ZTI22artificial_dissipation
 3346      00000000 
 3347 0010 00000000 		.quad	_ZN22artificial_dissipationD1Ev
 3347      00000000 
 3348 0018 00000000 		.quad	_ZN22artificial_dissipationD0Ev
 3348      00000000 
 3349              		.weak	_ZTI22artificial_dissipation
 3350              		.section	.rodata._ZTI22artificial_dissipation,"aG",@progbits,_ZTI22artificial_dissipation,comdat
 3351              		.align 8
 3354              	_ZTI22artificial_dissipation:
 3355 0000 00000000 		.quad	_ZTVN10__cxxabiv117__class_type_infoE+16
 3355      00000000 
 3356 0008 00000000 		.quad	_ZTS22artificial_dissipation
 3356      00000000 
 3357              		.weak	_ZTS22artificial_dissipation
 3358              		.section	.rodata._ZTS22artificial_dissipation,"aG",@progbits,_ZTS22artificial_dissipation,comdat
 3359              		.align 16
 3362              	_ZTS22artificial_dissipation:
 3363 0000 32326172 		.string	"22artificial_dissipation"
 3363      74696669 
 3363      6369616C 
 3363      5F646973 
 3363      73697061 
 3364              		.section	.rodata
 3365 0001 00000000 		.align 16
 3365      00000000 
 3365      00000000 
 3365      000000
 3366              	.LC1:
 3367 0010 FFFFFFFF 		.long	4294967295
 3368 0014 FFFFFF7F 		.long	2147483647
 3369 0018 00000000 		.long	0
 3370 001c 00000000 		.long	0
 3371              		.align 8
GAS LISTING /tmp/ccGTdBzt.s 			page 92


 3372              	.LC2:
 3373 0020 00000000 		.long	0
 3374 0024 000000C0 		.long	-1073741824
 3375              		.align 8
 3376              	.LC3:
 3377 0028 00000000 		.long	0
 3378 002c 0000F03F 		.long	1072693248
 3379              		.align 8
 3380              	.LC4:
 3381 0030 00000000 		.long	0
 3382 0034 0000E03F 		.long	1071644672
 3383              		.align 8
 3384              	.LC5:
 3385 0038 00000000 		.long	0
 3386 003c 00000840 		.long	1074266112
 3387              		.text
 3388              	.Letext0:
 3389              		.file 6 "/usr/include/c++/5/type_traits"
 3390              		.file 7 "/usr/include/x86_64-linux-gnu/c++/5/bits/c++config.h"
 3391              		.file 8 "/usr/include/c++/5/debug/debug.h"
 3392              		.file 9 "/usr/include/c++/5/cwchar"
 3393              		.file 10 "/usr/include/c++/5/cstdint"
 3394              		.file 11 "/usr/include/c++/5/bits/exception_ptr.h"
 3395              		.file 12 "/usr/include/c++/5/bits/stl_pair.h"
 3396              		.file 13 "/usr/include/c++/5/new"
 3397              		.file 14 "/usr/include/c++/5/clocale"
 3398              		.file 15 "/usr/include/c++/5/cstdlib"
 3399              		.file 16 "/usr/include/c++/5/cstdio"
 3400              		.file 17 "/usr/include/c++/5/bits/algorithmfwd.h"
 3401              		.file 18 "/usr/include/c++/5/cmath"
 3402              		.file 19 "/usr/include/c++/5/bits/uniform_int_dist.h"
 3403              		.file 20 "/usr/include/c++/5/bits/random.h"
 3404              		.file 21 "/usr/include/c++/5/bits/stl_algo.h"
 3405              		.file 22 "/usr/include/c++/5/bits/predefined_ops.h"
 3406              		.file 23 "/usr/include/c++/5/ext/new_allocator.h"
 3407              		.file 24 "/usr/include/c++/5/ext/numeric_traits.h"
 3408              		.file 25 "/usr/include/stdio.h"
 3409              		.file 26 "/usr/include/libio.h"
 3410              		.file 27 "<built-in>"
 3411              		.file 28 "/usr/lib/gcc/x86_64-linux-gnu/5/include/stddef.h"
 3412              		.file 29 "/usr/include/wchar.h"
 3413              		.file 30 "/usr/include/time.h"
 3414              		.file 31 "/usr/include/stdint.h"
 3415              		.file 32 "/usr/include/locale.h"
 3416              		.file 33 "/usr/include/x86_64-linux-gnu/bits/types.h"
 3417              		.file 34 "/usr/include/stdlib.h"
 3418              		.file 35 "/usr/include/_G_config.h"
 3419              		.file 36 "/usr/include/x86_64-linux-gnu/bits/mathdef.h"
 3420              		.file 37 "include/artificial_dissipation.h"
GAS LISTING /tmp/ccGTdBzt.s 			page 93


DEFINED SYMBOLS
                            *ABS*:0000000000000000 artificial_dissipation.cpp
     /tmp/ccGTdBzt.s:7      .rodata:0000000000000000 _ZStL19piecewise_construct
     /tmp/ccGTdBzt.s:13     .text._ZN4Mesh15get_total_cellsEv:0000000000000000 _ZN4Mesh15get_total_cellsEv
     /tmp/ccGTdBzt.s:37     .text._ZN4Mesh10get_n_nodeEi:0000000000000000 _ZN4Mesh10get_n_nodeEi
     /tmp/ccGTdBzt.s:66     .text._ZN4Mesh10get_s_nodeEi:0000000000000000 _ZN4Mesh10get_s_nodeEi
     /tmp/ccGTdBzt.s:95     .text._ZN4Mesh10get_e_nodeEi:0000000000000000 _ZN4Mesh10get_e_nodeEi
     /tmp/ccGTdBzt.s:124    .text._ZN4Mesh10get_w_nodeEi:0000000000000000 _ZN4Mesh10get_w_nodeEi
     /tmp/ccGTdBzt.s:153    .text._ZN19Boundary_Conditions6get_bcEi:0000000000000000 _ZN19Boundary_Conditions6get_bcEi
     /tmp/ccGTdBzt.s:182    .text._ZN8Solution7get_rhoEi:0000000000000000 _ZN8Solution7get_rhoEi
     /tmp/ccGTdBzt.s:212    .text._ZN8Solution5get_uEi:0000000000000000 _ZN8Solution5get_uEi
     /tmp/ccGTdBzt.s:241    .text._ZN8Solution5get_vEi:0000000000000000 _ZN8Solution5get_vEi
     /tmp/ccGTdBzt.s:270    .text._ZN8Solution5get_wEi:0000000000000000 _ZN8Solution5get_wEi
     /tmp/ccGTdBzt.s:299    .text:0000000000000000 _ZN22artificial_dissipationC2Ev
     /tmp/ccGTdBzt.s:3344   .rodata._ZTV22artificial_dissipation:0000000000000000 _ZTV22artificial_dissipation
     /tmp/ccGTdBzt.s:299    .text:0000000000000000 _ZN22artificial_dissipationC1Ev
     /tmp/ccGTdBzt.s:334    .text:000000000000002c _ZN22artificial_dissipationC2EiR16global_variables
     /tmp/ccGTdBzt.s:334    .text:000000000000002c _ZN22artificial_dissipationC1EiR16global_variables
     /tmp/ccGTdBzt.s:491    .text:0000000000000152 _ZN22artificial_dissipationD2Ev
     /tmp/ccGTdBzt.s:491    .text:0000000000000152 _ZN22artificial_dissipationD1Ev
     /tmp/ccGTdBzt.s:562    .text:00000000000001e4 _ZN22artificial_dissipationD0Ev
     /tmp/ccGTdBzt.s:589    .text:000000000000020a _ZN22artificial_dissipation14get_global_jstER8SolutionR19Boundary_ConditionsR4MeshR15domain_geometry
     /tmp/ccGTdBzt.s:781    .text:0000000000000438 _ZN22artificial_dissipation16get_local_coeffsER8SolutionR19Boundary_ConditionsR4MeshS1_R15domain_geometryii
     /tmp/ccGTdBzt.s:3306   .text._ZSt3maxIdERKT_S2_S2_:0000000000000000 _ZSt3maxIdERKT_S2_S2_
     /tmp/ccGTdBzt.s:1545   .text:0000000000000ee8 _ZN22artificial_dissipation23second_order_differenceEiiiR8SolutionS1_
     /tmp/ccGTdBzt.s:1665   .text:0000000000001028 _ZN22artificial_dissipation21_4th_order_differenceEiiiR8SolutionR19Boundary_ConditionsR4MeshS1_R15domain_geometryi
     /tmp/ccGTdBzt.s:1492   .text:0000000000000e66 _ZN22artificial_dissipation22reset_local_jst_switchEv
     /tmp/ccGTdBzt.s:3354   .rodata._ZTI22artificial_dissipation:0000000000000000 _ZTI22artificial_dissipation
     /tmp/ccGTdBzt.s:3362   .rodata._ZTS22artificial_dissipation:0000000000000000 _ZTS22artificial_dissipation

UNDEFINED SYMBOLS
_ZN8flux_varC1Ev
__gxx_personality_v0
_Znam
__cxa_throw_bad_array_new_length
exit
_ZN8flux_varD1Ev
_Unwind_Resume
_ZdaPv
_ZdlPv
pow
__stack_chk_fail
_ZTVN10__cxxabiv117__class_type_infoE
