GAS LISTING /tmp/ccB6ZoTf.s 			page 1


   1              		.file	"flux_var.cpp"
   2              		.text
   3              	.Ltext0:
   4              		.align 2
   5              		.globl	_ZN8flux_varC2Ev
   7              	_ZN8flux_varC2Ev:
   8              	.LFB1:
   9              		.file 1 "/home/brendan/Dropbox/PhD/Code/LBM/2D LBFS/src/flux_var.cpp"
   1:/home/brendan/Dropbox/PhD/Code/LBM/2D LBFS/src/flux_var.cpp **** #include "flux_var.h"
   2:/home/brendan/Dropbox/PhD/Code/LBM/2D LBFS/src/flux_var.cpp **** 
   3:/home/brendan/Dropbox/PhD/Code/LBM/2D LBFS/src/flux_var.cpp **** flux_var::flux_var()
  10              		.loc 1 3 0
  11              		.cfi_startproc
  12 0000 55       		pushq	%rbp
  13              		.cfi_def_cfa_offset 16
  14              		.cfi_offset 6, -16
  15 0001 4889E5   		movq	%rsp, %rbp
  16              		.cfi_def_cfa_register 6
  17 0004 48897DF8 		movq	%rdi, -8(%rbp)
  18              	.LBB2:
  19              		.loc 1 3 0
  20 0008 BA000000 		movl	$_ZTV8flux_var+16, %edx
  20      00
  21 000d 488B45F8 		movq	-8(%rbp), %rax
  22 0011 488910   		movq	%rdx, (%rax)
  23              	.LBE2:
   4:/home/brendan/Dropbox/PhD/Code/LBM/2D LBFS/src/flux_var.cpp **** {
   5:/home/brendan/Dropbox/PhD/Code/LBM/2D LBFS/src/flux_var.cpp ****     //ctor
   6:/home/brendan/Dropbox/PhD/Code/LBM/2D LBFS/src/flux_var.cpp **** }
  24              		.loc 1 6 0
  25 0014 90       		nop
  26 0015 5D       		popq	%rbp
  27              		.cfi_def_cfa 7, 8
  28 0016 C3       		ret
  29              		.cfi_endproc
  30              	.LFE1:
  32              		.globl	_ZN8flux_varC1Ev
  33              		.set	_ZN8flux_varC1Ev,_ZN8flux_varC2Ev
  34 0017 90       		.align 2
  35              		.globl	_ZN8flux_varD2Ev
  37              	_ZN8flux_varD2Ev:
  38              	.LFB4:
   7:/home/brendan/Dropbox/PhD/Code/LBM/2D LBFS/src/flux_var.cpp **** 
   8:/home/brendan/Dropbox/PhD/Code/LBM/2D LBFS/src/flux_var.cpp **** flux_var::~flux_var()
  39              		.loc 1 8 0
  40              		.cfi_startproc
  41 0018 55       		pushq	%rbp
  42              		.cfi_def_cfa_offset 16
  43              		.cfi_offset 6, -16
  44 0019 4889E5   		movq	%rsp, %rbp
  45              		.cfi_def_cfa_register 6
  46 001c 4883EC10 		subq	$16, %rsp
  47 0020 48897DF8 		movq	%rdi, -8(%rbp)
  48              	.LBB3:
  49              		.loc 1 8 0
  50 0024 BA000000 		movl	$_ZTV8flux_var+16, %edx
  50      00
GAS LISTING /tmp/ccB6ZoTf.s 			page 2


  51 0029 488B45F8 		movq	-8(%rbp), %rax
  52 002d 488910   		movq	%rdx, (%rax)
  53              	.LBE3:
   9:/home/brendan/Dropbox/PhD/Code/LBM/2D LBFS/src/flux_var.cpp **** {
  10:/home/brendan/Dropbox/PhD/Code/LBM/2D LBFS/src/flux_var.cpp ****     //dtor
  11:/home/brendan/Dropbox/PhD/Code/LBM/2D LBFS/src/flux_var.cpp **** }
  54              		.loc 1 11 0
  55 0030 B8000000 		movl	$0, %eax
  55      00
  56 0035 85C0     		testl	%eax, %eax
  57 0037 740C     		je	.L2
  58              		.loc 1 11 0 is_stmt 0 discriminator 1
  59 0039 488B45F8 		movq	-8(%rbp), %rax
  60 003d 4889C7   		movq	%rax, %rdi
  61 0040 E8000000 		call	_ZdlPv
  61      00
  62              	.L2:
  63              		.loc 1 11 0
  64 0045 C9       		leave
  65              		.cfi_def_cfa 7, 8
  66 0046 C3       		ret
  67              		.cfi_endproc
  68              	.LFE4:
  70              		.globl	_ZN8flux_varD1Ev
  71              		.set	_ZN8flux_varD1Ev,_ZN8flux_varD2Ev
  72 0047 90       		.align 2
  73              		.globl	_ZN8flux_varD0Ev
  75              	_ZN8flux_varD0Ev:
  76              	.LFB6:
   8:/home/brendan/Dropbox/PhD/Code/LBM/2D LBFS/src/flux_var.cpp ****     //dtor
  77              		.loc 1 8 0 is_stmt 1
  78              		.cfi_startproc
  79 0048 55       		pushq	%rbp
  80              		.cfi_def_cfa_offset 16
  81              		.cfi_offset 6, -16
  82 0049 4889E5   		movq	%rsp, %rbp
  83              		.cfi_def_cfa_register 6
  84 004c 4883EC10 		subq	$16, %rsp
  85 0050 48897DF8 		movq	%rdi, -8(%rbp)
  86              		.loc 1 11 0
  87 0054 488B45F8 		movq	-8(%rbp), %rax
  88 0058 4889C7   		movq	%rax, %rdi
  89 005b E8000000 		call	_ZN8flux_varD1Ev
  89      00
  90 0060 488B45F8 		movq	-8(%rbp), %rax
  91 0064 4889C7   		movq	%rax, %rdi
  92 0067 E8000000 		call	_ZdlPv
  92      00
  93 006c C9       		leave
  94              		.cfi_def_cfa 7, 8
  95 006d C3       		ret
  96              		.cfi_endproc
  97              	.LFE6:
  99              		.align 2
 100              		.globl	_ZN8flux_var10div_volumeEdd
 102              	_ZN8flux_var10div_volumeEdd:
 103              	.LFB7:
GAS LISTING /tmp/ccB6ZoTf.s 			page 3


  12:/home/brendan/Dropbox/PhD/Code/LBM/2D LBFS/src/flux_var.cpp **** 
  13:/home/brendan/Dropbox/PhD/Code/LBM/2D LBFS/src/flux_var.cpp **** void flux_var::div_volume(double vol, double small_num){
 104              		.loc 1 13 0
 105              		.cfi_startproc
 106 006e 55       		pushq	%rbp
 107              		.cfi_def_cfa_offset 16
 108              		.cfi_offset 6, -16
 109 006f 4889E5   		movq	%rsp, %rbp
 110              		.cfi_def_cfa_register 6
 111 0072 48897DF8 		movq	%rdi, -8(%rbp)
 112 0076 F20F1145 		movsd	%xmm0, -16(%rbp)
 112      F0
 113 007b F20F114D 		movsd	%xmm1, -24(%rbp)
 113      E8
  14:/home/brendan/Dropbox/PhD/Code/LBM/2D LBFS/src/flux_var.cpp ****     
  15:/home/brendan/Dropbox/PhD/Code/LBM/2D LBFS/src/flux_var.cpp ****     if( vol > small_num)
 114              		.loc 1 15 0
 115 0080 F20F1045 		movsd	-16(%rbp), %xmm0
 115      F0
 116 0085 660F2E45 		ucomisd	-24(%rbp), %xmm0
 116      E8
 117 008a 7617     		jbe	.L6
  16:/home/brendan/Dropbox/PhD/Code/LBM/2D LBFS/src/flux_var.cpp ****     P = P/vol;
 118              		.loc 1 16 0
 119 008c 488B45F8 		movq	-8(%rbp), %rax
 120 0090 F20F1040 		movsd	8(%rax), %xmm0
 120      08
 121 0095 F20F5E45 		divsd	-16(%rbp), %xmm0
 121      F0
 122 009a 488B45F8 		movq	-8(%rbp), %rax
 123 009e F20F1140 		movsd	%xmm0, 8(%rax)
 123      08
 124              	.L6:
  17:/home/brendan/Dropbox/PhD/Code/LBM/2D LBFS/src/flux_var.cpp ****     momentum_x = momentum_x/vol;
 125              		.loc 1 17 0
 126 00a3 488B45F8 		movq	-8(%rbp), %rax
 127 00a7 F20F1040 		movsd	16(%rax), %xmm0
 127      10
 128 00ac F20F5E45 		divsd	-16(%rbp), %xmm0
 128      F0
 129 00b1 488B45F8 		movq	-8(%rbp), %rax
 130 00b5 F20F1140 		movsd	%xmm0, 16(%rax)
 130      10
  18:/home/brendan/Dropbox/PhD/Code/LBM/2D LBFS/src/flux_var.cpp ****     momentum_y = momentum_y/vol;
 131              		.loc 1 18 0
 132 00ba 488B45F8 		movq	-8(%rbp), %rax
 133 00be F20F1040 		movsd	24(%rax), %xmm0
 133      18
 134 00c3 F20F5E45 		divsd	-16(%rbp), %xmm0
 134      F0
 135 00c8 488B45F8 		movq	-8(%rbp), %rax
 136 00cc F20F1140 		movsd	%xmm0, 24(%rax)
 136      18
  19:/home/brendan/Dropbox/PhD/Code/LBM/2D LBFS/src/flux_var.cpp ****     momentum_z = momentum_z/vol;
 137              		.loc 1 19 0
 138 00d1 488B45F8 		movq	-8(%rbp), %rax
 139 00d5 F20F1040 		movsd	32(%rax), %xmm0
GAS LISTING /tmp/ccB6ZoTf.s 			page 4


 139      20
 140 00da F20F5E45 		divsd	-16(%rbp), %xmm0
 140      F0
 141 00df 488B45F8 		movq	-8(%rbp), %rax
 142 00e3 F20F1140 		movsd	%xmm0, 32(%rax)
 142      20
  20:/home/brendan/Dropbox/PhD/Code/LBM/2D LBFS/src/flux_var.cpp ****     
  21:/home/brendan/Dropbox/PhD/Code/LBM/2D LBFS/src/flux_var.cpp ****     
  22:/home/brendan/Dropbox/PhD/Code/LBM/2D LBFS/src/flux_var.cpp **** }...
 143              		.loc 1 22 0
 144 00e8 90       		nop
 145 00e9 5D       		popq	%rbp
 146              		.cfi_def_cfa 7, 8
 147 00ea C3       		ret
 148              		.cfi_endproc
 149              	.LFE7:
 151              		.weak	_ZTV8flux_var
 152              		.section	.rodata._ZTV8flux_var,"aG",@progbits,_ZTV8flux_var,comdat
 153              		.align 8
 156              	_ZTV8flux_var:
 157 0000 00000000 		.quad	0
 157      00000000 
 158 0008 00000000 		.quad	_ZTI8flux_var
 158      00000000 
 159 0010 00000000 		.quad	_ZN8flux_varD1Ev
 159      00000000 
 160 0018 00000000 		.quad	_ZN8flux_varD0Ev
 160      00000000 
 161              		.weak	_ZTI8flux_var
 162              		.section	.rodata._ZTI8flux_var,"aG",@progbits,_ZTI8flux_var,comdat
 163              		.align 8
 166              	_ZTI8flux_var:
 167 0000 00000000 		.quad	_ZTVN10__cxxabiv117__class_type_infoE+16
 167      00000000 
 168 0008 00000000 		.quad	_ZTS8flux_var
 168      00000000 
 169              		.weak	_ZTS8flux_var
 170              		.section	.rodata._ZTS8flux_var,"aG",@progbits,_ZTS8flux_var,comdat
 171              		.align 8
 174              	_ZTS8flux_var:
 175 0000 38666C75 		.string	"8flux_var"
 175      785F7661 
 175      7200
 176              		.text
 177              	.Letext0:
 178              		.file 2 "include/flux_var.h"
GAS LISTING /tmp/ccB6ZoTf.s 			page 5


DEFINED SYMBOLS
                            *ABS*:0000000000000000 flux_var.cpp
     /tmp/ccB6ZoTf.s:7      .text:0000000000000000 _ZN8flux_varC2Ev
     /tmp/ccB6ZoTf.s:156    .rodata._ZTV8flux_var:0000000000000000 _ZTV8flux_var
     /tmp/ccB6ZoTf.s:7      .text:0000000000000000 _ZN8flux_varC1Ev
     /tmp/ccB6ZoTf.s:37     .text:0000000000000018 _ZN8flux_varD2Ev
     /tmp/ccB6ZoTf.s:37     .text:0000000000000018 _ZN8flux_varD1Ev
     /tmp/ccB6ZoTf.s:75     .text:0000000000000048 _ZN8flux_varD0Ev
     /tmp/ccB6ZoTf.s:102    .text:000000000000006e _ZN8flux_var10div_volumeEdd
     /tmp/ccB6ZoTf.s:166    .rodata._ZTI8flux_var:0000000000000000 _ZTI8flux_var
     /tmp/ccB6ZoTf.s:174    .rodata._ZTS8flux_var:0000000000000000 _ZTS8flux_var

UNDEFINED SYMBOLS
_ZdlPv
_ZTVN10__cxxabiv117__class_type_infoE
