GAS LISTING /tmp/ccSpSEFs.s 			page 1


   1              		.file	"Mesh.cpp"
   2              		.text
   3              	.Ltext0:
   4              		.section	.rodata
   7              	_ZStL19piecewise_construct:
   8 0000 00       		.zero	1
   9              		.local	_ZStL8__ioinit
  10              		.comm	_ZStL8__ioinit,1,1
  11              	.LC1:
  12 0001 2F6D6573 		.string	"/mesh.txt"
  12      682E7478 
  12      7400
  13              	.LC2:
  14 000b 2C00     		.string	","
  15              		.text
  16              		.align 2
  17              		.globl	_ZN4MeshC2E15domain_geometry16global_variables
  19              	_ZN4MeshC2E15domain_geometry16global_variables:
  20              	.LFB6793:
  21              		.file 1 "/home/brendan/Dropbox/PhD/Code/LBM/2D LBFS/src/Mesh.cpp"
   1:/home/brendan/Dropbox/PhD/Code/LBM/2D LBFS/src/Mesh.cpp **** #include "Mesh.h"
   2:/home/brendan/Dropbox/PhD/Code/LBM/2D LBFS/src/Mesh.cpp **** #include <math.h>
   3:/home/brendan/Dropbox/PhD/Code/LBM/2D LBFS/src/Mesh.cpp **** #include <stdio.h>      /* printf, scanf, NULL */
   4:/home/brendan/Dropbox/PhD/Code/LBM/2D LBFS/src/Mesh.cpp **** #include <stdlib.h>
   5:/home/brendan/Dropbox/PhD/Code/LBM/2D LBFS/src/Mesh.cpp **** #include <algorithm>
   6:/home/brendan/Dropbox/PhD/Code/LBM/2D LBFS/src/Mesh.cpp **** #include <fstream>
   7:/home/brendan/Dropbox/PhD/Code/LBM/2D LBFS/src/Mesh.cpp **** #include <iostream>
   8:/home/brendan/Dropbox/PhD/Code/LBM/2D LBFS/src/Mesh.cpp **** #include "global_variables.h"
   9:/home/brendan/Dropbox/PhD/Code/LBM/2D LBFS/src/Mesh.cpp **** #include <cstdio>
  10:/home/brendan/Dropbox/PhD/Code/LBM/2D LBFS/src/Mesh.cpp **** 
  11:/home/brendan/Dropbox/PhD/Code/LBM/2D LBFS/src/Mesh.cpp **** using namespace std;
  12:/home/brendan/Dropbox/PhD/Code/LBM/2D LBFS/src/Mesh.cpp **** 
  13:/home/brendan/Dropbox/PhD/Code/LBM/2D LBFS/src/Mesh.cpp **** Mesh::Mesh(domain_geometry domain, global_variables globals)
  22              		.loc 1 13 0
  23              		.cfi_startproc
  24              		.cfi_personality 0x3,__gxx_personality_v0
  25              		.cfi_lsda 0x3,.LLSDA6793
  26 0000 55       		pushq	%rbp
  27              		.cfi_def_cfa_offset 16
  28              		.cfi_offset 6, -16
  29 0001 4889E5   		movq	%rsp, %rbp
  30              		.cfi_def_cfa_register 6
  31 0004 4155     		pushq	%r13
  32 0006 4154     		pushq	%r12
  33 0008 53       		pushq	%rbx
  34 0009 4881EC88 		subq	$648, %rsp
  34      020000
  35              		.cfi_offset 13, -24
  36              		.cfi_offset 12, -32
  37              		.cfi_offset 3, -40
  38 0010 4889BD78 		movq	%rdi, -648(%rbp)
  38      FDFFFF
  39 0017 4889B570 		movq	%rsi, -656(%rbp)
  39      FDFFFF
  40 001e 48899568 		movq	%rdx, -664(%rbp)
  40      FDFFFF
  41              		.loc 1 13 0
GAS LISTING /tmp/ccSpSEFs.s 			page 2


  42 0025 64488B04 		movq	%fs:40, %rax
  42      25280000 
  42      00
  43 002e 488945D8 		movq	%rax, -40(%rbp)
  44 0032 31C0     		xorl	%eax, %eax
  45              	.LBB2:
  46 0034 BA000000 		movl	$_ZTV4Mesh+16, %edx
  46      00
  47 0039 488B8578 		movq	-648(%rbp), %rax
  47      FDFFFF
  48 0040 488910   		movq	%rdx, (%rax)
  49              	.LBB3:
  14:/home/brendan/Dropbox/PhD/Code/LBM/2D LBFS/src/Mesh.cpp **** {
  15:/home/brendan/Dropbox/PhD/Code/LBM/2D LBFS/src/Mesh.cpp ****     //ctor
  16:/home/brendan/Dropbox/PhD/Code/LBM/2D LBFS/src/Mesh.cpp ****     X = domain.X;
  50              		.loc 1 16 0
  51 0043 488B8570 		movq	-656(%rbp), %rax
  51      FDFFFF
  52 004a F20F1040 		movsd	8(%rax), %xmm0
  52      08
  53 004f 488B8578 		movq	-648(%rbp), %rax
  53      FDFFFF
  54 0056 F20F1140 		movsd	%xmm0, 24(%rax)
  54      18
  17:/home/brendan/Dropbox/PhD/Code/LBM/2D LBFS/src/Mesh.cpp ****     Y = domain.Y;
  55              		.loc 1 17 0
  56 005b 488B8570 		movq	-656(%rbp), %rax
  56      FDFFFF
  57 0062 F20F1040 		movsd	16(%rax), %xmm0
  57      10
  58 0067 488B8578 		movq	-648(%rbp), %rax
  58      FDFFFF
  59 006e F20F1140 		movsd	%xmm0, 32(%rax)
  59      20
  18:/home/brendan/Dropbox/PhD/Code/LBM/2D LBFS/src/Mesh.cpp ****     dx = domain.dx; //dimensional form
  60              		.loc 1 18 0
  61 0073 488B8570 		movq	-656(%rbp), %rax
  61      FDFFFF
  62 007a F20F1040 		movsd	24(%rax), %xmm0
  62      18
  63 007f 488B8578 		movq	-648(%rbp), %rax
  63      FDFFFF
  64 0086 F20F1140 		movsd	%xmm0, 40(%rax)
  64      28
  19:/home/brendan/Dropbox/PhD/Code/LBM/2D LBFS/src/Mesh.cpp ****     dy = domain.dy;
  65              		.loc 1 19 0
  66 008b 488B8570 		movq	-656(%rbp), %rax
  66      FDFFFF
  67 0092 F20F1040 		movsd	32(%rax), %xmm0
  67      20
  68 0097 488B8578 		movq	-648(%rbp), %rax
  68      FDFFFF
  69 009e F20F1140 		movsd	%xmm0, 48(%rax)
  69      30
  20:/home/brendan/Dropbox/PhD/Code/LBM/2D LBFS/src/Mesh.cpp ****     multi_grid_dt = domain.dt;
  70              		.loc 1 20 0
  71 00a3 488B8570 		movq	-656(%rbp), %rax
GAS LISTING /tmp/ccSpSEFs.s 			page 3


  71      FDFFFF
  72 00aa F20F1040 		movsd	40(%rax), %xmm0
  72      28
  73 00af 488B8578 		movq	-648(%rbp), %rax
  73      FDFFFF
  74 00b6 F20F1140 		movsd	%xmm0, 56(%rax)
  74      38
  21:/home/brendan/Dropbox/PhD/Code/LBM/2D LBFS/src/Mesh.cpp **** 
  22:/home/brendan/Dropbox/PhD/Code/LBM/2D LBFS/src/Mesh.cpp **** 	num_x_cells = ceil(X/dx) + 2;
  75              		.loc 1 22 0
  76 00bb 488B8578 		movq	-648(%rbp), %rax
  76      FDFFFF
  77 00c2 F20F1040 		movsd	24(%rax), %xmm0
  77      18
  78 00c7 488B8578 		movq	-648(%rbp), %rax
  78      FDFFFF
  79 00ce F20F1048 		movsd	40(%rax), %xmm1
  79      28
  80 00d3 F20F5EC1 		divsd	%xmm1, %xmm0
  81 00d7 E8000000 		call	ceil
  81      00
  82 00dc 660F28C8 		movapd	%xmm0, %xmm1
  83 00e0 F20F1005 		movsd	.LC0(%rip), %xmm0
  83      00000000 
  84 00e8 F20F58C1 		addsd	%xmm1, %xmm0
  85 00ec F20F2CD0 		cvttsd2si	%xmm0, %edx
  86 00f0 488B8578 		movq	-648(%rbp), %rax
  86      FDFFFF
  87 00f7 895008   		movl	%edx, 8(%rax)
  23:/home/brendan/Dropbox/PhD/Code/LBM/2D LBFS/src/Mesh.cpp **** 	num_y_cells= ceil(Y/dy) + 2;
  88              		.loc 1 23 0
  89 00fa 488B8578 		movq	-648(%rbp), %rax
  89      FDFFFF
  90 0101 F20F1040 		movsd	32(%rax), %xmm0
  90      20
  91 0106 488B8578 		movq	-648(%rbp), %rax
  91      FDFFFF
  92 010d F20F1048 		movsd	48(%rax), %xmm1
  92      30
  93 0112 F20F5EC1 		divsd	%xmm1, %xmm0
  94 0116 E8000000 		call	ceil
  94      00
  95 011b 660F28C8 		movapd	%xmm0, %xmm1
  96 011f F20F1005 		movsd	.LC0(%rip), %xmm0
  96      00000000 
  97 0127 F20F58C1 		addsd	%xmm1, %xmm0
  98 012b F20F2CD0 		cvttsd2si	%xmm0, %edx
  99 012f 488B8578 		movq	-648(%rbp), %rax
  99      FDFFFF
 100 0136 89500C   		movl	%edx, 12(%rax)
  24:/home/brendan/Dropbox/PhD/Code/LBM/2D LBFS/src/Mesh.cpp **** 	// plus twos account for ghost nodes
  25:/home/brendan/Dropbox/PhD/Code/LBM/2D LBFS/src/Mesh.cpp **** 	total_cells  = (num_x_cells ) * (num_y_cells);
 101              		.loc 1 25 0
 102 0139 488B8578 		movq	-648(%rbp), %rax
 102      FDFFFF
 103 0140 8B5008   		movl	8(%rax), %edx
 104 0143 488B8578 		movq	-648(%rbp), %rax
GAS LISTING /tmp/ccSpSEFs.s 			page 4


 104      FDFFFF
 105 014a 8B400C   		movl	12(%rax), %eax
 106 014d 0FAFD0   		imull	%eax, %edx
 107 0150 488B8578 		movq	-648(%rbp), %rax
 107      FDFFFF
 108 0157 895010   		movl	%edx, 16(%rax)
  26:/home/brendan/Dropbox/PhD/Code/LBM/2D LBFS/src/Mesh.cpp **** 
  27:/home/brendan/Dropbox/PhD/Code/LBM/2D LBFS/src/Mesh.cpp ****     /// need error check here to see if grid divisible by multigrid criteria
  28:/home/brendan/Dropbox/PhD/Code/LBM/2D LBFS/src/Mesh.cpp ****     //Uniform only
  29:/home/brendan/Dropbox/PhD/Code/LBM/2D LBFS/src/Mesh.cpp **** 
  30:/home/brendan/Dropbox/PhD/Code/LBM/2D LBFS/src/Mesh.cpp **** 	//dx = X/(num_x_cells-2); // reset dx/dy t0 allow for ceiling
  31:/home/brendan/Dropbox/PhD/Code/LBM/2D LBFS/src/Mesh.cpp ****     //dy = Y/(num_y_cells -2);
  32:/home/brendan/Dropbox/PhD/Code/LBM/2D LBFS/src/Mesh.cpp ****         dx =dx/domain.dt; // turn into non-dimensional form
 109              		.loc 1 32 0
 110 015a 488B8578 		movq	-648(%rbp), %rax
 110      FDFFFF
 111 0161 F20F1040 		movsd	40(%rax), %xmm0
 111      28
 112 0166 488B8570 		movq	-656(%rbp), %rax
 112      FDFFFF
 113 016d F20F1048 		movsd	40(%rax), %xmm1
 113      28
 114 0172 F20F5EC1 		divsd	%xmm1, %xmm0
 115 0176 488B8578 		movq	-648(%rbp), %rax
 115      FDFFFF
 116 017d F20F1140 		movsd	%xmm0, 40(%rax)
 116      28
  33:/home/brendan/Dropbox/PhD/Code/LBM/2D LBFS/src/Mesh.cpp ****         dy =dy/domain.dt;
 117              		.loc 1 33 0
 118 0182 488B8578 		movq	-648(%rbp), %rax
 118      FDFFFF
 119 0189 F20F1040 		movsd	48(%rax), %xmm0
 119      30
 120 018e 488B8570 		movq	-656(%rbp), %rax
 120      FDFFFF
 121 0195 F20F1048 		movsd	40(%rax), %xmm1
 121      28
 122 019a F20F5EC1 		divsd	%xmm1, %xmm0
 123 019e 488B8578 		movq	-648(%rbp), %rax
 123      FDFFFF
 124 01a5 F20F1140 		movsd	%xmm0, 48(%rax)
 124      30
  34:/home/brendan/Dropbox/PhD/Code/LBM/2D LBFS/src/Mesh.cpp ****         // 2.0 as cell is 2 LBM nodes in length
  35:/home/brendan/Dropbox/PhD/Code/LBM/2D LBFS/src/Mesh.cpp ****     cs = domain.cs;
 125              		.loc 1 35 0
 126 01aa 488B8570 		movq	-656(%rbp), %rax
 126      FDFFFF
 127 01b1 F20F1040 		movsd	48(%rax), %xmm0
 127      30
 128 01b6 488B8578 		movq	-648(%rbp), %rax
 128      FDFFFF
 129 01bd F20F1180 		movsd	%xmm0, 368(%rax)
 129      70010000 
  36:/home/brendan/Dropbox/PhD/Code/LBM/2D LBFS/src/Mesh.cpp **** 
  37:/home/brendan/Dropbox/PhD/Code/LBM/2D LBFS/src/Mesh.cpp **** 
  38:/home/brendan/Dropbox/PhD/Code/LBM/2D LBFS/src/Mesh.cpp ****     centroid_x = new double [total_cells +1];
 130              		.loc 1 38 0
GAS LISTING /tmp/ccSpSEFs.s 			page 5


 131 01c5 488B8578 		movq	-648(%rbp), %rax
 131      FDFFFF
 132 01cc 8B4010   		movl	16(%rax), %eax
 133 01cf 83C001   		addl	$1, %eax
 134 01d2 4898     		cltq
 135 01d4 48BA0000 		movabsq	$1143914305352105984, %rdx
 135      00000000 
 135      E00F
 136 01de 4839D0   		cmpq	%rdx, %rax
 137 01e1 772C     		ja	.L2
 138              		.loc 1 38 0 is_stmt 0 discriminator 1
 139 01e3 48C1E003 		salq	$3, %rax
 140 01e7 4889C7   		movq	%rax, %rdi
 141              	.LEHB0:
 142 01ea E8000000 		call	_Znam
 142      00
 143 01ef 4889C2   		movq	%rax, %rdx
 144 01f2 488B8578 		movq	-648(%rbp), %rax
 144      FDFFFF
 145 01f9 48895040 		movq	%rdx, 64(%rax)
  39:/home/brendan/Dropbox/PhD/Code/LBM/2D LBFS/src/Mesh.cpp ****         if (centroid_x==NULL) exit (1);
 146              		.loc 1 39 0 is_stmt 1 discriminator 1
 147 01fd 488B8578 		movq	-648(%rbp), %rax
 147      FDFFFF
 148 0204 488B4040 		movq	64(%rax), %rax
 149 0208 4885C0   		testq	%rax, %rax
 150 020b 7511     		jne	.L4
 151 020d EB05     		jmp	.L122
 152              	.L2:
  38:/home/brendan/Dropbox/PhD/Code/LBM/2D LBFS/src/Mesh.cpp ****         if (centroid_x==NULL) exit (1);
 153              		.loc 1 38 0 discriminator 2
 154 020f E8000000 		call	__cxa_throw_bad_array_new_length
 154      00
 155              	.L122:
 156              		.loc 1 39 0 discriminator 1
 157 0214 BF010000 		movl	$1, %edi
 157      00
 158 0219 E8000000 		call	exit
 158      00
 159              	.L4:
  40:/home/brendan/Dropbox/PhD/Code/LBM/2D LBFS/src/Mesh.cpp ****     centroid_y = new double [total_cells +1];
 160              		.loc 1 40 0
 161 021e 488B8578 		movq	-648(%rbp), %rax
 161      FDFFFF
 162 0225 8B4010   		movl	16(%rax), %eax
 163 0228 83C001   		addl	$1, %eax
 164 022b 4898     		cltq
 165 022d 48BA0000 		movabsq	$1143914305352105984, %rdx
 165      00000000 
 165      E00F
 166 0237 4839D0   		cmpq	%rdx, %rax
 167 023a 772C     		ja	.L5
 168              		.loc 1 40 0 is_stmt 0 discriminator 1
 169 023c 48C1E003 		salq	$3, %rax
 170 0240 4889C7   		movq	%rax, %rdi
 171 0243 E8000000 		call	_Znam
 171      00
GAS LISTING /tmp/ccSpSEFs.s 			page 6


 172 0248 4889C2   		movq	%rax, %rdx
 173 024b 488B8578 		movq	-648(%rbp), %rax
 173      FDFFFF
 174 0252 48895048 		movq	%rdx, 72(%rax)
  41:/home/brendan/Dropbox/PhD/Code/LBM/2D LBFS/src/Mesh.cpp ****         if (centroid_y==NULL) exit (1);
 175              		.loc 1 41 0 is_stmt 1 discriminator 1
 176 0256 488B8578 		movq	-648(%rbp), %rax
 176      FDFFFF
 177 025d 488B4048 		movq	72(%rax), %rax
 178 0261 4885C0   		testq	%rax, %rax
 179 0264 7511     		jne	.L7
 180 0266 EB05     		jmp	.L123
 181              	.L5:
  40:/home/brendan/Dropbox/PhD/Code/LBM/2D LBFS/src/Mesh.cpp ****     centroid_y = new double [total_cells +1];
 182              		.loc 1 40 0 discriminator 2
 183 0268 E8000000 		call	__cxa_throw_bad_array_new_length
 183      00
 184              	.L123:
 185              		.loc 1 41 0 discriminator 1
 186 026d BF010000 		movl	$1, %edi
 186      00
 187 0272 E8000000 		call	exit
 187      00
 188              	.L7:
  42:/home/brendan/Dropbox/PhD/Code/LBM/2D LBFS/src/Mesh.cpp ****     centroid_z = new double [total_cells +1];
 189              		.loc 1 42 0
 190 0277 488B8578 		movq	-648(%rbp), %rax
 190      FDFFFF
 191 027e 8B4010   		movl	16(%rax), %eax
 192 0281 83C001   		addl	$1, %eax
 193 0284 4898     		cltq
 194 0286 48BA0000 		movabsq	$1143914305352105984, %rdx
 194      00000000 
 194      E00F
 195 0290 4839D0   		cmpq	%rdx, %rax
 196 0293 772C     		ja	.L8
 197              		.loc 1 42 0 is_stmt 0 discriminator 1
 198 0295 48C1E003 		salq	$3, %rax
 199 0299 4889C7   		movq	%rax, %rdi
 200 029c E8000000 		call	_Znam
 200      00
 201 02a1 4889C2   		movq	%rax, %rdx
 202 02a4 488B8578 		movq	-648(%rbp), %rax
 202      FDFFFF
 203 02ab 48895050 		movq	%rdx, 80(%rax)
  43:/home/brendan/Dropbox/PhD/Code/LBM/2D LBFS/src/Mesh.cpp ****         if (centroid_z==NULL) exit (1);
 204              		.loc 1 43 0 is_stmt 1 discriminator 1
 205 02af 488B8578 		movq	-648(%rbp), %rax
 205      FDFFFF
 206 02b6 488B4050 		movq	80(%rax), %rax
 207 02ba 4885C0   		testq	%rax, %rax
 208 02bd 7511     		jne	.L10
 209 02bf EB05     		jmp	.L124
 210              	.L8:
  42:/home/brendan/Dropbox/PhD/Code/LBM/2D LBFS/src/Mesh.cpp ****     centroid_z = new double [total_cells +1];
 211              		.loc 1 42 0 discriminator 2
 212 02c1 E8000000 		call	__cxa_throw_bad_array_new_length
GAS LISTING /tmp/ccSpSEFs.s 			page 7


 212      00
 213              	.L124:
 214              		.loc 1 43 0 discriminator 1
 215 02c6 BF010000 		movl	$1, %edi
 215      00
 216 02cb E8000000 		call	exit
 216      00
 217              	.L10:
  44:/home/brendan/Dropbox/PhD/Code/LBM/2D LBFS/src/Mesh.cpp ****     north_x = new double [total_cells +1];
 218              		.loc 1 44 0
 219 02d0 488B8578 		movq	-648(%rbp), %rax
 219      FDFFFF
 220 02d7 8B4010   		movl	16(%rax), %eax
 221 02da 83C001   		addl	$1, %eax
 222 02dd 4898     		cltq
 223 02df 48BA0000 		movabsq	$1143914305352105984, %rdx
 223      00000000 
 223      E00F
 224 02e9 4839D0   		cmpq	%rdx, %rax
 225 02ec 772C     		ja	.L11
 226              		.loc 1 44 0 is_stmt 0 discriminator 1
 227 02ee 48C1E003 		salq	$3, %rax
 228 02f2 4889C7   		movq	%rax, %rdi
 229 02f5 E8000000 		call	_Znam
 229      00
 230 02fa 4889C2   		movq	%rax, %rdx
 231 02fd 488B8578 		movq	-648(%rbp), %rax
 231      FDFFFF
 232 0304 48895058 		movq	%rdx, 88(%rax)
  45:/home/brendan/Dropbox/PhD/Code/LBM/2D LBFS/src/Mesh.cpp ****         if (north_x==NULL) exit (1);
 233              		.loc 1 45 0 is_stmt 1 discriminator 1
 234 0308 488B8578 		movq	-648(%rbp), %rax
 234      FDFFFF
 235 030f 488B4058 		movq	88(%rax), %rax
 236 0313 4885C0   		testq	%rax, %rax
 237 0316 7511     		jne	.L13
 238 0318 EB05     		jmp	.L125
 239              	.L11:
  44:/home/brendan/Dropbox/PhD/Code/LBM/2D LBFS/src/Mesh.cpp ****     north_x = new double [total_cells +1];
 240              		.loc 1 44 0 discriminator 2
 241 031a E8000000 		call	__cxa_throw_bad_array_new_length
 241      00
 242              	.L125:
 243              		.loc 1 45 0 discriminator 1
 244 031f BF010000 		movl	$1, %edi
 244      00
 245 0324 E8000000 		call	exit
 245      00
 246              	.L13:
  46:/home/brendan/Dropbox/PhD/Code/LBM/2D LBFS/src/Mesh.cpp ****     north_y = new double [total_cells +1];
 247              		.loc 1 46 0
 248 0329 488B8578 		movq	-648(%rbp), %rax
 248      FDFFFF
 249 0330 8B4010   		movl	16(%rax), %eax
 250 0333 83C001   		addl	$1, %eax
 251 0336 4898     		cltq
 252 0338 48BA0000 		movabsq	$1143914305352105984, %rdx
GAS LISTING /tmp/ccSpSEFs.s 			page 8


 252      00000000 
 252      E00F
 253 0342 4839D0   		cmpq	%rdx, %rax
 254 0345 772C     		ja	.L14
 255              		.loc 1 46 0 is_stmt 0 discriminator 1
 256 0347 48C1E003 		salq	$3, %rax
 257 034b 4889C7   		movq	%rax, %rdi
 258 034e E8000000 		call	_Znam
 258      00
 259 0353 4889C2   		movq	%rax, %rdx
 260 0356 488B8578 		movq	-648(%rbp), %rax
 260      FDFFFF
 261 035d 48895060 		movq	%rdx, 96(%rax)
  47:/home/brendan/Dropbox/PhD/Code/LBM/2D LBFS/src/Mesh.cpp ****         if (north_y==NULL) exit (1);
 262              		.loc 1 47 0 is_stmt 1 discriminator 1
 263 0361 488B8578 		movq	-648(%rbp), %rax
 263      FDFFFF
 264 0368 488B4060 		movq	96(%rax), %rax
 265 036c 4885C0   		testq	%rax, %rax
 266 036f 7511     		jne	.L16
 267 0371 EB05     		jmp	.L126
 268              	.L14:
  46:/home/brendan/Dropbox/PhD/Code/LBM/2D LBFS/src/Mesh.cpp ****     north_y = new double [total_cells +1];
 269              		.loc 1 46 0 discriminator 2
 270 0373 E8000000 		call	__cxa_throw_bad_array_new_length
 270      00
 271              	.L126:
 272              		.loc 1 47 0 discriminator 1
 273 0378 BF010000 		movl	$1, %edi
 273      00
 274 037d E8000000 		call	exit
 274      00
 275              	.L16:
  48:/home/brendan/Dropbox/PhD/Code/LBM/2D LBFS/src/Mesh.cpp ****     north_z = new double [total_cells +1];
 276              		.loc 1 48 0
 277 0382 488B8578 		movq	-648(%rbp), %rax
 277      FDFFFF
 278 0389 8B4010   		movl	16(%rax), %eax
 279 038c 83C001   		addl	$1, %eax
 280 038f 4898     		cltq
 281 0391 48BA0000 		movabsq	$1143914305352105984, %rdx
 281      00000000 
 281      E00F
 282 039b 4839D0   		cmpq	%rdx, %rax
 283 039e 772C     		ja	.L17
 284              		.loc 1 48 0 is_stmt 0 discriminator 1
 285 03a0 48C1E003 		salq	$3, %rax
 286 03a4 4889C7   		movq	%rax, %rdi
 287 03a7 E8000000 		call	_Znam
 287      00
 288 03ac 4889C2   		movq	%rax, %rdx
 289 03af 488B8578 		movq	-648(%rbp), %rax
 289      FDFFFF
 290 03b6 48895068 		movq	%rdx, 104(%rax)
  49:/home/brendan/Dropbox/PhD/Code/LBM/2D LBFS/src/Mesh.cpp ****         if (north_z==NULL) exit (1);
 291              		.loc 1 49 0 is_stmt 1 discriminator 1
 292 03ba 488B8578 		movq	-648(%rbp), %rax
GAS LISTING /tmp/ccSpSEFs.s 			page 9


 292      FDFFFF
 293 03c1 488B4068 		movq	104(%rax), %rax
 294 03c5 4885C0   		testq	%rax, %rax
 295 03c8 7511     		jne	.L19
 296 03ca EB05     		jmp	.L127
 297              	.L17:
  48:/home/brendan/Dropbox/PhD/Code/LBM/2D LBFS/src/Mesh.cpp ****     north_z = new double [total_cells +1];
 298              		.loc 1 48 0 discriminator 2
 299 03cc E8000000 		call	__cxa_throw_bad_array_new_length
 299      00
 300              	.L127:
 301              		.loc 1 49 0 discriminator 1
 302 03d1 BF010000 		movl	$1, %edi
 302      00
 303 03d6 E8000000 		call	exit
 303      00
 304              	.L19:
  50:/home/brendan/Dropbox/PhD/Code/LBM/2D LBFS/src/Mesh.cpp ****     east_x = new double [total_cells +1];
 305              		.loc 1 50 0
 306 03db 488B8578 		movq	-648(%rbp), %rax
 306      FDFFFF
 307 03e2 8B4010   		movl	16(%rax), %eax
 308 03e5 83C001   		addl	$1, %eax
 309 03e8 4898     		cltq
 310 03ea 48BA0000 		movabsq	$1143914305352105984, %rdx
 310      00000000 
 310      E00F
 311 03f4 4839D0   		cmpq	%rdx, %rax
 312 03f7 772C     		ja	.L20
 313              		.loc 1 50 0 is_stmt 0 discriminator 1
 314 03f9 48C1E003 		salq	$3, %rax
 315 03fd 4889C7   		movq	%rax, %rdi
 316 0400 E8000000 		call	_Znam
 316      00
 317 0405 4889C2   		movq	%rax, %rdx
 318 0408 488B8578 		movq	-648(%rbp), %rax
 318      FDFFFF
 319 040f 48895070 		movq	%rdx, 112(%rax)
  51:/home/brendan/Dropbox/PhD/Code/LBM/2D LBFS/src/Mesh.cpp ****         if (east_x==NULL) exit (1);
 320              		.loc 1 51 0 is_stmt 1 discriminator 1
 321 0413 488B8578 		movq	-648(%rbp), %rax
 321      FDFFFF
 322 041a 488B4070 		movq	112(%rax), %rax
 323 041e 4885C0   		testq	%rax, %rax
 324 0421 7511     		jne	.L22
 325 0423 EB05     		jmp	.L128
 326              	.L20:
  50:/home/brendan/Dropbox/PhD/Code/LBM/2D LBFS/src/Mesh.cpp ****     east_x = new double [total_cells +1];
 327              		.loc 1 50 0 discriminator 2
 328 0425 E8000000 		call	__cxa_throw_bad_array_new_length
 328      00
 329              	.L128:
 330              		.loc 1 51 0 discriminator 1
 331 042a BF010000 		movl	$1, %edi
 331      00
 332 042f E8000000 		call	exit
 332      00
GAS LISTING /tmp/ccSpSEFs.s 			page 10


 333              	.L22:
  52:/home/brendan/Dropbox/PhD/Code/LBM/2D LBFS/src/Mesh.cpp ****     east_y = new double [total_cells +1];
 334              		.loc 1 52 0
 335 0434 488B8578 		movq	-648(%rbp), %rax
 335      FDFFFF
 336 043b 8B4010   		movl	16(%rax), %eax
 337 043e 83C001   		addl	$1, %eax
 338 0441 4898     		cltq
 339 0443 48BA0000 		movabsq	$1143914305352105984, %rdx
 339      00000000 
 339      E00F
 340 044d 4839D0   		cmpq	%rdx, %rax
 341 0450 772C     		ja	.L23
 342              		.loc 1 52 0 is_stmt 0 discriminator 1
 343 0452 48C1E003 		salq	$3, %rax
 344 0456 4889C7   		movq	%rax, %rdi
 345 0459 E8000000 		call	_Znam
 345      00
 346 045e 4889C2   		movq	%rax, %rdx
 347 0461 488B8578 		movq	-648(%rbp), %rax
 347      FDFFFF
 348 0468 48895078 		movq	%rdx, 120(%rax)
  53:/home/brendan/Dropbox/PhD/Code/LBM/2D LBFS/src/Mesh.cpp ****         if (east_y==NULL) exit (1);
 349              		.loc 1 53 0 is_stmt 1 discriminator 1
 350 046c 488B8578 		movq	-648(%rbp), %rax
 350      FDFFFF
 351 0473 488B4078 		movq	120(%rax), %rax
 352 0477 4885C0   		testq	%rax, %rax
 353 047a 7511     		jne	.L25
 354 047c EB05     		jmp	.L129
 355              	.L23:
  52:/home/brendan/Dropbox/PhD/Code/LBM/2D LBFS/src/Mesh.cpp ****     east_y = new double [total_cells +1];
 356              		.loc 1 52 0 discriminator 2
 357 047e E8000000 		call	__cxa_throw_bad_array_new_length
 357      00
 358              	.L129:
 359              		.loc 1 53 0 discriminator 1
 360 0483 BF010000 		movl	$1, %edi
 360      00
 361 0488 E8000000 		call	exit
 361      00
 362              	.L25:
  54:/home/brendan/Dropbox/PhD/Code/LBM/2D LBFS/src/Mesh.cpp ****     east_z = new double [total_cells +1];
 363              		.loc 1 54 0
 364 048d 488B8578 		movq	-648(%rbp), %rax
 364      FDFFFF
 365 0494 8B4010   		movl	16(%rax), %eax
 366 0497 83C001   		addl	$1, %eax
 367 049a 4898     		cltq
 368 049c 48BA0000 		movabsq	$1143914305352105984, %rdx
 368      00000000 
 368      E00F
 369 04a6 4839D0   		cmpq	%rdx, %rax
 370 04a9 7732     		ja	.L26
 371              		.loc 1 54 0 is_stmt 0 discriminator 1
 372 04ab 48C1E003 		salq	$3, %rax
 373 04af 4889C7   		movq	%rax, %rdi
GAS LISTING /tmp/ccSpSEFs.s 			page 11


 374 04b2 E8000000 		call	_Znam
 374      00
 375 04b7 4889C2   		movq	%rax, %rdx
 376 04ba 488B8578 		movq	-648(%rbp), %rax
 376      FDFFFF
 377 04c1 48899080 		movq	%rdx, 128(%rax)
 377      000000
  55:/home/brendan/Dropbox/PhD/Code/LBM/2D LBFS/src/Mesh.cpp ****         if (east_z==NULL) exit (1);
 378              		.loc 1 55 0 is_stmt 1 discriminator 1
 379 04c8 488B8578 		movq	-648(%rbp), %rax
 379      FDFFFF
 380 04cf 488B8080 		movq	128(%rax), %rax
 380      000000
 381 04d6 4885C0   		testq	%rax, %rax
 382 04d9 7511     		jne	.L28
 383 04db EB05     		jmp	.L130
 384              	.L26:
  54:/home/brendan/Dropbox/PhD/Code/LBM/2D LBFS/src/Mesh.cpp ****     east_z = new double [total_cells +1];
 385              		.loc 1 54 0 discriminator 2
 386 04dd E8000000 		call	__cxa_throw_bad_array_new_length
 386      00
 387              	.L130:
 388              		.loc 1 55 0 discriminator 1
 389 04e2 BF010000 		movl	$1, %edi
 389      00
 390 04e7 E8000000 		call	exit
 390      00
 391              	.L28:
  56:/home/brendan/Dropbox/PhD/Code/LBM/2D LBFS/src/Mesh.cpp ****     west_x = new double [total_cells +1];
 392              		.loc 1 56 0
 393 04ec 488B8578 		movq	-648(%rbp), %rax
 393      FDFFFF
 394 04f3 8B4010   		movl	16(%rax), %eax
 395 04f6 83C001   		addl	$1, %eax
 396 04f9 4898     		cltq
 397 04fb 48BA0000 		movabsq	$1143914305352105984, %rdx
 397      00000000 
 397      E00F
 398 0505 4839D0   		cmpq	%rdx, %rax
 399 0508 7732     		ja	.L29
 400              		.loc 1 56 0 is_stmt 0 discriminator 1
 401 050a 48C1E003 		salq	$3, %rax
 402 050e 4889C7   		movq	%rax, %rdi
 403 0511 E8000000 		call	_Znam
 403      00
 404 0516 4889C2   		movq	%rax, %rdx
 405 0519 488B8578 		movq	-648(%rbp), %rax
 405      FDFFFF
 406 0520 48899088 		movq	%rdx, 136(%rax)
 406      000000
  57:/home/brendan/Dropbox/PhD/Code/LBM/2D LBFS/src/Mesh.cpp ****         if (west_x==NULL) exit (1);
 407              		.loc 1 57 0 is_stmt 1 discriminator 1
 408 0527 488B8578 		movq	-648(%rbp), %rax
 408      FDFFFF
 409 052e 488B8088 		movq	136(%rax), %rax
 409      000000
 410 0535 4885C0   		testq	%rax, %rax
GAS LISTING /tmp/ccSpSEFs.s 			page 12


 411 0538 7511     		jne	.L31
 412 053a EB05     		jmp	.L131
 413              	.L29:
  56:/home/brendan/Dropbox/PhD/Code/LBM/2D LBFS/src/Mesh.cpp ****     west_x = new double [total_cells +1];
 414              		.loc 1 56 0 discriminator 2
 415 053c E8000000 		call	__cxa_throw_bad_array_new_length
 415      00
 416              	.L131:
 417              		.loc 1 57 0 discriminator 1
 418 0541 BF010000 		movl	$1, %edi
 418      00
 419 0546 E8000000 		call	exit
 419      00
 420              	.L31:
  58:/home/brendan/Dropbox/PhD/Code/LBM/2D LBFS/src/Mesh.cpp ****     west_y = new double [total_cells +1];
 421              		.loc 1 58 0
 422 054b 488B8578 		movq	-648(%rbp), %rax
 422      FDFFFF
 423 0552 8B4010   		movl	16(%rax), %eax
 424 0555 83C001   		addl	$1, %eax
 425 0558 4898     		cltq
 426 055a 48BA0000 		movabsq	$1143914305352105984, %rdx
 426      00000000 
 426      E00F
 427 0564 4839D0   		cmpq	%rdx, %rax
 428 0567 7732     		ja	.L32
 429              		.loc 1 58 0 is_stmt 0 discriminator 1
 430 0569 48C1E003 		salq	$3, %rax
 431 056d 4889C7   		movq	%rax, %rdi
 432 0570 E8000000 		call	_Znam
 432      00
 433 0575 4889C2   		movq	%rax, %rdx
 434 0578 488B8578 		movq	-648(%rbp), %rax
 434      FDFFFF
 435 057f 48899090 		movq	%rdx, 144(%rax)
 435      000000
  59:/home/brendan/Dropbox/PhD/Code/LBM/2D LBFS/src/Mesh.cpp ****         if (west_y==NULL) exit (1);
 436              		.loc 1 59 0 is_stmt 1 discriminator 1
 437 0586 488B8578 		movq	-648(%rbp), %rax
 437      FDFFFF
 438 058d 488B8090 		movq	144(%rax), %rax
 438      000000
 439 0594 4885C0   		testq	%rax, %rax
 440 0597 7511     		jne	.L34
 441 0599 EB05     		jmp	.L132
 442              	.L32:
  58:/home/brendan/Dropbox/PhD/Code/LBM/2D LBFS/src/Mesh.cpp ****     west_y = new double [total_cells +1];
 443              		.loc 1 58 0 discriminator 2
 444 059b E8000000 		call	__cxa_throw_bad_array_new_length
 444      00
 445              	.L132:
 446              		.loc 1 59 0 discriminator 1
 447 05a0 BF010000 		movl	$1, %edi
 447      00
 448 05a5 E8000000 		call	exit
 448      00
 449              	.L34:
GAS LISTING /tmp/ccSpSEFs.s 			page 13


  60:/home/brendan/Dropbox/PhD/Code/LBM/2D LBFS/src/Mesh.cpp ****     west_z = new double [total_cells +1];
 450              		.loc 1 60 0
 451 05aa 488B8578 		movq	-648(%rbp), %rax
 451      FDFFFF
 452 05b1 8B4010   		movl	16(%rax), %eax
 453 05b4 83C001   		addl	$1, %eax
 454 05b7 4898     		cltq
 455 05b9 48BA0000 		movabsq	$1143914305352105984, %rdx
 455      00000000 
 455      E00F
 456 05c3 4839D0   		cmpq	%rdx, %rax
 457 05c6 7732     		ja	.L35
 458              		.loc 1 60 0 is_stmt 0 discriminator 1
 459 05c8 48C1E003 		salq	$3, %rax
 460 05cc 4889C7   		movq	%rax, %rdi
 461 05cf E8000000 		call	_Znam
 461      00
 462 05d4 4889C2   		movq	%rax, %rdx
 463 05d7 488B8578 		movq	-648(%rbp), %rax
 463      FDFFFF
 464 05de 48899098 		movq	%rdx, 152(%rax)
 464      000000
  61:/home/brendan/Dropbox/PhD/Code/LBM/2D LBFS/src/Mesh.cpp ****         if (west_z==NULL) exit (1);
 465              		.loc 1 61 0 is_stmt 1 discriminator 1
 466 05e5 488B8578 		movq	-648(%rbp), %rax
 466      FDFFFF
 467 05ec 488B8098 		movq	152(%rax), %rax
 467      000000
 468 05f3 4885C0   		testq	%rax, %rax
 469 05f6 7511     		jne	.L37
 470 05f8 EB05     		jmp	.L133
 471              	.L35:
  60:/home/brendan/Dropbox/PhD/Code/LBM/2D LBFS/src/Mesh.cpp ****     west_z = new double [total_cells +1];
 472              		.loc 1 60 0 discriminator 2
 473 05fa E8000000 		call	__cxa_throw_bad_array_new_length
 473      00
 474              	.L133:
 475              		.loc 1 61 0 discriminator 1
 476 05ff BF010000 		movl	$1, %edi
 476      00
 477 0604 E8000000 		call	exit
 477      00
 478              	.L37:
  62:/home/brendan/Dropbox/PhD/Code/LBM/2D LBFS/src/Mesh.cpp ****     south_x = new double [total_cells +1];
 479              		.loc 1 62 0
 480 0609 488B8578 		movq	-648(%rbp), %rax
 480      FDFFFF
 481 0610 8B4010   		movl	16(%rax), %eax
 482 0613 83C001   		addl	$1, %eax
 483 0616 4898     		cltq
 484 0618 48BA0000 		movabsq	$1143914305352105984, %rdx
 484      00000000 
 484      E00F
 485 0622 4839D0   		cmpq	%rdx, %rax
 486 0625 7732     		ja	.L38
 487              		.loc 1 62 0 is_stmt 0 discriminator 1
 488 0627 48C1E003 		salq	$3, %rax
GAS LISTING /tmp/ccSpSEFs.s 			page 14


 489 062b 4889C7   		movq	%rax, %rdi
 490 062e E8000000 		call	_Znam
 490      00
 491 0633 4889C2   		movq	%rax, %rdx
 492 0636 488B8578 		movq	-648(%rbp), %rax
 492      FDFFFF
 493 063d 488990A0 		movq	%rdx, 160(%rax)
 493      000000
  63:/home/brendan/Dropbox/PhD/Code/LBM/2D LBFS/src/Mesh.cpp ****         if (south_x==NULL) exit (1);
 494              		.loc 1 63 0 is_stmt 1 discriminator 1
 495 0644 488B8578 		movq	-648(%rbp), %rax
 495      FDFFFF
 496 064b 488B80A0 		movq	160(%rax), %rax
 496      000000
 497 0652 4885C0   		testq	%rax, %rax
 498 0655 7511     		jne	.L40
 499 0657 EB05     		jmp	.L134
 500              	.L38:
  62:/home/brendan/Dropbox/PhD/Code/LBM/2D LBFS/src/Mesh.cpp ****     south_x = new double [total_cells +1];
 501              		.loc 1 62 0 discriminator 2
 502 0659 E8000000 		call	__cxa_throw_bad_array_new_length
 502      00
 503              	.L134:
 504              		.loc 1 63 0 discriminator 1
 505 065e BF010000 		movl	$1, %edi
 505      00
 506 0663 E8000000 		call	exit
 506      00
 507              	.L40:
  64:/home/brendan/Dropbox/PhD/Code/LBM/2D LBFS/src/Mesh.cpp ****     south_y = new double [total_cells +1];
 508              		.loc 1 64 0
 509 0668 488B8578 		movq	-648(%rbp), %rax
 509      FDFFFF
 510 066f 8B4010   		movl	16(%rax), %eax
 511 0672 83C001   		addl	$1, %eax
 512 0675 4898     		cltq
 513 0677 48BA0000 		movabsq	$1143914305352105984, %rdx
 513      00000000 
 513      E00F
 514 0681 4839D0   		cmpq	%rdx, %rax
 515 0684 7732     		ja	.L41
 516              		.loc 1 64 0 is_stmt 0 discriminator 1
 517 0686 48C1E003 		salq	$3, %rax
 518 068a 4889C7   		movq	%rax, %rdi
 519 068d E8000000 		call	_Znam
 519      00
 520 0692 4889C2   		movq	%rax, %rdx
 521 0695 488B8578 		movq	-648(%rbp), %rax
 521      FDFFFF
 522 069c 488990A8 		movq	%rdx, 168(%rax)
 522      000000
  65:/home/brendan/Dropbox/PhD/Code/LBM/2D LBFS/src/Mesh.cpp ****         if (south_y==NULL) exit (1);
 523              		.loc 1 65 0 is_stmt 1 discriminator 1
 524 06a3 488B8578 		movq	-648(%rbp), %rax
 524      FDFFFF
 525 06aa 488B80A8 		movq	168(%rax), %rax
 525      000000
GAS LISTING /tmp/ccSpSEFs.s 			page 15


 526 06b1 4885C0   		testq	%rax, %rax
 527 06b4 7511     		jne	.L43
 528 06b6 EB05     		jmp	.L135
 529              	.L41:
  64:/home/brendan/Dropbox/PhD/Code/LBM/2D LBFS/src/Mesh.cpp ****     south_y = new double [total_cells +1];
 530              		.loc 1 64 0 discriminator 2
 531 06b8 E8000000 		call	__cxa_throw_bad_array_new_length
 531      00
 532              	.L135:
 533              		.loc 1 65 0 discriminator 1
 534 06bd BF010000 		movl	$1, %edi
 534      00
 535 06c2 E8000000 		call	exit
 535      00
 536              	.L43:
  66:/home/brendan/Dropbox/PhD/Code/LBM/2D LBFS/src/Mesh.cpp ****     south_z = new double [total_cells +1];
 537              		.loc 1 66 0
 538 06c7 488B8578 		movq	-648(%rbp), %rax
 538      FDFFFF
 539 06ce 8B4010   		movl	16(%rax), %eax
 540 06d1 83C001   		addl	$1, %eax
 541 06d4 4898     		cltq
 542 06d6 48BA0000 		movabsq	$1143914305352105984, %rdx
 542      00000000 
 542      E00F
 543 06e0 4839D0   		cmpq	%rdx, %rax
 544 06e3 7732     		ja	.L44
 545              		.loc 1 66 0 is_stmt 0 discriminator 1
 546 06e5 48C1E003 		salq	$3, %rax
 547 06e9 4889C7   		movq	%rax, %rdi
 548 06ec E8000000 		call	_Znam
 548      00
 549 06f1 4889C2   		movq	%rax, %rdx
 550 06f4 488B8578 		movq	-648(%rbp), %rax
 550      FDFFFF
 551 06fb 488990B0 		movq	%rdx, 176(%rax)
 551      000000
  67:/home/brendan/Dropbox/PhD/Code/LBM/2D LBFS/src/Mesh.cpp ****         if (south_z==NULL) exit (1);
 552              		.loc 1 67 0 is_stmt 1 discriminator 1
 553 0702 488B8578 		movq	-648(%rbp), %rax
 553      FDFFFF
 554 0709 488B80B0 		movq	176(%rax), %rax
 554      000000
 555 0710 4885C0   		testq	%rax, %rax
 556 0713 7511     		jne	.L46
 557 0715 EB05     		jmp	.L136
 558              	.L44:
  66:/home/brendan/Dropbox/PhD/Code/LBM/2D LBFS/src/Mesh.cpp ****     south_z = new double [total_cells +1];
 559              		.loc 1 66 0 discriminator 2
 560 0717 E8000000 		call	__cxa_throw_bad_array_new_length
 560      00
 561              	.L136:
 562              		.loc 1 67 0 discriminator 1
 563 071c BF010000 		movl	$1, %edi
 563      00
 564 0721 E8000000 		call	exit
 564      00
GAS LISTING /tmp/ccSpSEFs.s 			page 16


 565              	.L46:
  68:/home/brendan/Dropbox/PhD/Code/LBM/2D LBFS/src/Mesh.cpp **** 
  69:/home/brendan/Dropbox/PhD/Code/LBM/2D LBFS/src/Mesh.cpp ****     n_area = new double [total_cells +1];
 566              		.loc 1 69 0
 567 0726 488B8578 		movq	-648(%rbp), %rax
 567      FDFFFF
 568 072d 8B4010   		movl	16(%rax), %eax
 569 0730 83C001   		addl	$1, %eax
 570 0733 4898     		cltq
 571 0735 48BA0000 		movabsq	$1143914305352105984, %rdx
 571      00000000 
 571      E00F
 572 073f 4839D0   		cmpq	%rdx, %rax
 573 0742 7732     		ja	.L47
 574              		.loc 1 69 0 is_stmt 0 discriminator 1
 575 0744 48C1E003 		salq	$3, %rax
 576 0748 4889C7   		movq	%rax, %rdi
 577 074b E8000000 		call	_Znam
 577      00
 578 0750 4889C2   		movq	%rax, %rdx
 579 0753 488B8578 		movq	-648(%rbp), %rax
 579      FDFFFF
 580 075a 488990B8 		movq	%rdx, 184(%rax)
 580      000000
  70:/home/brendan/Dropbox/PhD/Code/LBM/2D LBFS/src/Mesh.cpp ****         if (n_area==NULL) exit (1);
 581              		.loc 1 70 0 is_stmt 1 discriminator 1
 582 0761 488B8578 		movq	-648(%rbp), %rax
 582      FDFFFF
 583 0768 488B80B8 		movq	184(%rax), %rax
 583      000000
 584 076f 4885C0   		testq	%rax, %rax
 585 0772 7511     		jne	.L49
 586 0774 EB05     		jmp	.L137
 587              	.L47:
  69:/home/brendan/Dropbox/PhD/Code/LBM/2D LBFS/src/Mesh.cpp ****         if (n_area==NULL) exit (1);
 588              		.loc 1 69 0 discriminator 2
 589 0776 E8000000 		call	__cxa_throw_bad_array_new_length
 589      00
 590              	.L137:
 591              		.loc 1 70 0 discriminator 1
 592 077b BF010000 		movl	$1, %edi
 592      00
 593 0780 E8000000 		call	exit
 593      00
 594              	.L49:
  71:/home/brendan/Dropbox/PhD/Code/LBM/2D LBFS/src/Mesh.cpp ****     s_area = new double [total_cells +1];
 595              		.loc 1 71 0
 596 0785 488B8578 		movq	-648(%rbp), %rax
 596      FDFFFF
 597 078c 8B4010   		movl	16(%rax), %eax
 598 078f 83C001   		addl	$1, %eax
 599 0792 4898     		cltq
 600 0794 48BA0000 		movabsq	$1143914305352105984, %rdx
 600      00000000 
 600      E00F
 601 079e 4839D0   		cmpq	%rdx, %rax
 602 07a1 7732     		ja	.L50
GAS LISTING /tmp/ccSpSEFs.s 			page 17


 603              		.loc 1 71 0 is_stmt 0 discriminator 1
 604 07a3 48C1E003 		salq	$3, %rax
 605 07a7 4889C7   		movq	%rax, %rdi
 606 07aa E8000000 		call	_Znam
 606      00
 607 07af 4889C2   		movq	%rax, %rdx
 608 07b2 488B8578 		movq	-648(%rbp), %rax
 608      FDFFFF
 609 07b9 488990C0 		movq	%rdx, 192(%rax)
 609      000000
  72:/home/brendan/Dropbox/PhD/Code/LBM/2D LBFS/src/Mesh.cpp ****         if (s_area==NULL) exit (1);
 610              		.loc 1 72 0 is_stmt 1 discriminator 1
 611 07c0 488B8578 		movq	-648(%rbp), %rax
 611      FDFFFF
 612 07c7 488B80C0 		movq	192(%rax), %rax
 612      000000
 613 07ce 4885C0   		testq	%rax, %rax
 614 07d1 7511     		jne	.L52
 615 07d3 EB05     		jmp	.L138
 616              	.L50:
  71:/home/brendan/Dropbox/PhD/Code/LBM/2D LBFS/src/Mesh.cpp ****     s_area = new double [total_cells +1];
 617              		.loc 1 71 0 discriminator 2
 618 07d5 E8000000 		call	__cxa_throw_bad_array_new_length
 618      00
 619              	.L138:
 620              		.loc 1 72 0 discriminator 1
 621 07da BF010000 		movl	$1, %edi
 621      00
 622 07df E8000000 		call	exit
 622      00
 623              	.L52:
  73:/home/brendan/Dropbox/PhD/Code/LBM/2D LBFS/src/Mesh.cpp ****     w_area = new double [total_cells +1];
 624              		.loc 1 73 0
 625 07e4 488B8578 		movq	-648(%rbp), %rax
 625      FDFFFF
 626 07eb 8B4010   		movl	16(%rax), %eax
 627 07ee 83C001   		addl	$1, %eax
 628 07f1 4898     		cltq
 629 07f3 48BA0000 		movabsq	$1143914305352105984, %rdx
 629      00000000 
 629      E00F
 630 07fd 4839D0   		cmpq	%rdx, %rax
 631 0800 7732     		ja	.L53
 632              		.loc 1 73 0 is_stmt 0 discriminator 1
 633 0802 48C1E003 		salq	$3, %rax
 634 0806 4889C7   		movq	%rax, %rdi
 635 0809 E8000000 		call	_Znam
 635      00
 636 080e 4889C2   		movq	%rax, %rdx
 637 0811 488B8578 		movq	-648(%rbp), %rax
 637      FDFFFF
 638 0818 488990C8 		movq	%rdx, 200(%rax)
 638      000000
  74:/home/brendan/Dropbox/PhD/Code/LBM/2D LBFS/src/Mesh.cpp ****         if (w_area==NULL) exit (1);
 639              		.loc 1 74 0 is_stmt 1 discriminator 1
 640 081f 488B8578 		movq	-648(%rbp), %rax
 640      FDFFFF
GAS LISTING /tmp/ccSpSEFs.s 			page 18


 641 0826 488B80C8 		movq	200(%rax), %rax
 641      000000
 642 082d 4885C0   		testq	%rax, %rax
 643 0830 7511     		jne	.L55
 644 0832 EB05     		jmp	.L139
 645              	.L53:
  73:/home/brendan/Dropbox/PhD/Code/LBM/2D LBFS/src/Mesh.cpp ****     w_area = new double [total_cells +1];
 646              		.loc 1 73 0 discriminator 2
 647 0834 E8000000 		call	__cxa_throw_bad_array_new_length
 647      00
 648              	.L139:
 649              		.loc 1 74 0 discriminator 1
 650 0839 BF010000 		movl	$1, %edi
 650      00
 651 083e E8000000 		call	exit
 651      00
 652              	.L55:
  75:/home/brendan/Dropbox/PhD/Code/LBM/2D LBFS/src/Mesh.cpp ****     e_area = new double [total_cells +1];
 653              		.loc 1 75 0
 654 0843 488B8578 		movq	-648(%rbp), %rax
 654      FDFFFF
 655 084a 8B4010   		movl	16(%rax), %eax
 656 084d 83C001   		addl	$1, %eax
 657 0850 4898     		cltq
 658 0852 48BA0000 		movabsq	$1143914305352105984, %rdx
 658      00000000 
 658      E00F
 659 085c 4839D0   		cmpq	%rdx, %rax
 660 085f 7732     		ja	.L56
 661              		.loc 1 75 0 is_stmt 0 discriminator 1
 662 0861 48C1E003 		salq	$3, %rax
 663 0865 4889C7   		movq	%rax, %rdi
 664 0868 E8000000 		call	_Znam
 664      00
 665 086d 4889C2   		movq	%rax, %rdx
 666 0870 488B8578 		movq	-648(%rbp), %rax
 666      FDFFFF
 667 0877 488990D0 		movq	%rdx, 208(%rax)
 667      000000
  76:/home/brendan/Dropbox/PhD/Code/LBM/2D LBFS/src/Mesh.cpp ****         if (e_area==NULL) exit (1);
 668              		.loc 1 76 0 is_stmt 1 discriminator 1
 669 087e 488B8578 		movq	-648(%rbp), %rax
 669      FDFFFF
 670 0885 488B80D0 		movq	208(%rax), %rax
 670      000000
 671 088c 4885C0   		testq	%rax, %rax
 672 088f 7511     		jne	.L58
 673 0891 EB05     		jmp	.L140
 674              	.L56:
  75:/home/brendan/Dropbox/PhD/Code/LBM/2D LBFS/src/Mesh.cpp ****     e_area = new double [total_cells +1];
 675              		.loc 1 75 0 discriminator 2
 676 0893 E8000000 		call	__cxa_throw_bad_array_new_length
 676      00
 677              	.L140:
 678              		.loc 1 76 0 discriminator 1
 679 0898 BF010000 		movl	$1, %edi
 679      00
GAS LISTING /tmp/ccSpSEFs.s 			page 19


 680 089d E8000000 		call	exit
 680      00
 681              	.L58:
  77:/home/brendan/Dropbox/PhD/Code/LBM/2D LBFS/src/Mesh.cpp **** 
  78:/home/brendan/Dropbox/PhD/Code/LBM/2D LBFS/src/Mesh.cpp ****     cell_volume = new double [total_cells +1];
 682              		.loc 1 78 0
 683 08a2 488B8578 		movq	-648(%rbp), %rax
 683      FDFFFF
 684 08a9 8B4010   		movl	16(%rax), %eax
 685 08ac 83C001   		addl	$1, %eax
 686 08af 4898     		cltq
 687 08b1 48BA0000 		movabsq	$1143914305352105984, %rdx
 687      00000000 
 687      E00F
 688 08bb 4839D0   		cmpq	%rdx, %rax
 689 08be 7732     		ja	.L59
 690              		.loc 1 78 0 is_stmt 0 discriminator 1
 691 08c0 48C1E003 		salq	$3, %rax
 692 08c4 4889C7   		movq	%rax, %rdi
 693 08c7 E8000000 		call	_Znam
 693      00
 694 08cc 4889C2   		movq	%rax, %rdx
 695 08cf 488B8578 		movq	-648(%rbp), %rax
 695      FDFFFF
 696 08d6 488990D8 		movq	%rdx, 216(%rax)
 696      000000
  79:/home/brendan/Dropbox/PhD/Code/LBM/2D LBFS/src/Mesh.cpp ****         if (cell_volume==NULL) exit (1);
 697              		.loc 1 79 0 is_stmt 1 discriminator 1
 698 08dd 488B8578 		movq	-648(%rbp), %rax
 698      FDFFFF
 699 08e4 488B80D8 		movq	216(%rax), %rax
 699      000000
 700 08eb 4885C0   		testq	%rax, %rax
 701 08ee 7511     		jne	.L61
 702 08f0 EB05     		jmp	.L141
 703              	.L59:
  78:/home/brendan/Dropbox/PhD/Code/LBM/2D LBFS/src/Mesh.cpp ****         if (cell_volume==NULL) exit (1);
 704              		.loc 1 78 0 discriminator 2
 705 08f2 E8000000 		call	__cxa_throw_bad_array_new_length
 705      00
 706              	.L141:
 707              		.loc 1 79 0 discriminator 1
 708 08f7 BF010000 		movl	$1, %edi
 708      00
 709 08fc E8000000 		call	exit
 709      00
 710              	.L61:
  80:/home/brendan/Dropbox/PhD/Code/LBM/2D LBFS/src/Mesh.cpp **** 
  81:/home/brendan/Dropbox/PhD/Code/LBM/2D LBFS/src/Mesh.cpp **** 
  82:/home/brendan/Dropbox/PhD/Code/LBM/2D LBFS/src/Mesh.cpp ****     n_i = new double [total_cells +1];
 711              		.loc 1 82 0
 712 0901 488B8578 		movq	-648(%rbp), %rax
 712      FDFFFF
 713 0908 8B4010   		movl	16(%rax), %eax
 714 090b 83C001   		addl	$1, %eax
 715 090e 4898     		cltq
 716 0910 48BA0000 		movabsq	$1143914305352105984, %rdx
GAS LISTING /tmp/ccSpSEFs.s 			page 20


 716      00000000 
 716      E00F
 717 091a 4839D0   		cmpq	%rdx, %rax
 718 091d 7732     		ja	.L62
 719              		.loc 1 82 0 is_stmt 0 discriminator 1
 720 091f 48C1E003 		salq	$3, %rax
 721 0923 4889C7   		movq	%rax, %rdi
 722 0926 E8000000 		call	_Znam
 722      00
 723 092b 4889C2   		movq	%rax, %rdx
 724 092e 488B8578 		movq	-648(%rbp), %rax
 724      FDFFFF
 725 0935 488990E8 		movq	%rdx, 232(%rax)
 725      000000
  83:/home/brendan/Dropbox/PhD/Code/LBM/2D LBFS/src/Mesh.cpp ****         if (n_i==NULL) exit (1);
 726              		.loc 1 83 0 is_stmt 1 discriminator 1
 727 093c 488B8578 		movq	-648(%rbp), %rax
 727      FDFFFF
 728 0943 488B80E8 		movq	232(%rax), %rax
 728      000000
 729 094a 4885C0   		testq	%rax, %rax
 730 094d 7511     		jne	.L64
 731 094f EB05     		jmp	.L142
 732              	.L62:
  82:/home/brendan/Dropbox/PhD/Code/LBM/2D LBFS/src/Mesh.cpp ****         if (n_i==NULL) exit (1);
 733              		.loc 1 82 0 discriminator 2
 734 0951 E8000000 		call	__cxa_throw_bad_array_new_length
 734      00
 735              	.L142:
 736              		.loc 1 83 0 discriminator 1
 737 0956 BF010000 		movl	$1, %edi
 737      00
 738 095b E8000000 		call	exit
 738      00
 739              	.L64:
  84:/home/brendan/Dropbox/PhD/Code/LBM/2D LBFS/src/Mesh.cpp ****     n_j = new double [total_cells +1];
 740              		.loc 1 84 0
 741 0960 488B8578 		movq	-648(%rbp), %rax
 741      FDFFFF
 742 0967 8B4010   		movl	16(%rax), %eax
 743 096a 83C001   		addl	$1, %eax
 744 096d 4898     		cltq
 745 096f 48BA0000 		movabsq	$1143914305352105984, %rdx
 745      00000000 
 745      E00F
 746 0979 4839D0   		cmpq	%rdx, %rax
 747 097c 7732     		ja	.L65
 748              		.loc 1 84 0 is_stmt 0 discriminator 1
 749 097e 48C1E003 		salq	$3, %rax
 750 0982 4889C7   		movq	%rax, %rdi
 751 0985 E8000000 		call	_Znam
 751      00
 752 098a 4889C2   		movq	%rax, %rdx
 753 098d 488B8578 		movq	-648(%rbp), %rax
 753      FDFFFF
 754 0994 488990F0 		movq	%rdx, 240(%rax)
 754      000000
GAS LISTING /tmp/ccSpSEFs.s 			page 21


  85:/home/brendan/Dropbox/PhD/Code/LBM/2D LBFS/src/Mesh.cpp ****         if (n_j==NULL) exit (1);
 755              		.loc 1 85 0 is_stmt 1 discriminator 1
 756 099b 488B8578 		movq	-648(%rbp), %rax
 756      FDFFFF
 757 09a2 488B80F0 		movq	240(%rax), %rax
 757      000000
 758 09a9 4885C0   		testq	%rax, %rax
 759 09ac 7511     		jne	.L67
 760 09ae EB05     		jmp	.L143
 761              	.L65:
  84:/home/brendan/Dropbox/PhD/Code/LBM/2D LBFS/src/Mesh.cpp ****     n_j = new double [total_cells +1];
 762              		.loc 1 84 0 discriminator 2
 763 09b0 E8000000 		call	__cxa_throw_bad_array_new_length
 763      00
 764              	.L143:
 765              		.loc 1 85 0 discriminator 1
 766 09b5 BF010000 		movl	$1, %edi
 766      00
 767 09ba E8000000 		call	exit
 767      00
 768              	.L67:
  86:/home/brendan/Dropbox/PhD/Code/LBM/2D LBFS/src/Mesh.cpp ****     n_k = new double [total_cells +1];
 769              		.loc 1 86 0
 770 09bf 488B8578 		movq	-648(%rbp), %rax
 770      FDFFFF
 771 09c6 8B4010   		movl	16(%rax), %eax
 772 09c9 83C001   		addl	$1, %eax
 773 09cc 4898     		cltq
 774 09ce 48BA0000 		movabsq	$1143914305352105984, %rdx
 774      00000000 
 774      E00F
 775 09d8 4839D0   		cmpq	%rdx, %rax
 776 09db 7732     		ja	.L68
 777              		.loc 1 86 0 is_stmt 0 discriminator 1
 778 09dd 48C1E003 		salq	$3, %rax
 779 09e1 4889C7   		movq	%rax, %rdi
 780 09e4 E8000000 		call	_Znam
 780      00
 781 09e9 4889C2   		movq	%rax, %rdx
 782 09ec 488B8578 		movq	-648(%rbp), %rax
 782      FDFFFF
 783 09f3 488990F8 		movq	%rdx, 248(%rax)
 783      000000
  87:/home/brendan/Dropbox/PhD/Code/LBM/2D LBFS/src/Mesh.cpp ****         if (n_k==NULL) exit (1);
 784              		.loc 1 87 0 is_stmt 1 discriminator 1
 785 09fa 488B8578 		movq	-648(%rbp), %rax
 785      FDFFFF
 786 0a01 488B80F8 		movq	248(%rax), %rax
 786      000000
 787 0a08 4885C0   		testq	%rax, %rax
 788 0a0b 7511     		jne	.L70
 789 0a0d EB05     		jmp	.L144
 790              	.L68:
  86:/home/brendan/Dropbox/PhD/Code/LBM/2D LBFS/src/Mesh.cpp ****     n_k = new double [total_cells +1];
 791              		.loc 1 86 0 discriminator 2
 792 0a0f E8000000 		call	__cxa_throw_bad_array_new_length
 792      00
GAS LISTING /tmp/ccSpSEFs.s 			page 22


 793              	.L144:
 794              		.loc 1 87 0 discriminator 1
 795 0a14 BF010000 		movl	$1, %edi
 795      00
 796 0a19 E8000000 		call	exit
 796      00
 797              	.L70:
  88:/home/brendan/Dropbox/PhD/Code/LBM/2D LBFS/src/Mesh.cpp ****      e_i = new double [total_cells +1];
 798              		.loc 1 88 0
 799 0a1e 488B8578 		movq	-648(%rbp), %rax
 799      FDFFFF
 800 0a25 8B4010   		movl	16(%rax), %eax
 801 0a28 83C001   		addl	$1, %eax
 802 0a2b 4898     		cltq
 803 0a2d 48BA0000 		movabsq	$1143914305352105984, %rdx
 803      00000000 
 803      E00F
 804 0a37 4839D0   		cmpq	%rdx, %rax
 805 0a3a 7732     		ja	.L71
 806              		.loc 1 88 0 is_stmt 0 discriminator 1
 807 0a3c 48C1E003 		salq	$3, %rax
 808 0a40 4889C7   		movq	%rax, %rdi
 809 0a43 E8000000 		call	_Znam
 809      00
 810 0a48 4889C2   		movq	%rax, %rdx
 811 0a4b 488B8578 		movq	-648(%rbp), %rax
 811      FDFFFF
 812 0a52 48899030 		movq	%rdx, 304(%rax)
 812      010000
  89:/home/brendan/Dropbox/PhD/Code/LBM/2D LBFS/src/Mesh.cpp ****         if (e_i==NULL) exit (1);
 813              		.loc 1 89 0 is_stmt 1 discriminator 1
 814 0a59 488B8578 		movq	-648(%rbp), %rax
 814      FDFFFF
 815 0a60 488B8030 		movq	304(%rax), %rax
 815      010000
 816 0a67 4885C0   		testq	%rax, %rax
 817 0a6a 7511     		jne	.L73
 818 0a6c EB05     		jmp	.L145
 819              	.L71:
  88:/home/brendan/Dropbox/PhD/Code/LBM/2D LBFS/src/Mesh.cpp ****      e_i = new double [total_cells +1];
 820              		.loc 1 88 0 discriminator 2
 821 0a6e E8000000 		call	__cxa_throw_bad_array_new_length
 821      00
 822              	.L145:
 823              		.loc 1 89 0 discriminator 1
 824 0a73 BF010000 		movl	$1, %edi
 824      00
 825 0a78 E8000000 		call	exit
 825      00
 826              	.L73:
  90:/home/brendan/Dropbox/PhD/Code/LBM/2D LBFS/src/Mesh.cpp ****     e_j = new double [total_cells +1];
 827              		.loc 1 90 0
 828 0a7d 488B8578 		movq	-648(%rbp), %rax
 828      FDFFFF
 829 0a84 8B4010   		movl	16(%rax), %eax
 830 0a87 83C001   		addl	$1, %eax
 831 0a8a 4898     		cltq
GAS LISTING /tmp/ccSpSEFs.s 			page 23


 832 0a8c 48BA0000 		movabsq	$1143914305352105984, %rdx
 832      00000000 
 832      E00F
 833 0a96 4839D0   		cmpq	%rdx, %rax
 834 0a99 7732     		ja	.L74
 835              		.loc 1 90 0 is_stmt 0 discriminator 1
 836 0a9b 48C1E003 		salq	$3, %rax
 837 0a9f 4889C7   		movq	%rax, %rdi
 838 0aa2 E8000000 		call	_Znam
 838      00
 839 0aa7 4889C2   		movq	%rax, %rdx
 840 0aaa 488B8578 		movq	-648(%rbp), %rax
 840      FDFFFF
 841 0ab1 48899038 		movq	%rdx, 312(%rax)
 841      010000
  91:/home/brendan/Dropbox/PhD/Code/LBM/2D LBFS/src/Mesh.cpp ****         if (e_j==NULL) exit (1);
 842              		.loc 1 91 0 is_stmt 1 discriminator 1
 843 0ab8 488B8578 		movq	-648(%rbp), %rax
 843      FDFFFF
 844 0abf 488B8038 		movq	312(%rax), %rax
 844      010000
 845 0ac6 4885C0   		testq	%rax, %rax
 846 0ac9 7511     		jne	.L76
 847 0acb EB05     		jmp	.L146
 848              	.L74:
  90:/home/brendan/Dropbox/PhD/Code/LBM/2D LBFS/src/Mesh.cpp ****     e_j = new double [total_cells +1];
 849              		.loc 1 90 0 discriminator 2
 850 0acd E8000000 		call	__cxa_throw_bad_array_new_length
 850      00
 851              	.L146:
 852              		.loc 1 91 0 discriminator 1
 853 0ad2 BF010000 		movl	$1, %edi
 853      00
 854 0ad7 E8000000 		call	exit
 854      00
 855              	.L76:
  92:/home/brendan/Dropbox/PhD/Code/LBM/2D LBFS/src/Mesh.cpp ****     e_k = new double [total_cells +1];
 856              		.loc 1 92 0
 857 0adc 488B8578 		movq	-648(%rbp), %rax
 857      FDFFFF
 858 0ae3 8B4010   		movl	16(%rax), %eax
 859 0ae6 83C001   		addl	$1, %eax
 860 0ae9 4898     		cltq
 861 0aeb 48BA0000 		movabsq	$1143914305352105984, %rdx
 861      00000000 
 861      E00F
 862 0af5 4839D0   		cmpq	%rdx, %rax
 863 0af8 7732     		ja	.L77
 864              		.loc 1 92 0 is_stmt 0 discriminator 1
 865 0afa 48C1E003 		salq	$3, %rax
 866 0afe 4889C7   		movq	%rax, %rdi
 867 0b01 E8000000 		call	_Znam
 867      00
 868 0b06 4889C2   		movq	%rax, %rdx
 869 0b09 488B8578 		movq	-648(%rbp), %rax
 869      FDFFFF
 870 0b10 48899040 		movq	%rdx, 320(%rax)
GAS LISTING /tmp/ccSpSEFs.s 			page 24


 870      010000
  93:/home/brendan/Dropbox/PhD/Code/LBM/2D LBFS/src/Mesh.cpp ****         if (e_k==NULL) exit (1);
 871              		.loc 1 93 0 is_stmt 1 discriminator 1
 872 0b17 488B8578 		movq	-648(%rbp), %rax
 872      FDFFFF
 873 0b1e 488B8040 		movq	320(%rax), %rax
 873      010000
 874 0b25 4885C0   		testq	%rax, %rax
 875 0b28 7511     		jne	.L79
 876 0b2a EB05     		jmp	.L147
 877              	.L77:
  92:/home/brendan/Dropbox/PhD/Code/LBM/2D LBFS/src/Mesh.cpp ****     e_k = new double [total_cells +1];
 878              		.loc 1 92 0 discriminator 2
 879 0b2c E8000000 		call	__cxa_throw_bad_array_new_length
 879      00
 880              	.L147:
 881              		.loc 1 93 0 discriminator 1
 882 0b31 BF010000 		movl	$1, %edi
 882      00
 883 0b36 E8000000 		call	exit
 883      00
 884              	.L79:
  94:/home/brendan/Dropbox/PhD/Code/LBM/2D LBFS/src/Mesh.cpp ****      w_i = new double [total_cells +1];
 885              		.loc 1 94 0
 886 0b3b 488B8578 		movq	-648(%rbp), %rax
 886      FDFFFF
 887 0b42 8B4010   		movl	16(%rax), %eax
 888 0b45 83C001   		addl	$1, %eax
 889 0b48 4898     		cltq
 890 0b4a 48BA0000 		movabsq	$1143914305352105984, %rdx
 890      00000000 
 890      E00F
 891 0b54 4839D0   		cmpq	%rdx, %rax
 892 0b57 7732     		ja	.L80
 893              		.loc 1 94 0 is_stmt 0 discriminator 1
 894 0b59 48C1E003 		salq	$3, %rax
 895 0b5d 4889C7   		movq	%rax, %rdi
 896 0b60 E8000000 		call	_Znam
 896      00
 897 0b65 4889C2   		movq	%rax, %rdx
 898 0b68 488B8578 		movq	-648(%rbp), %rax
 898      FDFFFF
 899 0b6f 48899018 		movq	%rdx, 280(%rax)
 899      010000
  95:/home/brendan/Dropbox/PhD/Code/LBM/2D LBFS/src/Mesh.cpp ****         if (w_i==NULL) exit (1);
 900              		.loc 1 95 0 is_stmt 1 discriminator 1
 901 0b76 488B8578 		movq	-648(%rbp), %rax
 901      FDFFFF
 902 0b7d 488B8018 		movq	280(%rax), %rax
 902      010000
 903 0b84 4885C0   		testq	%rax, %rax
 904 0b87 7511     		jne	.L82
 905 0b89 EB05     		jmp	.L148
 906              	.L80:
  94:/home/brendan/Dropbox/PhD/Code/LBM/2D LBFS/src/Mesh.cpp ****      w_i = new double [total_cells +1];
 907              		.loc 1 94 0 discriminator 2
 908 0b8b E8000000 		call	__cxa_throw_bad_array_new_length
GAS LISTING /tmp/ccSpSEFs.s 			page 25


 908      00
 909              	.L148:
 910              		.loc 1 95 0 discriminator 1
 911 0b90 BF010000 		movl	$1, %edi
 911      00
 912 0b95 E8000000 		call	exit
 912      00
 913              	.L82:
  96:/home/brendan/Dropbox/PhD/Code/LBM/2D LBFS/src/Mesh.cpp ****     w_j = new double [total_cells +1];
 914              		.loc 1 96 0
 915 0b9a 488B8578 		movq	-648(%rbp), %rax
 915      FDFFFF
 916 0ba1 8B4010   		movl	16(%rax), %eax
 917 0ba4 83C001   		addl	$1, %eax
 918 0ba7 4898     		cltq
 919 0ba9 48BA0000 		movabsq	$1143914305352105984, %rdx
 919      00000000 
 919      E00F
 920 0bb3 4839D0   		cmpq	%rdx, %rax
 921 0bb6 7732     		ja	.L83
 922              		.loc 1 96 0 is_stmt 0 discriminator 1
 923 0bb8 48C1E003 		salq	$3, %rax
 924 0bbc 4889C7   		movq	%rax, %rdi
 925 0bbf E8000000 		call	_Znam
 925      00
 926 0bc4 4889C2   		movq	%rax, %rdx
 927 0bc7 488B8578 		movq	-648(%rbp), %rax
 927      FDFFFF
 928 0bce 48899020 		movq	%rdx, 288(%rax)
 928      010000
  97:/home/brendan/Dropbox/PhD/Code/LBM/2D LBFS/src/Mesh.cpp ****         if (w_j==NULL) exit (1);
 929              		.loc 1 97 0 is_stmt 1 discriminator 1
 930 0bd5 488B8578 		movq	-648(%rbp), %rax
 930      FDFFFF
 931 0bdc 488B8020 		movq	288(%rax), %rax
 931      010000
 932 0be3 4885C0   		testq	%rax, %rax
 933 0be6 7511     		jne	.L85
 934 0be8 EB05     		jmp	.L149
 935              	.L83:
  96:/home/brendan/Dropbox/PhD/Code/LBM/2D LBFS/src/Mesh.cpp ****     w_j = new double [total_cells +1];
 936              		.loc 1 96 0 discriminator 2
 937 0bea E8000000 		call	__cxa_throw_bad_array_new_length
 937      00
 938              	.L149:
 939              		.loc 1 97 0 discriminator 1
 940 0bef BF010000 		movl	$1, %edi
 940      00
 941 0bf4 E8000000 		call	exit
 941      00
 942              	.L85:
  98:/home/brendan/Dropbox/PhD/Code/LBM/2D LBFS/src/Mesh.cpp ****     w_k = new double [total_cells +1];
 943              		.loc 1 98 0
 944 0bf9 488B8578 		movq	-648(%rbp), %rax
 944      FDFFFF
 945 0c00 8B4010   		movl	16(%rax), %eax
 946 0c03 83C001   		addl	$1, %eax
GAS LISTING /tmp/ccSpSEFs.s 			page 26


 947 0c06 4898     		cltq
 948 0c08 48BA0000 		movabsq	$1143914305352105984, %rdx
 948      00000000 
 948      E00F
 949 0c12 4839D0   		cmpq	%rdx, %rax
 950 0c15 7732     		ja	.L86
 951              		.loc 1 98 0 is_stmt 0 discriminator 1
 952 0c17 48C1E003 		salq	$3, %rax
 953 0c1b 4889C7   		movq	%rax, %rdi
 954 0c1e E8000000 		call	_Znam
 954      00
 955 0c23 4889C2   		movq	%rax, %rdx
 956 0c26 488B8578 		movq	-648(%rbp), %rax
 956      FDFFFF
 957 0c2d 48899028 		movq	%rdx, 296(%rax)
 957      010000
  99:/home/brendan/Dropbox/PhD/Code/LBM/2D LBFS/src/Mesh.cpp ****         if (w_k==NULL) exit (1);
 958              		.loc 1 99 0 is_stmt 1 discriminator 1
 959 0c34 488B8578 		movq	-648(%rbp), %rax
 959      FDFFFF
 960 0c3b 488B8028 		movq	296(%rax), %rax
 960      010000
 961 0c42 4885C0   		testq	%rax, %rax
 962 0c45 7511     		jne	.L88
 963 0c47 EB05     		jmp	.L150
 964              	.L86:
  98:/home/brendan/Dropbox/PhD/Code/LBM/2D LBFS/src/Mesh.cpp ****     w_k = new double [total_cells +1];
 965              		.loc 1 98 0 discriminator 2
 966 0c49 E8000000 		call	__cxa_throw_bad_array_new_length
 966      00
 967              	.L150:
 968              		.loc 1 99 0 discriminator 1
 969 0c4e BF010000 		movl	$1, %edi
 969      00
 970 0c53 E8000000 		call	exit
 970      00
 971              	.L88:
 100:/home/brendan/Dropbox/PhD/Code/LBM/2D LBFS/src/Mesh.cpp ****      s_i = new double [total_cells +1];
 972              		.loc 1 100 0
 973 0c58 488B8578 		movq	-648(%rbp), %rax
 973      FDFFFF
 974 0c5f 8B4010   		movl	16(%rax), %eax
 975 0c62 83C001   		addl	$1, %eax
 976 0c65 4898     		cltq
 977 0c67 48BA0000 		movabsq	$1143914305352105984, %rdx
 977      00000000 
 977      E00F
 978 0c71 4839D0   		cmpq	%rdx, %rax
 979 0c74 7732     		ja	.L89
 980              		.loc 1 100 0 is_stmt 0 discriminator 1
 981 0c76 48C1E003 		salq	$3, %rax
 982 0c7a 4889C7   		movq	%rax, %rdi
 983 0c7d E8000000 		call	_Znam
 983      00
 984 0c82 4889C2   		movq	%rax, %rdx
 985 0c85 488B8578 		movq	-648(%rbp), %rax
 985      FDFFFF
GAS LISTING /tmp/ccSpSEFs.s 			page 27


 986 0c8c 48899000 		movq	%rdx, 256(%rax)
 986      010000
 101:/home/brendan/Dropbox/PhD/Code/LBM/2D LBFS/src/Mesh.cpp ****         if (s_i==NULL) exit (1);
 987              		.loc 1 101 0 is_stmt 1 discriminator 1
 988 0c93 488B8578 		movq	-648(%rbp), %rax
 988      FDFFFF
 989 0c9a 488B8000 		movq	256(%rax), %rax
 989      010000
 990 0ca1 4885C0   		testq	%rax, %rax
 991 0ca4 7511     		jne	.L91
 992 0ca6 EB05     		jmp	.L151
 993              	.L89:
 100:/home/brendan/Dropbox/PhD/Code/LBM/2D LBFS/src/Mesh.cpp ****      s_i = new double [total_cells +1];
 994              		.loc 1 100 0 discriminator 2
 995 0ca8 E8000000 		call	__cxa_throw_bad_array_new_length
 995      00
 996              	.L151:
 997              		.loc 1 101 0 discriminator 1
 998 0cad BF010000 		movl	$1, %edi
 998      00
 999 0cb2 E8000000 		call	exit
 999      00
 1000              	.L91:
 102:/home/brendan/Dropbox/PhD/Code/LBM/2D LBFS/src/Mesh.cpp ****     s_j = new double [total_cells +1];
 1001              		.loc 1 102 0
 1002 0cb7 488B8578 		movq	-648(%rbp), %rax
 1002      FDFFFF
 1003 0cbe 8B4010   		movl	16(%rax), %eax
 1004 0cc1 83C001   		addl	$1, %eax
 1005 0cc4 4898     		cltq
 1006 0cc6 48BA0000 		movabsq	$1143914305352105984, %rdx
 1006      00000000 
 1006      E00F
 1007 0cd0 4839D0   		cmpq	%rdx, %rax
 1008 0cd3 7732     		ja	.L92
 1009              		.loc 1 102 0 is_stmt 0 discriminator 1
 1010 0cd5 48C1E003 		salq	$3, %rax
 1011 0cd9 4889C7   		movq	%rax, %rdi
 1012 0cdc E8000000 		call	_Znam
 1012      00
 1013 0ce1 4889C2   		movq	%rax, %rdx
 1014 0ce4 488B8578 		movq	-648(%rbp), %rax
 1014      FDFFFF
 1015 0ceb 48899008 		movq	%rdx, 264(%rax)
 1015      010000
 103:/home/brendan/Dropbox/PhD/Code/LBM/2D LBFS/src/Mesh.cpp ****         if (s_j==NULL) exit (1);
 1016              		.loc 1 103 0 is_stmt 1 discriminator 1
 1017 0cf2 488B8578 		movq	-648(%rbp), %rax
 1017      FDFFFF
 1018 0cf9 488B8008 		movq	264(%rax), %rax
 1018      010000
 1019 0d00 4885C0   		testq	%rax, %rax
 1020 0d03 7511     		jne	.L94
 1021 0d05 EB05     		jmp	.L152
 1022              	.L92:
 102:/home/brendan/Dropbox/PhD/Code/LBM/2D LBFS/src/Mesh.cpp ****     s_j = new double [total_cells +1];
 1023              		.loc 1 102 0 discriminator 2
GAS LISTING /tmp/ccSpSEFs.s 			page 28


 1024 0d07 E8000000 		call	__cxa_throw_bad_array_new_length
 1024      00
 1025              	.L152:
 1026              		.loc 1 103 0 discriminator 1
 1027 0d0c BF010000 		movl	$1, %edi
 1027      00
 1028 0d11 E8000000 		call	exit
 1028      00
 1029              	.L94:
 104:/home/brendan/Dropbox/PhD/Code/LBM/2D LBFS/src/Mesh.cpp ****     s_k = new double [total_cells +1];
 1030              		.loc 1 104 0
 1031 0d16 488B8578 		movq	-648(%rbp), %rax
 1031      FDFFFF
 1032 0d1d 8B4010   		movl	16(%rax), %eax
 1033 0d20 83C001   		addl	$1, %eax
 1034 0d23 4898     		cltq
 1035 0d25 48BA0000 		movabsq	$1143914305352105984, %rdx
 1035      00000000 
 1035      E00F
 1036 0d2f 4839D0   		cmpq	%rdx, %rax
 1037 0d32 7732     		ja	.L95
 1038              		.loc 1 104 0 is_stmt 0 discriminator 1
 1039 0d34 48C1E003 		salq	$3, %rax
 1040 0d38 4889C7   		movq	%rax, %rdi
 1041 0d3b E8000000 		call	_Znam
 1041      00
 1042 0d40 4889C2   		movq	%rax, %rdx
 1043 0d43 488B8578 		movq	-648(%rbp), %rax
 1043      FDFFFF
 1044 0d4a 48899010 		movq	%rdx, 272(%rax)
 1044      010000
 105:/home/brendan/Dropbox/PhD/Code/LBM/2D LBFS/src/Mesh.cpp ****         if (s_k==NULL) exit (1);
 1045              		.loc 1 105 0 is_stmt 1 discriminator 1
 1046 0d51 488B8578 		movq	-648(%rbp), %rax
 1046      FDFFFF
 1047 0d58 488B8010 		movq	272(%rax), %rax
 1047      010000
 1048 0d5f 4885C0   		testq	%rax, %rax
 1049 0d62 7511     		jne	.L97
 1050 0d64 EB05     		jmp	.L153
 1051              	.L95:
 104:/home/brendan/Dropbox/PhD/Code/LBM/2D LBFS/src/Mesh.cpp ****     s_k = new double [total_cells +1];
 1052              		.loc 1 104 0 discriminator 2
 1053 0d66 E8000000 		call	__cxa_throw_bad_array_new_length
 1053      00
 1054              	.L153:
 1055              		.loc 1 105 0 discriminator 1
 1056 0d6b BF010000 		movl	$1, %edi
 1056      00
 1057 0d70 E8000000 		call	exit
 1057      00
 1058              	.L97:
 106:/home/brendan/Dropbox/PhD/Code/LBM/2D LBFS/src/Mesh.cpp **** 
 107:/home/brendan/Dropbox/PhD/Code/LBM/2D LBFS/src/Mesh.cpp **** 
 108:/home/brendan/Dropbox/PhD/Code/LBM/2D LBFS/src/Mesh.cpp ****      n_node = new int [total_cells +1];
 1059              		.loc 1 108 0
 1060 0d75 488B8578 		movq	-648(%rbp), %rax
GAS LISTING /tmp/ccSpSEFs.s 			page 29


 1060      FDFFFF
 1061 0d7c 8B4010   		movl	16(%rax), %eax
 1062 0d7f 83C001   		addl	$1, %eax
 1063 0d82 4898     		cltq
 1064 0d84 48BA0000 		movabsq	$2287828610704211968, %rdx
 1064      00000000 
 1064      C01F
 1065 0d8e 4839D0   		cmpq	%rdx, %rax
 1066 0d91 7732     		ja	.L98
 1067              		.loc 1 108 0 is_stmt 0 discriminator 1
 1068 0d93 48C1E002 		salq	$2, %rax
 1069 0d97 4889C7   		movq	%rax, %rdi
 1070 0d9a E8000000 		call	_Znam
 1070      00
 1071 0d9f 4889C2   		movq	%rax, %rdx
 1072 0da2 488B8578 		movq	-648(%rbp), %rax
 1072      FDFFFF
 1073 0da9 48899050 		movq	%rdx, 336(%rax)
 1073      010000
 109:/home/brendan/Dropbox/PhD/Code/LBM/2D LBFS/src/Mesh.cpp ****         if (n_node==NULL) exit (1);
 1074              		.loc 1 109 0 is_stmt 1 discriminator 1
 1075 0db0 488B8578 		movq	-648(%rbp), %rax
 1075      FDFFFF
 1076 0db7 488B8050 		movq	336(%rax), %rax
 1076      010000
 1077 0dbe 4885C0   		testq	%rax, %rax
 1078 0dc1 7511     		jne	.L100
 1079 0dc3 EB05     		jmp	.L154
 1080              	.L98:
 108:/home/brendan/Dropbox/PhD/Code/LBM/2D LBFS/src/Mesh.cpp ****         if (n_node==NULL) exit (1);
 1081              		.loc 1 108 0 discriminator 2
 1082 0dc5 E8000000 		call	__cxa_throw_bad_array_new_length
 1082      00
 1083              	.L154:
 1084              		.loc 1 109 0 discriminator 1
 1085 0dca BF010000 		movl	$1, %edi
 1085      00
 1086 0dcf E8000000 		call	exit
 1086      00
 1087              	.L100:
 110:/home/brendan/Dropbox/PhD/Code/LBM/2D LBFS/src/Mesh.cpp ****     s_node = new int [total_cells +1];
 1088              		.loc 1 110 0
 1089 0dd4 488B8578 		movq	-648(%rbp), %rax
 1089      FDFFFF
 1090 0ddb 8B4010   		movl	16(%rax), %eax
 1091 0dde 83C001   		addl	$1, %eax
 1092 0de1 4898     		cltq
 1093 0de3 48BA0000 		movabsq	$2287828610704211968, %rdx
 1093      00000000 
 1093      C01F
 1094 0ded 4839D0   		cmpq	%rdx, %rax
 1095 0df0 7732     		ja	.L101
 1096              		.loc 1 110 0 is_stmt 0 discriminator 1
 1097 0df2 48C1E002 		salq	$2, %rax
 1098 0df6 4889C7   		movq	%rax, %rdi
 1099 0df9 E8000000 		call	_Znam
 1099      00
GAS LISTING /tmp/ccSpSEFs.s 			page 30


 1100 0dfe 4889C2   		movq	%rax, %rdx
 1101 0e01 488B8578 		movq	-648(%rbp), %rax
 1101      FDFFFF
 1102 0e08 48899058 		movq	%rdx, 344(%rax)
 1102      010000
 111:/home/brendan/Dropbox/PhD/Code/LBM/2D LBFS/src/Mesh.cpp ****         if (s_node==NULL) exit (1);
 1103              		.loc 1 111 0 is_stmt 1 discriminator 1
 1104 0e0f 488B8578 		movq	-648(%rbp), %rax
 1104      FDFFFF
 1105 0e16 488B8058 		movq	344(%rax), %rax
 1105      010000
 1106 0e1d 4885C0   		testq	%rax, %rax
 1107 0e20 7511     		jne	.L103
 1108 0e22 EB05     		jmp	.L155
 1109              	.L101:
 110:/home/brendan/Dropbox/PhD/Code/LBM/2D LBFS/src/Mesh.cpp ****     s_node = new int [total_cells +1];
 1110              		.loc 1 110 0 discriminator 2
 1111 0e24 E8000000 		call	__cxa_throw_bad_array_new_length
 1111      00
 1112              	.L155:
 1113              		.loc 1 111 0 discriminator 1
 1114 0e29 BF010000 		movl	$1, %edi
 1114      00
 1115 0e2e E8000000 		call	exit
 1115      00
 1116              	.L103:
 112:/home/brendan/Dropbox/PhD/Code/LBM/2D LBFS/src/Mesh.cpp ****     w_node = new int [total_cells +1];
 1117              		.loc 1 112 0
 1118 0e33 488B8578 		movq	-648(%rbp), %rax
 1118      FDFFFF
 1119 0e3a 8B4010   		movl	16(%rax), %eax
 1120 0e3d 83C001   		addl	$1, %eax
 1121 0e40 4898     		cltq
 1122 0e42 48BA0000 		movabsq	$2287828610704211968, %rdx
 1122      00000000 
 1122      C01F
 1123 0e4c 4839D0   		cmpq	%rdx, %rax
 1124 0e4f 7732     		ja	.L104
 1125              		.loc 1 112 0 is_stmt 0 discriminator 1
 1126 0e51 48C1E002 		salq	$2, %rax
 1127 0e55 4889C7   		movq	%rax, %rdi
 1128 0e58 E8000000 		call	_Znam
 1128      00
 1129 0e5d 4889C2   		movq	%rax, %rdx
 1130 0e60 488B8578 		movq	-648(%rbp), %rax
 1130      FDFFFF
 1131 0e67 48899068 		movq	%rdx, 360(%rax)
 1131      010000
 113:/home/brendan/Dropbox/PhD/Code/LBM/2D LBFS/src/Mesh.cpp ****         if (w_node==NULL) exit (1);
 1132              		.loc 1 113 0 is_stmt 1 discriminator 1
 1133 0e6e 488B8578 		movq	-648(%rbp), %rax
 1133      FDFFFF
 1134 0e75 488B8068 		movq	360(%rax), %rax
 1134      010000
 1135 0e7c 4885C0   		testq	%rax, %rax
 1136 0e7f 7511     		jne	.L106
 1137 0e81 EB05     		jmp	.L156
GAS LISTING /tmp/ccSpSEFs.s 			page 31


 1138              	.L104:
 112:/home/brendan/Dropbox/PhD/Code/LBM/2D LBFS/src/Mesh.cpp ****     w_node = new int [total_cells +1];
 1139              		.loc 1 112 0 discriminator 2
 1140 0e83 E8000000 		call	__cxa_throw_bad_array_new_length
 1140      00
 1141              	.L156:
 1142              		.loc 1 113 0 discriminator 1
 1143 0e88 BF010000 		movl	$1, %edi
 1143      00
 1144 0e8d E8000000 		call	exit
 1144      00
 1145              	.L106:
 114:/home/brendan/Dropbox/PhD/Code/LBM/2D LBFS/src/Mesh.cpp ****     e_node = new int [total_cells +1];
 1146              		.loc 1 114 0
 1147 0e92 488B8578 		movq	-648(%rbp), %rax
 1147      FDFFFF
 1148 0e99 8B4010   		movl	16(%rax), %eax
 1149 0e9c 83C001   		addl	$1, %eax
 1150 0e9f 4898     		cltq
 1151 0ea1 48BA0000 		movabsq	$2287828610704211968, %rdx
 1151      00000000 
 1151      C01F
 1152 0eab 4839D0   		cmpq	%rdx, %rax
 1153 0eae 7732     		ja	.L107
 1154              		.loc 1 114 0 is_stmt 0 discriminator 1
 1155 0eb0 48C1E002 		salq	$2, %rax
 1156 0eb4 4889C7   		movq	%rax, %rdi
 1157 0eb7 E8000000 		call	_Znam
 1157      00
 1158 0ebc 4889C2   		movq	%rax, %rdx
 1159 0ebf 488B8578 		movq	-648(%rbp), %rax
 1159      FDFFFF
 1160 0ec6 48899060 		movq	%rdx, 352(%rax)
 1160      010000
 115:/home/brendan/Dropbox/PhD/Code/LBM/2D LBFS/src/Mesh.cpp ****         if (e_node==NULL) exit (1);
 1161              		.loc 1 115 0 is_stmt 1 discriminator 1
 1162 0ecd 488B8578 		movq	-648(%rbp), %rax
 1162      FDFFFF
 1163 0ed4 488B8060 		movq	352(%rax), %rax
 1163      010000
 1164 0edb 4885C0   		testq	%rax, %rax
 1165 0ede 7511     		jne	.L109
 1166 0ee0 EB05     		jmp	.L157
 1167              	.L107:
 114:/home/brendan/Dropbox/PhD/Code/LBM/2D LBFS/src/Mesh.cpp ****     e_node = new int [total_cells +1];
 1168              		.loc 1 114 0 discriminator 2
 1169 0ee2 E8000000 		call	__cxa_throw_bad_array_new_length
 1169      00
 1170              	.L157:
 1171              		.loc 1 115 0 discriminator 1
 1172 0ee7 BF010000 		movl	$1, %edi
 1172      00
 1173 0eec E8000000 		call	exit
 1173      00
 1174              	.L109:
 116:/home/brendan/Dropbox/PhD/Code/LBM/2D LBFS/src/Mesh.cpp **** 
 117:/home/brendan/Dropbox/PhD/Code/LBM/2D LBFS/src/Mesh.cpp ****     delta_t = new double [total_cells +1];
GAS LISTING /tmp/ccSpSEFs.s 			page 32


 1175              		.loc 1 117 0
 1176 0ef1 488B8578 		movq	-648(%rbp), %rax
 1176      FDFFFF
 1177 0ef8 8B4010   		movl	16(%rax), %eax
 1178 0efb 83C001   		addl	$1, %eax
 1179 0efe 4898     		cltq
 1180 0f00 48BA0000 		movabsq	$1143914305352105984, %rdx
 1180      00000000 
 1180      E00F
 1181 0f0a 4839D0   		cmpq	%rdx, %rax
 1182 0f0d 7732     		ja	.L110
 1183              		.loc 1 117 0 is_stmt 0 discriminator 1
 1184 0f0f 48C1E003 		salq	$3, %rax
 1185 0f13 4889C7   		movq	%rax, %rdi
 1186 0f16 E8000000 		call	_Znam
 1186      00
 1187 0f1b 4889C2   		movq	%rax, %rdx
 1188 0f1e 488B8578 		movq	-648(%rbp), %rax
 1188      FDFFFF
 1189 0f25 48899048 		movq	%rdx, 328(%rax)
 1189      010000
 118:/home/brendan/Dropbox/PhD/Code/LBM/2D LBFS/src/Mesh.cpp ****         if (delta_t==NULL) exit (1);
 1190              		.loc 1 118 0 is_stmt 1 discriminator 1
 1191 0f2c 488B8578 		movq	-648(%rbp), %rax
 1191      FDFFFF
 1192 0f33 488B8048 		movq	328(%rax), %rax
 1192      010000
 1193 0f3a 4885C0   		testq	%rax, %rax
 1194 0f3d 7511     		jne	.L112
 1195 0f3f EB05     		jmp	.L158
 1196              	.L110:
 117:/home/brendan/Dropbox/PhD/Code/LBM/2D LBFS/src/Mesh.cpp ****         if (delta_t==NULL) exit (1);
 1197              		.loc 1 117 0 discriminator 2
 1198 0f41 E8000000 		call	__cxa_throw_bad_array_new_length
 1198      00
 1199              	.L158:
 1200              		.loc 1 118 0 discriminator 1
 1201 0f46 BF010000 		movl	$1, %edi
 1201      00
 1202 0f4b E8000000 		call	exit
 1202      00
 1203              	.L112:
 119:/home/brendan/Dropbox/PhD/Code/LBM/2D LBFS/src/Mesh.cpp **** 
 120:/home/brendan/Dropbox/PhD/Code/LBM/2D LBFS/src/Mesh.cpp ****     if (globals.mesh_type == 1) {
 1204              		.loc 1 120 0
 1205 0f50 488B8568 		movq	-664(%rbp), %rax
 1205      FDFFFF
 1206 0f57 8B808C00 		movl	140(%rax), %eax
 1206      0000
 1207 0f5d 83F801   		cmpl	$1, %eax
 1208 0f60 7561     		jne	.L113
 121:/home/brendan/Dropbox/PhD/Code/LBM/2D LBFS/src/Mesh.cpp ****         this->create_standard_mesh();
 1209              		.loc 1 121 0
 1210 0f62 488B8578 		movq	-648(%rbp), %rax
 1210      FDFFFF
 1211 0f69 4889C7   		movq	%rax, %rdi
 1212 0f6c E8000000 		call	_ZN4Mesh20create_standard_meshEv
GAS LISTING /tmp/ccSpSEFs.s 			page 33


 1212      00
 122:/home/brendan/Dropbox/PhD/Code/LBM/2D LBFS/src/Mesh.cpp ****         X = X/domain.dt;
 1213              		.loc 1 122 0
 1214 0f71 488B8578 		movq	-648(%rbp), %rax
 1214      FDFFFF
 1215 0f78 F20F1040 		movsd	24(%rax), %xmm0
 1215      18
 1216 0f7d 488B8570 		movq	-656(%rbp), %rax
 1216      FDFFFF
 1217 0f84 F20F1048 		movsd	40(%rax), %xmm1
 1217      28
 1218 0f89 F20F5EC1 		divsd	%xmm1, %xmm0
 1219 0f8d 488B8578 		movq	-648(%rbp), %rax
 1219      FDFFFF
 1220 0f94 F20F1140 		movsd	%xmm0, 24(%rax)
 1220      18
 123:/home/brendan/Dropbox/PhD/Code/LBM/2D LBFS/src/Mesh.cpp ****     Y = Y/domain.dt;
 1221              		.loc 1 123 0
 1222 0f99 488B8578 		movq	-648(%rbp), %rax
 1222      FDFFFF
 1223 0fa0 F20F1040 		movsd	32(%rax), %xmm0
 1223      20
 1224 0fa5 488B8570 		movq	-656(%rbp), %rax
 1224      FDFFFF
 1225 0fac F20F1048 		movsd	40(%rax), %xmm1
 1225      28
 1226 0fb1 F20F5EC1 		divsd	%xmm1, %xmm0
 1227 0fb5 488B8578 		movq	-648(%rbp), %rax
 1227      FDFFFF
 1228 0fbc F20F1140 		movsd	%xmm0, 32(%rax)
 1228      20
 1229 0fc1 EB4B     		jmp	.L114
 1230              	.L113:
 124:/home/brendan/Dropbox/PhD/Code/LBM/2D LBFS/src/Mesh.cpp **** 
 125:/home/brendan/Dropbox/PhD/Code/LBM/2D LBFS/src/Mesh.cpp **** 
 126:/home/brendan/Dropbox/PhD/Code/LBM/2D LBFS/src/Mesh.cpp ****     }else if(globals.mesh_type == 2){
 1231              		.loc 1 126 0
 1232 0fc3 488B8568 		movq	-664(%rbp), %rax
 1232      FDFFFF
 1233 0fca 8B808C00 		movl	140(%rax), %eax
 1233      0000
 1234 0fd0 83F802   		cmpl	$2, %eax
 1235 0fd3 7539     		jne	.L114
 127:/home/brendan/Dropbox/PhD/Code/LBM/2D LBFS/src/Mesh.cpp ****         this -> create_cosine_mesh(globals.PI, domain.dt);
 1236              		.loc 1 127 0
 1237 0fd5 488B8570 		movq	-656(%rbp), %rax
 1237      FDFFFF
 1238 0fdc F20F1040 		movsd	40(%rax), %xmm0
 1238      28
 1239 0fe1 488B8568 		movq	-664(%rbp), %rax
 1239      FDFFFF
 1240 0fe8 488B5020 		movq	32(%rax), %rdx
 1241 0fec 488B8578 		movq	-648(%rbp), %rax
 1241      FDFFFF
 1242 0ff3 660F28C8 		movapd	%xmm0, %xmm1
 1243 0ff7 48899560 		movq	%rdx, -672(%rbp)
 1243      FDFFFF
GAS LISTING /tmp/ccSpSEFs.s 			page 34


 1244 0ffe F20F1085 		movsd	-672(%rbp), %xmm0
 1244      60FDFFFF 
 1245 1006 4889C7   		movq	%rax, %rdi
 1246 1009 E8000000 		call	_ZN4Mesh18create_cosine_meshEdd
 1246      00
 1247              	.L114:
 128:/home/brendan/Dropbox/PhD/Code/LBM/2D LBFS/src/Mesh.cpp ****     }
 129:/home/brendan/Dropbox/PhD/Code/LBM/2D LBFS/src/Mesh.cpp **** 
 130:/home/brendan/Dropbox/PhD/Code/LBM/2D LBFS/src/Mesh.cpp **** 
 131:/home/brendan/Dropbox/PhD/Code/LBM/2D LBFS/src/Mesh.cpp ****         // allocate memory to arrays
 132:/home/brendan/Dropbox/PhD/Code/LBM/2D LBFS/src/Mesh.cpp **** 
 133:/home/brendan/Dropbox/PhD/Code/LBM/2D LBFS/src/Mesh.cpp ****     std::ofstream mesh_output ;
 1248              		.loc 1 133 0
 1249 100e 488D85D0 		leaq	-560(%rbp), %rax
 1249      FDFFFF
 1250 1015 4889C7   		movq	%rax, %rdi
 1251 1018 E8000000 		call	_ZNSt14basic_ofstreamIcSt11char_traitsIcEEC1Ev
 1251      00
 1252              	.LEHE0:
 134:/home/brendan/Dropbox/PhD/Code/LBM/2D LBFS/src/Mesh.cpp ****     std::string output_dir;
 1253              		.loc 1 134 0
 1254 101d 488D8590 		leaq	-624(%rbp), %rax
 1254      FDFFFF
 1255 1024 4889C7   		movq	%rax, %rdi
 1256 1027 E8000000 		call	_ZNSt7__cxx1112basic_stringIcSt11char_traitsIcESaIcEEC1Ev
 1256      00
 135:/home/brendan/Dropbox/PhD/Code/LBM/2D LBFS/src/Mesh.cpp **** 
 136:/home/brendan/Dropbox/PhD/Code/LBM/2D LBFS/src/Mesh.cpp ****     output_dir = globals.output_file +"/mesh.txt";
 1257              		.loc 1 136 0
 1258 102c 488B8568 		movq	-664(%rbp), %rax
 1258      FDFFFF
 1259 1033 488D88D8 		leaq	216(%rax), %rcx
 1259      000000
 1260 103a 488D85B0 		leaq	-592(%rbp), %rax
 1260      FDFFFF
 1261 1041 BA000000 		movl	$.LC1, %edx
 1261      00
 1262 1046 4889CE   		movq	%rcx, %rsi
 1263 1049 4889C7   		movq	%rax, %rdi
 1264              	.LEHB1:
 1265 104c E8000000 		call	_ZStplIcSt11char_traitsIcESaIcEENSt7__cxx1112basic_stringIT_T0_T1_EERKS8_PKS5_
 1265      00
 1266              	.LEHE1:
 1267              		.loc 1 136 0 is_stmt 0 discriminator 1
 1268 1051 488D95B0 		leaq	-592(%rbp), %rdx
 1268      FDFFFF
 1269 1058 488D8590 		leaq	-624(%rbp), %rax
 1269      FDFFFF
 1270 105f 4889D6   		movq	%rdx, %rsi
 1271 1062 4889C7   		movq	%rax, %rdi
 1272              	.LEHB2:
 1273 1065 E8000000 		call	_ZNSt7__cxx1112basic_stringIcSt11char_traitsIcESaIcEEaSEOS4_
 1273      00
 1274              	.LEHE2:
 1275              		.loc 1 136 0 discriminator 3
 1276 106a 488D85B0 		leaq	-592(%rbp), %rax
 1276      FDFFFF
GAS LISTING /tmp/ccSpSEFs.s 			page 35


 1277 1071 4889C7   		movq	%rax, %rdi
 1278 1074 E8000000 		call	_ZNSt7__cxx1112basic_stringIcSt11char_traitsIcESaIcEED1Ev
 1278      00
 137:/home/brendan/Dropbox/PhD/Code/LBM/2D LBFS/src/Mesh.cpp **** 
 138:/home/brendan/Dropbox/PhD/Code/LBM/2D LBFS/src/Mesh.cpp **** 
 139:/home/brendan/Dropbox/PhD/Code/LBM/2D LBFS/src/Mesh.cpp ****         // error_output.open("/home/brendan/Dropbox/PhD/Test Cases/Couette Flow/error.txt", ios::ou
 140:/home/brendan/Dropbox/PhD/Code/LBM/2D LBFS/src/Mesh.cpp ****         mesh_output.open(output_dir.c_str(), ios::out);
 1279              		.loc 1 140 0 is_stmt 1 discriminator 3
 1280 1079 488D8590 		leaq	-624(%rbp), %rax
 1280      FDFFFF
 1281 1080 4889C7   		movq	%rax, %rdi
 1282 1083 E8000000 		call	_ZNKSt7__cxx1112basic_stringIcSt11char_traitsIcESaIcEE5c_strEv
 1282      00
 1283 1088 4889C1   		movq	%rax, %rcx
 1284 108b 488D85D0 		leaq	-560(%rbp), %rax
 1284      FDFFFF
 1285 1092 BA100000 		movl	$16, %edx
 1285      00
 1286 1097 4889CE   		movq	%rcx, %rsi
 1287 109a 4889C7   		movq	%rax, %rdi
 1288              	.LEHB3:
 1289 109d E8000000 		call	_ZNSt14basic_ofstreamIcSt11char_traitsIcEE4openEPKcSt13_Ios_Openmode
 1289      00
 1290              	.LBB4:
 141:/home/brendan/Dropbox/PhD/Code/LBM/2D LBFS/src/Mesh.cpp ****         for (int mesh_t= 0; mesh_t < total_cells; mesh_t++){
 1291              		.loc 1 141 0
 1292 10a2 C7858CFD 		movl	$0, -628(%rbp)
 1292      FFFF0000 
 1292      0000
 1293              	.L116:
 1294              		.loc 1 141 0 is_stmt 0 discriminator 1
 1295 10ac 488B8578 		movq	-648(%rbp), %rax
 1295      FDFFFF
 1296 10b3 8B4010   		movl	16(%rax), %eax
 1297 10b6 3B858CFD 		cmpl	-628(%rbp), %eax
 1297      FFFF
 1298 10bc 0F8EF600 		jle	.L115
 1298      0000
 142:/home/brendan/Dropbox/PhD/Code/LBM/2D LBFS/src/Mesh.cpp ****              mesh_output << mesh_t << "," << centroid_x[mesh_t] << "," <<
 143:/home/brendan/Dropbox/PhD/Code/LBM/2D LBFS/src/Mesh.cpp ****                     centroid_y[mesh_t] << "," << centroid_z[mesh_t] << endl;
 1299              		.loc 1 143 0 is_stmt 1
 1300 10c2 488B8578 		movq	-648(%rbp), %rax
 1300      FDFFFF
 1301 10c9 488B4050 		movq	80(%rax), %rax
 1302 10cd 8B958CFD 		movl	-628(%rbp), %edx
 1302      FFFF
 1303 10d3 4863D2   		movslq	%edx, %rdx
 1304 10d6 48C1E203 		salq	$3, %rdx
 1305 10da 4801D0   		addq	%rdx, %rax
 1306 10dd 488B18   		movq	(%rax), %rbx
 1307 10e0 488B8578 		movq	-648(%rbp), %rax
 1307      FDFFFF
 1308 10e7 488B4048 		movq	72(%rax), %rax
 1309 10eb 8B958CFD 		movl	-628(%rbp), %edx
 1309      FFFF
 1310 10f1 4863D2   		movslq	%edx, %rdx
 1311 10f4 48C1E203 		salq	$3, %rdx
GAS LISTING /tmp/ccSpSEFs.s 			page 36


 1312 10f8 4801D0   		addq	%rdx, %rax
 1313 10fb 4C8B20   		movq	(%rax), %r12
 142:/home/brendan/Dropbox/PhD/Code/LBM/2D LBFS/src/Mesh.cpp ****              mesh_output << mesh_t << "," << centroid_x[mesh_t] << "," <<
 1314              		.loc 1 142 0
 1315 10fe 488B8578 		movq	-648(%rbp), %rax
 1315      FDFFFF
 1316 1105 488B4040 		movq	64(%rax), %rax
 1317 1109 8B958CFD 		movl	-628(%rbp), %edx
 1317      FFFF
 1318 110f 4863D2   		movslq	%edx, %rdx
 1319 1112 48C1E203 		salq	$3, %rdx
 1320 1116 4801D0   		addq	%rdx, %rax
 1321 1119 4C8B28   		movq	(%rax), %r13
 1322 111c 8B958CFD 		movl	-628(%rbp), %edx
 1322      FFFF
 1323 1122 488D85D0 		leaq	-560(%rbp), %rax
 1323      FDFFFF
 1324 1129 89D6     		movl	%edx, %esi
 1325 112b 4889C7   		movq	%rax, %rdi
 1326 112e E8000000 		call	_ZNSolsEi
 1326      00
 1327 1133 BE000000 		movl	$.LC2, %esi
 1327      00
 1328 1138 4889C7   		movq	%rax, %rdi
 1329 113b E8000000 		call	_ZStlsISt11char_traitsIcEERSt13basic_ostreamIcT_ES5_PKc
 1329      00
 142:/home/brendan/Dropbox/PhD/Code/LBM/2D LBFS/src/Mesh.cpp ****              mesh_output << mesh_t << "," << centroid_x[mesh_t] << "," <<
 1330              		.loc 1 142 0 is_stmt 0 discriminator 1
 1331 1140 4C89AD60 		movq	%r13, -672(%rbp)
 1331      FDFFFF
 1332 1147 F20F1085 		movsd	-672(%rbp), %xmm0
 1332      60FDFFFF 
 1333 114f 4889C7   		movq	%rax, %rdi
 1334 1152 E8000000 		call	_ZNSolsEd
 1334      00
 142:/home/brendan/Dropbox/PhD/Code/LBM/2D LBFS/src/Mesh.cpp ****              mesh_output << mesh_t << "," << centroid_x[mesh_t] << "," <<
 1335              		.loc 1 142 0 discriminator 2
 1336 1157 BE000000 		movl	$.LC2, %esi
 1336      00
 1337 115c 4889C7   		movq	%rax, %rdi
 1338 115f E8000000 		call	_ZStlsISt11char_traitsIcEERSt13basic_ostreamIcT_ES5_PKc
 1338      00
 1339              		.loc 1 143 0 is_stmt 1 discriminator 3
 1340 1164 4C89A560 		movq	%r12, -672(%rbp)
 1340      FDFFFF
 1341 116b F20F1085 		movsd	-672(%rbp), %xmm0
 1341      60FDFFFF 
 1342 1173 4889C7   		movq	%rax, %rdi
 1343 1176 E8000000 		call	_ZNSolsEd
 1343      00
 1344              		.loc 1 143 0 is_stmt 0 discriminator 4
 1345 117b BE000000 		movl	$.LC2, %esi
 1345      00
 1346 1180 4889C7   		movq	%rax, %rdi
 1347 1183 E8000000 		call	_ZStlsISt11char_traitsIcEERSt13basic_ostreamIcT_ES5_PKc
 1347      00
 1348              		.loc 1 143 0 discriminator 1
GAS LISTING /tmp/ccSpSEFs.s 			page 37


 1349 1188 48899D60 		movq	%rbx, -672(%rbp)
 1349      FDFFFF
 1350 118f F20F1085 		movsd	-672(%rbp), %xmm0
 1350      60FDFFFF 
 1351 1197 4889C7   		movq	%rax, %rdi
 1352 119a E8000000 		call	_ZNSolsEd
 1352      00
 1353              		.loc 1 143 0 discriminator 2
 1354 119f BE000000 		movl	$_ZSt4endlIcSt11char_traitsIcEERSt13basic_ostreamIT_T0_ES6_, %esi
 1354      00
 1355 11a4 4889C7   		movq	%rax, %rdi
 1356 11a7 E8000000 		call	_ZNSolsEPFRSoS_E
 1356      00
 141:/home/brendan/Dropbox/PhD/Code/LBM/2D LBFS/src/Mesh.cpp ****         for (int mesh_t= 0; mesh_t < total_cells; mesh_t++){
 1357              		.loc 1 141 0 is_stmt 1 discriminator 2
 1358 11ac 83858CFD 		addl	$1, -628(%rbp)
 1358      FFFF01
 1359 11b3 E9F4FEFF 		jmp	.L116
 1359      FF
 1360              	.L115:
 1361              	.LBE4:
 144:/home/brendan/Dropbox/PhD/Code/LBM/2D LBFS/src/Mesh.cpp **** 
 145:/home/brendan/Dropbox/PhD/Code/LBM/2D LBFS/src/Mesh.cpp **** 
 146:/home/brendan/Dropbox/PhD/Code/LBM/2D LBFS/src/Mesh.cpp ****         }
 147:/home/brendan/Dropbox/PhD/Code/LBM/2D LBFS/src/Mesh.cpp ****     mesh_output.close();
 1362              		.loc 1 147 0
 1363 11b8 488D85D0 		leaq	-560(%rbp), %rax
 1363      FDFFFF
 1364 11bf 4889C7   		movq	%rax, %rdi
 1365 11c2 E8000000 		call	_ZNSt14basic_ofstreamIcSt11char_traitsIcEE5closeEv
 1365      00
 1366              	.LEHE3:
 148:/home/brendan/Dropbox/PhD/Code/LBM/2D LBFS/src/Mesh.cpp **** 
 149:/home/brendan/Dropbox/PhD/Code/LBM/2D LBFS/src/Mesh.cpp **** 
 150:/home/brendan/Dropbox/PhD/Code/LBM/2D LBFS/src/Mesh.cpp **** 	X=X;
 1367              		.loc 1 150 0
 1368 11c7 488B8578 		movq	-648(%rbp), %rax
 1368      FDFFFF
 1369 11ce F20F1040 		movsd	24(%rax), %xmm0
 1369      18
 1370 11d3 488B8578 		movq	-648(%rbp), %rax
 1370      FDFFFF
 1371 11da F20F1140 		movsd	%xmm0, 24(%rax)
 1371      18
 134:/home/brendan/Dropbox/PhD/Code/LBM/2D LBFS/src/Mesh.cpp **** 
 1372              		.loc 1 134 0
 1373 11df 488D8590 		leaq	-624(%rbp), %rax
 1373      FDFFFF
 1374 11e6 4889C7   		movq	%rax, %rdi
 1375 11e9 E8000000 		call	_ZNSt7__cxx1112basic_stringIcSt11char_traitsIcESaIcEED1Ev
 1375      00
 133:/home/brendan/Dropbox/PhD/Code/LBM/2D LBFS/src/Mesh.cpp ****     std::string output_dir;
 1376              		.loc 1 133 0
 1377 11ee 488D85D0 		leaq	-560(%rbp), %rax
 1377      FDFFFF
 1378 11f5 4889C7   		movq	%rax, %rdi
 1379 11f8 E8000000 		call	_ZNSt14basic_ofstreamIcSt11char_traitsIcEED1Ev
GAS LISTING /tmp/ccSpSEFs.s 			page 38


 1379      00
 1380              	.LBE3:
 1381              	.LBE2:
 151:/home/brendan/Dropbox/PhD/Code/LBM/2D LBFS/src/Mesh.cpp **** }
 1382              		.loc 1 151 0
 1383 11fd 90       		nop
 1384 11fe 488B45D8 		movq	-40(%rbp), %rax
 1385 1202 64483304 		xorq	%fs:40, %rax
 1385      25280000 
 1385      00
 1386 120b 7447     		je	.L119
 1387 120d EB40     		jmp	.L159
 1388              	.L121:
 1389 120f 4889C3   		movq	%rax, %rbx
 1390              	.LBB6:
 1391              	.LBB5:
 136:/home/brendan/Dropbox/PhD/Code/LBM/2D LBFS/src/Mesh.cpp **** 
 1392              		.loc 1 136 0
 1393 1212 488D85B0 		leaq	-592(%rbp), %rax
 1393      FDFFFF
 1394 1219 4889C7   		movq	%rax, %rdi
 1395 121c E8000000 		call	_ZNSt7__cxx1112basic_stringIcSt11char_traitsIcESaIcEED1Ev
 1395      00
 1396 1221 EB03     		jmp	.L118
 1397              	.L120:
 1398 1223 4889C3   		movq	%rax, %rbx
 1399              	.L118:
 134:/home/brendan/Dropbox/PhD/Code/LBM/2D LBFS/src/Mesh.cpp **** 
 1400              		.loc 1 134 0
 1401 1226 488D8590 		leaq	-624(%rbp), %rax
 1401      FDFFFF
 1402 122d 4889C7   		movq	%rax, %rdi
 1403 1230 E8000000 		call	_ZNSt7__cxx1112basic_stringIcSt11char_traitsIcESaIcEED1Ev
 1403      00
 133:/home/brendan/Dropbox/PhD/Code/LBM/2D LBFS/src/Mesh.cpp ****     std::string output_dir;
 1404              		.loc 1 133 0
 1405 1235 488D85D0 		leaq	-560(%rbp), %rax
 1405      FDFFFF
 1406 123c 4889C7   		movq	%rax, %rdi
 1407 123f E8000000 		call	_ZNSt14basic_ofstreamIcSt11char_traitsIcEED1Ev
 1407      00
 1408 1244 4889D8   		movq	%rbx, %rax
 1409 1247 4889C7   		movq	%rax, %rdi
 1410              	.LEHB4:
 1411 124a E8000000 		call	_Unwind_Resume
 1411      00
 1412              	.LEHE4:
 1413              	.L159:
 1414              	.LBE5:
 1415              	.LBE6:
 1416              		.loc 1 151 0
 1417 124f E8000000 		call	__stack_chk_fail
 1417      00
 1418              	.L119:
 1419 1254 4881C488 		addq	$648, %rsp
 1419      020000
 1420 125b 5B       		popq	%rbx
GAS LISTING /tmp/ccSpSEFs.s 			page 39


 1421 125c 415C     		popq	%r12
 1422 125e 415D     		popq	%r13
 1423 1260 5D       		popq	%rbp
 1424              		.cfi_def_cfa 7, 8
 1425 1261 C3       		ret
 1426              		.cfi_endproc
 1427              	.LFE6793:
 1428              		.globl	__gxx_personality_v0
 1429              		.section	.gcc_except_table,"a",@progbits
 1430              	.LLSDA6793:
 1431 0000 FF       		.byte	0xff
 1432 0001 FF       		.byte	0xff
 1433 0002 01       		.byte	0x1
 1434 0003 1E       		.uleb128 .LLSDACSE6793-.LLSDACSB6793
 1435              	.LLSDACSB6793:
 1436 0004 EA03     		.uleb128 .LEHB0-.LFB6793
 1437 0006 B31C     		.uleb128 .LEHE0-.LEHB0
 1438 0008 00       		.uleb128 0
 1439 0009 00       		.uleb128 0
 1440 000a CC20     		.uleb128 .LEHB1-.LFB6793
 1441 000c 05       		.uleb128 .LEHE1-.LEHB1
 1442 000d A324     		.uleb128 .L120-.LFB6793
 1443 000f 00       		.uleb128 0
 1444 0010 E520     		.uleb128 .LEHB2-.LFB6793
 1445 0012 05       		.uleb128 .LEHE2-.LEHB2
 1446 0013 8F24     		.uleb128 .L121-.LFB6793
 1447 0015 00       		.uleb128 0
 1448 0016 9D21     		.uleb128 .LEHB3-.LFB6793
 1449 0018 AA02     		.uleb128 .LEHE3-.LEHB3
 1450 001a A324     		.uleb128 .L120-.LFB6793
 1451 001c 00       		.uleb128 0
 1452 001d CA24     		.uleb128 .LEHB4-.LFB6793
 1453 001f 05       		.uleb128 .LEHE4-.LEHB4
 1454 0020 00       		.uleb128 0
 1455 0021 00       		.uleb128 0
 1456              	.LLSDACSE6793:
 1457              		.text
 1459              		.globl	_ZN4MeshC1E15domain_geometry16global_variables
 1460              		.set	_ZN4MeshC1E15domain_geometry16global_variables,_ZN4MeshC2E15domain_geometry16global_variables
 1461              		.align 2
 1462              		.globl	_ZN4MeshD2Ev
 1464              	_ZN4MeshD2Ev:
 1465              	.LFB6796:
 152:/home/brendan/Dropbox/PhD/Code/LBM/2D LBFS/src/Mesh.cpp **** 
 153:/home/brendan/Dropbox/PhD/Code/LBM/2D LBFS/src/Mesh.cpp **** Mesh::~Mesh()
 1466              		.loc 1 153 0
 1467              		.cfi_startproc
 1468 1262 55       		pushq	%rbp
 1469              		.cfi_def_cfa_offset 16
 1470              		.cfi_offset 6, -16
 1471 1263 4889E5   		movq	%rsp, %rbp
 1472              		.cfi_def_cfa_register 6
 1473 1266 4883EC10 		subq	$16, %rsp
 1474 126a 48897DF8 		movq	%rdi, -8(%rbp)
 1475              	.LBB7:
 1476              		.loc 1 153 0
 1477 126e BA000000 		movl	$_ZTV4Mesh+16, %edx
GAS LISTING /tmp/ccSpSEFs.s 			page 40


 1477      00
 1478 1273 488B45F8 		movq	-8(%rbp), %rax
 1479 1277 488910   		movq	%rdx, (%rax)
 154:/home/brendan/Dropbox/PhD/Code/LBM/2D LBFS/src/Mesh.cpp **** {
 155:/home/brendan/Dropbox/PhD/Code/LBM/2D LBFS/src/Mesh.cpp ****     //dtor
 156:/home/brendan/Dropbox/PhD/Code/LBM/2D LBFS/src/Mesh.cpp ****     delete [](centroid_x);
 1480              		.loc 1 156 0
 1481 127a 488B45F8 		movq	-8(%rbp), %rax
 1482 127e 488B4040 		movq	64(%rax), %rax
 1483 1282 4885C0   		testq	%rax, %rax
 1484 1285 7410     		je	.L161
 1485              		.loc 1 156 0 is_stmt 0 discriminator 1
 1486 1287 488B45F8 		movq	-8(%rbp), %rax
 1487 128b 488B4040 		movq	64(%rax), %rax
 1488 128f 4889C7   		movq	%rax, %rdi
 1489 1292 E8000000 		call	_ZdaPv
 1489      00
 1490              	.L161:
 157:/home/brendan/Dropbox/PhD/Code/LBM/2D LBFS/src/Mesh.cpp ****     centroid_x = NULL;
 1491              		.loc 1 157 0 is_stmt 1
 1492 1297 488B45F8 		movq	-8(%rbp), %rax
 1493 129b 48C74040 		movq	$0, 64(%rax)
 1493      00000000 
 158:/home/brendan/Dropbox/PhD/Code/LBM/2D LBFS/src/Mesh.cpp ****     delete [] (north_x);
 1494              		.loc 1 158 0
 1495 12a3 488B45F8 		movq	-8(%rbp), %rax
 1496 12a7 488B4058 		movq	88(%rax), %rax
 1497 12ab 4885C0   		testq	%rax, %rax
 1498 12ae 7410     		je	.L162
 1499              		.loc 1 158 0 is_stmt 0 discriminator 1
 1500 12b0 488B45F8 		movq	-8(%rbp), %rax
 1501 12b4 488B4058 		movq	88(%rax), %rax
 1502 12b8 4889C7   		movq	%rax, %rdi
 1503 12bb E8000000 		call	_ZdaPv
 1503      00
 1504              	.L162:
 159:/home/brendan/Dropbox/PhD/Code/LBM/2D LBFS/src/Mesh.cpp ****     north_x = NULL;
 1505              		.loc 1 159 0 is_stmt 1
 1506 12c0 488B45F8 		movq	-8(%rbp), %rax
 1507 12c4 48C74058 		movq	$0, 88(%rax)
 1507      00000000 
 160:/home/brendan/Dropbox/PhD/Code/LBM/2D LBFS/src/Mesh.cpp ****     delete [] (south_x);
 1508              		.loc 1 160 0
 1509 12cc 488B45F8 		movq	-8(%rbp), %rax
 1510 12d0 488B80A0 		movq	160(%rax), %rax
 1510      000000
 1511 12d7 4885C0   		testq	%rax, %rax
 1512 12da 7413     		je	.L163
 1513              		.loc 1 160 0 is_stmt 0 discriminator 1
 1514 12dc 488B45F8 		movq	-8(%rbp), %rax
 1515 12e0 488B80A0 		movq	160(%rax), %rax
 1515      000000
 1516 12e7 4889C7   		movq	%rax, %rdi
 1517 12ea E8000000 		call	_ZdaPv
 1517      00
 1518              	.L163:
 161:/home/brendan/Dropbox/PhD/Code/LBM/2D LBFS/src/Mesh.cpp ****     south_x = NULL;
GAS LISTING /tmp/ccSpSEFs.s 			page 41


 1519              		.loc 1 161 0 is_stmt 1
 1520 12ef 488B45F8 		movq	-8(%rbp), %rax
 1521 12f3 48C780A0 		movq	$0, 160(%rax)
 1521      00000000 
 1521      000000
 162:/home/brendan/Dropbox/PhD/Code/LBM/2D LBFS/src/Mesh.cpp ****     delete [] (east_x);
 1522              		.loc 1 162 0
 1523 12fe 488B45F8 		movq	-8(%rbp), %rax
 1524 1302 488B4070 		movq	112(%rax), %rax
 1525 1306 4885C0   		testq	%rax, %rax
 1526 1309 7410     		je	.L164
 1527              		.loc 1 162 0 is_stmt 0 discriminator 1
 1528 130b 488B45F8 		movq	-8(%rbp), %rax
 1529 130f 488B4070 		movq	112(%rax), %rax
 1530 1313 4889C7   		movq	%rax, %rdi
 1531 1316 E8000000 		call	_ZdaPv
 1531      00
 1532              	.L164:
 163:/home/brendan/Dropbox/PhD/Code/LBM/2D LBFS/src/Mesh.cpp ****     east_x = NULL;
 1533              		.loc 1 163 0 is_stmt 1
 1534 131b 488B45F8 		movq	-8(%rbp), %rax
 1535 131f 48C74070 		movq	$0, 112(%rax)
 1535      00000000 
 164:/home/brendan/Dropbox/PhD/Code/LBM/2D LBFS/src/Mesh.cpp ****     delete [] (west_x);
 1536              		.loc 1 164 0
 1537 1327 488B45F8 		movq	-8(%rbp), %rax
 1538 132b 488B8088 		movq	136(%rax), %rax
 1538      000000
 1539 1332 4885C0   		testq	%rax, %rax
 1540 1335 7413     		je	.L165
 1541              		.loc 1 164 0 is_stmt 0 discriminator 1
 1542 1337 488B45F8 		movq	-8(%rbp), %rax
 1543 133b 488B8088 		movq	136(%rax), %rax
 1543      000000
 1544 1342 4889C7   		movq	%rax, %rdi
 1545 1345 E8000000 		call	_ZdaPv
 1545      00
 1546              	.L165:
 165:/home/brendan/Dropbox/PhD/Code/LBM/2D LBFS/src/Mesh.cpp ****     west_x = NULL;
 1547              		.loc 1 165 0 is_stmt 1
 1548 134a 488B45F8 		movq	-8(%rbp), %rax
 1549 134e 48C78088 		movq	$0, 136(%rax)
 1549      00000000 
 1549      000000
 166:/home/brendan/Dropbox/PhD/Code/LBM/2D LBFS/src/Mesh.cpp **** 
 167:/home/brendan/Dropbox/PhD/Code/LBM/2D LBFS/src/Mesh.cpp ****     delete [](centroid_y);
 1550              		.loc 1 167 0
 1551 1359 488B45F8 		movq	-8(%rbp), %rax
 1552 135d 488B4048 		movq	72(%rax), %rax
 1553 1361 4885C0   		testq	%rax, %rax
 1554 1364 7410     		je	.L166
 1555              		.loc 1 167 0 is_stmt 0 discriminator 1
 1556 1366 488B45F8 		movq	-8(%rbp), %rax
 1557 136a 488B4048 		movq	72(%rax), %rax
 1558 136e 4889C7   		movq	%rax, %rdi
 1559 1371 E8000000 		call	_ZdaPv
 1559      00
GAS LISTING /tmp/ccSpSEFs.s 			page 42


 1560              	.L166:
 168:/home/brendan/Dropbox/PhD/Code/LBM/2D LBFS/src/Mesh.cpp ****     centroid_y = NULL;
 1561              		.loc 1 168 0 is_stmt 1
 1562 1376 488B45F8 		movq	-8(%rbp), %rax
 1563 137a 48C74048 		movq	$0, 72(%rax)
 1563      00000000 
 169:/home/brendan/Dropbox/PhD/Code/LBM/2D LBFS/src/Mesh.cpp ****     delete [] (north_y);
 1564              		.loc 1 169 0
 1565 1382 488B45F8 		movq	-8(%rbp), %rax
 1566 1386 488B4060 		movq	96(%rax), %rax
 1567 138a 4885C0   		testq	%rax, %rax
 1568 138d 7410     		je	.L167
 1569              		.loc 1 169 0 is_stmt 0 discriminator 1
 1570 138f 488B45F8 		movq	-8(%rbp), %rax
 1571 1393 488B4060 		movq	96(%rax), %rax
 1572 1397 4889C7   		movq	%rax, %rdi
 1573 139a E8000000 		call	_ZdaPv
 1573      00
 1574              	.L167:
 170:/home/brendan/Dropbox/PhD/Code/LBM/2D LBFS/src/Mesh.cpp ****     north_y = NULL;
 1575              		.loc 1 170 0 is_stmt 1
 1576 139f 488B45F8 		movq	-8(%rbp), %rax
 1577 13a3 48C74060 		movq	$0, 96(%rax)
 1577      00000000 
 171:/home/brendan/Dropbox/PhD/Code/LBM/2D LBFS/src/Mesh.cpp ****     delete [] (south_y);
 1578              		.loc 1 171 0
 1579 13ab 488B45F8 		movq	-8(%rbp), %rax
 1580 13af 488B80A8 		movq	168(%rax), %rax
 1580      000000
 1581 13b6 4885C0   		testq	%rax, %rax
 1582 13b9 7413     		je	.L168
 1583              		.loc 1 171 0 is_stmt 0 discriminator 1
 1584 13bb 488B45F8 		movq	-8(%rbp), %rax
 1585 13bf 488B80A8 		movq	168(%rax), %rax
 1585      000000
 1586 13c6 4889C7   		movq	%rax, %rdi
 1587 13c9 E8000000 		call	_ZdaPv
 1587      00
 1588              	.L168:
 172:/home/brendan/Dropbox/PhD/Code/LBM/2D LBFS/src/Mesh.cpp ****     south_y = NULL;
 1589              		.loc 1 172 0 is_stmt 1
 1590 13ce 488B45F8 		movq	-8(%rbp), %rax
 1591 13d2 48C780A8 		movq	$0, 168(%rax)
 1591      00000000 
 1591      000000
 173:/home/brendan/Dropbox/PhD/Code/LBM/2D LBFS/src/Mesh.cpp ****     delete [] (east_y);
 1592              		.loc 1 173 0
 1593 13dd 488B45F8 		movq	-8(%rbp), %rax
 1594 13e1 488B4078 		movq	120(%rax), %rax
 1595 13e5 4885C0   		testq	%rax, %rax
 1596 13e8 7410     		je	.L169
 1597              		.loc 1 173 0 is_stmt 0 discriminator 1
 1598 13ea 488B45F8 		movq	-8(%rbp), %rax
 1599 13ee 488B4078 		movq	120(%rax), %rax
 1600 13f2 4889C7   		movq	%rax, %rdi
 1601 13f5 E8000000 		call	_ZdaPv
 1601      00
GAS LISTING /tmp/ccSpSEFs.s 			page 43


 1602              	.L169:
 174:/home/brendan/Dropbox/PhD/Code/LBM/2D LBFS/src/Mesh.cpp ****     east_y = NULL;
 1603              		.loc 1 174 0 is_stmt 1
 1604 13fa 488B45F8 		movq	-8(%rbp), %rax
 1605 13fe 48C74078 		movq	$0, 120(%rax)
 1605      00000000 
 175:/home/brendan/Dropbox/PhD/Code/LBM/2D LBFS/src/Mesh.cpp ****     delete [] (west_y);
 1606              		.loc 1 175 0
 1607 1406 488B45F8 		movq	-8(%rbp), %rax
 1608 140a 488B8090 		movq	144(%rax), %rax
 1608      000000
 1609 1411 4885C0   		testq	%rax, %rax
 1610 1414 7413     		je	.L170
 1611              		.loc 1 175 0 is_stmt 0 discriminator 1
 1612 1416 488B45F8 		movq	-8(%rbp), %rax
 1613 141a 488B8090 		movq	144(%rax), %rax
 1613      000000
 1614 1421 4889C7   		movq	%rax, %rdi
 1615 1424 E8000000 		call	_ZdaPv
 1615      00
 1616              	.L170:
 176:/home/brendan/Dropbox/PhD/Code/LBM/2D LBFS/src/Mesh.cpp ****     west_y = NULL;
 1617              		.loc 1 176 0 is_stmt 1
 1618 1429 488B45F8 		movq	-8(%rbp), %rax
 1619 142d 48C78090 		movq	$0, 144(%rax)
 1619      00000000 
 1619      000000
 177:/home/brendan/Dropbox/PhD/Code/LBM/2D LBFS/src/Mesh.cpp **** 
 178:/home/brendan/Dropbox/PhD/Code/LBM/2D LBFS/src/Mesh.cpp ****     delete [](centroid_z);
 1620              		.loc 1 178 0
 1621 1438 488B45F8 		movq	-8(%rbp), %rax
 1622 143c 488B4050 		movq	80(%rax), %rax
 1623 1440 4885C0   		testq	%rax, %rax
 1624 1443 7410     		je	.L171
 1625              		.loc 1 178 0 is_stmt 0 discriminator 1
 1626 1445 488B45F8 		movq	-8(%rbp), %rax
 1627 1449 488B4050 		movq	80(%rax), %rax
 1628 144d 4889C7   		movq	%rax, %rdi
 1629 1450 E8000000 		call	_ZdaPv
 1629      00
 1630              	.L171:
 179:/home/brendan/Dropbox/PhD/Code/LBM/2D LBFS/src/Mesh.cpp ****     centroid_z = NULL;
 1631              		.loc 1 179 0 is_stmt 1
 1632 1455 488B45F8 		movq	-8(%rbp), %rax
 1633 1459 48C74050 		movq	$0, 80(%rax)
 1633      00000000 
 180:/home/brendan/Dropbox/PhD/Code/LBM/2D LBFS/src/Mesh.cpp ****     delete [] (north_z);
 1634              		.loc 1 180 0
 1635 1461 488B45F8 		movq	-8(%rbp), %rax
 1636 1465 488B4068 		movq	104(%rax), %rax
 1637 1469 4885C0   		testq	%rax, %rax
 1638 146c 7410     		je	.L172
 1639              		.loc 1 180 0 is_stmt 0 discriminator 1
 1640 146e 488B45F8 		movq	-8(%rbp), %rax
 1641 1472 488B4068 		movq	104(%rax), %rax
 1642 1476 4889C7   		movq	%rax, %rdi
 1643 1479 E8000000 		call	_ZdaPv
GAS LISTING /tmp/ccSpSEFs.s 			page 44


 1643      00
 1644              	.L172:
 181:/home/brendan/Dropbox/PhD/Code/LBM/2D LBFS/src/Mesh.cpp ****     north_z = NULL;
 1645              		.loc 1 181 0 is_stmt 1
 1646 147e 488B45F8 		movq	-8(%rbp), %rax
 1647 1482 48C74068 		movq	$0, 104(%rax)
 1647      00000000 
 182:/home/brendan/Dropbox/PhD/Code/LBM/2D LBFS/src/Mesh.cpp ****     delete [] (south_z);
 1648              		.loc 1 182 0
 1649 148a 488B45F8 		movq	-8(%rbp), %rax
 1650 148e 488B80B0 		movq	176(%rax), %rax
 1650      000000
 1651 1495 4885C0   		testq	%rax, %rax
 1652 1498 7413     		je	.L173
 1653              		.loc 1 182 0 is_stmt 0 discriminator 1
 1654 149a 488B45F8 		movq	-8(%rbp), %rax
 1655 149e 488B80B0 		movq	176(%rax), %rax
 1655      000000
 1656 14a5 4889C7   		movq	%rax, %rdi
 1657 14a8 E8000000 		call	_ZdaPv
 1657      00
 1658              	.L173:
 183:/home/brendan/Dropbox/PhD/Code/LBM/2D LBFS/src/Mesh.cpp ****     south_z = NULL;
 1659              		.loc 1 183 0 is_stmt 1
 1660 14ad 488B45F8 		movq	-8(%rbp), %rax
 1661 14b1 48C780B0 		movq	$0, 176(%rax)
 1661      00000000 
 1661      000000
 184:/home/brendan/Dropbox/PhD/Code/LBM/2D LBFS/src/Mesh.cpp ****     delete [] (east_z);
 1662              		.loc 1 184 0
 1663 14bc 488B45F8 		movq	-8(%rbp), %rax
 1664 14c0 488B8080 		movq	128(%rax), %rax
 1664      000000
 1665 14c7 4885C0   		testq	%rax, %rax
 1666 14ca 7413     		je	.L174
 1667              		.loc 1 184 0 is_stmt 0 discriminator 1
 1668 14cc 488B45F8 		movq	-8(%rbp), %rax
 1669 14d0 488B8080 		movq	128(%rax), %rax
 1669      000000
 1670 14d7 4889C7   		movq	%rax, %rdi
 1671 14da E8000000 		call	_ZdaPv
 1671      00
 1672              	.L174:
 185:/home/brendan/Dropbox/PhD/Code/LBM/2D LBFS/src/Mesh.cpp ****     east_z = NULL;
 1673              		.loc 1 185 0 is_stmt 1
 1674 14df 488B45F8 		movq	-8(%rbp), %rax
 1675 14e3 48C78080 		movq	$0, 128(%rax)
 1675      00000000 
 1675      000000
 186:/home/brendan/Dropbox/PhD/Code/LBM/2D LBFS/src/Mesh.cpp ****     delete [] (west_z);
 1676              		.loc 1 186 0
 1677 14ee 488B45F8 		movq	-8(%rbp), %rax
 1678 14f2 488B8098 		movq	152(%rax), %rax
 1678      000000
 1679 14f9 4885C0   		testq	%rax, %rax
 1680 14fc 7413     		je	.L175
 1681              		.loc 1 186 0 is_stmt 0 discriminator 1
GAS LISTING /tmp/ccSpSEFs.s 			page 45


 1682 14fe 488B45F8 		movq	-8(%rbp), %rax
 1683 1502 488B8098 		movq	152(%rax), %rax
 1683      000000
 1684 1509 4889C7   		movq	%rax, %rdi
 1685 150c E8000000 		call	_ZdaPv
 1685      00
 1686              	.L175:
 187:/home/brendan/Dropbox/PhD/Code/LBM/2D LBFS/src/Mesh.cpp ****     west_z = NULL;
 1687              		.loc 1 187 0 is_stmt 1
 1688 1511 488B45F8 		movq	-8(%rbp), %rax
 1689 1515 48C78098 		movq	$0, 152(%rax)
 1689      00000000 
 1689      000000
 188:/home/brendan/Dropbox/PhD/Code/LBM/2D LBFS/src/Mesh.cpp **** 
 189:/home/brendan/Dropbox/PhD/Code/LBM/2D LBFS/src/Mesh.cpp ****     delete [](cell_volume);
 1690              		.loc 1 189 0
 1691 1520 488B45F8 		movq	-8(%rbp), %rax
 1692 1524 488B80D8 		movq	216(%rax), %rax
 1692      000000
 1693 152b 4885C0   		testq	%rax, %rax
 1694 152e 7413     		je	.L176
 1695              		.loc 1 189 0 is_stmt 0 discriminator 1
 1696 1530 488B45F8 		movq	-8(%rbp), %rax
 1697 1534 488B80D8 		movq	216(%rax), %rax
 1697      000000
 1698 153b 4889C7   		movq	%rax, %rdi
 1699 153e E8000000 		call	_ZdaPv
 1699      00
 1700              	.L176:
 190:/home/brendan/Dropbox/PhD/Code/LBM/2D LBFS/src/Mesh.cpp ****     cell_volume = NULL;
 1701              		.loc 1 190 0 is_stmt 1
 1702 1543 488B45F8 		movq	-8(%rbp), %rax
 1703 1547 48C780D8 		movq	$0, 216(%rax)
 1703      00000000 
 1703      000000
 191:/home/brendan/Dropbox/PhD/Code/LBM/2D LBFS/src/Mesh.cpp ****     delete [](delta_t);
 1704              		.loc 1 191 0
 1705 1552 488B45F8 		movq	-8(%rbp), %rax
 1706 1556 488B8048 		movq	328(%rax), %rax
 1706      010000
 1707 155d 4885C0   		testq	%rax, %rax
 1708 1560 7413     		je	.L177
 1709              		.loc 1 191 0 is_stmt 0 discriminator 1
 1710 1562 488B45F8 		movq	-8(%rbp), %rax
 1711 1566 488B8048 		movq	328(%rax), %rax
 1711      010000
 1712 156d 4889C7   		movq	%rax, %rdi
 1713 1570 E8000000 		call	_ZdaPv
 1713      00
 1714              	.L177:
 192:/home/brendan/Dropbox/PhD/Code/LBM/2D LBFS/src/Mesh.cpp ****     delta_t = NULL;
 1715              		.loc 1 192 0 is_stmt 1
 1716 1575 488B45F8 		movq	-8(%rbp), %rax
 1717 1579 48C78048 		movq	$0, 328(%rax)
 1717      01000000 
 1717      000000
 193:/home/brendan/Dropbox/PhD/Code/LBM/2D LBFS/src/Mesh.cpp **** 
GAS LISTING /tmp/ccSpSEFs.s 			page 46


 194:/home/brendan/Dropbox/PhD/Code/LBM/2D LBFS/src/Mesh.cpp ****     delete [](n_area);
 1718              		.loc 1 194 0
 1719 1584 488B45F8 		movq	-8(%rbp), %rax
 1720 1588 488B80B8 		movq	184(%rax), %rax
 1720      000000
 1721 158f 4885C0   		testq	%rax, %rax
 1722 1592 7413     		je	.L178
 1723              		.loc 1 194 0 is_stmt 0 discriminator 1
 1724 1594 488B45F8 		movq	-8(%rbp), %rax
 1725 1598 488B80B8 		movq	184(%rax), %rax
 1725      000000
 1726 159f 4889C7   		movq	%rax, %rdi
 1727 15a2 E8000000 		call	_ZdaPv
 1727      00
 1728              	.L178:
 195:/home/brendan/Dropbox/PhD/Code/LBM/2D LBFS/src/Mesh.cpp ****     n_area = NULL;
 1729              		.loc 1 195 0 is_stmt 1
 1730 15a7 488B45F8 		movq	-8(%rbp), %rax
 1731 15ab 48C780B8 		movq	$0, 184(%rax)
 1731      00000000 
 1731      000000
 196:/home/brendan/Dropbox/PhD/Code/LBM/2D LBFS/src/Mesh.cpp ****     delete [](n_i);
 1732              		.loc 1 196 0
 1733 15b6 488B45F8 		movq	-8(%rbp), %rax
 1734 15ba 488B80E8 		movq	232(%rax), %rax
 1734      000000
 1735 15c1 4885C0   		testq	%rax, %rax
 1736 15c4 7413     		je	.L179
 1737              		.loc 1 196 0 is_stmt 0 discriminator 1
 1738 15c6 488B45F8 		movq	-8(%rbp), %rax
 1739 15ca 488B80E8 		movq	232(%rax), %rax
 1739      000000
 1740 15d1 4889C7   		movq	%rax, %rdi
 1741 15d4 E8000000 		call	_ZdaPv
 1741      00
 1742              	.L179:
 197:/home/brendan/Dropbox/PhD/Code/LBM/2D LBFS/src/Mesh.cpp ****     n_i = NULL;
 1743              		.loc 1 197 0 is_stmt 1
 1744 15d9 488B45F8 		movq	-8(%rbp), %rax
 1745 15dd 48C780E8 		movq	$0, 232(%rax)
 1745      00000000 
 1745      000000
 198:/home/brendan/Dropbox/PhD/Code/LBM/2D LBFS/src/Mesh.cpp ****     delete [](n_j);
 1746              		.loc 1 198 0
 1747 15e8 488B45F8 		movq	-8(%rbp), %rax
 1748 15ec 488B80F0 		movq	240(%rax), %rax
 1748      000000
 1749 15f3 4885C0   		testq	%rax, %rax
 1750 15f6 7413     		je	.L180
 1751              		.loc 1 198 0 is_stmt 0 discriminator 1
 1752 15f8 488B45F8 		movq	-8(%rbp), %rax
 1753 15fc 488B80F0 		movq	240(%rax), %rax
 1753      000000
 1754 1603 4889C7   		movq	%rax, %rdi
 1755 1606 E8000000 		call	_ZdaPv
 1755      00
 1756              	.L180:
GAS LISTING /tmp/ccSpSEFs.s 			page 47


 199:/home/brendan/Dropbox/PhD/Code/LBM/2D LBFS/src/Mesh.cpp ****     n_j = NULL;
 1757              		.loc 1 199 0 is_stmt 1
 1758 160b 488B45F8 		movq	-8(%rbp), %rax
 1759 160f 48C780F0 		movq	$0, 240(%rax)
 1759      00000000 
 1759      000000
 200:/home/brendan/Dropbox/PhD/Code/LBM/2D LBFS/src/Mesh.cpp ****     delete [](n_k);
 1760              		.loc 1 200 0
 1761 161a 488B45F8 		movq	-8(%rbp), %rax
 1762 161e 488B80F8 		movq	248(%rax), %rax
 1762      000000
 1763 1625 4885C0   		testq	%rax, %rax
 1764 1628 7413     		je	.L181
 1765              		.loc 1 200 0 is_stmt 0 discriminator 1
 1766 162a 488B45F8 		movq	-8(%rbp), %rax
 1767 162e 488B80F8 		movq	248(%rax), %rax
 1767      000000
 1768 1635 4889C7   		movq	%rax, %rdi
 1769 1638 E8000000 		call	_ZdaPv
 1769      00
 1770              	.L181:
 201:/home/brendan/Dropbox/PhD/Code/LBM/2D LBFS/src/Mesh.cpp ****     n_k = NULL;
 1771              		.loc 1 201 0 is_stmt 1
 1772 163d 488B45F8 		movq	-8(%rbp), %rax
 1773 1641 48C780F8 		movq	$0, 248(%rax)
 1773      00000000 
 1773      000000
 202:/home/brendan/Dropbox/PhD/Code/LBM/2D LBFS/src/Mesh.cpp ****     delete [](n_node);
 1774              		.loc 1 202 0
 1775 164c 488B45F8 		movq	-8(%rbp), %rax
 1776 1650 488B8050 		movq	336(%rax), %rax
 1776      010000
 1777 1657 4885C0   		testq	%rax, %rax
 1778 165a 7413     		je	.L182
 1779              		.loc 1 202 0 is_stmt 0 discriminator 1
 1780 165c 488B45F8 		movq	-8(%rbp), %rax
 1781 1660 488B8050 		movq	336(%rax), %rax
 1781      010000
 1782 1667 4889C7   		movq	%rax, %rdi
 1783 166a E8000000 		call	_ZdaPv
 1783      00
 1784              	.L182:
 203:/home/brendan/Dropbox/PhD/Code/LBM/2D LBFS/src/Mesh.cpp ****     n_node = NULL;
 1785              		.loc 1 203 0 is_stmt 1
 1786 166f 488B45F8 		movq	-8(%rbp), %rax
 1787 1673 48C78050 		movq	$0, 336(%rax)
 1787      01000000 
 1787      000000
 204:/home/brendan/Dropbox/PhD/Code/LBM/2D LBFS/src/Mesh.cpp **** 
 205:/home/brendan/Dropbox/PhD/Code/LBM/2D LBFS/src/Mesh.cpp ****     delete [](e_area);
 1788              		.loc 1 205 0
 1789 167e 488B45F8 		movq	-8(%rbp), %rax
 1790 1682 488B80D0 		movq	208(%rax), %rax
 1790      000000
 1791 1689 4885C0   		testq	%rax, %rax
 1792 168c 7413     		je	.L183
 1793              		.loc 1 205 0 is_stmt 0 discriminator 1
GAS LISTING /tmp/ccSpSEFs.s 			page 48


 1794 168e 488B45F8 		movq	-8(%rbp), %rax
 1795 1692 488B80D0 		movq	208(%rax), %rax
 1795      000000
 1796 1699 4889C7   		movq	%rax, %rdi
 1797 169c E8000000 		call	_ZdaPv
 1797      00
 1798              	.L183:
 206:/home/brendan/Dropbox/PhD/Code/LBM/2D LBFS/src/Mesh.cpp ****     e_area = NULL;
 1799              		.loc 1 206 0 is_stmt 1
 1800 16a1 488B45F8 		movq	-8(%rbp), %rax
 1801 16a5 48C780D0 		movq	$0, 208(%rax)
 1801      00000000 
 1801      000000
 207:/home/brendan/Dropbox/PhD/Code/LBM/2D LBFS/src/Mesh.cpp ****     delete [](e_i);
 1802              		.loc 1 207 0
 1803 16b0 488B45F8 		movq	-8(%rbp), %rax
 1804 16b4 488B8030 		movq	304(%rax), %rax
 1804      010000
 1805 16bb 4885C0   		testq	%rax, %rax
 1806 16be 7413     		je	.L184
 1807              		.loc 1 207 0 is_stmt 0 discriminator 1
 1808 16c0 488B45F8 		movq	-8(%rbp), %rax
 1809 16c4 488B8030 		movq	304(%rax), %rax
 1809      010000
 1810 16cb 4889C7   		movq	%rax, %rdi
 1811 16ce E8000000 		call	_ZdaPv
 1811      00
 1812              	.L184:
 208:/home/brendan/Dropbox/PhD/Code/LBM/2D LBFS/src/Mesh.cpp ****     e_i = NULL;
 1813              		.loc 1 208 0 is_stmt 1
 1814 16d3 488B45F8 		movq	-8(%rbp), %rax
 1815 16d7 48C78030 		movq	$0, 304(%rax)
 1815      01000000 
 1815      000000
 209:/home/brendan/Dropbox/PhD/Code/LBM/2D LBFS/src/Mesh.cpp ****     delete [](e_j);
 1816              		.loc 1 209 0
 1817 16e2 488B45F8 		movq	-8(%rbp), %rax
 1818 16e6 488B8038 		movq	312(%rax), %rax
 1818      010000
 1819 16ed 4885C0   		testq	%rax, %rax
 1820 16f0 7413     		je	.L185
 1821              		.loc 1 209 0 is_stmt 0 discriminator 1
 1822 16f2 488B45F8 		movq	-8(%rbp), %rax
 1823 16f6 488B8038 		movq	312(%rax), %rax
 1823      010000
 1824 16fd 4889C7   		movq	%rax, %rdi
 1825 1700 E8000000 		call	_ZdaPv
 1825      00
 1826              	.L185:
 210:/home/brendan/Dropbox/PhD/Code/LBM/2D LBFS/src/Mesh.cpp ****     e_j = NULL;
 1827              		.loc 1 210 0 is_stmt 1
 1828 1705 488B45F8 		movq	-8(%rbp), %rax
 1829 1709 48C78038 		movq	$0, 312(%rax)
 1829      01000000 
 1829      000000
 211:/home/brendan/Dropbox/PhD/Code/LBM/2D LBFS/src/Mesh.cpp ****     delete [](e_k);
 1830              		.loc 1 211 0
GAS LISTING /tmp/ccSpSEFs.s 			page 49


 1831 1714 488B45F8 		movq	-8(%rbp), %rax
 1832 1718 488B8040 		movq	320(%rax), %rax
 1832      010000
 1833 171f 4885C0   		testq	%rax, %rax
 1834 1722 7413     		je	.L186
 1835              		.loc 1 211 0 is_stmt 0 discriminator 1
 1836 1724 488B45F8 		movq	-8(%rbp), %rax
 1837 1728 488B8040 		movq	320(%rax), %rax
 1837      010000
 1838 172f 4889C7   		movq	%rax, %rdi
 1839 1732 E8000000 		call	_ZdaPv
 1839      00
 1840              	.L186:
 212:/home/brendan/Dropbox/PhD/Code/LBM/2D LBFS/src/Mesh.cpp ****     e_k = NULL;
 1841              		.loc 1 212 0 is_stmt 1
 1842 1737 488B45F8 		movq	-8(%rbp), %rax
 1843 173b 48C78040 		movq	$0, 320(%rax)
 1843      01000000 
 1843      000000
 213:/home/brendan/Dropbox/PhD/Code/LBM/2D LBFS/src/Mesh.cpp ****     delete [](e_node);
 1844              		.loc 1 213 0
 1845 1746 488B45F8 		movq	-8(%rbp), %rax
 1846 174a 488B8060 		movq	352(%rax), %rax
 1846      010000
 1847 1751 4885C0   		testq	%rax, %rax
 1848 1754 7413     		je	.L187
 1849              		.loc 1 213 0 is_stmt 0 discriminator 1
 1850 1756 488B45F8 		movq	-8(%rbp), %rax
 1851 175a 488B8060 		movq	352(%rax), %rax
 1851      010000
 1852 1761 4889C7   		movq	%rax, %rdi
 1853 1764 E8000000 		call	_ZdaPv
 1853      00
 1854              	.L187:
 214:/home/brendan/Dropbox/PhD/Code/LBM/2D LBFS/src/Mesh.cpp ****     e_node = NULL;
 1855              		.loc 1 214 0 is_stmt 1
 1856 1769 488B45F8 		movq	-8(%rbp), %rax
 1857 176d 48C78060 		movq	$0, 352(%rax)
 1857      01000000 
 1857      000000
 215:/home/brendan/Dropbox/PhD/Code/LBM/2D LBFS/src/Mesh.cpp **** 
 216:/home/brendan/Dropbox/PhD/Code/LBM/2D LBFS/src/Mesh.cpp ****     delete [](w_area);
 1858              		.loc 1 216 0
 1859 1778 488B45F8 		movq	-8(%rbp), %rax
 1860 177c 488B80C8 		movq	200(%rax), %rax
 1860      000000
 1861 1783 4885C0   		testq	%rax, %rax
 1862 1786 7413     		je	.L188
 1863              		.loc 1 216 0 is_stmt 0 discriminator 1
 1864 1788 488B45F8 		movq	-8(%rbp), %rax
 1865 178c 488B80C8 		movq	200(%rax), %rax
 1865      000000
 1866 1793 4889C7   		movq	%rax, %rdi
 1867 1796 E8000000 		call	_ZdaPv
 1867      00
 1868              	.L188:
 217:/home/brendan/Dropbox/PhD/Code/LBM/2D LBFS/src/Mesh.cpp ****     w_area = NULL;
GAS LISTING /tmp/ccSpSEFs.s 			page 50


 1869              		.loc 1 217 0 is_stmt 1
 1870 179b 488B45F8 		movq	-8(%rbp), %rax
 1871 179f 48C780C8 		movq	$0, 200(%rax)
 1871      00000000 
 1871      000000
 218:/home/brendan/Dropbox/PhD/Code/LBM/2D LBFS/src/Mesh.cpp ****     delete [](w_i);
 1872              		.loc 1 218 0
 1873 17aa 488B45F8 		movq	-8(%rbp), %rax
 1874 17ae 488B8018 		movq	280(%rax), %rax
 1874      010000
 1875 17b5 4885C0   		testq	%rax, %rax
 1876 17b8 7413     		je	.L189
 1877              		.loc 1 218 0 is_stmt 0 discriminator 1
 1878 17ba 488B45F8 		movq	-8(%rbp), %rax
 1879 17be 488B8018 		movq	280(%rax), %rax
 1879      010000
 1880 17c5 4889C7   		movq	%rax, %rdi
 1881 17c8 E8000000 		call	_ZdaPv
 1881      00
 1882              	.L189:
 219:/home/brendan/Dropbox/PhD/Code/LBM/2D LBFS/src/Mesh.cpp ****     w_i = NULL;
 1883              		.loc 1 219 0 is_stmt 1
 1884 17cd 488B45F8 		movq	-8(%rbp), %rax
 1885 17d1 48C78018 		movq	$0, 280(%rax)
 1885      01000000 
 1885      000000
 220:/home/brendan/Dropbox/PhD/Code/LBM/2D LBFS/src/Mesh.cpp ****     delete [](w_j);
 1886              		.loc 1 220 0
 1887 17dc 488B45F8 		movq	-8(%rbp), %rax
 1888 17e0 488B8020 		movq	288(%rax), %rax
 1888      010000
 1889 17e7 4885C0   		testq	%rax, %rax
 1890 17ea 7413     		je	.L190
 1891              		.loc 1 220 0 is_stmt 0 discriminator 1
 1892 17ec 488B45F8 		movq	-8(%rbp), %rax
 1893 17f0 488B8020 		movq	288(%rax), %rax
 1893      010000
 1894 17f7 4889C7   		movq	%rax, %rdi
 1895 17fa E8000000 		call	_ZdaPv
 1895      00
 1896              	.L190:
 221:/home/brendan/Dropbox/PhD/Code/LBM/2D LBFS/src/Mesh.cpp ****     w_j = NULL;
 1897              		.loc 1 221 0 is_stmt 1
 1898 17ff 488B45F8 		movq	-8(%rbp), %rax
 1899 1803 48C78020 		movq	$0, 288(%rax)
 1899      01000000 
 1899      000000
 222:/home/brendan/Dropbox/PhD/Code/LBM/2D LBFS/src/Mesh.cpp ****     delete [](w_k);
 1900              		.loc 1 222 0
 1901 180e 488B45F8 		movq	-8(%rbp), %rax
 1902 1812 488B8028 		movq	296(%rax), %rax
 1902      010000
 1903 1819 4885C0   		testq	%rax, %rax
 1904 181c 7413     		je	.L191
 1905              		.loc 1 222 0 is_stmt 0 discriminator 1
 1906 181e 488B45F8 		movq	-8(%rbp), %rax
 1907 1822 488B8028 		movq	296(%rax), %rax
GAS LISTING /tmp/ccSpSEFs.s 			page 51


 1907      010000
 1908 1829 4889C7   		movq	%rax, %rdi
 1909 182c E8000000 		call	_ZdaPv
 1909      00
 1910              	.L191:
 223:/home/brendan/Dropbox/PhD/Code/LBM/2D LBFS/src/Mesh.cpp ****     w_k = NULL;
 1911              		.loc 1 223 0 is_stmt 1
 1912 1831 488B45F8 		movq	-8(%rbp), %rax
 1913 1835 48C78028 		movq	$0, 296(%rax)
 1913      01000000 
 1913      000000
 224:/home/brendan/Dropbox/PhD/Code/LBM/2D LBFS/src/Mesh.cpp ****     delete [](w_node);
 1914              		.loc 1 224 0
 1915 1840 488B45F8 		movq	-8(%rbp), %rax
 1916 1844 488B8068 		movq	360(%rax), %rax
 1916      010000
 1917 184b 4885C0   		testq	%rax, %rax
 1918 184e 7413     		je	.L192
 1919              		.loc 1 224 0 is_stmt 0 discriminator 1
 1920 1850 488B45F8 		movq	-8(%rbp), %rax
 1921 1854 488B8068 		movq	360(%rax), %rax
 1921      010000
 1922 185b 4889C7   		movq	%rax, %rdi
 1923 185e E8000000 		call	_ZdaPv
 1923      00
 1924              	.L192:
 225:/home/brendan/Dropbox/PhD/Code/LBM/2D LBFS/src/Mesh.cpp ****     w_node = NULL;
 1925              		.loc 1 225 0 is_stmt 1
 1926 1863 488B45F8 		movq	-8(%rbp), %rax
 1927 1867 48C78068 		movq	$0, 360(%rax)
 1927      01000000 
 1927      000000
 226:/home/brendan/Dropbox/PhD/Code/LBM/2D LBFS/src/Mesh.cpp **** 
 227:/home/brendan/Dropbox/PhD/Code/LBM/2D LBFS/src/Mesh.cpp ****     delete [](s_area);
 1928              		.loc 1 227 0
 1929 1872 488B45F8 		movq	-8(%rbp), %rax
 1930 1876 488B80C0 		movq	192(%rax), %rax
 1930      000000
 1931 187d 4885C0   		testq	%rax, %rax
 1932 1880 7413     		je	.L193
 1933              		.loc 1 227 0 is_stmt 0 discriminator 1
 1934 1882 488B45F8 		movq	-8(%rbp), %rax
 1935 1886 488B80C0 		movq	192(%rax), %rax
 1935      000000
 1936 188d 4889C7   		movq	%rax, %rdi
 1937 1890 E8000000 		call	_ZdaPv
 1937      00
 1938              	.L193:
 228:/home/brendan/Dropbox/PhD/Code/LBM/2D LBFS/src/Mesh.cpp ****     s_area = NULL;
 1939              		.loc 1 228 0 is_stmt 1
 1940 1895 488B45F8 		movq	-8(%rbp), %rax
 1941 1899 48C780C0 		movq	$0, 192(%rax)
 1941      00000000 
 1941      000000
 229:/home/brendan/Dropbox/PhD/Code/LBM/2D LBFS/src/Mesh.cpp ****     delete [](s_i);
 1942              		.loc 1 229 0
 1943 18a4 488B45F8 		movq	-8(%rbp), %rax
GAS LISTING /tmp/ccSpSEFs.s 			page 52


 1944 18a8 488B8000 		movq	256(%rax), %rax
 1944      010000
 1945 18af 4885C0   		testq	%rax, %rax
 1946 18b2 7413     		je	.L194
 1947              		.loc 1 229 0 is_stmt 0 discriminator 1
 1948 18b4 488B45F8 		movq	-8(%rbp), %rax
 1949 18b8 488B8000 		movq	256(%rax), %rax
 1949      010000
 1950 18bf 4889C7   		movq	%rax, %rdi
 1951 18c2 E8000000 		call	_ZdaPv
 1951      00
 1952              	.L194:
 230:/home/brendan/Dropbox/PhD/Code/LBM/2D LBFS/src/Mesh.cpp ****     s_i = NULL;
 1953              		.loc 1 230 0 is_stmt 1
 1954 18c7 488B45F8 		movq	-8(%rbp), %rax
 1955 18cb 48C78000 		movq	$0, 256(%rax)
 1955      01000000 
 1955      000000
 231:/home/brendan/Dropbox/PhD/Code/LBM/2D LBFS/src/Mesh.cpp ****     delete [](s_j);
 1956              		.loc 1 231 0
 1957 18d6 488B45F8 		movq	-8(%rbp), %rax
 1958 18da 488B8008 		movq	264(%rax), %rax
 1958      010000
 1959 18e1 4885C0   		testq	%rax, %rax
 1960 18e4 7413     		je	.L195
 1961              		.loc 1 231 0 is_stmt 0 discriminator 1
 1962 18e6 488B45F8 		movq	-8(%rbp), %rax
 1963 18ea 488B8008 		movq	264(%rax), %rax
 1963      010000
 1964 18f1 4889C7   		movq	%rax, %rdi
 1965 18f4 E8000000 		call	_ZdaPv
 1965      00
 1966              	.L195:
 232:/home/brendan/Dropbox/PhD/Code/LBM/2D LBFS/src/Mesh.cpp ****     s_j = NULL;
 1967              		.loc 1 232 0 is_stmt 1
 1968 18f9 488B45F8 		movq	-8(%rbp), %rax
 1969 18fd 48C78008 		movq	$0, 264(%rax)
 1969      01000000 
 1969      000000
 233:/home/brendan/Dropbox/PhD/Code/LBM/2D LBFS/src/Mesh.cpp ****     delete [](s_k);
 1970              		.loc 1 233 0
 1971 1908 488B45F8 		movq	-8(%rbp), %rax
 1972 190c 488B8010 		movq	272(%rax), %rax
 1972      010000
 1973 1913 4885C0   		testq	%rax, %rax
 1974 1916 7413     		je	.L196
 1975              		.loc 1 233 0 is_stmt 0 discriminator 1
 1976 1918 488B45F8 		movq	-8(%rbp), %rax
 1977 191c 488B8010 		movq	272(%rax), %rax
 1977      010000
 1978 1923 4889C7   		movq	%rax, %rdi
 1979 1926 E8000000 		call	_ZdaPv
 1979      00
 1980              	.L196:
 234:/home/brendan/Dropbox/PhD/Code/LBM/2D LBFS/src/Mesh.cpp ****     s_k = NULL;
 1981              		.loc 1 234 0 is_stmt 1
 1982 192b 488B45F8 		movq	-8(%rbp), %rax
GAS LISTING /tmp/ccSpSEFs.s 			page 53


 1983 192f 48C78010 		movq	$0, 272(%rax)
 1983      01000000 
 1983      000000
 235:/home/brendan/Dropbox/PhD/Code/LBM/2D LBFS/src/Mesh.cpp ****     delete [](s_node);
 1984              		.loc 1 235 0
 1985 193a 488B45F8 		movq	-8(%rbp), %rax
 1986 193e 488B8058 		movq	344(%rax), %rax
 1986      010000
 1987 1945 4885C0   		testq	%rax, %rax
 1988 1948 7413     		je	.L197
 1989              		.loc 1 235 0 is_stmt 0 discriminator 1
 1990 194a 488B45F8 		movq	-8(%rbp), %rax
 1991 194e 488B8058 		movq	344(%rax), %rax
 1991      010000
 1992 1955 4889C7   		movq	%rax, %rdi
 1993 1958 E8000000 		call	_ZdaPv
 1993      00
 1994              	.L197:
 236:/home/brendan/Dropbox/PhD/Code/LBM/2D LBFS/src/Mesh.cpp ****     s_node = NULL;
 1995              		.loc 1 236 0 is_stmt 1
 1996 195d 488B45F8 		movq	-8(%rbp), %rax
 1997 1961 48C78058 		movq	$0, 344(%rax)
 1997      01000000 
 1997      000000
 1998              	.LBE7:
 237:/home/brendan/Dropbox/PhD/Code/LBM/2D LBFS/src/Mesh.cpp **** }
 1999              		.loc 1 237 0
 2000 196c B8000000 		movl	$0, %eax
 2000      00
 2001 1971 85C0     		testl	%eax, %eax
 2002 1973 740C     		je	.L160
 2003              		.loc 1 237 0 is_stmt 0 discriminator 1
 2004 1975 488B45F8 		movq	-8(%rbp), %rax
 2005 1979 4889C7   		movq	%rax, %rdi
 2006 197c E8000000 		call	_ZdlPv
 2006      00
 2007              	.L160:
 2008              		.loc 1 237 0
 2009 1981 C9       		leave
 2010              		.cfi_def_cfa 7, 8
 2011 1982 C3       		ret
 2012              		.cfi_endproc
 2013              	.LFE6796:
 2015              		.globl	_ZN4MeshD1Ev
 2016              		.set	_ZN4MeshD1Ev,_ZN4MeshD2Ev
 2017 1983 90       		.align 2
 2018              		.globl	_ZN4MeshD0Ev
 2020              	_ZN4MeshD0Ev:
 2021              	.LFB6798:
 153:/home/brendan/Dropbox/PhD/Code/LBM/2D LBFS/src/Mesh.cpp **** {
 2022              		.loc 1 153 0 is_stmt 1
 2023              		.cfi_startproc
 2024 1984 55       		pushq	%rbp
 2025              		.cfi_def_cfa_offset 16
 2026              		.cfi_offset 6, -16
 2027 1985 4889E5   		movq	%rsp, %rbp
 2028              		.cfi_def_cfa_register 6
GAS LISTING /tmp/ccSpSEFs.s 			page 54


 2029 1988 4883EC10 		subq	$16, %rsp
 2030 198c 48897DF8 		movq	%rdi, -8(%rbp)
 2031              		.loc 1 237 0
 2032 1990 488B45F8 		movq	-8(%rbp), %rax
 2033 1994 4889C7   		movq	%rax, %rdi
 2034 1997 E8000000 		call	_ZN4MeshD1Ev
 2034      00
 2035 199c 488B45F8 		movq	-8(%rbp), %rax
 2036 19a0 4889C7   		movq	%rax, %rdi
 2037 19a3 E8000000 		call	_ZdlPv
 2037      00
 2038 19a8 C9       		leave
 2039              		.cfi_def_cfa 7, 8
 2040 19a9 C3       		ret
 2041              		.cfi_endproc
 2042              	.LFE6798:
 2044              		.align 2
 2045              		.globl	_ZN4Mesh20create_standard_meshEv
 2047              	_ZN4Mesh20create_standard_meshEv:
 2048              	.LFB6799:
 238:/home/brendan/Dropbox/PhD/Code/LBM/2D LBFS/src/Mesh.cpp **** 
 239:/home/brendan/Dropbox/PhD/Code/LBM/2D LBFS/src/Mesh.cpp **** void Mesh::create_standard_mesh(){
 2049              		.loc 1 239 0
 2050              		.cfi_startproc
 2051 19aa 55       		pushq	%rbp
 2052              		.cfi_def_cfa_offset 16
 2053              		.cfi_offset 6, -16
 2054 19ab 4889E5   		movq	%rsp, %rbp
 2055              		.cfi_def_cfa_register 6
 2056 19ae 53       		pushq	%rbx
 2057 19af 4883EC28 		subq	$40, %rsp
 2058              		.cfi_offset 3, -24
 2059 19b3 48897DD8 		movq	%rdi, -40(%rbp)
 240:/home/brendan/Dropbox/PhD/Code/LBM/2D LBFS/src/Mesh.cpp ****     int counter =0;
 2060              		.loc 1 240 0
 2061 19b7 C745E400 		movl	$0, -28(%rbp)
 2061      000000
 2062              	.LBB8:
 241:/home/brendan/Dropbox/PhD/Code/LBM/2D LBFS/src/Mesh.cpp ****     for( int j=0; j < num_y_cells; j++){
 2063              		.loc 1 241 0
 2064 19be C745E800 		movl	$0, -24(%rbp)
 2064      000000
 2065              	.L212:
 2066              		.loc 1 241 0 is_stmt 0 discriminator 1
 2067 19c5 488B45D8 		movq	-40(%rbp), %rax
 2068 19c9 8B400C   		movl	12(%rax), %eax
 2069 19cc 3B45E8   		cmpl	-24(%rbp), %eax
 2070 19cf 0F8E7907 		jle	.L213
 2070      0000
 2071              	.LBB9:
 2072              	.LBB10:
 242:/home/brendan/Dropbox/PhD/Code/LBM/2D LBFS/src/Mesh.cpp ****         for( int i=0; i < num_x_cells; i++){
 2073              		.loc 1 242 0 is_stmt 1
 2074 19d5 C745EC00 		movl	$0, -20(%rbp)
 2074      000000
 2075              	.L211:
 2076              		.loc 1 242 0 is_stmt 0 discriminator 1
GAS LISTING /tmp/ccSpSEFs.s 			page 55


 2077 19dc 488B45D8 		movq	-40(%rbp), %rax
 2078 19e0 8B4008   		movl	8(%rax), %eax
 2079 19e3 3B45EC   		cmpl	-20(%rbp), %eax
 2080 19e6 0F8E5907 		jle	.L202
 2080      0000
 243:/home/brendan/Dropbox/PhD/Code/LBM/2D LBFS/src/Mesh.cpp **** 
 244:/home/brendan/Dropbox/PhD/Code/LBM/2D LBFS/src/Mesh.cpp ****             centroid_x[counter] = dx/2 + (i-1)*dx;
 2081              		.loc 1 244 0 is_stmt 1
 2082 19ec 488B45D8 		movq	-40(%rbp), %rax
 2083 19f0 488B4040 		movq	64(%rax), %rax
 2084 19f4 8B55E4   		movl	-28(%rbp), %edx
 2085 19f7 4863D2   		movslq	%edx, %rdx
 2086 19fa 48C1E203 		salq	$3, %rdx
 2087 19fe 4801C2   		addq	%rax, %rdx
 2088 1a01 488B45D8 		movq	-40(%rbp), %rax
 2089 1a05 F20F1040 		movsd	40(%rax), %xmm0
 2089      28
 2090 1a0a F20F100D 		movsd	.LC0(%rip), %xmm1
 2090      00000000 
 2091 1a12 F20F5EC1 		divsd	%xmm1, %xmm0
 2092 1a16 660F28C8 		movapd	%xmm0, %xmm1
 2093 1a1a 8B45EC   		movl	-20(%rbp), %eax
 2094 1a1d 83E801   		subl	$1, %eax
 2095 1a20 660FEFC0 		pxor	%xmm0, %xmm0
 2096 1a24 F20F2AC0 		cvtsi2sd	%eax, %xmm0
 2097 1a28 488B45D8 		movq	-40(%rbp), %rax
 2098 1a2c F20F1050 		movsd	40(%rax), %xmm2
 2098      28
 2099 1a31 F20F59C2 		mulsd	%xmm2, %xmm0
 2100 1a35 F20F58C1 		addsd	%xmm1, %xmm0
 2101 1a39 F20F1102 		movsd	%xmm0, (%rdx)
 245:/home/brendan/Dropbox/PhD/Code/LBM/2D LBFS/src/Mesh.cpp ****             centroid_y[counter] = dy/2 + (j-1)*dy;
 2102              		.loc 1 245 0
 2103 1a3d 488B45D8 		movq	-40(%rbp), %rax
 2104 1a41 488B4048 		movq	72(%rax), %rax
 2105 1a45 8B55E4   		movl	-28(%rbp), %edx
 2106 1a48 4863D2   		movslq	%edx, %rdx
 2107 1a4b 48C1E203 		salq	$3, %rdx
 2108 1a4f 4801C2   		addq	%rax, %rdx
 2109 1a52 488B45D8 		movq	-40(%rbp), %rax
 2110 1a56 F20F1040 		movsd	48(%rax), %xmm0
 2110      30
 2111 1a5b F20F100D 		movsd	.LC0(%rip), %xmm1
 2111      00000000 
 2112 1a63 F20F5EC1 		divsd	%xmm1, %xmm0
 2113 1a67 660F28C8 		movapd	%xmm0, %xmm1
 2114 1a6b 8B45E8   		movl	-24(%rbp), %eax
 2115 1a6e 83E801   		subl	$1, %eax
 2116 1a71 660FEFC0 		pxor	%xmm0, %xmm0
 2117 1a75 F20F2AC0 		cvtsi2sd	%eax, %xmm0
 2118 1a79 488B45D8 		movq	-40(%rbp), %rax
 2119 1a7d F20F1050 		movsd	48(%rax), %xmm2
 2119      30
 2120 1a82 F20F59C2 		mulsd	%xmm2, %xmm0
 2121 1a86 F20F58C1 		addsd	%xmm1, %xmm0
 2122 1a8a F20F1102 		movsd	%xmm0, (%rdx)
 246:/home/brendan/Dropbox/PhD/Code/LBM/2D LBFS/src/Mesh.cpp ****             centroid_z[counter] = 0; //temporary
GAS LISTING /tmp/ccSpSEFs.s 			page 56


 2123              		.loc 1 246 0
 2124 1a8e 488B45D8 		movq	-40(%rbp), %rax
 2125 1a92 488B4050 		movq	80(%rax), %rax
 2126 1a96 8B55E4   		movl	-28(%rbp), %edx
 2127 1a99 4863D2   		movslq	%edx, %rdx
 2128 1a9c 48C1E203 		salq	$3, %rdx
 2129 1aa0 4801D0   		addq	%rdx, %rax
 2130 1aa3 660FEFC0 		pxor	%xmm0, %xmm0
 2131 1aa7 F20F1100 		movsd	%xmm0, (%rax)
 247:/home/brendan/Dropbox/PhD/Code/LBM/2D LBFS/src/Mesh.cpp ****             north_x[counter] = dx/2 + (i-1)*dx;
 2132              		.loc 1 247 0
 2133 1aab 488B45D8 		movq	-40(%rbp), %rax
 2134 1aaf 488B4058 		movq	88(%rax), %rax
 2135 1ab3 8B55E4   		movl	-28(%rbp), %edx
 2136 1ab6 4863D2   		movslq	%edx, %rdx
 2137 1ab9 48C1E203 		salq	$3, %rdx
 2138 1abd 4801C2   		addq	%rax, %rdx
 2139 1ac0 488B45D8 		movq	-40(%rbp), %rax
 2140 1ac4 F20F1040 		movsd	40(%rax), %xmm0
 2140      28
 2141 1ac9 F20F100D 		movsd	.LC0(%rip), %xmm1
 2141      00000000 
 2142 1ad1 F20F5EC1 		divsd	%xmm1, %xmm0
 2143 1ad5 660F28C8 		movapd	%xmm0, %xmm1
 2144 1ad9 8B45EC   		movl	-20(%rbp), %eax
 2145 1adc 83E801   		subl	$1, %eax
 2146 1adf 660FEFC0 		pxor	%xmm0, %xmm0
 2147 1ae3 F20F2AC0 		cvtsi2sd	%eax, %xmm0
 2148 1ae7 488B45D8 		movq	-40(%rbp), %rax
 2149 1aeb F20F1050 		movsd	40(%rax), %xmm2
 2149      28
 2150 1af0 F20F59C2 		mulsd	%xmm2, %xmm0
 2151 1af4 F20F58C1 		addsd	%xmm1, %xmm0
 2152 1af8 F20F1102 		movsd	%xmm0, (%rdx)
 248:/home/brendan/Dropbox/PhD/Code/LBM/2D LBFS/src/Mesh.cpp ****             north_y[counter] = dy + (j-1)*dy;
 2153              		.loc 1 248 0
 2154 1afc 488B45D8 		movq	-40(%rbp), %rax
 2155 1b00 488B4060 		movq	96(%rax), %rax
 2156 1b04 8B55E4   		movl	-28(%rbp), %edx
 2157 1b07 4863D2   		movslq	%edx, %rdx
 2158 1b0a 48C1E203 		salq	$3, %rdx
 2159 1b0e 4801C2   		addq	%rax, %rdx
 2160 1b11 488B45D8 		movq	-40(%rbp), %rax
 2161 1b15 F20F1048 		movsd	48(%rax), %xmm1
 2161      30
 2162 1b1a 8B45E8   		movl	-24(%rbp), %eax
 2163 1b1d 83E801   		subl	$1, %eax
 2164 1b20 660FEFC0 		pxor	%xmm0, %xmm0
 2165 1b24 F20F2AC0 		cvtsi2sd	%eax, %xmm0
 2166 1b28 488B45D8 		movq	-40(%rbp), %rax
 2167 1b2c F20F1050 		movsd	48(%rax), %xmm2
 2167      30
 2168 1b31 F20F59C2 		mulsd	%xmm2, %xmm0
 2169 1b35 F20F58C1 		addsd	%xmm1, %xmm0
 2170 1b39 F20F1102 		movsd	%xmm0, (%rdx)
 249:/home/brendan/Dropbox/PhD/Code/LBM/2D LBFS/src/Mesh.cpp ****             north_z[counter] = 0; //temporary
 2171              		.loc 1 249 0
GAS LISTING /tmp/ccSpSEFs.s 			page 57


 2172 1b3d 488B45D8 		movq	-40(%rbp), %rax
 2173 1b41 488B4068 		movq	104(%rax), %rax
 2174 1b45 8B55E4   		movl	-28(%rbp), %edx
 2175 1b48 4863D2   		movslq	%edx, %rdx
 2176 1b4b 48C1E203 		salq	$3, %rdx
 2177 1b4f 4801D0   		addq	%rdx, %rax
 2178 1b52 660FEFC0 		pxor	%xmm0, %xmm0
 2179 1b56 F20F1100 		movsd	%xmm0, (%rax)
 250:/home/brendan/Dropbox/PhD/Code/LBM/2D LBFS/src/Mesh.cpp ****             south_x[counter] = dx/2 + (i-1)*dx;
 2180              		.loc 1 250 0
 2181 1b5a 488B45D8 		movq	-40(%rbp), %rax
 2182 1b5e 488B80A0 		movq	160(%rax), %rax
 2182      000000
 2183 1b65 8B55E4   		movl	-28(%rbp), %edx
 2184 1b68 4863D2   		movslq	%edx, %rdx
 2185 1b6b 48C1E203 		salq	$3, %rdx
 2186 1b6f 4801C2   		addq	%rax, %rdx
 2187 1b72 488B45D8 		movq	-40(%rbp), %rax
 2188 1b76 F20F1040 		movsd	40(%rax), %xmm0
 2188      28
 2189 1b7b F20F100D 		movsd	.LC0(%rip), %xmm1
 2189      00000000 
 2190 1b83 F20F5EC1 		divsd	%xmm1, %xmm0
 2191 1b87 660F28C8 		movapd	%xmm0, %xmm1
 2192 1b8b 8B45EC   		movl	-20(%rbp), %eax
 2193 1b8e 83E801   		subl	$1, %eax
 2194 1b91 660FEFC0 		pxor	%xmm0, %xmm0
 2195 1b95 F20F2AC0 		cvtsi2sd	%eax, %xmm0
 2196 1b99 488B45D8 		movq	-40(%rbp), %rax
 2197 1b9d F20F1050 		movsd	40(%rax), %xmm2
 2197      28
 2198 1ba2 F20F59C2 		mulsd	%xmm2, %xmm0
 2199 1ba6 F20F58C1 		addsd	%xmm1, %xmm0
 2200 1baa F20F1102 		movsd	%xmm0, (%rdx)
 251:/home/brendan/Dropbox/PhD/Code/LBM/2D LBFS/src/Mesh.cpp ****             south_y[counter] = (j-1)*dy;
 2201              		.loc 1 251 0
 2202 1bae 488B45D8 		movq	-40(%rbp), %rax
 2203 1bb2 488B80A8 		movq	168(%rax), %rax
 2203      000000
 2204 1bb9 8B55E4   		movl	-28(%rbp), %edx
 2205 1bbc 4863D2   		movslq	%edx, %rdx
 2206 1bbf 48C1E203 		salq	$3, %rdx
 2207 1bc3 4801C2   		addq	%rax, %rdx
 2208 1bc6 8B45E8   		movl	-24(%rbp), %eax
 2209 1bc9 83E801   		subl	$1, %eax
 2210 1bcc 660FEFC0 		pxor	%xmm0, %xmm0
 2211 1bd0 F20F2AC0 		cvtsi2sd	%eax, %xmm0
 2212 1bd4 488B45D8 		movq	-40(%rbp), %rax
 2213 1bd8 F20F1048 		movsd	48(%rax), %xmm1
 2213      30
 2214 1bdd F20F59C1 		mulsd	%xmm1, %xmm0
 2215 1be1 F20F1102 		movsd	%xmm0, (%rdx)
 252:/home/brendan/Dropbox/PhD/Code/LBM/2D LBFS/src/Mesh.cpp ****             south_z[counter] = 0; //temporary
 2216              		.loc 1 252 0
 2217 1be5 488B45D8 		movq	-40(%rbp), %rax
 2218 1be9 488B80B0 		movq	176(%rax), %rax
 2218      000000
GAS LISTING /tmp/ccSpSEFs.s 			page 58


 2219 1bf0 8B55E4   		movl	-28(%rbp), %edx
 2220 1bf3 4863D2   		movslq	%edx, %rdx
 2221 1bf6 48C1E203 		salq	$3, %rdx
 2222 1bfa 4801D0   		addq	%rdx, %rax
 2223 1bfd 660FEFC0 		pxor	%xmm0, %xmm0
 2224 1c01 F20F1100 		movsd	%xmm0, (%rax)
 253:/home/brendan/Dropbox/PhD/Code/LBM/2D LBFS/src/Mesh.cpp ****             west_x[counter] = (i-1)*dx;
 2225              		.loc 1 253 0
 2226 1c05 488B45D8 		movq	-40(%rbp), %rax
 2227 1c09 488B8088 		movq	136(%rax), %rax
 2227      000000
 2228 1c10 8B55E4   		movl	-28(%rbp), %edx
 2229 1c13 4863D2   		movslq	%edx, %rdx
 2230 1c16 48C1E203 		salq	$3, %rdx
 2231 1c1a 4801C2   		addq	%rax, %rdx
 2232 1c1d 8B45EC   		movl	-20(%rbp), %eax
 2233 1c20 83E801   		subl	$1, %eax
 2234 1c23 660FEFC0 		pxor	%xmm0, %xmm0
 2235 1c27 F20F2AC0 		cvtsi2sd	%eax, %xmm0
 2236 1c2b 488B45D8 		movq	-40(%rbp), %rax
 2237 1c2f F20F1048 		movsd	40(%rax), %xmm1
 2237      28
 2238 1c34 F20F59C1 		mulsd	%xmm1, %xmm0
 2239 1c38 F20F1102 		movsd	%xmm0, (%rdx)
 254:/home/brendan/Dropbox/PhD/Code/LBM/2D LBFS/src/Mesh.cpp ****             west_y[counter] = dy/2 + (j-1)*dy;
 2240              		.loc 1 254 0
 2241 1c3c 488B45D8 		movq	-40(%rbp), %rax
 2242 1c40 488B8090 		movq	144(%rax), %rax
 2242      000000
 2243 1c47 8B55E4   		movl	-28(%rbp), %edx
 2244 1c4a 4863D2   		movslq	%edx, %rdx
 2245 1c4d 48C1E203 		salq	$3, %rdx
 2246 1c51 4801C2   		addq	%rax, %rdx
 2247 1c54 488B45D8 		movq	-40(%rbp), %rax
 2248 1c58 F20F1040 		movsd	48(%rax), %xmm0
 2248      30
 2249 1c5d F20F100D 		movsd	.LC0(%rip), %xmm1
 2249      00000000 
 2250 1c65 F20F5EC1 		divsd	%xmm1, %xmm0
 2251 1c69 660F28C8 		movapd	%xmm0, %xmm1
 2252 1c6d 8B45E8   		movl	-24(%rbp), %eax
 2253 1c70 83E801   		subl	$1, %eax
 2254 1c73 660FEFC0 		pxor	%xmm0, %xmm0
 2255 1c77 F20F2AC0 		cvtsi2sd	%eax, %xmm0
 2256 1c7b 488B45D8 		movq	-40(%rbp), %rax
 2257 1c7f F20F1050 		movsd	48(%rax), %xmm2
 2257      30
 2258 1c84 F20F59C2 		mulsd	%xmm2, %xmm0
 2259 1c88 F20F58C1 		addsd	%xmm1, %xmm0
 2260 1c8c F20F1102 		movsd	%xmm0, (%rdx)
 255:/home/brendan/Dropbox/PhD/Code/LBM/2D LBFS/src/Mesh.cpp ****             west_z[counter] = 0; //temporary
 2261              		.loc 1 255 0
 2262 1c90 488B45D8 		movq	-40(%rbp), %rax
 2263 1c94 488B8098 		movq	152(%rax), %rax
 2263      000000
 2264 1c9b 8B55E4   		movl	-28(%rbp), %edx
 2265 1c9e 4863D2   		movslq	%edx, %rdx
GAS LISTING /tmp/ccSpSEFs.s 			page 59


 2266 1ca1 48C1E203 		salq	$3, %rdx
 2267 1ca5 4801D0   		addq	%rdx, %rax
 2268 1ca8 660FEFC0 		pxor	%xmm0, %xmm0
 2269 1cac F20F1100 		movsd	%xmm0, (%rax)
 256:/home/brendan/Dropbox/PhD/Code/LBM/2D LBFS/src/Mesh.cpp ****             east_x[counter] = dx + (i-1)*dx;
 2270              		.loc 1 256 0
 2271 1cb0 488B45D8 		movq	-40(%rbp), %rax
 2272 1cb4 488B4070 		movq	112(%rax), %rax
 2273 1cb8 8B55E4   		movl	-28(%rbp), %edx
 2274 1cbb 4863D2   		movslq	%edx, %rdx
 2275 1cbe 48C1E203 		salq	$3, %rdx
 2276 1cc2 4801C2   		addq	%rax, %rdx
 2277 1cc5 488B45D8 		movq	-40(%rbp), %rax
 2278 1cc9 F20F1048 		movsd	40(%rax), %xmm1
 2278      28
 2279 1cce 8B45EC   		movl	-20(%rbp), %eax
 2280 1cd1 83E801   		subl	$1, %eax
 2281 1cd4 660FEFC0 		pxor	%xmm0, %xmm0
 2282 1cd8 F20F2AC0 		cvtsi2sd	%eax, %xmm0
 2283 1cdc 488B45D8 		movq	-40(%rbp), %rax
 2284 1ce0 F20F1050 		movsd	40(%rax), %xmm2
 2284      28
 2285 1ce5 F20F59C2 		mulsd	%xmm2, %xmm0
 2286 1ce9 F20F58C1 		addsd	%xmm1, %xmm0
 2287 1ced F20F1102 		movsd	%xmm0, (%rdx)
 257:/home/brendan/Dropbox/PhD/Code/LBM/2D LBFS/src/Mesh.cpp ****             east_y[counter] = dy/2 + (j-1)*dy;
 2288              		.loc 1 257 0
 2289 1cf1 488B45D8 		movq	-40(%rbp), %rax
 2290 1cf5 488B4078 		movq	120(%rax), %rax
 2291 1cf9 8B55E4   		movl	-28(%rbp), %edx
 2292 1cfc 4863D2   		movslq	%edx, %rdx
 2293 1cff 48C1E203 		salq	$3, %rdx
 2294 1d03 4801C2   		addq	%rax, %rdx
 2295 1d06 488B45D8 		movq	-40(%rbp), %rax
 2296 1d0a F20F1040 		movsd	48(%rax), %xmm0
 2296      30
 2297 1d0f F20F100D 		movsd	.LC0(%rip), %xmm1
 2297      00000000 
 2298 1d17 F20F5EC1 		divsd	%xmm1, %xmm0
 2299 1d1b 660F28C8 		movapd	%xmm0, %xmm1
 2300 1d1f 8B45E8   		movl	-24(%rbp), %eax
 2301 1d22 83E801   		subl	$1, %eax
 2302 1d25 660FEFC0 		pxor	%xmm0, %xmm0
 2303 1d29 F20F2AC0 		cvtsi2sd	%eax, %xmm0
 2304 1d2d 488B45D8 		movq	-40(%rbp), %rax
 2305 1d31 F20F1050 		movsd	48(%rax), %xmm2
 2305      30
 2306 1d36 F20F59C2 		mulsd	%xmm2, %xmm0
 2307 1d3a F20F58C1 		addsd	%xmm1, %xmm0
 2308 1d3e F20F1102 		movsd	%xmm0, (%rdx)
 258:/home/brendan/Dropbox/PhD/Code/LBM/2D LBFS/src/Mesh.cpp ****             east_z[counter] = 0; //temporary
 2309              		.loc 1 258 0
 2310 1d42 488B45D8 		movq	-40(%rbp), %rax
 2311 1d46 488B8080 		movq	128(%rax), %rax
 2311      000000
 2312 1d4d 8B55E4   		movl	-28(%rbp), %edx
 2313 1d50 4863D2   		movslq	%edx, %rdx
GAS LISTING /tmp/ccSpSEFs.s 			page 60


 2314 1d53 48C1E203 		salq	$3, %rdx
 2315 1d57 4801D0   		addq	%rdx, %rax
 2316 1d5a 660FEFC0 		pxor	%xmm0, %xmm0
 2317 1d5e F20F1100 		movsd	%xmm0, (%rax)
 259:/home/brendan/Dropbox/PhD/Code/LBM/2D LBFS/src/Mesh.cpp **** 
 260:/home/brendan/Dropbox/PhD/Code/LBM/2D LBFS/src/Mesh.cpp ****             n_area[counter] = dx;
 2318              		.loc 1 260 0
 2319 1d62 488B45D8 		movq	-40(%rbp), %rax
 2320 1d66 488B80B8 		movq	184(%rax), %rax
 2320      000000
 2321 1d6d 8B55E4   		movl	-28(%rbp), %edx
 2322 1d70 4863D2   		movslq	%edx, %rdx
 2323 1d73 48C1E203 		salq	$3, %rdx
 2324 1d77 4801C2   		addq	%rax, %rdx
 2325 1d7a 488B45D8 		movq	-40(%rbp), %rax
 2326 1d7e F20F1040 		movsd	40(%rax), %xmm0
 2326      28
 2327 1d83 F20F1102 		movsd	%xmm0, (%rdx)
 261:/home/brendan/Dropbox/PhD/Code/LBM/2D LBFS/src/Mesh.cpp ****             s_area[counter] = dx;
 2328              		.loc 1 261 0
 2329 1d87 488B45D8 		movq	-40(%rbp), %rax
 2330 1d8b 488B80C0 		movq	192(%rax), %rax
 2330      000000
 2331 1d92 8B55E4   		movl	-28(%rbp), %edx
 2332 1d95 4863D2   		movslq	%edx, %rdx
 2333 1d98 48C1E203 		salq	$3, %rdx
 2334 1d9c 4801C2   		addq	%rax, %rdx
 2335 1d9f 488B45D8 		movq	-40(%rbp), %rax
 2336 1da3 F20F1040 		movsd	40(%rax), %xmm0
 2336      28
 2337 1da8 F20F1102 		movsd	%xmm0, (%rdx)
 262:/home/brendan/Dropbox/PhD/Code/LBM/2D LBFS/src/Mesh.cpp ****             e_area[counter] = dy;
 2338              		.loc 1 262 0
 2339 1dac 488B45D8 		movq	-40(%rbp), %rax
 2340 1db0 488B80D0 		movq	208(%rax), %rax
 2340      000000
 2341 1db7 8B55E4   		movl	-28(%rbp), %edx
 2342 1dba 4863D2   		movslq	%edx, %rdx
 2343 1dbd 48C1E203 		salq	$3, %rdx
 2344 1dc1 4801C2   		addq	%rax, %rdx
 2345 1dc4 488B45D8 		movq	-40(%rbp), %rax
 2346 1dc8 F20F1040 		movsd	48(%rax), %xmm0
 2346      30
 2347 1dcd F20F1102 		movsd	%xmm0, (%rdx)
 263:/home/brendan/Dropbox/PhD/Code/LBM/2D LBFS/src/Mesh.cpp ****             w_area[counter] = dy;
 2348              		.loc 1 263 0
 2349 1dd1 488B45D8 		movq	-40(%rbp), %rax
 2350 1dd5 488B80C8 		movq	200(%rax), %rax
 2350      000000
 2351 1ddc 8B55E4   		movl	-28(%rbp), %edx
 2352 1ddf 4863D2   		movslq	%edx, %rdx
 2353 1de2 48C1E203 		salq	$3, %rdx
 2354 1de6 4801C2   		addq	%rax, %rdx
 2355 1de9 488B45D8 		movq	-40(%rbp), %rax
 2356 1ded F20F1040 		movsd	48(%rax), %xmm0
 2356      30
 2357 1df2 F20F1102 		movsd	%xmm0, (%rdx)
GAS LISTING /tmp/ccSpSEFs.s 			page 61


 264:/home/brendan/Dropbox/PhD/Code/LBM/2D LBFS/src/Mesh.cpp **** 
 265:/home/brendan/Dropbox/PhD/Code/LBM/2D LBFS/src/Mesh.cpp ****             cell_volume[counter] = dx*dy;
 2358              		.loc 1 265 0
 2359 1df6 488B45D8 		movq	-40(%rbp), %rax
 2360 1dfa 488B80D8 		movq	216(%rax), %rax
 2360      000000
 2361 1e01 8B55E4   		movl	-28(%rbp), %edx
 2362 1e04 4863D2   		movslq	%edx, %rdx
 2363 1e07 48C1E203 		salq	$3, %rdx
 2364 1e0b 4801C2   		addq	%rax, %rdx
 2365 1e0e 488B45D8 		movq	-40(%rbp), %rax
 2366 1e12 F20F1048 		movsd	40(%rax), %xmm1
 2366      28
 2367 1e17 488B45D8 		movq	-40(%rbp), %rax
 2368 1e1b F20F1040 		movsd	48(%rax), %xmm0
 2368      30
 2369 1e20 F20F59C1 		mulsd	%xmm1, %xmm0
 2370 1e24 F20F1102 		movsd	%xmm0, (%rdx)
 266:/home/brendan/Dropbox/PhD/Code/LBM/2D LBFS/src/Mesh.cpp **** 
 267:/home/brendan/Dropbox/PhD/Code/LBM/2D LBFS/src/Mesh.cpp ****             n_i[counter] = 0.0;
 2371              		.loc 1 267 0
 2372 1e28 488B45D8 		movq	-40(%rbp), %rax
 2373 1e2c 488B80E8 		movq	232(%rax), %rax
 2373      000000
 2374 1e33 8B55E4   		movl	-28(%rbp), %edx
 2375 1e36 4863D2   		movslq	%edx, %rdx
 2376 1e39 48C1E203 		salq	$3, %rdx
 2377 1e3d 4801D0   		addq	%rdx, %rax
 2378 1e40 660FEFC0 		pxor	%xmm0, %xmm0
 2379 1e44 F20F1100 		movsd	%xmm0, (%rax)
 268:/home/brendan/Dropbox/PhD/Code/LBM/2D LBFS/src/Mesh.cpp ****             n_j[counter] = 1.0;
 2380              		.loc 1 268 0
 2381 1e48 488B45D8 		movq	-40(%rbp), %rax
 2382 1e4c 488B80F0 		movq	240(%rax), %rax
 2382      000000
 2383 1e53 8B55E4   		movl	-28(%rbp), %edx
 2384 1e56 4863D2   		movslq	%edx, %rdx
 2385 1e59 48C1E203 		salq	$3, %rdx
 2386 1e5d 4801D0   		addq	%rdx, %rax
 2387 1e60 F20F1005 		movsd	.LC4(%rip), %xmm0
 2387      00000000 
 2388 1e68 F20F1100 		movsd	%xmm0, (%rax)
 269:/home/brendan/Dropbox/PhD/Code/LBM/2D LBFS/src/Mesh.cpp ****             n_k[counter] = 0; //temporary
 2389              		.loc 1 269 0
 2390 1e6c 488B45D8 		movq	-40(%rbp), %rax
 2391 1e70 488B80F8 		movq	248(%rax), %rax
 2391      000000
 2392 1e77 8B55E4   		movl	-28(%rbp), %edx
 2393 1e7a 4863D2   		movslq	%edx, %rdx
 2394 1e7d 48C1E203 		salq	$3, %rdx
 2395 1e81 4801D0   		addq	%rdx, %rax
 2396 1e84 660FEFC0 		pxor	%xmm0, %xmm0
 2397 1e88 F20F1100 		movsd	%xmm0, (%rax)
 270:/home/brendan/Dropbox/PhD/Code/LBM/2D LBFS/src/Mesh.cpp **** 
 271:/home/brendan/Dropbox/PhD/Code/LBM/2D LBFS/src/Mesh.cpp ****             e_i[counter] = 1.0;
 2398              		.loc 1 271 0
 2399 1e8c 488B45D8 		movq	-40(%rbp), %rax
GAS LISTING /tmp/ccSpSEFs.s 			page 62


 2400 1e90 488B8030 		movq	304(%rax), %rax
 2400      010000
 2401 1e97 8B55E4   		movl	-28(%rbp), %edx
 2402 1e9a 4863D2   		movslq	%edx, %rdx
 2403 1e9d 48C1E203 		salq	$3, %rdx
 2404 1ea1 4801D0   		addq	%rdx, %rax
 2405 1ea4 F20F1005 		movsd	.LC4(%rip), %xmm0
 2405      00000000 
 2406 1eac F20F1100 		movsd	%xmm0, (%rax)
 272:/home/brendan/Dropbox/PhD/Code/LBM/2D LBFS/src/Mesh.cpp ****             e_j[counter] = 0.0;
 2407              		.loc 1 272 0
 2408 1eb0 488B45D8 		movq	-40(%rbp), %rax
 2409 1eb4 488B8038 		movq	312(%rax), %rax
 2409      010000
 2410 1ebb 8B55E4   		movl	-28(%rbp), %edx
 2411 1ebe 4863D2   		movslq	%edx, %rdx
 2412 1ec1 48C1E203 		salq	$3, %rdx
 2413 1ec5 4801D0   		addq	%rdx, %rax
 2414 1ec8 660FEFC0 		pxor	%xmm0, %xmm0
 2415 1ecc F20F1100 		movsd	%xmm0, (%rax)
 273:/home/brendan/Dropbox/PhD/Code/LBM/2D LBFS/src/Mesh.cpp ****             e_k[counter] = 0; //temporary
 2416              		.loc 1 273 0
 2417 1ed0 488B45D8 		movq	-40(%rbp), %rax
 2418 1ed4 488B8040 		movq	320(%rax), %rax
 2418      010000
 2419 1edb 8B55E4   		movl	-28(%rbp), %edx
 2420 1ede 4863D2   		movslq	%edx, %rdx
 2421 1ee1 48C1E203 		salq	$3, %rdx
 2422 1ee5 4801D0   		addq	%rdx, %rax
 2423 1ee8 660FEFC0 		pxor	%xmm0, %xmm0
 2424 1eec F20F1100 		movsd	%xmm0, (%rax)
 274:/home/brendan/Dropbox/PhD/Code/LBM/2D LBFS/src/Mesh.cpp **** 
 275:/home/brendan/Dropbox/PhD/Code/LBM/2D LBFS/src/Mesh.cpp **** 
 276:/home/brendan/Dropbox/PhD/Code/LBM/2D LBFS/src/Mesh.cpp ****             s_i[counter] = 0.0;
 2425              		.loc 1 276 0
 2426 1ef0 488B45D8 		movq	-40(%rbp), %rax
 2427 1ef4 488B8000 		movq	256(%rax), %rax
 2427      010000
 2428 1efb 8B55E4   		movl	-28(%rbp), %edx
 2429 1efe 4863D2   		movslq	%edx, %rdx
 2430 1f01 48C1E203 		salq	$3, %rdx
 2431 1f05 4801D0   		addq	%rdx, %rax
 2432 1f08 660FEFC0 		pxor	%xmm0, %xmm0
 2433 1f0c F20F1100 		movsd	%xmm0, (%rax)
 277:/home/brendan/Dropbox/PhD/Code/LBM/2D LBFS/src/Mesh.cpp ****             s_j[counter] = -1.0;
 2434              		.loc 1 277 0
 2435 1f10 488B45D8 		movq	-40(%rbp), %rax
 2436 1f14 488B8008 		movq	264(%rax), %rax
 2436      010000
 2437 1f1b 8B55E4   		movl	-28(%rbp), %edx
 2438 1f1e 4863D2   		movslq	%edx, %rdx
 2439 1f21 48C1E203 		salq	$3, %rdx
 2440 1f25 4801D0   		addq	%rdx, %rax
 2441 1f28 F20F1005 		movsd	.LC5(%rip), %xmm0
 2441      00000000 
 2442 1f30 F20F1100 		movsd	%xmm0, (%rax)
 278:/home/brendan/Dropbox/PhD/Code/LBM/2D LBFS/src/Mesh.cpp ****             s_k[counter] = 0; //temporary
GAS LISTING /tmp/ccSpSEFs.s 			page 63


 2443              		.loc 1 278 0
 2444 1f34 488B45D8 		movq	-40(%rbp), %rax
 2445 1f38 488B8010 		movq	272(%rax), %rax
 2445      010000
 2446 1f3f 8B55E4   		movl	-28(%rbp), %edx
 2447 1f42 4863D2   		movslq	%edx, %rdx
 2448 1f45 48C1E203 		salq	$3, %rdx
 2449 1f49 4801D0   		addq	%rdx, %rax
 2450 1f4c 660FEFC0 		pxor	%xmm0, %xmm0
 2451 1f50 F20F1100 		movsd	%xmm0, (%rax)
 279:/home/brendan/Dropbox/PhD/Code/LBM/2D LBFS/src/Mesh.cpp **** 
 280:/home/brendan/Dropbox/PhD/Code/LBM/2D LBFS/src/Mesh.cpp **** 
 281:/home/brendan/Dropbox/PhD/Code/LBM/2D LBFS/src/Mesh.cpp ****             w_i[counter] = -1.0;
 2452              		.loc 1 281 0
 2453 1f54 488B45D8 		movq	-40(%rbp), %rax
 2454 1f58 488B8018 		movq	280(%rax), %rax
 2454      010000
 2455 1f5f 8B55E4   		movl	-28(%rbp), %edx
 2456 1f62 4863D2   		movslq	%edx, %rdx
 2457 1f65 48C1E203 		salq	$3, %rdx
 2458 1f69 4801D0   		addq	%rdx, %rax
 2459 1f6c F20F1005 		movsd	.LC5(%rip), %xmm0
 2459      00000000 
 2460 1f74 F20F1100 		movsd	%xmm0, (%rax)
 282:/home/brendan/Dropbox/PhD/Code/LBM/2D LBFS/src/Mesh.cpp ****             w_j[counter] = 0.0;
 2461              		.loc 1 282 0
 2462 1f78 488B45D8 		movq	-40(%rbp), %rax
 2463 1f7c 488B8020 		movq	288(%rax), %rax
 2463      010000
 2464 1f83 8B55E4   		movl	-28(%rbp), %edx
 2465 1f86 4863D2   		movslq	%edx, %rdx
 2466 1f89 48C1E203 		salq	$3, %rdx
 2467 1f8d 4801D0   		addq	%rdx, %rax
 2468 1f90 660FEFC0 		pxor	%xmm0, %xmm0
 2469 1f94 F20F1100 		movsd	%xmm0, (%rax)
 283:/home/brendan/Dropbox/PhD/Code/LBM/2D LBFS/src/Mesh.cpp ****             w_k[counter] = 0; //temporary
 2470              		.loc 1 283 0
 2471 1f98 488B45D8 		movq	-40(%rbp), %rax
 2472 1f9c 488B8028 		movq	296(%rax), %rax
 2472      010000
 2473 1fa3 8B55E4   		movl	-28(%rbp), %edx
 2474 1fa6 4863D2   		movslq	%edx, %rdx
 2475 1fa9 48C1E203 		salq	$3, %rdx
 2476 1fad 4801D0   		addq	%rdx, %rax
 2477 1fb0 660FEFC0 		pxor	%xmm0, %xmm0
 2478 1fb4 F20F1100 		movsd	%xmm0, (%rax)
 284:/home/brendan/Dropbox/PhD/Code/LBM/2D LBFS/src/Mesh.cpp **** 
 285:/home/brendan/Dropbox/PhD/Code/LBM/2D LBFS/src/Mesh.cpp ****             delta_t[counter] = 0.5 * std::min(dy,dx);
 2479              		.loc 1 285 0
 2480 1fb8 488B45D8 		movq	-40(%rbp), %rax
 2481 1fbc 488B8048 		movq	328(%rax), %rax
 2481      010000
 2482 1fc3 8B55E4   		movl	-28(%rbp), %edx
 2483 1fc6 4863D2   		movslq	%edx, %rdx
 2484 1fc9 48C1E203 		salq	$3, %rdx
 2485 1fcd 488D1C10 		leaq	(%rax,%rdx), %rbx
 2486 1fd1 488B45D8 		movq	-40(%rbp), %rax
GAS LISTING /tmp/ccSpSEFs.s 			page 64


 2487 1fd5 488D5028 		leaq	40(%rax), %rdx
 2488 1fd9 488B45D8 		movq	-40(%rbp), %rax
 2489 1fdd 4883C030 		addq	$48, %rax
 2490 1fe1 4889D6   		movq	%rdx, %rsi
 2491 1fe4 4889C7   		movq	%rax, %rdi
 2492 1fe7 E8000000 		call	_ZSt3minIdERKT_S2_S2_
 2492      00
 2493 1fec F20F1008 		movsd	(%rax), %xmm1
 2494 1ff0 F20F1005 		movsd	.LC6(%rip), %xmm0
 2494      00000000 
 2495 1ff8 F20F59C1 		mulsd	%xmm1, %xmm0
 2496 1ffc F20F1103 		movsd	%xmm0, (%rbx)
 286:/home/brendan/Dropbox/PhD/Code/LBM/2D LBFS/src/Mesh.cpp **** 
 287:/home/brendan/Dropbox/PhD/Code/LBM/2D LBFS/src/Mesh.cpp ****              // West boundary
 288:/home/brendan/Dropbox/PhD/Code/LBM/2D LBFS/src/Mesh.cpp ****             if( i ==0){
 2497              		.loc 1 288 0
 2498 2000 837DEC00 		cmpl	$0, -20(%rbp)
 2499 2004 7520     		jne	.L203
 289:/home/brendan/Dropbox/PhD/Code/LBM/2D LBFS/src/Mesh.cpp ****                 w_node[counter] = 0 ;//dummy value
 2500              		.loc 1 289 0
 2501 2006 488B45D8 		movq	-40(%rbp), %rax
 2502 200a 488B8068 		movq	360(%rax), %rax
 2502      010000
 2503 2011 8B55E4   		movl	-28(%rbp), %edx
 2504 2014 4863D2   		movslq	%edx, %rdx
 2505 2017 48C1E202 		salq	$2, %rdx
 2506 201b 4801D0   		addq	%rdx, %rax
 2507 201e C7000000 		movl	$0, (%rax)
 2507      0000
 2508 2024 EB20     		jmp	.L204
 2509              	.L203:
 290:/home/brendan/Dropbox/PhD/Code/LBM/2D LBFS/src/Mesh.cpp ****             }else{
 291:/home/brendan/Dropbox/PhD/Code/LBM/2D LBFS/src/Mesh.cpp ****                 //w_node[counter] = counter - num_y_cells;
 292:/home/brendan/Dropbox/PhD/Code/LBM/2D LBFS/src/Mesh.cpp ****                 w_node[counter] = counter - 1;
 2510              		.loc 1 292 0
 2511 2026 488B45D8 		movq	-40(%rbp), %rax
 2512 202a 488B8068 		movq	360(%rax), %rax
 2512      010000
 2513 2031 8B55E4   		movl	-28(%rbp), %edx
 2514 2034 4863D2   		movslq	%edx, %rdx
 2515 2037 48C1E202 		salq	$2, %rdx
 2516 203b 4801D0   		addq	%rdx, %rax
 2517 203e 8B55E4   		movl	-28(%rbp), %edx
 2518 2041 83EA01   		subl	$1, %edx
 2519 2044 8910     		movl	%edx, (%rax)
 2520              	.L204:
 293:/home/brendan/Dropbox/PhD/Code/LBM/2D LBFS/src/Mesh.cpp ****             }
 294:/home/brendan/Dropbox/PhD/Code/LBM/2D LBFS/src/Mesh.cpp **** 
 295:/home/brendan/Dropbox/PhD/Code/LBM/2D LBFS/src/Mesh.cpp ****             // east boundary
 296:/home/brendan/Dropbox/PhD/Code/LBM/2D LBFS/src/Mesh.cpp ****             if ( i == (num_x_cells -1)){
 2521              		.loc 1 296 0
 2522 2046 488B45D8 		movq	-40(%rbp), %rax
 2523 204a 8B4008   		movl	8(%rax), %eax
 2524 204d 83E801   		subl	$1, %eax
 2525 2050 3B45EC   		cmpl	-20(%rbp), %eax
 2526 2053 7520     		jne	.L205
 297:/home/brendan/Dropbox/PhD/Code/LBM/2D LBFS/src/Mesh.cpp ****                 e_node[counter] = 0; //dummy value
GAS LISTING /tmp/ccSpSEFs.s 			page 65


 2527              		.loc 1 297 0
 2528 2055 488B45D8 		movq	-40(%rbp), %rax
 2529 2059 488B8060 		movq	352(%rax), %rax
 2529      010000
 2530 2060 8B55E4   		movl	-28(%rbp), %edx
 2531 2063 4863D2   		movslq	%edx, %rdx
 2532 2066 48C1E202 		salq	$2, %rdx
 2533 206a 4801D0   		addq	%rdx, %rax
 2534 206d C7000000 		movl	$0, (%rax)
 2534      0000
 2535 2073 EB20     		jmp	.L206
 2536              	.L205:
 298:/home/brendan/Dropbox/PhD/Code/LBM/2D LBFS/src/Mesh.cpp ****             }else{
 299:/home/brendan/Dropbox/PhD/Code/LBM/2D LBFS/src/Mesh.cpp ****                 e_node[counter] = counter + 1;
 2537              		.loc 1 299 0
 2538 2075 488B45D8 		movq	-40(%rbp), %rax
 2539 2079 488B8060 		movq	352(%rax), %rax
 2539      010000
 2540 2080 8B55E4   		movl	-28(%rbp), %edx
 2541 2083 4863D2   		movslq	%edx, %rdx
 2542 2086 48C1E202 		salq	$2, %rdx
 2543 208a 4801D0   		addq	%rdx, %rax
 2544 208d 8B55E4   		movl	-28(%rbp), %edx
 2545 2090 83C201   		addl	$1, %edx
 2546 2093 8910     		movl	%edx, (%rax)
 2547              	.L206:
 300:/home/brendan/Dropbox/PhD/Code/LBM/2D LBFS/src/Mesh.cpp ****             }
 301:/home/brendan/Dropbox/PhD/Code/LBM/2D LBFS/src/Mesh.cpp **** 
 302:/home/brendan/Dropbox/PhD/Code/LBM/2D LBFS/src/Mesh.cpp ****             // south boundary
 303:/home/brendan/Dropbox/PhD/Code/LBM/2D LBFS/src/Mesh.cpp ****             if(j == 0){
 2548              		.loc 1 303 0
 2549 2095 837DE800 		cmpl	$0, -24(%rbp)
 2550 2099 7520     		jne	.L207
 304:/home/brendan/Dropbox/PhD/Code/LBM/2D LBFS/src/Mesh.cpp ****                 s_node[counter] = 0; //dummy value
 2551              		.loc 1 304 0
 2552 209b 488B45D8 		movq	-40(%rbp), %rax
 2553 209f 488B8058 		movq	344(%rax), %rax
 2553      010000
 2554 20a6 8B55E4   		movl	-28(%rbp), %edx
 2555 20a9 4863D2   		movslq	%edx, %rdx
 2556 20ac 48C1E202 		salq	$2, %rdx
 2557 20b0 4801D0   		addq	%rdx, %rax
 2558 20b3 C7000000 		movl	$0, (%rax)
 2558      0000
 2559 20b9 EB28     		jmp	.L208
 2560              	.L207:
 305:/home/brendan/Dropbox/PhD/Code/LBM/2D LBFS/src/Mesh.cpp ****             }else{
 306:/home/brendan/Dropbox/PhD/Code/LBM/2D LBFS/src/Mesh.cpp ****                 s_node[counter] = counter - num_x_cells;
 2561              		.loc 1 306 0
 2562 20bb 488B45D8 		movq	-40(%rbp), %rax
 2563 20bf 488B8058 		movq	344(%rax), %rax
 2563      010000
 2564 20c6 8B55E4   		movl	-28(%rbp), %edx
 2565 20c9 4863D2   		movslq	%edx, %rdx
 2566 20cc 48C1E202 		salq	$2, %rdx
 2567 20d0 4801C2   		addq	%rax, %rdx
 2568 20d3 488B45D8 		movq	-40(%rbp), %rax
GAS LISTING /tmp/ccSpSEFs.s 			page 66


 2569 20d7 8B4008   		movl	8(%rax), %eax
 2570 20da 8B4DE4   		movl	-28(%rbp), %ecx
 2571 20dd 29C1     		subl	%eax, %ecx
 2572 20df 89C8     		movl	%ecx, %eax
 2573 20e1 8902     		movl	%eax, (%rdx)
 2574              	.L208:
 307:/home/brendan/Dropbox/PhD/Code/LBM/2D LBFS/src/Mesh.cpp ****             }
 308:/home/brendan/Dropbox/PhD/Code/LBM/2D LBFS/src/Mesh.cpp **** 
 309:/home/brendan/Dropbox/PhD/Code/LBM/2D LBFS/src/Mesh.cpp ****             // north boundary
 310:/home/brendan/Dropbox/PhD/Code/LBM/2D LBFS/src/Mesh.cpp ****             if( j == (num_y_cells-1)){
 2575              		.loc 1 310 0
 2576 20e3 488B45D8 		movq	-40(%rbp), %rax
 2577 20e7 8B400C   		movl	12(%rax), %eax
 2578 20ea 83E801   		subl	$1, %eax
 2579 20ed 3B45E8   		cmpl	-24(%rbp), %eax
 2580 20f0 7520     		jne	.L209
 311:/home/brendan/Dropbox/PhD/Code/LBM/2D LBFS/src/Mesh.cpp ****                 n_node[counter] = 0; //dummy value
 2581              		.loc 1 311 0
 2582 20f2 488B45D8 		movq	-40(%rbp), %rax
 2583 20f6 488B8050 		movq	336(%rax), %rax
 2583      010000
 2584 20fd 8B55E4   		movl	-28(%rbp), %edx
 2585 2100 4863D2   		movslq	%edx, %rdx
 2586 2103 48C1E202 		salq	$2, %rdx
 2587 2107 4801D0   		addq	%rdx, %rax
 2588 210a C7000000 		movl	$0, (%rax)
 2588      0000
 2589 2110 EB26     		jmp	.L210
 2590              	.L209:
 312:/home/brendan/Dropbox/PhD/Code/LBM/2D LBFS/src/Mesh.cpp ****             }else{
 313:/home/brendan/Dropbox/PhD/Code/LBM/2D LBFS/src/Mesh.cpp ****                 n_node[counter] = counter + num_x_cells;
 2591              		.loc 1 313 0
 2592 2112 488B45D8 		movq	-40(%rbp), %rax
 2593 2116 488B8050 		movq	336(%rax), %rax
 2593      010000
 2594 211d 8B55E4   		movl	-28(%rbp), %edx
 2595 2120 4863D2   		movslq	%edx, %rdx
 2596 2123 48C1E202 		salq	$2, %rdx
 2597 2127 4801C2   		addq	%rax, %rdx
 2598 212a 488B45D8 		movq	-40(%rbp), %rax
 2599 212e 8B4808   		movl	8(%rax), %ecx
 2600 2131 8B45E4   		movl	-28(%rbp), %eax
 2601 2134 01C8     		addl	%ecx, %eax
 2602 2136 8902     		movl	%eax, (%rdx)
 2603              	.L210:
 314:/home/brendan/Dropbox/PhD/Code/LBM/2D LBFS/src/Mesh.cpp ****             }
 315:/home/brendan/Dropbox/PhD/Code/LBM/2D LBFS/src/Mesh.cpp **** 
 316:/home/brendan/Dropbox/PhD/Code/LBM/2D LBFS/src/Mesh.cpp ****             counter = counter +1;
 2604              		.loc 1 316 0 discriminator 2
 2605 2138 8345E401 		addl	$1, -28(%rbp)
 242:/home/brendan/Dropbox/PhD/Code/LBM/2D LBFS/src/Mesh.cpp **** 
 2606              		.loc 1 242 0 discriminator 2
 2607 213c 8345EC01 		addl	$1, -20(%rbp)
 2608 2140 E997F8FF 		jmp	.L211
 2608      FF
 2609              	.L202:
 2610              	.LBE10:
GAS LISTING /tmp/ccSpSEFs.s 			page 67


 2611              	.LBE9:
 241:/home/brendan/Dropbox/PhD/Code/LBM/2D LBFS/src/Mesh.cpp ****         for( int i=0; i < num_x_cells; i++){
 2612              		.loc 1 241 0 discriminator 2
 2613 2145 8345E801 		addl	$1, -24(%rbp)
 2614 2149 E977F8FF 		jmp	.L212
 2614      FF
 2615              	.L213:
 2616              	.LBE8:
 317:/home/brendan/Dropbox/PhD/Code/LBM/2D LBFS/src/Mesh.cpp ****         }
 318:/home/brendan/Dropbox/PhD/Code/LBM/2D LBFS/src/Mesh.cpp **** 	}
 319:/home/brendan/Dropbox/PhD/Code/LBM/2D LBFS/src/Mesh.cpp **** 
 320:/home/brendan/Dropbox/PhD/Code/LBM/2D LBFS/src/Mesh.cpp **** 
 321:/home/brendan/Dropbox/PhD/Code/LBM/2D LBFS/src/Mesh.cpp **** }
 2617              		.loc 1 321 0
 2618 214e 90       		nop
 2619 214f 4883C428 		addq	$40, %rsp
 2620 2153 5B       		popq	%rbx
 2621 2154 5D       		popq	%rbp
 2622              		.cfi_def_cfa 7, 8
 2623 2155 C3       		ret
 2624              		.cfi_endproc
 2625              	.LFE6799:
 2627              		.align 2
 2628              		.globl	_ZN4Mesh18create_cosine_meshEdd
 2630              	_ZN4Mesh18create_cosine_meshEdd:
 2631              	.LFB6800:
 322:/home/brendan/Dropbox/PhD/Code/LBM/2D LBFS/src/Mesh.cpp **** 
 323:/home/brendan/Dropbox/PhD/Code/LBM/2D LBFS/src/Mesh.cpp **** void Mesh::create_cosine_mesh(double PI,double dt){
 2632              		.loc 1 323 0
 2633              		.cfi_startproc
 2634 2156 55       		pushq	%rbp
 2635              		.cfi_def_cfa_offset 16
 2636              		.cfi_offset 6, -16
 2637 2157 4889E5   		movq	%rsp, %rbp
 2638              		.cfi_def_cfa_register 6
 2639 215a 53       		pushq	%rbx
 2640 215b 4881EC88 		subq	$136, %rsp
 2640      000000
 2641              		.cfi_offset 3, -24
 2642 2162 48897D88 		movq	%rdi, -120(%rbp)
 2643 2166 F20F1145 		movsd	%xmm0, -128(%rbp)
 2643      80
 2644 216b F20F118D 		movsd	%xmm1, -136(%rbp)
 2644      78FFFFFF 
 324:/home/brendan/Dropbox/PhD/Code/LBM/2D LBFS/src/Mesh.cpp ****     int counter =0;
 2645              		.loc 1 324 0
 2646 2173 C7459C00 		movl	$0, -100(%rbp)
 2646      000000
 325:/home/brendan/Dropbox/PhD/Code/LBM/2D LBFS/src/Mesh.cpp ****     double delta_y ,delta_x , y2,y1,x2,x1,cx,cy;
 326:/home/brendan/Dropbox/PhD/Code/LBM/2D LBFS/src/Mesh.cpp ****     double min_xy;
 327:/home/brendan/Dropbox/PhD/Code/LBM/2D LBFS/src/Mesh.cpp ****     min_xy = 1/dt/(0.5* ( 1- cos((1)/(Y) * PI)));
 2647              		.loc 1 327 0
 2648 217a F20F1005 		movsd	.LC4(%rip), %xmm0
 2648      00000000 
 2649 2182 F20F5E85 		divsd	-136(%rbp), %xmm0
 2649      78FFFFFF 
 2650 218a F20F1185 		movsd	%xmm0, -144(%rbp)
GAS LISTING /tmp/ccSpSEFs.s 			page 68


 2650      70FFFFFF 
 2651 2192 488B4588 		movq	-120(%rbp), %rax
 2652 2196 F20F1048 		movsd	32(%rax), %xmm1
 2652      20
 2653 219b F20F1005 		movsd	.LC4(%rip), %xmm0
 2653      00000000 
 2654 21a3 F20F5EC1 		divsd	%xmm1, %xmm0
 2655 21a7 F20F5945 		mulsd	-128(%rbp), %xmm0
 2655      80
 2656 21ac E8000000 		call	cos
 2656      00
 2657 21b1 660F28C8 		movapd	%xmm0, %xmm1
 2658 21b5 F20F1005 		movsd	.LC4(%rip), %xmm0
 2658      00000000 
 2659 21bd F20F5CC1 		subsd	%xmm1, %xmm0
 2660 21c1 F20F100D 		movsd	.LC6(%rip), %xmm1
 2660      00000000 
 2661 21c9 F20F59C1 		mulsd	%xmm1, %xmm0
 2662 21cd F20F1095 		movsd	-144(%rbp), %xmm2
 2662      70FFFFFF 
 2663 21d5 F20F5ED0 		divsd	%xmm0, %xmm2
 2664 21d9 660F28C2 		movapd	%xmm2, %xmm0
 2665 21dd F20F1145 		movsd	%xmm0, -56(%rbp)
 2665      C8
 2666              	.LBB11:
 328:/home/brendan/Dropbox/PhD/Code/LBM/2D LBFS/src/Mesh.cpp **** 
 329:/home/brendan/Dropbox/PhD/Code/LBM/2D LBFS/src/Mesh.cpp ****     for( int j=0; j < num_y_cells ; j++){
 2667              		.loc 1 329 0
 2668 21e2 C745A000 		movl	$0, -96(%rbp)
 2668      000000
 2669              	.L230:
 2670              		.loc 1 329 0 is_stmt 0 discriminator 1
 2671 21e9 488B4588 		movq	-120(%rbp), %rax
 2672 21ed 8B400C   		movl	12(%rax), %eax
 2673 21f0 3B45A0   		cmpl	-96(%rbp), %eax
 2674 21f3 0F8EAB07 		jle	.L215
 2674      0000
 2675              	.LBB12:
 2676              	.LBB13:
 330:/home/brendan/Dropbox/PhD/Code/LBM/2D LBFS/src/Mesh.cpp ****         for( int i=0; i < num_x_cells; i++){
 2677              		.loc 1 330 0 is_stmt 1
 2678 21f9 C745A400 		movl	$0, -92(%rbp)
 2678      000000
 2679              	.L229:
 2680              		.loc 1 330 0 is_stmt 0 discriminator 1
 2681 2200 488B4588 		movq	-120(%rbp), %rax
 2682 2204 8B4008   		movl	8(%rax), %eax
 2683 2207 3B45A4   		cmpl	-92(%rbp), %eax
 2684 220a 0F8E8B07 		jle	.L216
 2684      0000
 331:/home/brendan/Dropbox/PhD/Code/LBM/2D LBFS/src/Mesh.cpp ****             y2 = 0.5* ( 1- cos((j+1-1)/(Y ) * PI))*min_xy;
 2685              		.loc 1 331 0 is_stmt 1
 2686 2210 660FEFC0 		pxor	%xmm0, %xmm0
 2687 2214 F20F2A45 		cvtsi2sd	-96(%rbp), %xmm0
 2687      A0
 2688 2219 488B4588 		movq	-120(%rbp), %rax
 2689 221d F20F1048 		movsd	32(%rax), %xmm1
GAS LISTING /tmp/ccSpSEFs.s 			page 69


 2689      20
 2690 2222 F20F5EC1 		divsd	%xmm1, %xmm0
 2691 2226 F20F5945 		mulsd	-128(%rbp), %xmm0
 2691      80
 2692 222b E8000000 		call	cos
 2692      00
 2693 2230 660F28C8 		movapd	%xmm0, %xmm1
 2694 2234 F20F1005 		movsd	.LC4(%rip), %xmm0
 2694      00000000 
 2695 223c F20F5CC1 		subsd	%xmm1, %xmm0
 2696 2240 F20F100D 		movsd	.LC6(%rip), %xmm1
 2696      00000000 
 2697 2248 F20F59C1 		mulsd	%xmm1, %xmm0
 2698 224c F20F5945 		mulsd	-56(%rbp), %xmm0
 2698      C8
 2699 2251 F20F1145 		movsd	%xmm0, -88(%rbp)
 2699      A8
 332:/home/brendan/Dropbox/PhD/Code/LBM/2D LBFS/src/Mesh.cpp ****             y1 = 0.5* ( 1- cos((j-1)/(Y ) * PI))*min_xy;
 2700              		.loc 1 332 0
 2701 2256 8B45A0   		movl	-96(%rbp), %eax
 2702 2259 83E801   		subl	$1, %eax
 2703 225c 660FEFC0 		pxor	%xmm0, %xmm0
 2704 2260 F20F2AC0 		cvtsi2sd	%eax, %xmm0
 2705 2264 488B4588 		movq	-120(%rbp), %rax
 2706 2268 F20F1048 		movsd	32(%rax), %xmm1
 2706      20
 2707 226d F20F5EC1 		divsd	%xmm1, %xmm0
 2708 2271 F20F5945 		mulsd	-128(%rbp), %xmm0
 2708      80
 2709 2276 E8000000 		call	cos
 2709      00
 2710 227b 660F28C8 		movapd	%xmm0, %xmm1
 2711 227f F20F1005 		movsd	.LC4(%rip), %xmm0
 2711      00000000 
 2712 2287 F20F5CC1 		subsd	%xmm1, %xmm0
 2713 228b F20F100D 		movsd	.LC6(%rip), %xmm1
 2713      00000000 
 2714 2293 F20F59C1 		mulsd	%xmm1, %xmm0
 2715 2297 F20F5945 		mulsd	-56(%rbp), %xmm0
 2715      C8
 2716 229c F20F1145 		movsd	%xmm0, -80(%rbp)
 2716      B0
 333:/home/brendan/Dropbox/PhD/Code/LBM/2D LBFS/src/Mesh.cpp ****             x2 = 0.5* ( 1- cos((i+1-1)/(X ) * PI))*min_xy;
 2717              		.loc 1 333 0
 2718 22a1 660FEFC0 		pxor	%xmm0, %xmm0
 2719 22a5 F20F2A45 		cvtsi2sd	-92(%rbp), %xmm0
 2719      A4
 2720 22aa 488B4588 		movq	-120(%rbp), %rax
 2721 22ae F20F1048 		movsd	24(%rax), %xmm1
 2721      18
 2722 22b3 F20F5EC1 		divsd	%xmm1, %xmm0
 2723 22b7 F20F5945 		mulsd	-128(%rbp), %xmm0
 2723      80
 2724 22bc E8000000 		call	cos
 2724      00
 2725 22c1 660F28C8 		movapd	%xmm0, %xmm1
 2726 22c5 F20F1005 		movsd	.LC4(%rip), %xmm0
GAS LISTING /tmp/ccSpSEFs.s 			page 70


 2726      00000000 
 2727 22cd F20F5CC1 		subsd	%xmm1, %xmm0
 2728 22d1 F20F100D 		movsd	.LC6(%rip), %xmm1
 2728      00000000 
 2729 22d9 F20F59C1 		mulsd	%xmm1, %xmm0
 2730 22dd F20F5945 		mulsd	-56(%rbp), %xmm0
 2730      C8
 2731 22e2 F20F1145 		movsd	%xmm0, -72(%rbp)
 2731      B8
 334:/home/brendan/Dropbox/PhD/Code/LBM/2D LBFS/src/Mesh.cpp ****             x1 = 0.5* ( 1- cos((i-1)/(X ) * PI))*min_xy;
 2732              		.loc 1 334 0
 2733 22e7 8B45A4   		movl	-92(%rbp), %eax
 2734 22ea 83E801   		subl	$1, %eax
 2735 22ed 660FEFC0 		pxor	%xmm0, %xmm0
 2736 22f1 F20F2AC0 		cvtsi2sd	%eax, %xmm0
 2737 22f5 488B4588 		movq	-120(%rbp), %rax
 2738 22f9 F20F1048 		movsd	24(%rax), %xmm1
 2738      18
 2739 22fe F20F5EC1 		divsd	%xmm1, %xmm0
 2740 2302 F20F5945 		mulsd	-128(%rbp), %xmm0
 2740      80
 2741 2307 E8000000 		call	cos
 2741      00
 2742 230c 660F28C8 		movapd	%xmm0, %xmm1
 2743 2310 F20F1005 		movsd	.LC4(%rip), %xmm0
 2743      00000000 
 2744 2318 F20F5CC1 		subsd	%xmm1, %xmm0
 2745 231c F20F100D 		movsd	.LC6(%rip), %xmm1
 2745      00000000 
 2746 2324 F20F59C1 		mulsd	%xmm1, %xmm0
 2747 2328 F20F5945 		mulsd	-56(%rbp), %xmm0
 2747      C8
 2748 232d F20F1145 		movsd	%xmm0, -64(%rbp)
 2748      C0
 335:/home/brendan/Dropbox/PhD/Code/LBM/2D LBFS/src/Mesh.cpp ****             if(j ==0){
 2749              		.loc 1 335 0
 2750 2332 837DA000 		cmpl	$0, -96(%rbp)
 2751 2336 7516     		jne	.L217
 336:/home/brendan/Dropbox/PhD/Code/LBM/2D LBFS/src/Mesh.cpp ****                 y1 = y1*-1;
 2752              		.loc 1 336 0
 2753 2338 F20F104D 		movsd	-80(%rbp), %xmm1
 2753      B0
 2754 233d F20F1005 		movsd	.LC7(%rip), %xmm0
 2754      00000000 
 2755 2345 660F57C1 		xorpd	%xmm1, %xmm0
 2756 2349 F20F1145 		movsd	%xmm0, -80(%rbp)
 2756      B0
 2757              	.L217:
 337:/home/brendan/Dropbox/PhD/Code/LBM/2D LBFS/src/Mesh.cpp **** 
 338:/home/brendan/Dropbox/PhD/Code/LBM/2D LBFS/src/Mesh.cpp ****             }
 339:/home/brendan/Dropbox/PhD/Code/LBM/2D LBFS/src/Mesh.cpp ****             if(i ==0){
 2758              		.loc 1 339 0
 2759 234e 837DA400 		cmpl	$0, -92(%rbp)
 2760 2352 7516     		jne	.L218
 340:/home/brendan/Dropbox/PhD/Code/LBM/2D LBFS/src/Mesh.cpp ****                 x1 = x1*-1;
 2761              		.loc 1 340 0
 2762 2354 F20F104D 		movsd	-64(%rbp), %xmm1
GAS LISTING /tmp/ccSpSEFs.s 			page 71


 2762      C0
 2763 2359 F20F1005 		movsd	.LC7(%rip), %xmm0
 2763      00000000 
 2764 2361 660F57C1 		xorpd	%xmm1, %xmm0
 2765 2365 F20F1145 		movsd	%xmm0, -64(%rbp)
 2765      C0
 2766              	.L218:
 341:/home/brendan/Dropbox/PhD/Code/LBM/2D LBFS/src/Mesh.cpp ****             }
 342:/home/brendan/Dropbox/PhD/Code/LBM/2D LBFS/src/Mesh.cpp ****             if(j == num_y_cells-1){
 2767              		.loc 1 342 0
 2768 236a 488B4588 		movq	-120(%rbp), %rax
 2769 236e 8B400C   		movl	12(%rax), %eax
 2770 2371 83E801   		subl	$1, %eax
 2771 2374 3B45A0   		cmpl	-96(%rbp), %eax
 2772 2377 7513     		jne	.L219
 343:/home/brendan/Dropbox/PhD/Code/LBM/2D LBFS/src/Mesh.cpp ****                 y2 = min_xy + min_xy- y2;
 2773              		.loc 1 343 0
 2774 2379 F20F1045 		movsd	-56(%rbp), %xmm0
 2774      C8
 2775 237e F20F58C0 		addsd	%xmm0, %xmm0
 2776 2382 F20F5C45 		subsd	-88(%rbp), %xmm0
 2776      A8
 2777 2387 F20F1145 		movsd	%xmm0, -88(%rbp)
 2777      A8
 2778              	.L219:
 344:/home/brendan/Dropbox/PhD/Code/LBM/2D LBFS/src/Mesh.cpp ****             }
 345:/home/brendan/Dropbox/PhD/Code/LBM/2D LBFS/src/Mesh.cpp ****             if(i == num_x_cells -1){
 2779              		.loc 1 345 0
 2780 238c 488B4588 		movq	-120(%rbp), %rax
 2781 2390 8B4008   		movl	8(%rax), %eax
 2782 2393 83E801   		subl	$1, %eax
 2783 2396 3B45A4   		cmpl	-92(%rbp), %eax
 2784 2399 7513     		jne	.L220
 346:/home/brendan/Dropbox/PhD/Code/LBM/2D LBFS/src/Mesh.cpp ****                 x2  = min_xy + min_xy -x2;
 2785              		.loc 1 346 0
 2786 239b F20F1045 		movsd	-56(%rbp), %xmm0
 2786      C8
 2787 23a0 F20F58C0 		addsd	%xmm0, %xmm0
 2788 23a4 F20F5C45 		subsd	-72(%rbp), %xmm0
 2788      B8
 2789 23a9 F20F1145 		movsd	%xmm0, -72(%rbp)
 2789      B8
 2790              	.L220:
 347:/home/brendan/Dropbox/PhD/Code/LBM/2D LBFS/src/Mesh.cpp ****             }
 348:/home/brendan/Dropbox/PhD/Code/LBM/2D LBFS/src/Mesh.cpp **** 
 349:/home/brendan/Dropbox/PhD/Code/LBM/2D LBFS/src/Mesh.cpp ****             delta_y = (y2-y1);
 2791              		.loc 1 349 0
 2792 23ae F20F1045 		movsd	-88(%rbp), %xmm0
 2792      A8
 2793 23b3 F20F5C45 		subsd	-80(%rbp), %xmm0
 2793      B0
 2794 23b8 F20F1145 		movsd	%xmm0, -48(%rbp)
 2794      D0
 350:/home/brendan/Dropbox/PhD/Code/LBM/2D LBFS/src/Mesh.cpp ****             delta_x = (x2-x1);
 2795              		.loc 1 350 0
 2796 23bd F20F1045 		movsd	-72(%rbp), %xmm0
 2796      B8
GAS LISTING /tmp/ccSpSEFs.s 			page 72


 2797 23c2 F20F5C45 		subsd	-64(%rbp), %xmm0
 2797      C0
 2798 23c7 F20F1145 		movsd	%xmm0, -40(%rbp)
 2798      D8
 351:/home/brendan/Dropbox/PhD/Code/LBM/2D LBFS/src/Mesh.cpp ****             cx = (x1+x2)/2;
 2799              		.loc 1 351 0
 2800 23cc F20F1045 		movsd	-64(%rbp), %xmm0
 2800      C0
 2801 23d1 F20F5845 		addsd	-72(%rbp), %xmm0
 2801      B8
 2802 23d6 F20F100D 		movsd	.LC0(%rip), %xmm1
 2802      00000000 
 2803 23de F20F5EC1 		divsd	%xmm1, %xmm0
 2804 23e2 F20F1145 		movsd	%xmm0, -32(%rbp)
 2804      E0
 352:/home/brendan/Dropbox/PhD/Code/LBM/2D LBFS/src/Mesh.cpp ****             cy = (y1+y2)/2;
 2805              		.loc 1 352 0
 2806 23e7 F20F1045 		movsd	-80(%rbp), %xmm0
 2806      B0
 2807 23ec F20F5845 		addsd	-88(%rbp), %xmm0
 2807      A8
 2808 23f1 F20F100D 		movsd	.LC0(%rip), %xmm1
 2808      00000000 
 2809 23f9 F20F5EC1 		divsd	%xmm1, %xmm0
 2810 23fd F20F1145 		movsd	%xmm0, -24(%rbp)
 2810      E8
 353:/home/brendan/Dropbox/PhD/Code/LBM/2D LBFS/src/Mesh.cpp **** 
 354:/home/brendan/Dropbox/PhD/Code/LBM/2D LBFS/src/Mesh.cpp **** 
 355:/home/brendan/Dropbox/PhD/Code/LBM/2D LBFS/src/Mesh.cpp **** 
 356:/home/brendan/Dropbox/PhD/Code/LBM/2D LBFS/src/Mesh.cpp ****             centroid_x[counter] = cx;
 2811              		.loc 1 356 0
 2812 2402 488B4588 		movq	-120(%rbp), %rax
 2813 2406 488B4040 		movq	64(%rax), %rax
 2814 240a 8B559C   		movl	-100(%rbp), %edx
 2815 240d 4863D2   		movslq	%edx, %rdx
 2816 2410 48C1E203 		salq	$3, %rdx
 2817 2414 4801D0   		addq	%rdx, %rax
 2818 2417 F20F1045 		movsd	-32(%rbp), %xmm0
 2818      E0
 2819 241c F20F1100 		movsd	%xmm0, (%rax)
 357:/home/brendan/Dropbox/PhD/Code/LBM/2D LBFS/src/Mesh.cpp ****             centroid_y[counter] = cy;
 2820              		.loc 1 357 0
 2821 2420 488B4588 		movq	-120(%rbp), %rax
 2822 2424 488B4048 		movq	72(%rax), %rax
 2823 2428 8B559C   		movl	-100(%rbp), %edx
 2824 242b 4863D2   		movslq	%edx, %rdx
 2825 242e 48C1E203 		salq	$3, %rdx
 2826 2432 4801D0   		addq	%rdx, %rax
 2827 2435 F20F1045 		movsd	-24(%rbp), %xmm0
 2827      E8
 2828 243a F20F1100 		movsd	%xmm0, (%rax)
 358:/home/brendan/Dropbox/PhD/Code/LBM/2D LBFS/src/Mesh.cpp ****             centroid_z[counter] = 0; //temporary
 2829              		.loc 1 358 0
 2830 243e 488B4588 		movq	-120(%rbp), %rax
 2831 2442 488B4050 		movq	80(%rax), %rax
 2832 2446 8B559C   		movl	-100(%rbp), %edx
 2833 2449 4863D2   		movslq	%edx, %rdx
GAS LISTING /tmp/ccSpSEFs.s 			page 73


 2834 244c 48C1E203 		salq	$3, %rdx
 2835 2450 4801D0   		addq	%rdx, %rax
 2836 2453 660FEFC0 		pxor	%xmm0, %xmm0
 2837 2457 F20F1100 		movsd	%xmm0, (%rax)
 359:/home/brendan/Dropbox/PhD/Code/LBM/2D LBFS/src/Mesh.cpp ****             north_x[counter] = cx ;
 2838              		.loc 1 359 0
 2839 245b 488B4588 		movq	-120(%rbp), %rax
 2840 245f 488B4058 		movq	88(%rax), %rax
 2841 2463 8B559C   		movl	-100(%rbp), %edx
 2842 2466 4863D2   		movslq	%edx, %rdx
 2843 2469 48C1E203 		salq	$3, %rdx
 2844 246d 4801D0   		addq	%rdx, %rax
 2845 2470 F20F1045 		movsd	-32(%rbp), %xmm0
 2845      E0
 2846 2475 F20F1100 		movsd	%xmm0, (%rax)
 360:/home/brendan/Dropbox/PhD/Code/LBM/2D LBFS/src/Mesh.cpp ****             north_y[counter] = y2;
 2847              		.loc 1 360 0
 2848 2479 488B4588 		movq	-120(%rbp), %rax
 2849 247d 488B4060 		movq	96(%rax), %rax
 2850 2481 8B559C   		movl	-100(%rbp), %edx
 2851 2484 4863D2   		movslq	%edx, %rdx
 2852 2487 48C1E203 		salq	$3, %rdx
 2853 248b 4801D0   		addq	%rdx, %rax
 2854 248e F20F1045 		movsd	-88(%rbp), %xmm0
 2854      A8
 2855 2493 F20F1100 		movsd	%xmm0, (%rax)
 361:/home/brendan/Dropbox/PhD/Code/LBM/2D LBFS/src/Mesh.cpp ****             north_z[counter] = 0; //temporary
 2856              		.loc 1 361 0
 2857 2497 488B4588 		movq	-120(%rbp), %rax
 2858 249b 488B4068 		movq	104(%rax), %rax
 2859 249f 8B559C   		movl	-100(%rbp), %edx
 2860 24a2 4863D2   		movslq	%edx, %rdx
 2861 24a5 48C1E203 		salq	$3, %rdx
 2862 24a9 4801D0   		addq	%rdx, %rax
 2863 24ac 660FEFC0 		pxor	%xmm0, %xmm0
 2864 24b0 F20F1100 		movsd	%xmm0, (%rax)
 362:/home/brendan/Dropbox/PhD/Code/LBM/2D LBFS/src/Mesh.cpp ****             south_x[counter] = cx;
 2865              		.loc 1 362 0
 2866 24b4 488B4588 		movq	-120(%rbp), %rax
 2867 24b8 488B80A0 		movq	160(%rax), %rax
 2867      000000
 2868 24bf 8B559C   		movl	-100(%rbp), %edx
 2869 24c2 4863D2   		movslq	%edx, %rdx
 2870 24c5 48C1E203 		salq	$3, %rdx
 2871 24c9 4801D0   		addq	%rdx, %rax
 2872 24cc F20F1045 		movsd	-32(%rbp), %xmm0
 2872      E0
 2873 24d1 F20F1100 		movsd	%xmm0, (%rax)
 363:/home/brendan/Dropbox/PhD/Code/LBM/2D LBFS/src/Mesh.cpp ****             south_y[counter] = y1;
 2874              		.loc 1 363 0
 2875 24d5 488B4588 		movq	-120(%rbp), %rax
 2876 24d9 488B80A8 		movq	168(%rax), %rax
 2876      000000
 2877 24e0 8B559C   		movl	-100(%rbp), %edx
 2878 24e3 4863D2   		movslq	%edx, %rdx
 2879 24e6 48C1E203 		salq	$3, %rdx
 2880 24ea 4801D0   		addq	%rdx, %rax
GAS LISTING /tmp/ccSpSEFs.s 			page 74


 2881 24ed F20F1045 		movsd	-80(%rbp), %xmm0
 2881      B0
 2882 24f2 F20F1100 		movsd	%xmm0, (%rax)
 364:/home/brendan/Dropbox/PhD/Code/LBM/2D LBFS/src/Mesh.cpp ****             south_z[counter] = 0; //temporary
 2883              		.loc 1 364 0
 2884 24f6 488B4588 		movq	-120(%rbp), %rax
 2885 24fa 488B80B0 		movq	176(%rax), %rax
 2885      000000
 2886 2501 8B559C   		movl	-100(%rbp), %edx
 2887 2504 4863D2   		movslq	%edx, %rdx
 2888 2507 48C1E203 		salq	$3, %rdx
 2889 250b 4801D0   		addq	%rdx, %rax
 2890 250e 660FEFC0 		pxor	%xmm0, %xmm0
 2891 2512 F20F1100 		movsd	%xmm0, (%rax)
 365:/home/brendan/Dropbox/PhD/Code/LBM/2D LBFS/src/Mesh.cpp ****             west_x[counter] = x1;
 2892              		.loc 1 365 0
 2893 2516 488B4588 		movq	-120(%rbp), %rax
 2894 251a 488B8088 		movq	136(%rax), %rax
 2894      000000
 2895 2521 8B559C   		movl	-100(%rbp), %edx
 2896 2524 4863D2   		movslq	%edx, %rdx
 2897 2527 48C1E203 		salq	$3, %rdx
 2898 252b 4801D0   		addq	%rdx, %rax
 2899 252e F20F1045 		movsd	-64(%rbp), %xmm0
 2899      C0
 2900 2533 F20F1100 		movsd	%xmm0, (%rax)
 366:/home/brendan/Dropbox/PhD/Code/LBM/2D LBFS/src/Mesh.cpp ****             west_y[counter] = cy;
 2901              		.loc 1 366 0
 2902 2537 488B4588 		movq	-120(%rbp), %rax
 2903 253b 488B8090 		movq	144(%rax), %rax
 2903      000000
 2904 2542 8B559C   		movl	-100(%rbp), %edx
 2905 2545 4863D2   		movslq	%edx, %rdx
 2906 2548 48C1E203 		salq	$3, %rdx
 2907 254c 4801D0   		addq	%rdx, %rax
 2908 254f F20F1045 		movsd	-24(%rbp), %xmm0
 2908      E8
 2909 2554 F20F1100 		movsd	%xmm0, (%rax)
 367:/home/brendan/Dropbox/PhD/Code/LBM/2D LBFS/src/Mesh.cpp ****             west_z[counter] = 0; //temporary
 2910              		.loc 1 367 0
 2911 2558 488B4588 		movq	-120(%rbp), %rax
 2912 255c 488B8098 		movq	152(%rax), %rax
 2912      000000
 2913 2563 8B559C   		movl	-100(%rbp), %edx
 2914 2566 4863D2   		movslq	%edx, %rdx
 2915 2569 48C1E203 		salq	$3, %rdx
 2916 256d 4801D0   		addq	%rdx, %rax
 2917 2570 660FEFC0 		pxor	%xmm0, %xmm0
 2918 2574 F20F1100 		movsd	%xmm0, (%rax)
 368:/home/brendan/Dropbox/PhD/Code/LBM/2D LBFS/src/Mesh.cpp ****             east_x[counter] = x2;
 2919              		.loc 1 368 0
 2920 2578 488B4588 		movq	-120(%rbp), %rax
 2921 257c 488B4070 		movq	112(%rax), %rax
 2922 2580 8B559C   		movl	-100(%rbp), %edx
 2923 2583 4863D2   		movslq	%edx, %rdx
 2924 2586 48C1E203 		salq	$3, %rdx
 2925 258a 4801D0   		addq	%rdx, %rax
GAS LISTING /tmp/ccSpSEFs.s 			page 75


 2926 258d F20F1045 		movsd	-72(%rbp), %xmm0
 2926      B8
 2927 2592 F20F1100 		movsd	%xmm0, (%rax)
 369:/home/brendan/Dropbox/PhD/Code/LBM/2D LBFS/src/Mesh.cpp ****             east_y[counter] = cy;
 2928              		.loc 1 369 0
 2929 2596 488B4588 		movq	-120(%rbp), %rax
 2930 259a 488B4078 		movq	120(%rax), %rax
 2931 259e 8B559C   		movl	-100(%rbp), %edx
 2932 25a1 4863D2   		movslq	%edx, %rdx
 2933 25a4 48C1E203 		salq	$3, %rdx
 2934 25a8 4801D0   		addq	%rdx, %rax
 2935 25ab F20F1045 		movsd	-24(%rbp), %xmm0
 2935      E8
 2936 25b0 F20F1100 		movsd	%xmm0, (%rax)
 370:/home/brendan/Dropbox/PhD/Code/LBM/2D LBFS/src/Mesh.cpp ****             east_z[counter] = 0; //temporary
 2937              		.loc 1 370 0
 2938 25b4 488B4588 		movq	-120(%rbp), %rax
 2939 25b8 488B8080 		movq	128(%rax), %rax
 2939      000000
 2940 25bf 8B559C   		movl	-100(%rbp), %edx
 2941 25c2 4863D2   		movslq	%edx, %rdx
 2942 25c5 48C1E203 		salq	$3, %rdx
 2943 25c9 4801D0   		addq	%rdx, %rax
 2944 25cc 660FEFC0 		pxor	%xmm0, %xmm0
 2945 25d0 F20F1100 		movsd	%xmm0, (%rax)
 371:/home/brendan/Dropbox/PhD/Code/LBM/2D LBFS/src/Mesh.cpp **** 
 372:/home/brendan/Dropbox/PhD/Code/LBM/2D LBFS/src/Mesh.cpp ****             n_area[counter] = delta_x;
 2946              		.loc 1 372 0
 2947 25d4 488B4588 		movq	-120(%rbp), %rax
 2948 25d8 488B80B8 		movq	184(%rax), %rax
 2948      000000
 2949 25df 8B559C   		movl	-100(%rbp), %edx
 2950 25e2 4863D2   		movslq	%edx, %rdx
 2951 25e5 48C1E203 		salq	$3, %rdx
 2952 25e9 4801D0   		addq	%rdx, %rax
 2953 25ec F20F1045 		movsd	-40(%rbp), %xmm0
 2953      D8
 2954 25f1 F20F1100 		movsd	%xmm0, (%rax)
 373:/home/brendan/Dropbox/PhD/Code/LBM/2D LBFS/src/Mesh.cpp ****             s_area[counter] = delta_x;
 2955              		.loc 1 373 0
 2956 25f5 488B4588 		movq	-120(%rbp), %rax
 2957 25f9 488B80C0 		movq	192(%rax), %rax
 2957      000000
 2958 2600 8B559C   		movl	-100(%rbp), %edx
 2959 2603 4863D2   		movslq	%edx, %rdx
 2960 2606 48C1E203 		salq	$3, %rdx
 2961 260a 4801D0   		addq	%rdx, %rax
 2962 260d F20F1045 		movsd	-40(%rbp), %xmm0
 2962      D8
 2963 2612 F20F1100 		movsd	%xmm0, (%rax)
 374:/home/brendan/Dropbox/PhD/Code/LBM/2D LBFS/src/Mesh.cpp ****             e_area[counter] = delta_y;
 2964              		.loc 1 374 0
 2965 2616 488B4588 		movq	-120(%rbp), %rax
 2966 261a 488B80D0 		movq	208(%rax), %rax
 2966      000000
 2967 2621 8B559C   		movl	-100(%rbp), %edx
 2968 2624 4863D2   		movslq	%edx, %rdx
GAS LISTING /tmp/ccSpSEFs.s 			page 76


 2969 2627 48C1E203 		salq	$3, %rdx
 2970 262b 4801D0   		addq	%rdx, %rax
 2971 262e F20F1045 		movsd	-48(%rbp), %xmm0
 2971      D0
 2972 2633 F20F1100 		movsd	%xmm0, (%rax)
 375:/home/brendan/Dropbox/PhD/Code/LBM/2D LBFS/src/Mesh.cpp ****             w_area[counter] = delta_y;
 2973              		.loc 1 375 0
 2974 2637 488B4588 		movq	-120(%rbp), %rax
 2975 263b 488B80C8 		movq	200(%rax), %rax
 2975      000000
 2976 2642 8B559C   		movl	-100(%rbp), %edx
 2977 2645 4863D2   		movslq	%edx, %rdx
 2978 2648 48C1E203 		salq	$3, %rdx
 2979 264c 4801D0   		addq	%rdx, %rax
 2980 264f F20F1045 		movsd	-48(%rbp), %xmm0
 2980      D0
 2981 2654 F20F1100 		movsd	%xmm0, (%rax)
 376:/home/brendan/Dropbox/PhD/Code/LBM/2D LBFS/src/Mesh.cpp **** 
 377:/home/brendan/Dropbox/PhD/Code/LBM/2D LBFS/src/Mesh.cpp ****             cell_volume[counter] = delta_x*delta_y;
 2982              		.loc 1 377 0
 2983 2658 488B4588 		movq	-120(%rbp), %rax
 2984 265c 488B80D8 		movq	216(%rax), %rax
 2984      000000
 2985 2663 8B559C   		movl	-100(%rbp), %edx
 2986 2666 4863D2   		movslq	%edx, %rdx
 2987 2669 48C1E203 		salq	$3, %rdx
 2988 266d 4801D0   		addq	%rdx, %rax
 2989 2670 F20F1045 		movsd	-40(%rbp), %xmm0
 2989      D8
 2990 2675 F20F5945 		mulsd	-48(%rbp), %xmm0
 2990      D0
 2991 267a F20F1100 		movsd	%xmm0, (%rax)
 378:/home/brendan/Dropbox/PhD/Code/LBM/2D LBFS/src/Mesh.cpp **** 
 379:/home/brendan/Dropbox/PhD/Code/LBM/2D LBFS/src/Mesh.cpp ****             n_i[counter] = 0.0;
 2992              		.loc 1 379 0
 2993 267e 488B4588 		movq	-120(%rbp), %rax
 2994 2682 488B80E8 		movq	232(%rax), %rax
 2994      000000
 2995 2689 8B559C   		movl	-100(%rbp), %edx
 2996 268c 4863D2   		movslq	%edx, %rdx
 2997 268f 48C1E203 		salq	$3, %rdx
 2998 2693 4801D0   		addq	%rdx, %rax
 2999 2696 660FEFC0 		pxor	%xmm0, %xmm0
 3000 269a F20F1100 		movsd	%xmm0, (%rax)
 380:/home/brendan/Dropbox/PhD/Code/LBM/2D LBFS/src/Mesh.cpp ****             n_j[counter] = 1.0;
 3001              		.loc 1 380 0
 3002 269e 488B4588 		movq	-120(%rbp), %rax
 3003 26a2 488B80F0 		movq	240(%rax), %rax
 3003      000000
 3004 26a9 8B559C   		movl	-100(%rbp), %edx
 3005 26ac 4863D2   		movslq	%edx, %rdx
 3006 26af 48C1E203 		salq	$3, %rdx
 3007 26b3 4801D0   		addq	%rdx, %rax
 3008 26b6 F20F1005 		movsd	.LC4(%rip), %xmm0
 3008      00000000 
 3009 26be F20F1100 		movsd	%xmm0, (%rax)
 381:/home/brendan/Dropbox/PhD/Code/LBM/2D LBFS/src/Mesh.cpp ****             n_k[counter] = 0; //temporary
GAS LISTING /tmp/ccSpSEFs.s 			page 77


 3010              		.loc 1 381 0
 3011 26c2 488B4588 		movq	-120(%rbp), %rax
 3012 26c6 488B80F8 		movq	248(%rax), %rax
 3012      000000
 3013 26cd 8B559C   		movl	-100(%rbp), %edx
 3014 26d0 4863D2   		movslq	%edx, %rdx
 3015 26d3 48C1E203 		salq	$3, %rdx
 3016 26d7 4801D0   		addq	%rdx, %rax
 3017 26da 660FEFC0 		pxor	%xmm0, %xmm0
 3018 26de F20F1100 		movsd	%xmm0, (%rax)
 382:/home/brendan/Dropbox/PhD/Code/LBM/2D LBFS/src/Mesh.cpp **** 
 383:/home/brendan/Dropbox/PhD/Code/LBM/2D LBFS/src/Mesh.cpp ****             e_i[counter] = 1.0;
 3019              		.loc 1 383 0
 3020 26e2 488B4588 		movq	-120(%rbp), %rax
 3021 26e6 488B8030 		movq	304(%rax), %rax
 3021      010000
 3022 26ed 8B559C   		movl	-100(%rbp), %edx
 3023 26f0 4863D2   		movslq	%edx, %rdx
 3024 26f3 48C1E203 		salq	$3, %rdx
 3025 26f7 4801D0   		addq	%rdx, %rax
 3026 26fa F20F1005 		movsd	.LC4(%rip), %xmm0
 3026      00000000 
 3027 2702 F20F1100 		movsd	%xmm0, (%rax)
 384:/home/brendan/Dropbox/PhD/Code/LBM/2D LBFS/src/Mesh.cpp ****             e_j[counter] = 0.0;
 3028              		.loc 1 384 0
 3029 2706 488B4588 		movq	-120(%rbp), %rax
 3030 270a 488B8038 		movq	312(%rax), %rax
 3030      010000
 3031 2711 8B559C   		movl	-100(%rbp), %edx
 3032 2714 4863D2   		movslq	%edx, %rdx
 3033 2717 48C1E203 		salq	$3, %rdx
 3034 271b 4801D0   		addq	%rdx, %rax
 3035 271e 660FEFC0 		pxor	%xmm0, %xmm0
 3036 2722 F20F1100 		movsd	%xmm0, (%rax)
 385:/home/brendan/Dropbox/PhD/Code/LBM/2D LBFS/src/Mesh.cpp ****             e_k[counter] = 0; //temporary
 3037              		.loc 1 385 0
 3038 2726 488B4588 		movq	-120(%rbp), %rax
 3039 272a 488B8040 		movq	320(%rax), %rax
 3039      010000
 3040 2731 8B559C   		movl	-100(%rbp), %edx
 3041 2734 4863D2   		movslq	%edx, %rdx
 3042 2737 48C1E203 		salq	$3, %rdx
 3043 273b 4801D0   		addq	%rdx, %rax
 3044 273e 660FEFC0 		pxor	%xmm0, %xmm0
 3045 2742 F20F1100 		movsd	%xmm0, (%rax)
 386:/home/brendan/Dropbox/PhD/Code/LBM/2D LBFS/src/Mesh.cpp **** 
 387:/home/brendan/Dropbox/PhD/Code/LBM/2D LBFS/src/Mesh.cpp **** 
 388:/home/brendan/Dropbox/PhD/Code/LBM/2D LBFS/src/Mesh.cpp ****             s_i[counter] = 0.0;
 3046              		.loc 1 388 0
 3047 2746 488B4588 		movq	-120(%rbp), %rax
 3048 274a 488B8000 		movq	256(%rax), %rax
 3048      010000
 3049 2751 8B559C   		movl	-100(%rbp), %edx
 3050 2754 4863D2   		movslq	%edx, %rdx
 3051 2757 48C1E203 		salq	$3, %rdx
 3052 275b 4801D0   		addq	%rdx, %rax
 3053 275e 660FEFC0 		pxor	%xmm0, %xmm0
GAS LISTING /tmp/ccSpSEFs.s 			page 78


 3054 2762 F20F1100 		movsd	%xmm0, (%rax)
 389:/home/brendan/Dropbox/PhD/Code/LBM/2D LBFS/src/Mesh.cpp ****             s_j[counter] = -1.0;
 3055              		.loc 1 389 0
 3056 2766 488B4588 		movq	-120(%rbp), %rax
 3057 276a 488B8008 		movq	264(%rax), %rax
 3057      010000
 3058 2771 8B559C   		movl	-100(%rbp), %edx
 3059 2774 4863D2   		movslq	%edx, %rdx
 3060 2777 48C1E203 		salq	$3, %rdx
 3061 277b 4801D0   		addq	%rdx, %rax
 3062 277e F20F1005 		movsd	.LC5(%rip), %xmm0
 3062      00000000 
 3063 2786 F20F1100 		movsd	%xmm0, (%rax)
 390:/home/brendan/Dropbox/PhD/Code/LBM/2D LBFS/src/Mesh.cpp ****             s_k[counter] = 0; //temporary
 3064              		.loc 1 390 0
 3065 278a 488B4588 		movq	-120(%rbp), %rax
 3066 278e 488B8010 		movq	272(%rax), %rax
 3066      010000
 3067 2795 8B559C   		movl	-100(%rbp), %edx
 3068 2798 4863D2   		movslq	%edx, %rdx
 3069 279b 48C1E203 		salq	$3, %rdx
 3070 279f 4801D0   		addq	%rdx, %rax
 3071 27a2 660FEFC0 		pxor	%xmm0, %xmm0
 3072 27a6 F20F1100 		movsd	%xmm0, (%rax)
 391:/home/brendan/Dropbox/PhD/Code/LBM/2D LBFS/src/Mesh.cpp **** 
 392:/home/brendan/Dropbox/PhD/Code/LBM/2D LBFS/src/Mesh.cpp **** 
 393:/home/brendan/Dropbox/PhD/Code/LBM/2D LBFS/src/Mesh.cpp ****             w_i[counter] = -1.0;
 3073              		.loc 1 393 0
 3074 27aa 488B4588 		movq	-120(%rbp), %rax
 3075 27ae 488B8018 		movq	280(%rax), %rax
 3075      010000
 3076 27b5 8B559C   		movl	-100(%rbp), %edx
 3077 27b8 4863D2   		movslq	%edx, %rdx
 3078 27bb 48C1E203 		salq	$3, %rdx
 3079 27bf 4801D0   		addq	%rdx, %rax
 3080 27c2 F20F1005 		movsd	.LC5(%rip), %xmm0
 3080      00000000 
 3081 27ca F20F1100 		movsd	%xmm0, (%rax)
 394:/home/brendan/Dropbox/PhD/Code/LBM/2D LBFS/src/Mesh.cpp ****             w_j[counter] = 0.0;
 3082              		.loc 1 394 0
 3083 27ce 488B4588 		movq	-120(%rbp), %rax
 3084 27d2 488B8020 		movq	288(%rax), %rax
 3084      010000
 3085 27d9 8B559C   		movl	-100(%rbp), %edx
 3086 27dc 4863D2   		movslq	%edx, %rdx
 3087 27df 48C1E203 		salq	$3, %rdx
 3088 27e3 4801D0   		addq	%rdx, %rax
 3089 27e6 660FEFC0 		pxor	%xmm0, %xmm0
 3090 27ea F20F1100 		movsd	%xmm0, (%rax)
 395:/home/brendan/Dropbox/PhD/Code/LBM/2D LBFS/src/Mesh.cpp ****             w_k[counter] = 0; //temporary
 3091              		.loc 1 395 0
 3092 27ee 488B4588 		movq	-120(%rbp), %rax
 3093 27f2 488B8028 		movq	296(%rax), %rax
 3093      010000
 3094 27f9 8B559C   		movl	-100(%rbp), %edx
 3095 27fc 4863D2   		movslq	%edx, %rdx
 3096 27ff 48C1E203 		salq	$3, %rdx
GAS LISTING /tmp/ccSpSEFs.s 			page 79


 3097 2803 4801D0   		addq	%rdx, %rax
 3098 2806 660FEFC0 		pxor	%xmm0, %xmm0
 3099 280a F20F1100 		movsd	%xmm0, (%rax)
 396:/home/brendan/Dropbox/PhD/Code/LBM/2D LBFS/src/Mesh.cpp **** 
 397:/home/brendan/Dropbox/PhD/Code/LBM/2D LBFS/src/Mesh.cpp ****             delta_t[counter] = 0.5 * std::min(dy,dx);
 3100              		.loc 1 397 0
 3101 280e 488B4588 		movq	-120(%rbp), %rax
 3102 2812 488B8048 		movq	328(%rax), %rax
 3102      010000
 3103 2819 8B559C   		movl	-100(%rbp), %edx
 3104 281c 4863D2   		movslq	%edx, %rdx
 3105 281f 48C1E203 		salq	$3, %rdx
 3106 2823 488D1C10 		leaq	(%rax,%rdx), %rbx
 3107 2827 488B4588 		movq	-120(%rbp), %rax
 3108 282b 488D5028 		leaq	40(%rax), %rdx
 3109 282f 488B4588 		movq	-120(%rbp), %rax
 3110 2833 4883C030 		addq	$48, %rax
 3111 2837 4889D6   		movq	%rdx, %rsi
 3112 283a 4889C7   		movq	%rax, %rdi
 3113 283d E8000000 		call	_ZSt3minIdERKT_S2_S2_
 3113      00
 3114 2842 F20F1008 		movsd	(%rax), %xmm1
 3115 2846 F20F1005 		movsd	.LC6(%rip), %xmm0
 3115      00000000 
 3116 284e F20F59C1 		mulsd	%xmm1, %xmm0
 3117 2852 F20F1103 		movsd	%xmm0, (%rbx)
 398:/home/brendan/Dropbox/PhD/Code/LBM/2D LBFS/src/Mesh.cpp **** 
 399:/home/brendan/Dropbox/PhD/Code/LBM/2D LBFS/src/Mesh.cpp ****              // West boundary
 400:/home/brendan/Dropbox/PhD/Code/LBM/2D LBFS/src/Mesh.cpp ****             if( i ==0){
 3118              		.loc 1 400 0
 3119 2856 837DA400 		cmpl	$0, -92(%rbp)
 3120 285a 7520     		jne	.L221
 401:/home/brendan/Dropbox/PhD/Code/LBM/2D LBFS/src/Mesh.cpp ****                 w_node[counter] = 0 ;//dummy value
 3121              		.loc 1 401 0
 3122 285c 488B4588 		movq	-120(%rbp), %rax
 3123 2860 488B8068 		movq	360(%rax), %rax
 3123      010000
 3124 2867 8B559C   		movl	-100(%rbp), %edx
 3125 286a 4863D2   		movslq	%edx, %rdx
 3126 286d 48C1E202 		salq	$2, %rdx
 3127 2871 4801D0   		addq	%rdx, %rax
 3128 2874 C7000000 		movl	$0, (%rax)
 3128      0000
 3129 287a EB20     		jmp	.L222
 3130              	.L221:
 402:/home/brendan/Dropbox/PhD/Code/LBM/2D LBFS/src/Mesh.cpp ****             }else{
 403:/home/brendan/Dropbox/PhD/Code/LBM/2D LBFS/src/Mesh.cpp ****                 //w_node[counter] = counter - num_y_cells;
 404:/home/brendan/Dropbox/PhD/Code/LBM/2D LBFS/src/Mesh.cpp ****                 w_node[counter] = counter - 1;
 3131              		.loc 1 404 0
 3132 287c 488B4588 		movq	-120(%rbp), %rax
 3133 2880 488B8068 		movq	360(%rax), %rax
 3133      010000
 3134 2887 8B559C   		movl	-100(%rbp), %edx
 3135 288a 4863D2   		movslq	%edx, %rdx
 3136 288d 48C1E202 		salq	$2, %rdx
 3137 2891 4801D0   		addq	%rdx, %rax
 3138 2894 8B559C   		movl	-100(%rbp), %edx
GAS LISTING /tmp/ccSpSEFs.s 			page 80


 3139 2897 83EA01   		subl	$1, %edx
 3140 289a 8910     		movl	%edx, (%rax)
 3141              	.L222:
 405:/home/brendan/Dropbox/PhD/Code/LBM/2D LBFS/src/Mesh.cpp ****             }
 406:/home/brendan/Dropbox/PhD/Code/LBM/2D LBFS/src/Mesh.cpp **** 
 407:/home/brendan/Dropbox/PhD/Code/LBM/2D LBFS/src/Mesh.cpp ****             // east boundary
 408:/home/brendan/Dropbox/PhD/Code/LBM/2D LBFS/src/Mesh.cpp ****             if ( i == (num_x_cells -1)){
 3142              		.loc 1 408 0
 3143 289c 488B4588 		movq	-120(%rbp), %rax
 3144 28a0 8B4008   		movl	8(%rax), %eax
 3145 28a3 83E801   		subl	$1, %eax
 3146 28a6 3B45A4   		cmpl	-92(%rbp), %eax
 3147 28a9 7520     		jne	.L223
 409:/home/brendan/Dropbox/PhD/Code/LBM/2D LBFS/src/Mesh.cpp ****                 e_node[counter] = 0; //dummy value
 3148              		.loc 1 409 0
 3149 28ab 488B4588 		movq	-120(%rbp), %rax
 3150 28af 488B8060 		movq	352(%rax), %rax
 3150      010000
 3151 28b6 8B559C   		movl	-100(%rbp), %edx
 3152 28b9 4863D2   		movslq	%edx, %rdx
 3153 28bc 48C1E202 		salq	$2, %rdx
 3154 28c0 4801D0   		addq	%rdx, %rax
 3155 28c3 C7000000 		movl	$0, (%rax)
 3155      0000
 3156 28c9 EB20     		jmp	.L224
 3157              	.L223:
 410:/home/brendan/Dropbox/PhD/Code/LBM/2D LBFS/src/Mesh.cpp ****             }else{
 411:/home/brendan/Dropbox/PhD/Code/LBM/2D LBFS/src/Mesh.cpp ****                 e_node[counter] = counter + 1;
 3158              		.loc 1 411 0
 3159 28cb 488B4588 		movq	-120(%rbp), %rax
 3160 28cf 488B8060 		movq	352(%rax), %rax
 3160      010000
 3161 28d6 8B559C   		movl	-100(%rbp), %edx
 3162 28d9 4863D2   		movslq	%edx, %rdx
 3163 28dc 48C1E202 		salq	$2, %rdx
 3164 28e0 4801D0   		addq	%rdx, %rax
 3165 28e3 8B559C   		movl	-100(%rbp), %edx
 3166 28e6 83C201   		addl	$1, %edx
 3167 28e9 8910     		movl	%edx, (%rax)
 3168              	.L224:
 412:/home/brendan/Dropbox/PhD/Code/LBM/2D LBFS/src/Mesh.cpp ****             }
 413:/home/brendan/Dropbox/PhD/Code/LBM/2D LBFS/src/Mesh.cpp **** 
 414:/home/brendan/Dropbox/PhD/Code/LBM/2D LBFS/src/Mesh.cpp ****             // south boundary
 415:/home/brendan/Dropbox/PhD/Code/LBM/2D LBFS/src/Mesh.cpp ****             if(j == 0){
 3169              		.loc 1 415 0
 3170 28eb 837DA000 		cmpl	$0, -96(%rbp)
 3171 28ef 7520     		jne	.L225
 416:/home/brendan/Dropbox/PhD/Code/LBM/2D LBFS/src/Mesh.cpp ****                 s_node[counter] = 0; //dummy value
 3172              		.loc 1 416 0
 3173 28f1 488B4588 		movq	-120(%rbp), %rax
 3174 28f5 488B8058 		movq	344(%rax), %rax
 3174      010000
 3175 28fc 8B559C   		movl	-100(%rbp), %edx
 3176 28ff 4863D2   		movslq	%edx, %rdx
 3177 2902 48C1E202 		salq	$2, %rdx
 3178 2906 4801D0   		addq	%rdx, %rax
 3179 2909 C7000000 		movl	$0, (%rax)
GAS LISTING /tmp/ccSpSEFs.s 			page 81


 3179      0000
 3180 290f EB28     		jmp	.L226
 3181              	.L225:
 417:/home/brendan/Dropbox/PhD/Code/LBM/2D LBFS/src/Mesh.cpp ****             }else{
 418:/home/brendan/Dropbox/PhD/Code/LBM/2D LBFS/src/Mesh.cpp ****                 s_node[counter] = counter - num_x_cells;
 3182              		.loc 1 418 0
 3183 2911 488B4588 		movq	-120(%rbp), %rax
 3184 2915 488B8058 		movq	344(%rax), %rax
 3184      010000
 3185 291c 8B559C   		movl	-100(%rbp), %edx
 3186 291f 4863D2   		movslq	%edx, %rdx
 3187 2922 48C1E202 		salq	$2, %rdx
 3188 2926 4801C2   		addq	%rax, %rdx
 3189 2929 488B4588 		movq	-120(%rbp), %rax
 3190 292d 8B4008   		movl	8(%rax), %eax
 3191 2930 8B4D9C   		movl	-100(%rbp), %ecx
 3192 2933 29C1     		subl	%eax, %ecx
 3193 2935 89C8     		movl	%ecx, %eax
 3194 2937 8902     		movl	%eax, (%rdx)
 3195              	.L226:
 419:/home/brendan/Dropbox/PhD/Code/LBM/2D LBFS/src/Mesh.cpp ****             }
 420:/home/brendan/Dropbox/PhD/Code/LBM/2D LBFS/src/Mesh.cpp **** 
 421:/home/brendan/Dropbox/PhD/Code/LBM/2D LBFS/src/Mesh.cpp ****             // north boundary
 422:/home/brendan/Dropbox/PhD/Code/LBM/2D LBFS/src/Mesh.cpp ****             if( j == (num_y_cells-1)){
 3196              		.loc 1 422 0
 3197 2939 488B4588 		movq	-120(%rbp), %rax
 3198 293d 8B400C   		movl	12(%rax), %eax
 3199 2940 83E801   		subl	$1, %eax
 3200 2943 3B45A0   		cmpl	-96(%rbp), %eax
 3201 2946 7520     		jne	.L227
 423:/home/brendan/Dropbox/PhD/Code/LBM/2D LBFS/src/Mesh.cpp ****                 n_node[counter] = 0; //dummy value
 3202              		.loc 1 423 0
 3203 2948 488B4588 		movq	-120(%rbp), %rax
 3204 294c 488B8050 		movq	336(%rax), %rax
 3204      010000
 3205 2953 8B559C   		movl	-100(%rbp), %edx
 3206 2956 4863D2   		movslq	%edx, %rdx
 3207 2959 48C1E202 		salq	$2, %rdx
 3208 295d 4801D0   		addq	%rdx, %rax
 3209 2960 C7000000 		movl	$0, (%rax)
 3209      0000
 3210 2966 EB26     		jmp	.L228
 3211              	.L227:
 424:/home/brendan/Dropbox/PhD/Code/LBM/2D LBFS/src/Mesh.cpp ****             }else{
 425:/home/brendan/Dropbox/PhD/Code/LBM/2D LBFS/src/Mesh.cpp ****                 n_node[counter] = counter + num_x_cells;
 3212              		.loc 1 425 0
 3213 2968 488B4588 		movq	-120(%rbp), %rax
 3214 296c 488B8050 		movq	336(%rax), %rax
 3214      010000
 3215 2973 8B559C   		movl	-100(%rbp), %edx
 3216 2976 4863D2   		movslq	%edx, %rdx
 3217 2979 48C1E202 		salq	$2, %rdx
 3218 297d 4801C2   		addq	%rax, %rdx
 3219 2980 488B4588 		movq	-120(%rbp), %rax
 3220 2984 8B4808   		movl	8(%rax), %ecx
 3221 2987 8B459C   		movl	-100(%rbp), %eax
 3222 298a 01C8     		addl	%ecx, %eax
GAS LISTING /tmp/ccSpSEFs.s 			page 82


 3223 298c 8902     		movl	%eax, (%rdx)
 3224              	.L228:
 426:/home/brendan/Dropbox/PhD/Code/LBM/2D LBFS/src/Mesh.cpp ****             }
 427:/home/brendan/Dropbox/PhD/Code/LBM/2D LBFS/src/Mesh.cpp **** 
 428:/home/brendan/Dropbox/PhD/Code/LBM/2D LBFS/src/Mesh.cpp ****             counter = counter +1;
 3225              		.loc 1 428 0 discriminator 2
 3226 298e 83459C01 		addl	$1, -100(%rbp)
 330:/home/brendan/Dropbox/PhD/Code/LBM/2D LBFS/src/Mesh.cpp ****             y2 = 0.5* ( 1- cos((j+1-1)/(Y ) * PI))*min_xy;
 3227              		.loc 1 330 0 discriminator 2
 3228 2992 8345A401 		addl	$1, -92(%rbp)
 3229 2996 E965F8FF 		jmp	.L229
 3229      FF
 3230              	.L216:
 3231              	.LBE13:
 3232              	.LBE12:
 329:/home/brendan/Dropbox/PhD/Code/LBM/2D LBFS/src/Mesh.cpp ****         for( int i=0; i < num_x_cells; i++){
 3233              		.loc 1 329 0 discriminator 2
 3234 299b 8345A001 		addl	$1, -96(%rbp)
 3235 299f E945F8FF 		jmp	.L230
 3235      FF
 3236              	.L215:
 3237              	.LBE11:
 429:/home/brendan/Dropbox/PhD/Code/LBM/2D LBFS/src/Mesh.cpp ****         }
 430:/home/brendan/Dropbox/PhD/Code/LBM/2D LBFS/src/Mesh.cpp **** 	}
 431:/home/brendan/Dropbox/PhD/Code/LBM/2D LBFS/src/Mesh.cpp **** 
 432:/home/brendan/Dropbox/PhD/Code/LBM/2D LBFS/src/Mesh.cpp **** 	  X = min_xy;
 3238              		.loc 1 432 0
 3239 29a4 488B4588 		movq	-120(%rbp), %rax
 3240 29a8 F20F1045 		movsd	-56(%rbp), %xmm0
 3240      C8
 3241 29ad F20F1140 		movsd	%xmm0, 24(%rax)
 3241      18
 433:/home/brendan/Dropbox/PhD/Code/LBM/2D LBFS/src/Mesh.cpp ****     Y = min_xy;
 3242              		.loc 1 433 0
 3243 29b2 488B4588 		movq	-120(%rbp), %rax
 3244 29b6 F20F1045 		movsd	-56(%rbp), %xmm0
 3244      C8
 3245 29bb F20F1140 		movsd	%xmm0, 32(%rax)
 3245      20
 434:/home/brendan/Dropbox/PhD/Code/LBM/2D LBFS/src/Mesh.cpp **** 
 435:/home/brendan/Dropbox/PhD/Code/LBM/2D LBFS/src/Mesh.cpp **** 
 436:/home/brendan/Dropbox/PhD/Code/LBM/2D LBFS/src/Mesh.cpp **** 
 437:/home/brendan/Dropbox/PhD/Code/LBM/2D LBFS/src/Mesh.cpp **** }
 3246              		.loc 1 437 0
 3247 29c0 90       		nop
 3248 29c1 4881C488 		addq	$136, %rsp
 3248      000000
 3249 29c8 5B       		popq	%rbx
 3250 29c9 5D       		popq	%rbp
 3251              		.cfi_def_cfa 7, 8
 3252 29ca C3       		ret
 3253              		.cfi_endproc
 3254              	.LFE6800:
 3256 29cb 90       		.align 2
 3257              		.globl	_ZN4Mesh10get_node_xEi
 3259              	_ZN4Mesh10get_node_xEi:
 3260              	.LFB6801:
GAS LISTING /tmp/ccSpSEFs.s 			page 83


 438:/home/brendan/Dropbox/PhD/Code/LBM/2D LBFS/src/Mesh.cpp **** 
 439:/home/brendan/Dropbox/PhD/Code/LBM/2D LBFS/src/Mesh.cpp **** 
 440:/home/brendan/Dropbox/PhD/Code/LBM/2D LBFS/src/Mesh.cpp **** double  Mesh::get_node_x(int node_num){
 3261              		.loc 1 440 0
 3262              		.cfi_startproc
 3263 29cc 55       		pushq	%rbp
 3264              		.cfi_def_cfa_offset 16
 3265              		.cfi_offset 6, -16
 3266 29cd 4889E5   		movq	%rsp, %rbp
 3267              		.cfi_def_cfa_register 6
 3268 29d0 48897DE8 		movq	%rdi, -24(%rbp)
 3269 29d4 8975E4   		movl	%esi, -28(%rbp)
 441:/home/brendan/Dropbox/PhD/Code/LBM/2D LBFS/src/Mesh.cpp ****     double result;
 442:/home/brendan/Dropbox/PhD/Code/LBM/2D LBFS/src/Mesh.cpp ****     result = centroid_x[node_num];
 3270              		.loc 1 442 0
 3271 29d7 488B45E8 		movq	-24(%rbp), %rax
 3272 29db 488B4040 		movq	64(%rax), %rax
 3273 29df 8B55E4   		movl	-28(%rbp), %edx
 3274 29e2 4863D2   		movslq	%edx, %rdx
 3275 29e5 48C1E203 		salq	$3, %rdx
 3276 29e9 4801D0   		addq	%rdx, %rax
 3277 29ec F20F1000 		movsd	(%rax), %xmm0
 3278 29f0 F20F1145 		movsd	%xmm0, -8(%rbp)
 3278      F8
 443:/home/brendan/Dropbox/PhD/Code/LBM/2D LBFS/src/Mesh.cpp **** 
 444:/home/brendan/Dropbox/PhD/Code/LBM/2D LBFS/src/Mesh.cpp ****     return result ;
 3279              		.loc 1 444 0
 3280 29f5 F20F1045 		movsd	-8(%rbp), %xmm0
 3280      F8
 445:/home/brendan/Dropbox/PhD/Code/LBM/2D LBFS/src/Mesh.cpp **** }
 3281              		.loc 1 445 0
 3282 29fa 5D       		popq	%rbp
 3283              		.cfi_def_cfa 7, 8
 3284 29fb C3       		ret
 3285              		.cfi_endproc
 3286              	.LFE6801:
 3288              		.align 2
 3289              		.globl	_ZN4Mesh25create_coarse_mesh_domainEv
 3291              	_ZN4Mesh25create_coarse_mesh_domainEv:
 3292              	.LFB6802:
 446:/home/brendan/Dropbox/PhD/Code/LBM/2D LBFS/src/Mesh.cpp **** 
 447:/home/brendan/Dropbox/PhD/Code/LBM/2D LBFS/src/Mesh.cpp **** 
 448:/home/brendan/Dropbox/PhD/Code/LBM/2D LBFS/src/Mesh.cpp **** domain_geometry Mesh::create_coarse_mesh_domain(){
 3293              		.loc 1 448 0
 3294              		.cfi_startproc
 3295 29fc 55       		pushq	%rbp
 3296              		.cfi_def_cfa_offset 16
 3297              		.cfi_offset 6, -16
 3298 29fd 4889E5   		movq	%rsp, %rbp
 3299              		.cfi_def_cfa_register 6
 3300 2a00 4883EC20 		subq	$32, %rsp
 3301 2a04 48897DE8 		movq	%rdi, -24(%rbp)
 3302 2a08 488975E0 		movq	%rsi, -32(%rbp)
 3303              		.loc 1 448 0
 3304 2a0c 64488B04 		movq	%fs:40, %rax
 3304      25280000 
 3304      00
GAS LISTING /tmp/ccSpSEFs.s 			page 84


 3305 2a15 488945F8 		movq	%rax, -8(%rbp)
 3306 2a19 31C0     		xorl	%eax, %eax
 449:/home/brendan/Dropbox/PhD/Code/LBM/2D LBFS/src/Mesh.cpp **** 
 450:/home/brendan/Dropbox/PhD/Code/LBM/2D LBFS/src/Mesh.cpp ****     domain_geometry coarse_domain;
 3307              		.loc 1 450 0
 3308 2a1b 488B45E8 		movq	-24(%rbp), %rax
 3309 2a1f 4889C7   		movq	%rax, %rdi
 3310 2a22 E8000000 		call	_ZN15domain_geometryC1Ev
 3310      00
 451:/home/brendan/Dropbox/PhD/Code/LBM/2D LBFS/src/Mesh.cpp **** 
 452:/home/brendan/Dropbox/PhD/Code/LBM/2D LBFS/src/Mesh.cpp ****     coarse_domain.X = X/dx;
 3311              		.loc 1 452 0
 3312 2a27 488B45E0 		movq	-32(%rbp), %rax
 3313 2a2b F20F1040 		movsd	24(%rax), %xmm0
 3313      18
 3314 2a30 488B45E0 		movq	-32(%rbp), %rax
 3315 2a34 F20F1048 		movsd	40(%rax), %xmm1
 3315      28
 3316 2a39 F20F5EC1 		divsd	%xmm1, %xmm0
 3317 2a3d 488B45E8 		movq	-24(%rbp), %rax
 3318 2a41 F20F1140 		movsd	%xmm0, 8(%rax)
 3318      08
 453:/home/brendan/Dropbox/PhD/Code/LBM/2D LBFS/src/Mesh.cpp ****     coarse_domain.Y = Y/dy;
 3319              		.loc 1 453 0
 3320 2a46 488B45E0 		movq	-32(%rbp), %rax
 3321 2a4a F20F1040 		movsd	32(%rax), %xmm0
 3321      20
 3322 2a4f 488B45E0 		movq	-32(%rbp), %rax
 3323 2a53 F20F1048 		movsd	48(%rax), %xmm1
 3323      30
 3324 2a58 F20F5EC1 		divsd	%xmm1, %xmm0
 3325 2a5c 488B45E8 		movq	-24(%rbp), %rax
 3326 2a60 F20F1140 		movsd	%xmm0, 16(%rax)
 3326      10
 454:/home/brendan/Dropbox/PhD/Code/LBM/2D LBFS/src/Mesh.cpp ****     coarse_domain.dx = dx*2*multi_grid_dt;
 3327              		.loc 1 454 0
 3328 2a65 488B45E0 		movq	-32(%rbp), %rax
 3329 2a69 F20F1040 		movsd	40(%rax), %xmm0
 3329      28
 3330 2a6e F20F58C0 		addsd	%xmm0, %xmm0
 3331 2a72 488B45E0 		movq	-32(%rbp), %rax
 3332 2a76 F20F1048 		movsd	56(%rax), %xmm1
 3332      38
 3333 2a7b F20F59C1 		mulsd	%xmm1, %xmm0
 3334 2a7f 488B45E8 		movq	-24(%rbp), %rax
 3335 2a83 F20F1140 		movsd	%xmm0, 24(%rax)
 3335      18
 455:/home/brendan/Dropbox/PhD/Code/LBM/2D LBFS/src/Mesh.cpp ****     coarse_domain.dy = dy*2*multi_grid_dt;
 3336              		.loc 1 455 0
 3337 2a88 488B45E0 		movq	-32(%rbp), %rax
 3338 2a8c F20F1040 		movsd	48(%rax), %xmm0
 3338      30
 3339 2a91 F20F58C0 		addsd	%xmm0, %xmm0
 3340 2a95 488B45E0 		movq	-32(%rbp), %rax
 3341 2a99 F20F1048 		movsd	56(%rax), %xmm1
 3341      38
 3342 2a9e F20F59C1 		mulsd	%xmm1, %xmm0
GAS LISTING /tmp/ccSpSEFs.s 			page 85


 3343 2aa2 488B45E8 		movq	-24(%rbp), %rax
 3344 2aa6 F20F1140 		movsd	%xmm0, 32(%rax)
 3344      20
 456:/home/brendan/Dropbox/PhD/Code/LBM/2D LBFS/src/Mesh.cpp ****     coarse_domain.dt = multi_grid_dt; //streaming time step
 3345              		.loc 1 456 0
 3346 2aab 488B45E0 		movq	-32(%rbp), %rax
 3347 2aaf F20F1040 		movsd	56(%rax), %xmm0
 3347      38
 3348 2ab4 488B45E8 		movq	-24(%rbp), %rax
 3349 2ab8 F20F1140 		movsd	%xmm0, 40(%rax)
 3349      28
 457:/home/brendan/Dropbox/PhD/Code/LBM/2D LBFS/src/Mesh.cpp ****     //coarse_domain.dt = multi_grid_dt;
 458:/home/brendan/Dropbox/PhD/Code/LBM/2D LBFS/src/Mesh.cpp ****     coarse_domain.cs = cs;
 3350              		.loc 1 458 0
 3351 2abd 488B45E0 		movq	-32(%rbp), %rax
 3352 2ac1 F20F1080 		movsd	368(%rax), %xmm0
 3352      70010000 
 3353 2ac9 488B45E8 		movq	-24(%rbp), %rax
 3354 2acd F20F1140 		movsd	%xmm0, 48(%rax)
 3354      30
 459:/home/brendan/Dropbox/PhD/Code/LBM/2D LBFS/src/Mesh.cpp **** 
 460:/home/brendan/Dropbox/PhD/Code/LBM/2D LBFS/src/Mesh.cpp **** 
 461:/home/brendan/Dropbox/PhD/Code/LBM/2D LBFS/src/Mesh.cpp ****     return coarse_domain;
 3355              		.loc 1 461 0
 3356 2ad2 90       		nop
 462:/home/brendan/Dropbox/PhD/Code/LBM/2D LBFS/src/Mesh.cpp **** 
 463:/home/brendan/Dropbox/PhD/Code/LBM/2D LBFS/src/Mesh.cpp **** 
 464:/home/brendan/Dropbox/PhD/Code/LBM/2D LBFS/src/Mesh.cpp **** }
 3357              		.loc 1 464 0
 3358 2ad3 488B45E8 		movq	-24(%rbp), %rax
 3359 2ad7 488B55F8 		movq	-8(%rbp), %rdx
 3360 2adb 64483314 		xorq	%fs:40, %rdx
 3360      25280000 
 3360      00
 3361 2ae4 7405     		je	.L235
 3362 2ae6 E8000000 		call	__stack_chk_fail
 3362      00
 3363              	.L235:
 3364 2aeb C9       		leave
 3365              		.cfi_def_cfa 7, 8
 3366 2aec C3       		ret
 3367              		.cfi_endproc
 3368              	.LFE6802:
 3370              		.section	.text._ZStplIcSt11char_traitsIcESaIcEENSt7__cxx1112basic_stringIT_T0_T1_EERKS8_PKS5_,"axG
 3371              		.weak	_ZStplIcSt11char_traitsIcESaIcEENSt7__cxx1112basic_stringIT_T0_T1_EERKS8_PKS5_
 3373              	_ZStplIcSt11char_traitsIcESaIcEENSt7__cxx1112basic_stringIT_T0_T1_EERKS8_PKS5_:
 3374              	.LFB6874:
 3375              		.file 2 "/usr/include/c++/5/bits/basic_string.h"
   1:/usr/include/c++/5/bits/basic_string.h **** // Components for manipulating sequences of characters -*- C++ -*-
   2:/usr/include/c++/5/bits/basic_string.h **** 
   3:/usr/include/c++/5/bits/basic_string.h **** // Copyright (C) 1997-2015 Free Software Foundation, Inc.
   4:/usr/include/c++/5/bits/basic_string.h **** //
   5:/usr/include/c++/5/bits/basic_string.h **** // This file is part of the GNU ISO C++ Library.  This library is free
   6:/usr/include/c++/5/bits/basic_string.h **** // software; you can redistribute it and/or modify it under the
   7:/usr/include/c++/5/bits/basic_string.h **** // terms of the GNU General Public License as published by the
   8:/usr/include/c++/5/bits/basic_string.h **** // Free Software Foundation; either version 3, or (at your option)
   9:/usr/include/c++/5/bits/basic_string.h **** // any later version.
GAS LISTING /tmp/ccSpSEFs.s 			page 86


  10:/usr/include/c++/5/bits/basic_string.h **** 
  11:/usr/include/c++/5/bits/basic_string.h **** // This library is distributed in the hope that it will be useful,
  12:/usr/include/c++/5/bits/basic_string.h **** // but WITHOUT ANY WARRANTY; without even the implied warranty of
  13:/usr/include/c++/5/bits/basic_string.h **** // MERCHANTABILITY or FITNESS FOR A PARTICULAR PURPOSE.  See the
  14:/usr/include/c++/5/bits/basic_string.h **** // GNU General Public License for more details.
  15:/usr/include/c++/5/bits/basic_string.h **** 
  16:/usr/include/c++/5/bits/basic_string.h **** // Under Section 7 of GPL version 3, you are granted additional
  17:/usr/include/c++/5/bits/basic_string.h **** // permissions described in the GCC Runtime Library Exception, version
  18:/usr/include/c++/5/bits/basic_string.h **** // 3.1, as published by the Free Software Foundation.
  19:/usr/include/c++/5/bits/basic_string.h **** 
  20:/usr/include/c++/5/bits/basic_string.h **** // You should have received a copy of the GNU General Public License and
  21:/usr/include/c++/5/bits/basic_string.h **** // a copy of the GCC Runtime Library Exception along with this program;
  22:/usr/include/c++/5/bits/basic_string.h **** // see the files COPYING3 and COPYING.RUNTIME respectively.  If not, see
  23:/usr/include/c++/5/bits/basic_string.h **** // <http://www.gnu.org/licenses/>.
  24:/usr/include/c++/5/bits/basic_string.h **** 
  25:/usr/include/c++/5/bits/basic_string.h **** /** @file bits/basic_string.h
  26:/usr/include/c++/5/bits/basic_string.h ****  *  This is an internal header file, included by other library headers.
  27:/usr/include/c++/5/bits/basic_string.h ****  *  Do not attempt to use it directly. @headername{string}
  28:/usr/include/c++/5/bits/basic_string.h ****  */
  29:/usr/include/c++/5/bits/basic_string.h **** 
  30:/usr/include/c++/5/bits/basic_string.h **** //
  31:/usr/include/c++/5/bits/basic_string.h **** // ISO C++ 14882: 21 Strings library
  32:/usr/include/c++/5/bits/basic_string.h **** //
  33:/usr/include/c++/5/bits/basic_string.h **** 
  34:/usr/include/c++/5/bits/basic_string.h **** #ifndef _BASIC_STRING_H
  35:/usr/include/c++/5/bits/basic_string.h **** #define _BASIC_STRING_H 1
  36:/usr/include/c++/5/bits/basic_string.h **** 
  37:/usr/include/c++/5/bits/basic_string.h **** #pragma GCC system_header
  38:/usr/include/c++/5/bits/basic_string.h **** 
  39:/usr/include/c++/5/bits/basic_string.h **** #include <ext/atomicity.h>
  40:/usr/include/c++/5/bits/basic_string.h **** #include <ext/alloc_traits.h>
  41:/usr/include/c++/5/bits/basic_string.h **** #include <debug/debug.h>
  42:/usr/include/c++/5/bits/basic_string.h **** #if __cplusplus >= 201103L
  43:/usr/include/c++/5/bits/basic_string.h **** #include <initializer_list>
  44:/usr/include/c++/5/bits/basic_string.h **** #endif
  45:/usr/include/c++/5/bits/basic_string.h **** 
  46:/usr/include/c++/5/bits/basic_string.h **** namespace std _GLIBCXX_VISIBILITY(default)
  47:/usr/include/c++/5/bits/basic_string.h **** {
  48:/usr/include/c++/5/bits/basic_string.h **** _GLIBCXX_BEGIN_NAMESPACE_VERSION
  49:/usr/include/c++/5/bits/basic_string.h **** 
  50:/usr/include/c++/5/bits/basic_string.h **** #if _GLIBCXX_USE_CXX11_ABI
  51:/usr/include/c++/5/bits/basic_string.h **** _GLIBCXX_BEGIN_NAMESPACE_CXX11
  52:/usr/include/c++/5/bits/basic_string.h ****   /**
  53:/usr/include/c++/5/bits/basic_string.h ****    *  @class basic_string basic_string.h <string>
  54:/usr/include/c++/5/bits/basic_string.h ****    *  @brief  Managing sequences of characters and character-like objects.
  55:/usr/include/c++/5/bits/basic_string.h ****    *
  56:/usr/include/c++/5/bits/basic_string.h ****    *  @ingroup strings
  57:/usr/include/c++/5/bits/basic_string.h ****    *  @ingroup sequences
  58:/usr/include/c++/5/bits/basic_string.h ****    *
  59:/usr/include/c++/5/bits/basic_string.h ****    *  @tparam _CharT  Type of character
  60:/usr/include/c++/5/bits/basic_string.h ****    *  @tparam _Traits  Traits for character type, defaults to
  61:/usr/include/c++/5/bits/basic_string.h ****    *                   char_traits<_CharT>.
  62:/usr/include/c++/5/bits/basic_string.h ****    *  @tparam _Alloc  Allocator type, defaults to allocator<_CharT>.
  63:/usr/include/c++/5/bits/basic_string.h ****    *
  64:/usr/include/c++/5/bits/basic_string.h ****    *  Meets the requirements of a <a href="tables.html#65">container</a>, a
  65:/usr/include/c++/5/bits/basic_string.h ****    *  <a href="tables.html#66">reversible container</a>, and a
  66:/usr/include/c++/5/bits/basic_string.h ****    *  <a href="tables.html#67">sequence</a>.  Of the
GAS LISTING /tmp/ccSpSEFs.s 			page 87


  67:/usr/include/c++/5/bits/basic_string.h ****    *  <a href="tables.html#68">optional sequence requirements</a>, only
  68:/usr/include/c++/5/bits/basic_string.h ****    *  @c push_back, @c at, and @c %array access are supported.
  69:/usr/include/c++/5/bits/basic_string.h ****    */
  70:/usr/include/c++/5/bits/basic_string.h ****   template<typename _CharT, typename _Traits, typename _Alloc>
  71:/usr/include/c++/5/bits/basic_string.h ****     class basic_string
  72:/usr/include/c++/5/bits/basic_string.h ****     {
  73:/usr/include/c++/5/bits/basic_string.h ****       typedef typename __gnu_cxx::__alloc_traits<_Alloc>::template
  74:/usr/include/c++/5/bits/basic_string.h **** 	rebind<_CharT>::other _Char_alloc_type;
  75:/usr/include/c++/5/bits/basic_string.h ****       typedef __gnu_cxx::__alloc_traits<_Char_alloc_type> _Alloc_traits;
  76:/usr/include/c++/5/bits/basic_string.h **** 
  77:/usr/include/c++/5/bits/basic_string.h ****       // Types:
  78:/usr/include/c++/5/bits/basic_string.h ****     public:
  79:/usr/include/c++/5/bits/basic_string.h ****       typedef _Traits					traits_type;
  80:/usr/include/c++/5/bits/basic_string.h ****       typedef typename _Traits::char_type		value_type;
  81:/usr/include/c++/5/bits/basic_string.h ****       typedef _Char_alloc_type				allocator_type;
  82:/usr/include/c++/5/bits/basic_string.h ****       typedef typename _Alloc_traits::size_type		size_type;
  83:/usr/include/c++/5/bits/basic_string.h ****       typedef typename _Alloc_traits::difference_type	difference_type;
  84:/usr/include/c++/5/bits/basic_string.h ****       typedef typename _Alloc_traits::reference		reference;
  85:/usr/include/c++/5/bits/basic_string.h ****       typedef typename _Alloc_traits::const_reference	const_reference;
  86:/usr/include/c++/5/bits/basic_string.h ****       typedef typename _Alloc_traits::pointer		pointer;
  87:/usr/include/c++/5/bits/basic_string.h ****       typedef typename _Alloc_traits::const_pointer	const_pointer;
  88:/usr/include/c++/5/bits/basic_string.h ****       typedef __gnu_cxx::__normal_iterator<pointer, basic_string>  iterator;
  89:/usr/include/c++/5/bits/basic_string.h ****       typedef __gnu_cxx::__normal_iterator<const_pointer, basic_string>
  90:/usr/include/c++/5/bits/basic_string.h **** 							const_iterator;
  91:/usr/include/c++/5/bits/basic_string.h ****       typedef std::reverse_iterator<const_iterator>	const_reverse_iterator;
  92:/usr/include/c++/5/bits/basic_string.h ****       typedef std::reverse_iterator<iterator>		reverse_iterator;
  93:/usr/include/c++/5/bits/basic_string.h **** 
  94:/usr/include/c++/5/bits/basic_string.h ****       ///  Value returned by various member functions when they fail.
  95:/usr/include/c++/5/bits/basic_string.h ****       static const size_type	npos = static_cast<size_type>(-1);
  96:/usr/include/c++/5/bits/basic_string.h **** 
  97:/usr/include/c++/5/bits/basic_string.h ****     private:
  98:/usr/include/c++/5/bits/basic_string.h ****       // type used for positions in insert, erase etc.
  99:/usr/include/c++/5/bits/basic_string.h **** #if __cplusplus < 201103L
 100:/usr/include/c++/5/bits/basic_string.h ****       typedef iterator __const_iterator;
 101:/usr/include/c++/5/bits/basic_string.h **** #else
 102:/usr/include/c++/5/bits/basic_string.h ****       typedef const_iterator __const_iterator;
 103:/usr/include/c++/5/bits/basic_string.h **** #endif
 104:/usr/include/c++/5/bits/basic_string.h **** 
 105:/usr/include/c++/5/bits/basic_string.h ****       // Use empty-base optimization: http://www.cantrip.org/emptyopt.html
 106:/usr/include/c++/5/bits/basic_string.h ****       struct _Alloc_hider : allocator_type // TODO check __is_final
 107:/usr/include/c++/5/bits/basic_string.h ****       {
 108:/usr/include/c++/5/bits/basic_string.h **** 	_Alloc_hider(pointer __dat, const _Alloc& __a = _Alloc())
 109:/usr/include/c++/5/bits/basic_string.h **** 	: allocator_type(__a), _M_p(__dat) { }
 110:/usr/include/c++/5/bits/basic_string.h **** 
 111:/usr/include/c++/5/bits/basic_string.h **** 	pointer _M_p; // The actual data.
 112:/usr/include/c++/5/bits/basic_string.h ****       };
 113:/usr/include/c++/5/bits/basic_string.h **** 
 114:/usr/include/c++/5/bits/basic_string.h ****       _Alloc_hider	_M_dataplus;
 115:/usr/include/c++/5/bits/basic_string.h ****       size_type		_M_string_length;
 116:/usr/include/c++/5/bits/basic_string.h **** 
 117:/usr/include/c++/5/bits/basic_string.h ****       enum { _S_local_capacity = 15 / sizeof(_CharT) };
 118:/usr/include/c++/5/bits/basic_string.h **** 
 119:/usr/include/c++/5/bits/basic_string.h ****       union
 120:/usr/include/c++/5/bits/basic_string.h ****       {
 121:/usr/include/c++/5/bits/basic_string.h **** 	_CharT           _M_local_buf[_S_local_capacity + 1];
 122:/usr/include/c++/5/bits/basic_string.h **** 	size_type        _M_allocated_capacity;
 123:/usr/include/c++/5/bits/basic_string.h ****       };
GAS LISTING /tmp/ccSpSEFs.s 			page 88


 124:/usr/include/c++/5/bits/basic_string.h **** 
 125:/usr/include/c++/5/bits/basic_string.h ****       void
 126:/usr/include/c++/5/bits/basic_string.h ****       _M_data(pointer __p)
 127:/usr/include/c++/5/bits/basic_string.h ****       { _M_dataplus._M_p = __p; }
 128:/usr/include/c++/5/bits/basic_string.h **** 
 129:/usr/include/c++/5/bits/basic_string.h ****       void
 130:/usr/include/c++/5/bits/basic_string.h ****       _M_length(size_type __length)
 131:/usr/include/c++/5/bits/basic_string.h ****       { _M_string_length = __length; }
 132:/usr/include/c++/5/bits/basic_string.h **** 
 133:/usr/include/c++/5/bits/basic_string.h ****       pointer
 134:/usr/include/c++/5/bits/basic_string.h ****       _M_data() const
 135:/usr/include/c++/5/bits/basic_string.h ****       { return _M_dataplus._M_p; }
 136:/usr/include/c++/5/bits/basic_string.h **** 
 137:/usr/include/c++/5/bits/basic_string.h ****       pointer
 138:/usr/include/c++/5/bits/basic_string.h ****       _M_local_data()
 139:/usr/include/c++/5/bits/basic_string.h ****       {
 140:/usr/include/c++/5/bits/basic_string.h **** #if __cplusplus >= 201103L
 141:/usr/include/c++/5/bits/basic_string.h **** 	return std::pointer_traits<pointer>::pointer_to(*_M_local_buf);
 142:/usr/include/c++/5/bits/basic_string.h **** #else
 143:/usr/include/c++/5/bits/basic_string.h **** 	return pointer(_M_local_buf);
 144:/usr/include/c++/5/bits/basic_string.h **** #endif
 145:/usr/include/c++/5/bits/basic_string.h ****       }
 146:/usr/include/c++/5/bits/basic_string.h **** 
 147:/usr/include/c++/5/bits/basic_string.h ****       const_pointer
 148:/usr/include/c++/5/bits/basic_string.h ****       _M_local_data() const
 149:/usr/include/c++/5/bits/basic_string.h ****       {
 150:/usr/include/c++/5/bits/basic_string.h **** #if __cplusplus >= 201103L
 151:/usr/include/c++/5/bits/basic_string.h **** 	return std::pointer_traits<const_pointer>::pointer_to(*_M_local_buf);
 152:/usr/include/c++/5/bits/basic_string.h **** #else
 153:/usr/include/c++/5/bits/basic_string.h **** 	return const_pointer(_M_local_buf);
 154:/usr/include/c++/5/bits/basic_string.h **** #endif
 155:/usr/include/c++/5/bits/basic_string.h ****       }
 156:/usr/include/c++/5/bits/basic_string.h **** 
 157:/usr/include/c++/5/bits/basic_string.h ****       void
 158:/usr/include/c++/5/bits/basic_string.h ****       _M_capacity(size_type __capacity)
 159:/usr/include/c++/5/bits/basic_string.h ****       { _M_allocated_capacity = __capacity; }
 160:/usr/include/c++/5/bits/basic_string.h **** 
 161:/usr/include/c++/5/bits/basic_string.h ****       void
 162:/usr/include/c++/5/bits/basic_string.h ****       _M_set_length(size_type __n)
 163:/usr/include/c++/5/bits/basic_string.h ****       {
 164:/usr/include/c++/5/bits/basic_string.h **** 	_M_length(__n);
 165:/usr/include/c++/5/bits/basic_string.h **** 	traits_type::assign(_M_data()[__n], _CharT());
 166:/usr/include/c++/5/bits/basic_string.h ****       }
 167:/usr/include/c++/5/bits/basic_string.h **** 
 168:/usr/include/c++/5/bits/basic_string.h ****       bool
 169:/usr/include/c++/5/bits/basic_string.h ****       _M_is_local() const
 170:/usr/include/c++/5/bits/basic_string.h ****       { return _M_data() == _M_local_data(); }
 171:/usr/include/c++/5/bits/basic_string.h **** 
 172:/usr/include/c++/5/bits/basic_string.h ****       // Create & Destroy
 173:/usr/include/c++/5/bits/basic_string.h ****       pointer
 174:/usr/include/c++/5/bits/basic_string.h ****       _M_create(size_type&, size_type);
 175:/usr/include/c++/5/bits/basic_string.h **** 
 176:/usr/include/c++/5/bits/basic_string.h ****       void
 177:/usr/include/c++/5/bits/basic_string.h ****       _M_dispose()
 178:/usr/include/c++/5/bits/basic_string.h ****       {
 179:/usr/include/c++/5/bits/basic_string.h **** 	if (!_M_is_local())
 180:/usr/include/c++/5/bits/basic_string.h **** 	  _M_destroy(_M_allocated_capacity);
GAS LISTING /tmp/ccSpSEFs.s 			page 89


 181:/usr/include/c++/5/bits/basic_string.h ****       }
 182:/usr/include/c++/5/bits/basic_string.h **** 
 183:/usr/include/c++/5/bits/basic_string.h ****       void
 184:/usr/include/c++/5/bits/basic_string.h ****       _M_destroy(size_type __size) throw()
 185:/usr/include/c++/5/bits/basic_string.h ****       { _Alloc_traits::deallocate(_M_get_allocator(), _M_data(), __size + 1); }
 186:/usr/include/c++/5/bits/basic_string.h **** 
 187:/usr/include/c++/5/bits/basic_string.h ****       // _M_construct_aux is used to implement the 21.3.1 para 15 which
 188:/usr/include/c++/5/bits/basic_string.h ****       // requires special behaviour if _InIterator is an integral type
 189:/usr/include/c++/5/bits/basic_string.h ****       template<typename _InIterator>
 190:/usr/include/c++/5/bits/basic_string.h ****         void
 191:/usr/include/c++/5/bits/basic_string.h ****         _M_construct_aux(_InIterator __beg, _InIterator __end,
 192:/usr/include/c++/5/bits/basic_string.h **** 			 std::__false_type)
 193:/usr/include/c++/5/bits/basic_string.h **** 	{
 194:/usr/include/c++/5/bits/basic_string.h ****           typedef typename iterator_traits<_InIterator>::iterator_category _Tag;
 195:/usr/include/c++/5/bits/basic_string.h ****           _M_construct(__beg, __end, _Tag());
 196:/usr/include/c++/5/bits/basic_string.h **** 	}
 197:/usr/include/c++/5/bits/basic_string.h **** 
 198:/usr/include/c++/5/bits/basic_string.h ****       // _GLIBCXX_RESOLVE_LIB_DEFECTS
 199:/usr/include/c++/5/bits/basic_string.h ****       // 438. Ambiguity in the "do the right thing" clause
 200:/usr/include/c++/5/bits/basic_string.h ****       template<typename _Integer>
 201:/usr/include/c++/5/bits/basic_string.h ****         void
 202:/usr/include/c++/5/bits/basic_string.h ****         _M_construct_aux(_Integer __beg, _Integer __end, std::__true_type)
 203:/usr/include/c++/5/bits/basic_string.h **** 	{ _M_construct_aux_2(static_cast<size_type>(__beg), __end); }
 204:/usr/include/c++/5/bits/basic_string.h **** 
 205:/usr/include/c++/5/bits/basic_string.h ****       void
 206:/usr/include/c++/5/bits/basic_string.h ****       _M_construct_aux_2(size_type __req, _CharT __c)
 207:/usr/include/c++/5/bits/basic_string.h ****       { _M_construct(__req, __c); }
 208:/usr/include/c++/5/bits/basic_string.h **** 
 209:/usr/include/c++/5/bits/basic_string.h ****       template<typename _InIterator>
 210:/usr/include/c++/5/bits/basic_string.h ****         void
 211:/usr/include/c++/5/bits/basic_string.h ****         _M_construct(_InIterator __beg, _InIterator __end)
 212:/usr/include/c++/5/bits/basic_string.h **** 	{
 213:/usr/include/c++/5/bits/basic_string.h **** 	  typedef typename std::__is_integer<_InIterator>::__type _Integral;
 214:/usr/include/c++/5/bits/basic_string.h **** 	  _M_construct_aux(__beg, __end, _Integral());
 215:/usr/include/c++/5/bits/basic_string.h ****         }
 216:/usr/include/c++/5/bits/basic_string.h **** 
 217:/usr/include/c++/5/bits/basic_string.h ****       // For Input Iterators, used in istreambuf_iterators, etc.
 218:/usr/include/c++/5/bits/basic_string.h ****       template<typename _InIterator>
 219:/usr/include/c++/5/bits/basic_string.h ****         void
 220:/usr/include/c++/5/bits/basic_string.h ****         _M_construct(_InIterator __beg, _InIterator __end,
 221:/usr/include/c++/5/bits/basic_string.h **** 		     std::input_iterator_tag);
 222:/usr/include/c++/5/bits/basic_string.h **** 
 223:/usr/include/c++/5/bits/basic_string.h ****       // For forward_iterators up to random_access_iterators, used for
 224:/usr/include/c++/5/bits/basic_string.h ****       // string::iterator, _CharT*, etc.
 225:/usr/include/c++/5/bits/basic_string.h ****       template<typename _FwdIterator>
 226:/usr/include/c++/5/bits/basic_string.h ****         void
 227:/usr/include/c++/5/bits/basic_string.h ****         _M_construct(_FwdIterator __beg, _FwdIterator __end,
 228:/usr/include/c++/5/bits/basic_string.h **** 		     std::forward_iterator_tag);
 229:/usr/include/c++/5/bits/basic_string.h **** 
 230:/usr/include/c++/5/bits/basic_string.h ****       void
 231:/usr/include/c++/5/bits/basic_string.h ****       _M_construct(size_type __req, _CharT __c);
 232:/usr/include/c++/5/bits/basic_string.h **** 
 233:/usr/include/c++/5/bits/basic_string.h ****       allocator_type&
 234:/usr/include/c++/5/bits/basic_string.h ****       _M_get_allocator()
 235:/usr/include/c++/5/bits/basic_string.h ****       { return _M_dataplus; }
 236:/usr/include/c++/5/bits/basic_string.h **** 
 237:/usr/include/c++/5/bits/basic_string.h ****       const allocator_type&
GAS LISTING /tmp/ccSpSEFs.s 			page 90


 238:/usr/include/c++/5/bits/basic_string.h ****       _M_get_allocator() const
 239:/usr/include/c++/5/bits/basic_string.h ****       { return _M_dataplus; }
 240:/usr/include/c++/5/bits/basic_string.h **** 
 241:/usr/include/c++/5/bits/basic_string.h ****     private:
 242:/usr/include/c++/5/bits/basic_string.h **** 
 243:/usr/include/c++/5/bits/basic_string.h **** #ifdef _GLIBCXX_DISAMBIGUATE_REPLACE_INST
 244:/usr/include/c++/5/bits/basic_string.h ****       // The explicit instantiations in misc-inst.cc require this due to
 245:/usr/include/c++/5/bits/basic_string.h ****       // https://gcc.gnu.org/bugzilla/show_bug.cgi?id=64063
 246:/usr/include/c++/5/bits/basic_string.h ****       template<typename _Tp, bool _Requires =
 247:/usr/include/c++/5/bits/basic_string.h **** 	       !__are_same<_Tp, _CharT*>::__value
 248:/usr/include/c++/5/bits/basic_string.h **** 	       && !__are_same<_Tp, const _CharT*>::__value
 249:/usr/include/c++/5/bits/basic_string.h **** 	       && !__are_same<_Tp, iterator>::__value
 250:/usr/include/c++/5/bits/basic_string.h **** 	       && !__are_same<_Tp, const_iterator>::__value>
 251:/usr/include/c++/5/bits/basic_string.h **** 	struct __enable_if_not_native_iterator
 252:/usr/include/c++/5/bits/basic_string.h **** 	{ typedef basic_string& __type; };
 253:/usr/include/c++/5/bits/basic_string.h ****       template<typename _Tp>
 254:/usr/include/c++/5/bits/basic_string.h **** 	struct __enable_if_not_native_iterator<_Tp, false> { };
 255:/usr/include/c++/5/bits/basic_string.h **** #endif
 256:/usr/include/c++/5/bits/basic_string.h **** 
 257:/usr/include/c++/5/bits/basic_string.h ****       size_type
 258:/usr/include/c++/5/bits/basic_string.h ****       _M_check(size_type __pos, const char* __s) const
 259:/usr/include/c++/5/bits/basic_string.h ****       {
 260:/usr/include/c++/5/bits/basic_string.h **** 	if (__pos > this->size())
 261:/usr/include/c++/5/bits/basic_string.h **** 	  __throw_out_of_range_fmt(__N("%s: __pos (which is %zu) > "
 262:/usr/include/c++/5/bits/basic_string.h **** 				       "this->size() (which is %zu)"),
 263:/usr/include/c++/5/bits/basic_string.h **** 				   __s, __pos, this->size());
 264:/usr/include/c++/5/bits/basic_string.h **** 	return __pos;
 265:/usr/include/c++/5/bits/basic_string.h ****       }
 266:/usr/include/c++/5/bits/basic_string.h **** 
 267:/usr/include/c++/5/bits/basic_string.h ****       void
 268:/usr/include/c++/5/bits/basic_string.h ****       _M_check_length(size_type __n1, size_type __n2, const char* __s) const
 269:/usr/include/c++/5/bits/basic_string.h ****       {
 270:/usr/include/c++/5/bits/basic_string.h **** 	if (this->max_size() - (this->size() - __n1) < __n2)
 271:/usr/include/c++/5/bits/basic_string.h **** 	  __throw_length_error(__N(__s));
 272:/usr/include/c++/5/bits/basic_string.h ****       }
 273:/usr/include/c++/5/bits/basic_string.h **** 
 274:/usr/include/c++/5/bits/basic_string.h **** 
 275:/usr/include/c++/5/bits/basic_string.h ****       // NB: _M_limit doesn't check for a bad __pos value.
 276:/usr/include/c++/5/bits/basic_string.h ****       size_type
 277:/usr/include/c++/5/bits/basic_string.h ****       _M_limit(size_type __pos, size_type __off) const _GLIBCXX_NOEXCEPT
 278:/usr/include/c++/5/bits/basic_string.h ****       {
 279:/usr/include/c++/5/bits/basic_string.h **** 	const bool __testoff =  __off < this->size() - __pos;
 280:/usr/include/c++/5/bits/basic_string.h **** 	return __testoff ? __off : this->size() - __pos;
 281:/usr/include/c++/5/bits/basic_string.h ****       }
 282:/usr/include/c++/5/bits/basic_string.h **** 
 283:/usr/include/c++/5/bits/basic_string.h ****       // True if _Rep and source do not overlap.
 284:/usr/include/c++/5/bits/basic_string.h ****       bool
 285:/usr/include/c++/5/bits/basic_string.h ****       _M_disjunct(const _CharT* __s) const _GLIBCXX_NOEXCEPT
 286:/usr/include/c++/5/bits/basic_string.h ****       {
 287:/usr/include/c++/5/bits/basic_string.h **** 	return (less<const _CharT*>()(__s, _M_data())
 288:/usr/include/c++/5/bits/basic_string.h **** 		|| less<const _CharT*>()(_M_data() + this->size(), __s));
 289:/usr/include/c++/5/bits/basic_string.h ****       }
 290:/usr/include/c++/5/bits/basic_string.h **** 
 291:/usr/include/c++/5/bits/basic_string.h ****       // When __n = 1 way faster than the general multichar
 292:/usr/include/c++/5/bits/basic_string.h ****       // traits_type::copy/move/assign.
 293:/usr/include/c++/5/bits/basic_string.h ****       static void
 294:/usr/include/c++/5/bits/basic_string.h ****       _S_copy(_CharT* __d, const _CharT* __s, size_type __n)
GAS LISTING /tmp/ccSpSEFs.s 			page 91


 295:/usr/include/c++/5/bits/basic_string.h ****       {
 296:/usr/include/c++/5/bits/basic_string.h **** 	if (__n == 1)
 297:/usr/include/c++/5/bits/basic_string.h **** 	  traits_type::assign(*__d, *__s);
 298:/usr/include/c++/5/bits/basic_string.h **** 	else
 299:/usr/include/c++/5/bits/basic_string.h **** 	  traits_type::copy(__d, __s, __n);
 300:/usr/include/c++/5/bits/basic_string.h ****       }
 301:/usr/include/c++/5/bits/basic_string.h **** 
 302:/usr/include/c++/5/bits/basic_string.h ****       static void
 303:/usr/include/c++/5/bits/basic_string.h ****       _S_move(_CharT* __d, const _CharT* __s, size_type __n)
 304:/usr/include/c++/5/bits/basic_string.h ****       {
 305:/usr/include/c++/5/bits/basic_string.h **** 	if (__n == 1)
 306:/usr/include/c++/5/bits/basic_string.h **** 	  traits_type::assign(*__d, *__s);
 307:/usr/include/c++/5/bits/basic_string.h **** 	else
 308:/usr/include/c++/5/bits/basic_string.h **** 	  traits_type::move(__d, __s, __n);
 309:/usr/include/c++/5/bits/basic_string.h ****       }
 310:/usr/include/c++/5/bits/basic_string.h **** 
 311:/usr/include/c++/5/bits/basic_string.h ****       static void
 312:/usr/include/c++/5/bits/basic_string.h ****       _S_assign(_CharT* __d, size_type __n, _CharT __c)
 313:/usr/include/c++/5/bits/basic_string.h ****       {
 314:/usr/include/c++/5/bits/basic_string.h **** 	if (__n == 1)
 315:/usr/include/c++/5/bits/basic_string.h **** 	  traits_type::assign(*__d, __c);
 316:/usr/include/c++/5/bits/basic_string.h **** 	else
 317:/usr/include/c++/5/bits/basic_string.h **** 	  traits_type::assign(__d, __n, __c);
 318:/usr/include/c++/5/bits/basic_string.h ****       }
 319:/usr/include/c++/5/bits/basic_string.h **** 
 320:/usr/include/c++/5/bits/basic_string.h ****       // _S_copy_chars is a separate template to permit specialization
 321:/usr/include/c++/5/bits/basic_string.h ****       // to optimize for the common case of pointers as iterators.
 322:/usr/include/c++/5/bits/basic_string.h ****       template<class _Iterator>
 323:/usr/include/c++/5/bits/basic_string.h ****         static void
 324:/usr/include/c++/5/bits/basic_string.h ****         _S_copy_chars(_CharT* __p, _Iterator __k1, _Iterator __k2)
 325:/usr/include/c++/5/bits/basic_string.h ****         {
 326:/usr/include/c++/5/bits/basic_string.h **** 	  for (; __k1 != __k2; ++__k1, ++__p)
 327:/usr/include/c++/5/bits/basic_string.h **** 	    traits_type::assign(*__p, *__k1); // These types are off.
 328:/usr/include/c++/5/bits/basic_string.h **** 	}
 329:/usr/include/c++/5/bits/basic_string.h **** 
 330:/usr/include/c++/5/bits/basic_string.h ****       static void
 331:/usr/include/c++/5/bits/basic_string.h ****       _S_copy_chars(_CharT* __p, iterator __k1, iterator __k2) _GLIBCXX_NOEXCEPT
 332:/usr/include/c++/5/bits/basic_string.h ****       { _S_copy_chars(__p, __k1.base(), __k2.base()); }
 333:/usr/include/c++/5/bits/basic_string.h **** 
 334:/usr/include/c++/5/bits/basic_string.h ****       static void
 335:/usr/include/c++/5/bits/basic_string.h ****       _S_copy_chars(_CharT* __p, const_iterator __k1, const_iterator __k2)
 336:/usr/include/c++/5/bits/basic_string.h ****       _GLIBCXX_NOEXCEPT
 337:/usr/include/c++/5/bits/basic_string.h ****       { _S_copy_chars(__p, __k1.base(), __k2.base()); }
 338:/usr/include/c++/5/bits/basic_string.h **** 
 339:/usr/include/c++/5/bits/basic_string.h ****       static void
 340:/usr/include/c++/5/bits/basic_string.h ****       _S_copy_chars(_CharT* __p, _CharT* __k1, _CharT* __k2) _GLIBCXX_NOEXCEPT
 341:/usr/include/c++/5/bits/basic_string.h ****       { _S_copy(__p, __k1, __k2 - __k1); }
 342:/usr/include/c++/5/bits/basic_string.h **** 
 343:/usr/include/c++/5/bits/basic_string.h ****       static void
 344:/usr/include/c++/5/bits/basic_string.h ****       _S_copy_chars(_CharT* __p, const _CharT* __k1, const _CharT* __k2)
 345:/usr/include/c++/5/bits/basic_string.h ****       _GLIBCXX_NOEXCEPT
 346:/usr/include/c++/5/bits/basic_string.h ****       { _S_copy(__p, __k1, __k2 - __k1); }
 347:/usr/include/c++/5/bits/basic_string.h **** 
 348:/usr/include/c++/5/bits/basic_string.h ****       static int
 349:/usr/include/c++/5/bits/basic_string.h ****       _S_compare(size_type __n1, size_type __n2) _GLIBCXX_NOEXCEPT
 350:/usr/include/c++/5/bits/basic_string.h ****       {
 351:/usr/include/c++/5/bits/basic_string.h **** 	const difference_type __d = difference_type(__n1 - __n2);
GAS LISTING /tmp/ccSpSEFs.s 			page 92


 352:/usr/include/c++/5/bits/basic_string.h **** 
 353:/usr/include/c++/5/bits/basic_string.h **** 	if (__d > __gnu_cxx::__numeric_traits<int>::__max)
 354:/usr/include/c++/5/bits/basic_string.h **** 	  return __gnu_cxx::__numeric_traits<int>::__max;
 355:/usr/include/c++/5/bits/basic_string.h **** 	else if (__d < __gnu_cxx::__numeric_traits<int>::__min)
 356:/usr/include/c++/5/bits/basic_string.h **** 	  return __gnu_cxx::__numeric_traits<int>::__min;
 357:/usr/include/c++/5/bits/basic_string.h **** 	else
 358:/usr/include/c++/5/bits/basic_string.h **** 	  return int(__d);
 359:/usr/include/c++/5/bits/basic_string.h ****       }
 360:/usr/include/c++/5/bits/basic_string.h **** 
 361:/usr/include/c++/5/bits/basic_string.h ****       void
 362:/usr/include/c++/5/bits/basic_string.h ****       _M_assign(const basic_string& __rcs);
 363:/usr/include/c++/5/bits/basic_string.h **** 
 364:/usr/include/c++/5/bits/basic_string.h ****       void
 365:/usr/include/c++/5/bits/basic_string.h ****       _M_mutate(size_type __pos, size_type __len1, const _CharT* __s,
 366:/usr/include/c++/5/bits/basic_string.h **** 		size_type __len2);
 367:/usr/include/c++/5/bits/basic_string.h **** 
 368:/usr/include/c++/5/bits/basic_string.h ****       void
 369:/usr/include/c++/5/bits/basic_string.h ****       _M_erase(size_type __pos, size_type __n);
 370:/usr/include/c++/5/bits/basic_string.h **** 
 371:/usr/include/c++/5/bits/basic_string.h ****     public:
 372:/usr/include/c++/5/bits/basic_string.h ****       // Construct/copy/destroy:
 373:/usr/include/c++/5/bits/basic_string.h ****       // NB: We overload ctors in some cases instead of using default
 374:/usr/include/c++/5/bits/basic_string.h ****       // arguments, per 17.4.4.4 para. 2 item 2.
 375:/usr/include/c++/5/bits/basic_string.h **** 
 376:/usr/include/c++/5/bits/basic_string.h ****       /**
 377:/usr/include/c++/5/bits/basic_string.h ****        *  @brief  Default constructor creates an empty string.
 378:/usr/include/c++/5/bits/basic_string.h ****        */
 379:/usr/include/c++/5/bits/basic_string.h ****       basic_string()
 380:/usr/include/c++/5/bits/basic_string.h **** #if __cplusplus >= 201103L
 381:/usr/include/c++/5/bits/basic_string.h ****       noexcept(is_nothrow_default_constructible<_Alloc>::value)
 382:/usr/include/c++/5/bits/basic_string.h **** #endif
 383:/usr/include/c++/5/bits/basic_string.h ****       : _M_dataplus(_M_local_data())
 384:/usr/include/c++/5/bits/basic_string.h ****       { _M_set_length(0); }
 385:/usr/include/c++/5/bits/basic_string.h **** 
 386:/usr/include/c++/5/bits/basic_string.h ****       /**
 387:/usr/include/c++/5/bits/basic_string.h ****        *  @brief  Construct an empty string using allocator @a a.
 388:/usr/include/c++/5/bits/basic_string.h ****        */
 389:/usr/include/c++/5/bits/basic_string.h ****       explicit
 390:/usr/include/c++/5/bits/basic_string.h ****       basic_string(const _Alloc& __a)
 391:/usr/include/c++/5/bits/basic_string.h ****       : _M_dataplus(_M_local_data(), __a)
 392:/usr/include/c++/5/bits/basic_string.h ****       { _M_set_length(0); }
 393:/usr/include/c++/5/bits/basic_string.h **** 
 394:/usr/include/c++/5/bits/basic_string.h ****       /**
 395:/usr/include/c++/5/bits/basic_string.h ****        *  @brief  Construct string with copy of value of @a __str.
 396:/usr/include/c++/5/bits/basic_string.h ****        *  @param  __str  Source string.
 397:/usr/include/c++/5/bits/basic_string.h ****        */
 398:/usr/include/c++/5/bits/basic_string.h ****       basic_string(const basic_string& __str)
 399:/usr/include/c++/5/bits/basic_string.h ****       : _M_dataplus(_M_local_data(), __str._M_get_allocator()) // TODO A traits
 400:/usr/include/c++/5/bits/basic_string.h ****       { _M_construct(__str._M_data(), __str._M_data() + __str.length()); }
 401:/usr/include/c++/5/bits/basic_string.h **** 
 402:/usr/include/c++/5/bits/basic_string.h ****       /**
 403:/usr/include/c++/5/bits/basic_string.h ****        *  @brief  Construct string as copy of a substring.
 404:/usr/include/c++/5/bits/basic_string.h ****        *  @param  __str  Source string.
 405:/usr/include/c++/5/bits/basic_string.h ****        *  @param  __pos  Index of first character to copy from.
 406:/usr/include/c++/5/bits/basic_string.h ****        *  @param  __n  Number of characters to copy (default remainder).
 407:/usr/include/c++/5/bits/basic_string.h ****        */
 408:/usr/include/c++/5/bits/basic_string.h ****       // _GLIBCXX_RESOLVE_LIB_DEFECTS
GAS LISTING /tmp/ccSpSEFs.s 			page 93


 409:/usr/include/c++/5/bits/basic_string.h ****       // 2402. [this constructor] shouldn't use Allocator()
 410:/usr/include/c++/5/bits/basic_string.h ****       basic_string(const basic_string& __str, size_type __pos,
 411:/usr/include/c++/5/bits/basic_string.h **** 		   size_type __n = npos)
 412:/usr/include/c++/5/bits/basic_string.h ****       : _M_dataplus(_M_local_data())
 413:/usr/include/c++/5/bits/basic_string.h ****       {
 414:/usr/include/c++/5/bits/basic_string.h **** 	const _CharT* __start = __str._M_data()
 415:/usr/include/c++/5/bits/basic_string.h **** 	  + __str._M_check(__pos, "basic_string::basic_string");
 416:/usr/include/c++/5/bits/basic_string.h **** 	_M_construct(__start, __start + __str._M_limit(__pos, __n));
 417:/usr/include/c++/5/bits/basic_string.h ****       }
 418:/usr/include/c++/5/bits/basic_string.h **** 
 419:/usr/include/c++/5/bits/basic_string.h ****       /**
 420:/usr/include/c++/5/bits/basic_string.h ****        *  @brief  Construct string as copy of a substring.
 421:/usr/include/c++/5/bits/basic_string.h ****        *  @param  __str  Source string.
 422:/usr/include/c++/5/bits/basic_string.h ****        *  @param  __pos  Index of first character to copy from.
 423:/usr/include/c++/5/bits/basic_string.h ****        *  @param  __n  Number of characters to copy (default remainder).
 424:/usr/include/c++/5/bits/basic_string.h ****        *  @param  __a  Allocator to use.
 425:/usr/include/c++/5/bits/basic_string.h ****        */
 426:/usr/include/c++/5/bits/basic_string.h ****       basic_string(const basic_string& __str, size_type __pos,
 427:/usr/include/c++/5/bits/basic_string.h **** 		   size_type __n, const _Alloc& __a)
 428:/usr/include/c++/5/bits/basic_string.h ****       : _M_dataplus(_M_local_data(), __a)
 429:/usr/include/c++/5/bits/basic_string.h ****       {
 430:/usr/include/c++/5/bits/basic_string.h **** 	const _CharT* __start
 431:/usr/include/c++/5/bits/basic_string.h **** 	  = __str._M_data() + __str._M_check(__pos, "string::string");
 432:/usr/include/c++/5/bits/basic_string.h **** 	_M_construct(__start, __start + __str._M_limit(__pos, __n));
 433:/usr/include/c++/5/bits/basic_string.h ****       }
 434:/usr/include/c++/5/bits/basic_string.h **** 
 435:/usr/include/c++/5/bits/basic_string.h ****       /**
 436:/usr/include/c++/5/bits/basic_string.h ****        *  @brief  Construct string initialized by a character %array.
 437:/usr/include/c++/5/bits/basic_string.h ****        *  @param  __s  Source character %array.
 438:/usr/include/c++/5/bits/basic_string.h ****        *  @param  __n  Number of characters to copy.
 439:/usr/include/c++/5/bits/basic_string.h ****        *  @param  __a  Allocator to use (default is default allocator).
 440:/usr/include/c++/5/bits/basic_string.h ****        *
 441:/usr/include/c++/5/bits/basic_string.h ****        *  NB: @a __s must have at least @a __n characters, &apos;\\0&apos;
 442:/usr/include/c++/5/bits/basic_string.h ****        *  has no special meaning.
 443:/usr/include/c++/5/bits/basic_string.h ****        */
 444:/usr/include/c++/5/bits/basic_string.h ****       basic_string(const _CharT* __s, size_type __n,
 445:/usr/include/c++/5/bits/basic_string.h **** 		   const _Alloc& __a = _Alloc())
 446:/usr/include/c++/5/bits/basic_string.h ****       : _M_dataplus(_M_local_data(), __a)
 447:/usr/include/c++/5/bits/basic_string.h ****       { _M_construct(__s, __s + __n); }
 448:/usr/include/c++/5/bits/basic_string.h **** 
 449:/usr/include/c++/5/bits/basic_string.h ****       /**
 450:/usr/include/c++/5/bits/basic_string.h ****        *  @brief  Construct string as copy of a C string.
 451:/usr/include/c++/5/bits/basic_string.h ****        *  @param  __s  Source C string.
 452:/usr/include/c++/5/bits/basic_string.h ****        *  @param  __a  Allocator to use (default is default allocator).
 453:/usr/include/c++/5/bits/basic_string.h ****        */
 454:/usr/include/c++/5/bits/basic_string.h ****       basic_string(const _CharT* __s, const _Alloc& __a = _Alloc())
 455:/usr/include/c++/5/bits/basic_string.h ****       : _M_dataplus(_M_local_data(), __a)
 456:/usr/include/c++/5/bits/basic_string.h ****       { _M_construct(__s, __s ? __s + traits_type::length(__s) : __s+npos); }
 457:/usr/include/c++/5/bits/basic_string.h **** 
 458:/usr/include/c++/5/bits/basic_string.h ****       /**
 459:/usr/include/c++/5/bits/basic_string.h ****        *  @brief  Construct string as multiple characters.
 460:/usr/include/c++/5/bits/basic_string.h ****        *  @param  __n  Number of characters.
 461:/usr/include/c++/5/bits/basic_string.h ****        *  @param  __c  Character to use.
 462:/usr/include/c++/5/bits/basic_string.h ****        *  @param  __a  Allocator to use (default is default allocator).
 463:/usr/include/c++/5/bits/basic_string.h ****        */
 464:/usr/include/c++/5/bits/basic_string.h ****       basic_string(size_type __n, _CharT __c, const _Alloc& __a = _Alloc())
 465:/usr/include/c++/5/bits/basic_string.h ****       : _M_dataplus(_M_local_data(), __a)
GAS LISTING /tmp/ccSpSEFs.s 			page 94


 466:/usr/include/c++/5/bits/basic_string.h ****       { _M_construct(__n, __c); }
 467:/usr/include/c++/5/bits/basic_string.h **** 
 468:/usr/include/c++/5/bits/basic_string.h **** #if __cplusplus >= 201103L
 469:/usr/include/c++/5/bits/basic_string.h ****       /**
 470:/usr/include/c++/5/bits/basic_string.h ****        *  @brief  Move construct string.
 471:/usr/include/c++/5/bits/basic_string.h ****        *  @param  __str  Source string.
 472:/usr/include/c++/5/bits/basic_string.h ****        *
 473:/usr/include/c++/5/bits/basic_string.h ****        *  The newly-created string contains the exact contents of @a __str.
 474:/usr/include/c++/5/bits/basic_string.h ****        *  @a __str is a valid, but unspecified string.
 475:/usr/include/c++/5/bits/basic_string.h ****        **/
 476:/usr/include/c++/5/bits/basic_string.h ****       basic_string(basic_string&& __str) noexcept
 477:/usr/include/c++/5/bits/basic_string.h ****       : _M_dataplus(_M_local_data(), std::move(__str._M_get_allocator()))
 478:/usr/include/c++/5/bits/basic_string.h ****       {
 479:/usr/include/c++/5/bits/basic_string.h **** 	if (__str._M_is_local())
 480:/usr/include/c++/5/bits/basic_string.h **** 	  {
 481:/usr/include/c++/5/bits/basic_string.h **** 	    traits_type::copy(_M_local_buf, __str._M_local_buf,
 482:/usr/include/c++/5/bits/basic_string.h **** 			      _S_local_capacity + 1);
 483:/usr/include/c++/5/bits/basic_string.h **** 	  }
 484:/usr/include/c++/5/bits/basic_string.h **** 	else
 485:/usr/include/c++/5/bits/basic_string.h **** 	  {
 486:/usr/include/c++/5/bits/basic_string.h **** 	    _M_data(__str._M_data());
 487:/usr/include/c++/5/bits/basic_string.h **** 	    _M_capacity(__str._M_allocated_capacity);
 488:/usr/include/c++/5/bits/basic_string.h **** 	  }
 489:/usr/include/c++/5/bits/basic_string.h **** 
 490:/usr/include/c++/5/bits/basic_string.h **** 	// Must use _M_length() here not _M_set_length() because
 491:/usr/include/c++/5/bits/basic_string.h **** 	// basic_stringbuf relies on writing into unallocated capacity so
 492:/usr/include/c++/5/bits/basic_string.h **** 	// we mess up the contents if we put a '\0' in the string.
 493:/usr/include/c++/5/bits/basic_string.h **** 	_M_length(__str.length());
 494:/usr/include/c++/5/bits/basic_string.h **** 	__str._M_data(__str._M_local_data());
 495:/usr/include/c++/5/bits/basic_string.h **** 	__str._M_set_length(0);
 496:/usr/include/c++/5/bits/basic_string.h ****       }
 497:/usr/include/c++/5/bits/basic_string.h **** 
 498:/usr/include/c++/5/bits/basic_string.h ****       /**
 499:/usr/include/c++/5/bits/basic_string.h ****        *  @brief  Construct string from an initializer %list.
 500:/usr/include/c++/5/bits/basic_string.h ****        *  @param  __l  std::initializer_list of characters.
 501:/usr/include/c++/5/bits/basic_string.h ****        *  @param  __a  Allocator to use (default is default allocator).
 502:/usr/include/c++/5/bits/basic_string.h ****        */
 503:/usr/include/c++/5/bits/basic_string.h ****       basic_string(initializer_list<_CharT> __l, const _Alloc& __a = _Alloc())
 504:/usr/include/c++/5/bits/basic_string.h ****       : _M_dataplus(_M_local_data(), __a)
 505:/usr/include/c++/5/bits/basic_string.h ****       { _M_construct(__l.begin(), __l.end()); }
 506:/usr/include/c++/5/bits/basic_string.h **** 
 507:/usr/include/c++/5/bits/basic_string.h ****       basic_string(const basic_string& __str, const _Alloc& __a)
 508:/usr/include/c++/5/bits/basic_string.h ****       : _M_dataplus(_M_local_data(), __a)
 509:/usr/include/c++/5/bits/basic_string.h ****       { _M_construct(__str.begin(), __str.end()); }
 510:/usr/include/c++/5/bits/basic_string.h **** 
 511:/usr/include/c++/5/bits/basic_string.h ****       basic_string(basic_string&& __str, const _Alloc& __a)
 512:/usr/include/c++/5/bits/basic_string.h ****       : _M_dataplus(_M_local_data(), __a)
 513:/usr/include/c++/5/bits/basic_string.h ****       {
 514:/usr/include/c++/5/bits/basic_string.h **** 	if (__str.get_allocator() == __a)
 515:/usr/include/c++/5/bits/basic_string.h **** 	  *this = std::move(__str);
 516:/usr/include/c++/5/bits/basic_string.h **** 	else
 517:/usr/include/c++/5/bits/basic_string.h **** 	  _M_construct(__str.begin(), __str.end());
 518:/usr/include/c++/5/bits/basic_string.h ****       }
 519:/usr/include/c++/5/bits/basic_string.h **** 
 520:/usr/include/c++/5/bits/basic_string.h **** #endif // C++11
 521:/usr/include/c++/5/bits/basic_string.h **** 
 522:/usr/include/c++/5/bits/basic_string.h ****       /**
GAS LISTING /tmp/ccSpSEFs.s 			page 95


 523:/usr/include/c++/5/bits/basic_string.h ****        *  @brief  Construct string as copy of a range.
 524:/usr/include/c++/5/bits/basic_string.h ****        *  @param  __beg  Start of range.
 525:/usr/include/c++/5/bits/basic_string.h ****        *  @param  __end  End of range.
 526:/usr/include/c++/5/bits/basic_string.h ****        *  @param  __a  Allocator to use (default is default allocator).
 527:/usr/include/c++/5/bits/basic_string.h ****        */
 528:/usr/include/c++/5/bits/basic_string.h **** #if __cplusplus >= 201103L
 529:/usr/include/c++/5/bits/basic_string.h ****       template<typename _InputIterator,
 530:/usr/include/c++/5/bits/basic_string.h **** 	       typename = std::_RequireInputIter<_InputIterator>>
 531:/usr/include/c++/5/bits/basic_string.h **** #else
 532:/usr/include/c++/5/bits/basic_string.h ****       template<typename _InputIterator>
 533:/usr/include/c++/5/bits/basic_string.h **** #endif
 534:/usr/include/c++/5/bits/basic_string.h ****         basic_string(_InputIterator __beg, _InputIterator __end,
 535:/usr/include/c++/5/bits/basic_string.h **** 		     const _Alloc& __a = _Alloc())
 536:/usr/include/c++/5/bits/basic_string.h **** 	: _M_dataplus(_M_local_data(), __a)
 537:/usr/include/c++/5/bits/basic_string.h **** 	{ _M_construct(__beg, __end); }
 538:/usr/include/c++/5/bits/basic_string.h **** 
 539:/usr/include/c++/5/bits/basic_string.h ****       /**
 540:/usr/include/c++/5/bits/basic_string.h ****        *  @brief  Destroy the string instance.
 541:/usr/include/c++/5/bits/basic_string.h ****        */
 542:/usr/include/c++/5/bits/basic_string.h ****       ~basic_string()
 543:/usr/include/c++/5/bits/basic_string.h ****       { _M_dispose(); }
 544:/usr/include/c++/5/bits/basic_string.h **** 
 545:/usr/include/c++/5/bits/basic_string.h ****       /**
 546:/usr/include/c++/5/bits/basic_string.h ****        *  @brief  Assign the value of @a str to this string.
 547:/usr/include/c++/5/bits/basic_string.h ****        *  @param  __str  Source string.
 548:/usr/include/c++/5/bits/basic_string.h ****        */
 549:/usr/include/c++/5/bits/basic_string.h ****       basic_string&
 550:/usr/include/c++/5/bits/basic_string.h ****       operator=(const basic_string& __str)
 551:/usr/include/c++/5/bits/basic_string.h ****       { return this->assign(__str); }
 552:/usr/include/c++/5/bits/basic_string.h **** 
 553:/usr/include/c++/5/bits/basic_string.h ****       /**
 554:/usr/include/c++/5/bits/basic_string.h ****        *  @brief  Copy contents of @a s into this string.
 555:/usr/include/c++/5/bits/basic_string.h ****        *  @param  __s  Source null-terminated string.
 556:/usr/include/c++/5/bits/basic_string.h ****        */
 557:/usr/include/c++/5/bits/basic_string.h ****       basic_string&
 558:/usr/include/c++/5/bits/basic_string.h ****       operator=(const _CharT* __s)
 559:/usr/include/c++/5/bits/basic_string.h ****       { return this->assign(__s); }
 560:/usr/include/c++/5/bits/basic_string.h **** 
 561:/usr/include/c++/5/bits/basic_string.h ****       /**
 562:/usr/include/c++/5/bits/basic_string.h ****        *  @brief  Set value to string of length 1.
 563:/usr/include/c++/5/bits/basic_string.h ****        *  @param  __c  Source character.
 564:/usr/include/c++/5/bits/basic_string.h ****        *
 565:/usr/include/c++/5/bits/basic_string.h ****        *  Assigning to a character makes this string length 1 and
 566:/usr/include/c++/5/bits/basic_string.h ****        *  (*this)[0] == @a c.
 567:/usr/include/c++/5/bits/basic_string.h ****        */
 568:/usr/include/c++/5/bits/basic_string.h ****       basic_string&
 569:/usr/include/c++/5/bits/basic_string.h ****       operator=(_CharT __c)
 570:/usr/include/c++/5/bits/basic_string.h ****       {
 571:/usr/include/c++/5/bits/basic_string.h **** 	this->assign(1, __c);
 572:/usr/include/c++/5/bits/basic_string.h **** 	return *this;
 573:/usr/include/c++/5/bits/basic_string.h ****       }
 574:/usr/include/c++/5/bits/basic_string.h **** 
 575:/usr/include/c++/5/bits/basic_string.h **** #if __cplusplus >= 201103L
 576:/usr/include/c++/5/bits/basic_string.h ****       /**
 577:/usr/include/c++/5/bits/basic_string.h ****        *  @brief  Move assign the value of @a str to this string.
 578:/usr/include/c++/5/bits/basic_string.h ****        *  @param  __str  Source string.
 579:/usr/include/c++/5/bits/basic_string.h ****        *
GAS LISTING /tmp/ccSpSEFs.s 			page 96


 580:/usr/include/c++/5/bits/basic_string.h ****        *  The contents of @a str are moved into this string (without copying).
 581:/usr/include/c++/5/bits/basic_string.h ****        *  @a str is a valid, but unspecified string.
 582:/usr/include/c++/5/bits/basic_string.h ****        **/
 583:/usr/include/c++/5/bits/basic_string.h ****       // PR 58265, this should be noexcept.
 584:/usr/include/c++/5/bits/basic_string.h ****       // _GLIBCXX_RESOLVE_LIB_DEFECTS
 585:/usr/include/c++/5/bits/basic_string.h ****       // 2063. Contradictory requirements for string move assignment
 586:/usr/include/c++/5/bits/basic_string.h ****       basic_string&
 587:/usr/include/c++/5/bits/basic_string.h ****       operator=(basic_string&& __str)
 588:/usr/include/c++/5/bits/basic_string.h ****       {
 589:/usr/include/c++/5/bits/basic_string.h **** 	this->swap(__str);
 590:/usr/include/c++/5/bits/basic_string.h **** 	return *this;
 591:/usr/include/c++/5/bits/basic_string.h ****       }
 592:/usr/include/c++/5/bits/basic_string.h **** 
 593:/usr/include/c++/5/bits/basic_string.h ****       /**
 594:/usr/include/c++/5/bits/basic_string.h ****        *  @brief  Set value to string constructed from initializer %list.
 595:/usr/include/c++/5/bits/basic_string.h ****        *  @param  __l  std::initializer_list.
 596:/usr/include/c++/5/bits/basic_string.h ****        */
 597:/usr/include/c++/5/bits/basic_string.h ****       basic_string&
 598:/usr/include/c++/5/bits/basic_string.h ****       operator=(initializer_list<_CharT> __l)
 599:/usr/include/c++/5/bits/basic_string.h ****       {
 600:/usr/include/c++/5/bits/basic_string.h **** 	this->assign(__l.begin(), __l.size());
 601:/usr/include/c++/5/bits/basic_string.h **** 	return *this;
 602:/usr/include/c++/5/bits/basic_string.h ****       }
 603:/usr/include/c++/5/bits/basic_string.h **** #endif // C++11
 604:/usr/include/c++/5/bits/basic_string.h **** 
 605:/usr/include/c++/5/bits/basic_string.h ****       // Iterators:
 606:/usr/include/c++/5/bits/basic_string.h ****       /**
 607:/usr/include/c++/5/bits/basic_string.h ****        *  Returns a read/write iterator that points to the first character in
 608:/usr/include/c++/5/bits/basic_string.h ****        *  the %string.
 609:/usr/include/c++/5/bits/basic_string.h ****        */
 610:/usr/include/c++/5/bits/basic_string.h ****       iterator
 611:/usr/include/c++/5/bits/basic_string.h ****       begin() _GLIBCXX_NOEXCEPT
 612:/usr/include/c++/5/bits/basic_string.h ****       { return iterator(_M_data()); }
 613:/usr/include/c++/5/bits/basic_string.h **** 
 614:/usr/include/c++/5/bits/basic_string.h ****       /**
 615:/usr/include/c++/5/bits/basic_string.h ****        *  Returns a read-only (constant) iterator that points to the first
 616:/usr/include/c++/5/bits/basic_string.h ****        *  character in the %string.
 617:/usr/include/c++/5/bits/basic_string.h ****        */
 618:/usr/include/c++/5/bits/basic_string.h ****       const_iterator
 619:/usr/include/c++/5/bits/basic_string.h ****       begin() const _GLIBCXX_NOEXCEPT
 620:/usr/include/c++/5/bits/basic_string.h ****       { return const_iterator(_M_data()); }
 621:/usr/include/c++/5/bits/basic_string.h **** 
 622:/usr/include/c++/5/bits/basic_string.h ****       /**
 623:/usr/include/c++/5/bits/basic_string.h ****        *  Returns a read/write iterator that points one past the last
 624:/usr/include/c++/5/bits/basic_string.h ****        *  character in the %string.
 625:/usr/include/c++/5/bits/basic_string.h ****        */
 626:/usr/include/c++/5/bits/basic_string.h ****       iterator
 627:/usr/include/c++/5/bits/basic_string.h ****       end() _GLIBCXX_NOEXCEPT
 628:/usr/include/c++/5/bits/basic_string.h ****       { return iterator(_M_data() + this->size()); }
 629:/usr/include/c++/5/bits/basic_string.h **** 
 630:/usr/include/c++/5/bits/basic_string.h ****       /**
 631:/usr/include/c++/5/bits/basic_string.h ****        *  Returns a read-only (constant) iterator that points one past the
 632:/usr/include/c++/5/bits/basic_string.h ****        *  last character in the %string.
 633:/usr/include/c++/5/bits/basic_string.h ****        */
 634:/usr/include/c++/5/bits/basic_string.h ****       const_iterator
 635:/usr/include/c++/5/bits/basic_string.h ****       end() const _GLIBCXX_NOEXCEPT
 636:/usr/include/c++/5/bits/basic_string.h ****       { return const_iterator(_M_data() + this->size()); }
GAS LISTING /tmp/ccSpSEFs.s 			page 97


 637:/usr/include/c++/5/bits/basic_string.h **** 
 638:/usr/include/c++/5/bits/basic_string.h ****       /**
 639:/usr/include/c++/5/bits/basic_string.h ****        *  Returns a read/write reverse iterator that points to the last
 640:/usr/include/c++/5/bits/basic_string.h ****        *  character in the %string.  Iteration is done in reverse element
 641:/usr/include/c++/5/bits/basic_string.h ****        *  order.
 642:/usr/include/c++/5/bits/basic_string.h ****        */
 643:/usr/include/c++/5/bits/basic_string.h ****       reverse_iterator
 644:/usr/include/c++/5/bits/basic_string.h ****       rbegin() _GLIBCXX_NOEXCEPT
 645:/usr/include/c++/5/bits/basic_string.h ****       { return reverse_iterator(this->end()); }
 646:/usr/include/c++/5/bits/basic_string.h **** 
 647:/usr/include/c++/5/bits/basic_string.h ****       /**
 648:/usr/include/c++/5/bits/basic_string.h ****        *  Returns a read-only (constant) reverse iterator that points
 649:/usr/include/c++/5/bits/basic_string.h ****        *  to the last character in the %string.  Iteration is done in
 650:/usr/include/c++/5/bits/basic_string.h ****        *  reverse element order.
 651:/usr/include/c++/5/bits/basic_string.h ****        */
 652:/usr/include/c++/5/bits/basic_string.h ****       const_reverse_iterator
 653:/usr/include/c++/5/bits/basic_string.h ****       rbegin() const _GLIBCXX_NOEXCEPT
 654:/usr/include/c++/5/bits/basic_string.h ****       { return const_reverse_iterator(this->end()); }
 655:/usr/include/c++/5/bits/basic_string.h **** 
 656:/usr/include/c++/5/bits/basic_string.h ****       /**
 657:/usr/include/c++/5/bits/basic_string.h ****        *  Returns a read/write reverse iterator that points to one before the
 658:/usr/include/c++/5/bits/basic_string.h ****        *  first character in the %string.  Iteration is done in reverse
 659:/usr/include/c++/5/bits/basic_string.h ****        *  element order.
 660:/usr/include/c++/5/bits/basic_string.h ****        */
 661:/usr/include/c++/5/bits/basic_string.h ****       reverse_iterator
 662:/usr/include/c++/5/bits/basic_string.h ****       rend() _GLIBCXX_NOEXCEPT
 663:/usr/include/c++/5/bits/basic_string.h ****       { return reverse_iterator(this->begin()); }
 664:/usr/include/c++/5/bits/basic_string.h **** 
 665:/usr/include/c++/5/bits/basic_string.h ****       /**
 666:/usr/include/c++/5/bits/basic_string.h ****        *  Returns a read-only (constant) reverse iterator that points
 667:/usr/include/c++/5/bits/basic_string.h ****        *  to one before the first character in the %string.  Iteration
 668:/usr/include/c++/5/bits/basic_string.h ****        *  is done in reverse element order.
 669:/usr/include/c++/5/bits/basic_string.h ****        */
 670:/usr/include/c++/5/bits/basic_string.h ****       const_reverse_iterator
 671:/usr/include/c++/5/bits/basic_string.h ****       rend() const _GLIBCXX_NOEXCEPT
 672:/usr/include/c++/5/bits/basic_string.h ****       { return const_reverse_iterator(this->begin()); }
 673:/usr/include/c++/5/bits/basic_string.h **** 
 674:/usr/include/c++/5/bits/basic_string.h **** #if __cplusplus >= 201103L
 675:/usr/include/c++/5/bits/basic_string.h ****       /**
 676:/usr/include/c++/5/bits/basic_string.h ****        *  Returns a read-only (constant) iterator that points to the first
 677:/usr/include/c++/5/bits/basic_string.h ****        *  character in the %string.
 678:/usr/include/c++/5/bits/basic_string.h ****        */
 679:/usr/include/c++/5/bits/basic_string.h ****       const_iterator
 680:/usr/include/c++/5/bits/basic_string.h ****       cbegin() const noexcept
 681:/usr/include/c++/5/bits/basic_string.h ****       { return const_iterator(this->_M_data()); }
 682:/usr/include/c++/5/bits/basic_string.h **** 
 683:/usr/include/c++/5/bits/basic_string.h ****       /**
 684:/usr/include/c++/5/bits/basic_string.h ****        *  Returns a read-only (constant) iterator that points one past the
 685:/usr/include/c++/5/bits/basic_string.h ****        *  last character in the %string.
 686:/usr/include/c++/5/bits/basic_string.h ****        */
 687:/usr/include/c++/5/bits/basic_string.h ****       const_iterator
 688:/usr/include/c++/5/bits/basic_string.h ****       cend() const noexcept
 689:/usr/include/c++/5/bits/basic_string.h ****       { return const_iterator(this->_M_data() + this->size()); }
 690:/usr/include/c++/5/bits/basic_string.h **** 
 691:/usr/include/c++/5/bits/basic_string.h ****       /**
 692:/usr/include/c++/5/bits/basic_string.h ****        *  Returns a read-only (constant) reverse iterator that points
 693:/usr/include/c++/5/bits/basic_string.h ****        *  to the last character in the %string.  Iteration is done in
GAS LISTING /tmp/ccSpSEFs.s 			page 98


 694:/usr/include/c++/5/bits/basic_string.h ****        *  reverse element order.
 695:/usr/include/c++/5/bits/basic_string.h ****        */
 696:/usr/include/c++/5/bits/basic_string.h ****       const_reverse_iterator
 697:/usr/include/c++/5/bits/basic_string.h ****       crbegin() const noexcept
 698:/usr/include/c++/5/bits/basic_string.h ****       { return const_reverse_iterator(this->end()); }
 699:/usr/include/c++/5/bits/basic_string.h **** 
 700:/usr/include/c++/5/bits/basic_string.h ****       /**
 701:/usr/include/c++/5/bits/basic_string.h ****        *  Returns a read-only (constant) reverse iterator that points
 702:/usr/include/c++/5/bits/basic_string.h ****        *  to one before the first character in the %string.  Iteration
 703:/usr/include/c++/5/bits/basic_string.h ****        *  is done in reverse element order.
 704:/usr/include/c++/5/bits/basic_string.h ****        */
 705:/usr/include/c++/5/bits/basic_string.h ****       const_reverse_iterator
 706:/usr/include/c++/5/bits/basic_string.h ****       crend() const noexcept
 707:/usr/include/c++/5/bits/basic_string.h ****       { return const_reverse_iterator(this->begin()); }
 708:/usr/include/c++/5/bits/basic_string.h **** #endif
 709:/usr/include/c++/5/bits/basic_string.h **** 
 710:/usr/include/c++/5/bits/basic_string.h ****     public:
 711:/usr/include/c++/5/bits/basic_string.h ****       // Capacity:
 712:/usr/include/c++/5/bits/basic_string.h ****       ///  Returns the number of characters in the string, not including any
 713:/usr/include/c++/5/bits/basic_string.h ****       ///  null-termination.
 714:/usr/include/c++/5/bits/basic_string.h ****       size_type
 715:/usr/include/c++/5/bits/basic_string.h ****       size() const _GLIBCXX_NOEXCEPT
 716:/usr/include/c++/5/bits/basic_string.h ****       { return _M_string_length; }
 717:/usr/include/c++/5/bits/basic_string.h **** 
 718:/usr/include/c++/5/bits/basic_string.h ****       ///  Returns the number of characters in the string, not including any
 719:/usr/include/c++/5/bits/basic_string.h ****       ///  null-termination.
 720:/usr/include/c++/5/bits/basic_string.h ****       size_type
 721:/usr/include/c++/5/bits/basic_string.h ****       length() const _GLIBCXX_NOEXCEPT
 722:/usr/include/c++/5/bits/basic_string.h ****       { return _M_string_length; }
 723:/usr/include/c++/5/bits/basic_string.h **** 
 724:/usr/include/c++/5/bits/basic_string.h ****       ///  Returns the size() of the largest possible %string.
 725:/usr/include/c++/5/bits/basic_string.h ****       size_type
 726:/usr/include/c++/5/bits/basic_string.h ****       max_size() const _GLIBCXX_NOEXCEPT
 727:/usr/include/c++/5/bits/basic_string.h ****       { return (_Alloc_traits::max_size(_M_get_allocator()) - 1) / 2; }
 728:/usr/include/c++/5/bits/basic_string.h **** 
 729:/usr/include/c++/5/bits/basic_string.h ****       /**
 730:/usr/include/c++/5/bits/basic_string.h ****        *  @brief  Resizes the %string to the specified number of characters.
 731:/usr/include/c++/5/bits/basic_string.h ****        *  @param  __n  Number of characters the %string should contain.
 732:/usr/include/c++/5/bits/basic_string.h ****        *  @param  __c  Character to fill any new elements.
 733:/usr/include/c++/5/bits/basic_string.h ****        *
 734:/usr/include/c++/5/bits/basic_string.h ****        *  This function will %resize the %string to the specified
 735:/usr/include/c++/5/bits/basic_string.h ****        *  number of characters.  If the number is smaller than the
 736:/usr/include/c++/5/bits/basic_string.h ****        *  %string's current size the %string is truncated, otherwise
 737:/usr/include/c++/5/bits/basic_string.h ****        *  the %string is extended and new elements are %set to @a __c.
 738:/usr/include/c++/5/bits/basic_string.h ****        */
 739:/usr/include/c++/5/bits/basic_string.h ****       void
 740:/usr/include/c++/5/bits/basic_string.h ****       resize(size_type __n, _CharT __c);
 741:/usr/include/c++/5/bits/basic_string.h **** 
 742:/usr/include/c++/5/bits/basic_string.h ****       /**
 743:/usr/include/c++/5/bits/basic_string.h ****        *  @brief  Resizes the %string to the specified number of characters.
 744:/usr/include/c++/5/bits/basic_string.h ****        *  @param  __n  Number of characters the %string should contain.
 745:/usr/include/c++/5/bits/basic_string.h ****        *
 746:/usr/include/c++/5/bits/basic_string.h ****        *  This function will resize the %string to the specified length.  If
 747:/usr/include/c++/5/bits/basic_string.h ****        *  the new size is smaller than the %string's current size the %string
 748:/usr/include/c++/5/bits/basic_string.h ****        *  is truncated, otherwise the %string is extended and new characters
 749:/usr/include/c++/5/bits/basic_string.h ****        *  are default-constructed.  For basic types such as char, this means
 750:/usr/include/c++/5/bits/basic_string.h ****        *  setting them to 0.
GAS LISTING /tmp/ccSpSEFs.s 			page 99


 751:/usr/include/c++/5/bits/basic_string.h ****        */
 752:/usr/include/c++/5/bits/basic_string.h ****       void
 753:/usr/include/c++/5/bits/basic_string.h ****       resize(size_type __n)
 754:/usr/include/c++/5/bits/basic_string.h ****       { this->resize(__n, _CharT()); }
 755:/usr/include/c++/5/bits/basic_string.h **** 
 756:/usr/include/c++/5/bits/basic_string.h **** #if __cplusplus >= 201103L
 757:/usr/include/c++/5/bits/basic_string.h ****       ///  A non-binding request to reduce capacity() to size().
 758:/usr/include/c++/5/bits/basic_string.h ****       void
 759:/usr/include/c++/5/bits/basic_string.h ****       shrink_to_fit() noexcept
 760:/usr/include/c++/5/bits/basic_string.h ****       {
 761:/usr/include/c++/5/bits/basic_string.h **** #if __cpp_exceptions
 762:/usr/include/c++/5/bits/basic_string.h **** 	if (capacity() > size())
 763:/usr/include/c++/5/bits/basic_string.h **** 	  {
 764:/usr/include/c++/5/bits/basic_string.h **** 	    try
 765:/usr/include/c++/5/bits/basic_string.h **** 	      { reserve(0); }
 766:/usr/include/c++/5/bits/basic_string.h **** 	    catch(...)
 767:/usr/include/c++/5/bits/basic_string.h **** 	      { }
 768:/usr/include/c++/5/bits/basic_string.h **** 	  }
 769:/usr/include/c++/5/bits/basic_string.h **** #endif
 770:/usr/include/c++/5/bits/basic_string.h ****       }
 771:/usr/include/c++/5/bits/basic_string.h **** #endif
 772:/usr/include/c++/5/bits/basic_string.h **** 
 773:/usr/include/c++/5/bits/basic_string.h ****       /**
 774:/usr/include/c++/5/bits/basic_string.h ****        *  Returns the total number of characters that the %string can hold
 775:/usr/include/c++/5/bits/basic_string.h ****        *  before needing to allocate more memory.
 776:/usr/include/c++/5/bits/basic_string.h ****        */
 777:/usr/include/c++/5/bits/basic_string.h ****       size_type
 778:/usr/include/c++/5/bits/basic_string.h ****       capacity() const _GLIBCXX_NOEXCEPT
 779:/usr/include/c++/5/bits/basic_string.h ****       {
 780:/usr/include/c++/5/bits/basic_string.h **** 	return _M_is_local() ? size_type(_S_local_capacity)
 781:/usr/include/c++/5/bits/basic_string.h **** 	                     : _M_allocated_capacity;
 782:/usr/include/c++/5/bits/basic_string.h ****       }
 783:/usr/include/c++/5/bits/basic_string.h **** 
 784:/usr/include/c++/5/bits/basic_string.h ****       /**
 785:/usr/include/c++/5/bits/basic_string.h ****        *  @brief  Attempt to preallocate enough memory for specified number of
 786:/usr/include/c++/5/bits/basic_string.h ****        *          characters.
 787:/usr/include/c++/5/bits/basic_string.h ****        *  @param  __res_arg  Number of characters required.
 788:/usr/include/c++/5/bits/basic_string.h ****        *  @throw  std::length_error  If @a __res_arg exceeds @c max_size().
 789:/usr/include/c++/5/bits/basic_string.h ****        *
 790:/usr/include/c++/5/bits/basic_string.h ****        *  This function attempts to reserve enough memory for the
 791:/usr/include/c++/5/bits/basic_string.h ****        *  %string to hold the specified number of characters.  If the
 792:/usr/include/c++/5/bits/basic_string.h ****        *  number requested is more than max_size(), length_error is
 793:/usr/include/c++/5/bits/basic_string.h ****        *  thrown.
 794:/usr/include/c++/5/bits/basic_string.h ****        *
 795:/usr/include/c++/5/bits/basic_string.h ****        *  The advantage of this function is that if optimal code is a
 796:/usr/include/c++/5/bits/basic_string.h ****        *  necessity and the user can determine the string length that will be
 797:/usr/include/c++/5/bits/basic_string.h ****        *  required, the user can reserve the memory in %advance, and thus
 798:/usr/include/c++/5/bits/basic_string.h ****        *  prevent a possible reallocation of memory and copying of %string
 799:/usr/include/c++/5/bits/basic_string.h ****        *  data.
 800:/usr/include/c++/5/bits/basic_string.h ****        */
 801:/usr/include/c++/5/bits/basic_string.h ****       void
 802:/usr/include/c++/5/bits/basic_string.h ****       reserve(size_type __res_arg = 0);
 803:/usr/include/c++/5/bits/basic_string.h **** 
 804:/usr/include/c++/5/bits/basic_string.h ****       /**
 805:/usr/include/c++/5/bits/basic_string.h ****        *  Erases the string, making it empty.
 806:/usr/include/c++/5/bits/basic_string.h ****        */
 807:/usr/include/c++/5/bits/basic_string.h ****       void
GAS LISTING /tmp/ccSpSEFs.s 			page 100


 808:/usr/include/c++/5/bits/basic_string.h ****       clear() _GLIBCXX_NOEXCEPT
 809:/usr/include/c++/5/bits/basic_string.h ****       { _M_set_length(0); }
 810:/usr/include/c++/5/bits/basic_string.h **** 
 811:/usr/include/c++/5/bits/basic_string.h ****       /**
 812:/usr/include/c++/5/bits/basic_string.h ****        *  Returns true if the %string is empty.  Equivalent to 
 813:/usr/include/c++/5/bits/basic_string.h ****        *  <code>*this == ""</code>.
 814:/usr/include/c++/5/bits/basic_string.h ****        */
 815:/usr/include/c++/5/bits/basic_string.h ****       bool
 816:/usr/include/c++/5/bits/basic_string.h ****       empty() const _GLIBCXX_NOEXCEPT
 817:/usr/include/c++/5/bits/basic_string.h ****       { return this->size() == 0; }
 818:/usr/include/c++/5/bits/basic_string.h **** 
 819:/usr/include/c++/5/bits/basic_string.h ****       // Element access:
 820:/usr/include/c++/5/bits/basic_string.h ****       /**
 821:/usr/include/c++/5/bits/basic_string.h ****        *  @brief  Subscript access to the data contained in the %string.
 822:/usr/include/c++/5/bits/basic_string.h ****        *  @param  __pos  The index of the character to access.
 823:/usr/include/c++/5/bits/basic_string.h ****        *  @return  Read-only (constant) reference to the character.
 824:/usr/include/c++/5/bits/basic_string.h ****        *
 825:/usr/include/c++/5/bits/basic_string.h ****        *  This operator allows for easy, array-style, data access.
 826:/usr/include/c++/5/bits/basic_string.h ****        *  Note that data access with this operator is unchecked and
 827:/usr/include/c++/5/bits/basic_string.h ****        *  out_of_range lookups are not defined. (For checked lookups
 828:/usr/include/c++/5/bits/basic_string.h ****        *  see at().)
 829:/usr/include/c++/5/bits/basic_string.h ****        */
 830:/usr/include/c++/5/bits/basic_string.h ****       const_reference
 831:/usr/include/c++/5/bits/basic_string.h ****       operator[] (size_type __pos) const _GLIBCXX_NOEXCEPT
 832:/usr/include/c++/5/bits/basic_string.h ****       {
 833:/usr/include/c++/5/bits/basic_string.h **** 	_GLIBCXX_DEBUG_ASSERT(__pos <= size());
 834:/usr/include/c++/5/bits/basic_string.h **** 	return _M_data()[__pos];
 835:/usr/include/c++/5/bits/basic_string.h ****       }
 836:/usr/include/c++/5/bits/basic_string.h **** 
 837:/usr/include/c++/5/bits/basic_string.h ****       /**
 838:/usr/include/c++/5/bits/basic_string.h ****        *  @brief  Subscript access to the data contained in the %string.
 839:/usr/include/c++/5/bits/basic_string.h ****        *  @param  __pos  The index of the character to access.
 840:/usr/include/c++/5/bits/basic_string.h ****        *  @return  Read/write reference to the character.
 841:/usr/include/c++/5/bits/basic_string.h ****        *
 842:/usr/include/c++/5/bits/basic_string.h ****        *  This operator allows for easy, array-style, data access.
 843:/usr/include/c++/5/bits/basic_string.h ****        *  Note that data access with this operator is unchecked and
 844:/usr/include/c++/5/bits/basic_string.h ****        *  out_of_range lookups are not defined. (For checked lookups
 845:/usr/include/c++/5/bits/basic_string.h ****        *  see at().)
 846:/usr/include/c++/5/bits/basic_string.h ****        */
 847:/usr/include/c++/5/bits/basic_string.h ****       reference
 848:/usr/include/c++/5/bits/basic_string.h ****       operator[](size_type __pos)
 849:/usr/include/c++/5/bits/basic_string.h ****       {
 850:/usr/include/c++/5/bits/basic_string.h ****         // Allow pos == size() both in C++98 mode, as v3 extension,
 851:/usr/include/c++/5/bits/basic_string.h **** 	// and in C++11 mode.
 852:/usr/include/c++/5/bits/basic_string.h **** 	_GLIBCXX_DEBUG_ASSERT(__pos <= size());
 853:/usr/include/c++/5/bits/basic_string.h ****         // In pedantic mode be strict in C++98 mode.
 854:/usr/include/c++/5/bits/basic_string.h **** 	_GLIBCXX_DEBUG_PEDASSERT(__cplusplus >= 201103L || __pos < size());
 855:/usr/include/c++/5/bits/basic_string.h **** 	return _M_data()[__pos];
 856:/usr/include/c++/5/bits/basic_string.h ****       }
 857:/usr/include/c++/5/bits/basic_string.h **** 
 858:/usr/include/c++/5/bits/basic_string.h ****       /**
 859:/usr/include/c++/5/bits/basic_string.h ****        *  @brief  Provides access to the data contained in the %string.
 860:/usr/include/c++/5/bits/basic_string.h ****        *  @param __n The index of the character to access.
 861:/usr/include/c++/5/bits/basic_string.h ****        *  @return  Read-only (const) reference to the character.
 862:/usr/include/c++/5/bits/basic_string.h ****        *  @throw  std::out_of_range  If @a n is an invalid index.
 863:/usr/include/c++/5/bits/basic_string.h ****        *
 864:/usr/include/c++/5/bits/basic_string.h ****        *  This function provides for safer data access.  The parameter is
GAS LISTING /tmp/ccSpSEFs.s 			page 101


 865:/usr/include/c++/5/bits/basic_string.h ****        *  first checked that it is in the range of the string.  The function
 866:/usr/include/c++/5/bits/basic_string.h ****        *  throws out_of_range if the check fails.
 867:/usr/include/c++/5/bits/basic_string.h ****        */
 868:/usr/include/c++/5/bits/basic_string.h ****       const_reference
 869:/usr/include/c++/5/bits/basic_string.h ****       at(size_type __n) const
 870:/usr/include/c++/5/bits/basic_string.h ****       {
 871:/usr/include/c++/5/bits/basic_string.h **** 	if (__n >= this->size())
 872:/usr/include/c++/5/bits/basic_string.h **** 	  __throw_out_of_range_fmt(__N("basic_string::at: __n "
 873:/usr/include/c++/5/bits/basic_string.h **** 				       "(which is %zu) >= this->size() "
 874:/usr/include/c++/5/bits/basic_string.h **** 				       "(which is %zu)"),
 875:/usr/include/c++/5/bits/basic_string.h **** 				   __n, this->size());
 876:/usr/include/c++/5/bits/basic_string.h **** 	return _M_data()[__n];
 877:/usr/include/c++/5/bits/basic_string.h ****       }
 878:/usr/include/c++/5/bits/basic_string.h **** 
 879:/usr/include/c++/5/bits/basic_string.h ****       /**
 880:/usr/include/c++/5/bits/basic_string.h ****        *  @brief  Provides access to the data contained in the %string.
 881:/usr/include/c++/5/bits/basic_string.h ****        *  @param __n The index of the character to access.
 882:/usr/include/c++/5/bits/basic_string.h ****        *  @return  Read/write reference to the character.
 883:/usr/include/c++/5/bits/basic_string.h ****        *  @throw  std::out_of_range  If @a n is an invalid index.
 884:/usr/include/c++/5/bits/basic_string.h ****        *
 885:/usr/include/c++/5/bits/basic_string.h ****        *  This function provides for safer data access.  The parameter is
 886:/usr/include/c++/5/bits/basic_string.h ****        *  first checked that it is in the range of the string.  The function
 887:/usr/include/c++/5/bits/basic_string.h ****        *  throws out_of_range if the check fails.
 888:/usr/include/c++/5/bits/basic_string.h ****        */
 889:/usr/include/c++/5/bits/basic_string.h ****       reference
 890:/usr/include/c++/5/bits/basic_string.h ****       at(size_type __n)
 891:/usr/include/c++/5/bits/basic_string.h ****       {
 892:/usr/include/c++/5/bits/basic_string.h **** 	if (__n >= size())
 893:/usr/include/c++/5/bits/basic_string.h **** 	  __throw_out_of_range_fmt(__N("basic_string::at: __n "
 894:/usr/include/c++/5/bits/basic_string.h **** 				       "(which is %zu) >= this->size() "
 895:/usr/include/c++/5/bits/basic_string.h **** 				       "(which is %zu)"),
 896:/usr/include/c++/5/bits/basic_string.h **** 				   __n, this->size());
 897:/usr/include/c++/5/bits/basic_string.h **** 	return _M_data()[__n];
 898:/usr/include/c++/5/bits/basic_string.h ****       }
 899:/usr/include/c++/5/bits/basic_string.h **** 
 900:/usr/include/c++/5/bits/basic_string.h **** #if __cplusplus >= 201103L
 901:/usr/include/c++/5/bits/basic_string.h ****       /**
 902:/usr/include/c++/5/bits/basic_string.h ****        *  Returns a read/write reference to the data at the first
 903:/usr/include/c++/5/bits/basic_string.h ****        *  element of the %string.
 904:/usr/include/c++/5/bits/basic_string.h ****        */
 905:/usr/include/c++/5/bits/basic_string.h ****       reference
 906:/usr/include/c++/5/bits/basic_string.h ****       front() noexcept
 907:/usr/include/c++/5/bits/basic_string.h ****       { return operator[](0); }
 908:/usr/include/c++/5/bits/basic_string.h **** 
 909:/usr/include/c++/5/bits/basic_string.h ****       /**
 910:/usr/include/c++/5/bits/basic_string.h ****        *  Returns a read-only (constant) reference to the data at the first
 911:/usr/include/c++/5/bits/basic_string.h ****        *  element of the %string.
 912:/usr/include/c++/5/bits/basic_string.h ****        */
 913:/usr/include/c++/5/bits/basic_string.h ****       const_reference
 914:/usr/include/c++/5/bits/basic_string.h ****       front() const noexcept
 915:/usr/include/c++/5/bits/basic_string.h ****       { return operator[](0); }
 916:/usr/include/c++/5/bits/basic_string.h **** 
 917:/usr/include/c++/5/bits/basic_string.h ****       /**
 918:/usr/include/c++/5/bits/basic_string.h ****        *  Returns a read/write reference to the data at the last
 919:/usr/include/c++/5/bits/basic_string.h ****        *  element of the %string.
 920:/usr/include/c++/5/bits/basic_string.h ****        */
 921:/usr/include/c++/5/bits/basic_string.h ****       reference
GAS LISTING /tmp/ccSpSEFs.s 			page 102


 922:/usr/include/c++/5/bits/basic_string.h ****       back() noexcept
 923:/usr/include/c++/5/bits/basic_string.h ****       { return operator[](this->size() - 1); }
 924:/usr/include/c++/5/bits/basic_string.h **** 
 925:/usr/include/c++/5/bits/basic_string.h ****       /**
 926:/usr/include/c++/5/bits/basic_string.h ****        *  Returns a read-only (constant) reference to the data at the
 927:/usr/include/c++/5/bits/basic_string.h ****        *  last element of the %string.
 928:/usr/include/c++/5/bits/basic_string.h ****        */
 929:/usr/include/c++/5/bits/basic_string.h ****       const_reference
 930:/usr/include/c++/5/bits/basic_string.h ****       back() const noexcept
 931:/usr/include/c++/5/bits/basic_string.h ****       { return operator[](this->size() - 1); }
 932:/usr/include/c++/5/bits/basic_string.h **** #endif
 933:/usr/include/c++/5/bits/basic_string.h **** 
 934:/usr/include/c++/5/bits/basic_string.h ****       // Modifiers:
 935:/usr/include/c++/5/bits/basic_string.h ****       /**
 936:/usr/include/c++/5/bits/basic_string.h ****        *  @brief  Append a string to this string.
 937:/usr/include/c++/5/bits/basic_string.h ****        *  @param __str  The string to append.
 938:/usr/include/c++/5/bits/basic_string.h ****        *  @return  Reference to this string.
 939:/usr/include/c++/5/bits/basic_string.h ****        */
 940:/usr/include/c++/5/bits/basic_string.h ****       basic_string&
 941:/usr/include/c++/5/bits/basic_string.h ****       operator+=(const basic_string& __str)
 942:/usr/include/c++/5/bits/basic_string.h ****       { return this->append(__str); }
 943:/usr/include/c++/5/bits/basic_string.h **** 
 944:/usr/include/c++/5/bits/basic_string.h ****       /**
 945:/usr/include/c++/5/bits/basic_string.h ****        *  @brief  Append a C string.
 946:/usr/include/c++/5/bits/basic_string.h ****        *  @param __s  The C string to append.
 947:/usr/include/c++/5/bits/basic_string.h ****        *  @return  Reference to this string.
 948:/usr/include/c++/5/bits/basic_string.h ****        */
 949:/usr/include/c++/5/bits/basic_string.h ****       basic_string&
 950:/usr/include/c++/5/bits/basic_string.h ****       operator+=(const _CharT* __s)
 951:/usr/include/c++/5/bits/basic_string.h ****       { return this->append(__s); }
 952:/usr/include/c++/5/bits/basic_string.h **** 
 953:/usr/include/c++/5/bits/basic_string.h ****       /**
 954:/usr/include/c++/5/bits/basic_string.h ****        *  @brief  Append a character.
 955:/usr/include/c++/5/bits/basic_string.h ****        *  @param __c  The character to append.
 956:/usr/include/c++/5/bits/basic_string.h ****        *  @return  Reference to this string.
 957:/usr/include/c++/5/bits/basic_string.h ****        */
 958:/usr/include/c++/5/bits/basic_string.h ****       basic_string&
 959:/usr/include/c++/5/bits/basic_string.h ****       operator+=(_CharT __c)
 960:/usr/include/c++/5/bits/basic_string.h ****       {
 961:/usr/include/c++/5/bits/basic_string.h **** 	this->push_back(__c);
 962:/usr/include/c++/5/bits/basic_string.h **** 	return *this;
 963:/usr/include/c++/5/bits/basic_string.h ****       }
 964:/usr/include/c++/5/bits/basic_string.h **** 
 965:/usr/include/c++/5/bits/basic_string.h **** #if __cplusplus >= 201103L
 966:/usr/include/c++/5/bits/basic_string.h ****       /**
 967:/usr/include/c++/5/bits/basic_string.h ****        *  @brief  Append an initializer_list of characters.
 968:/usr/include/c++/5/bits/basic_string.h ****        *  @param __l  The initializer_list of characters to be appended.
 969:/usr/include/c++/5/bits/basic_string.h ****        *  @return  Reference to this string.
 970:/usr/include/c++/5/bits/basic_string.h ****        */
 971:/usr/include/c++/5/bits/basic_string.h ****       basic_string&
 972:/usr/include/c++/5/bits/basic_string.h ****       operator+=(initializer_list<_CharT> __l)
 973:/usr/include/c++/5/bits/basic_string.h ****       { return this->append(__l.begin(), __l.size()); }
 974:/usr/include/c++/5/bits/basic_string.h **** #endif // C++11
 975:/usr/include/c++/5/bits/basic_string.h **** 
 976:/usr/include/c++/5/bits/basic_string.h ****       /**
 977:/usr/include/c++/5/bits/basic_string.h ****        *  @brief  Append a string to this string.
 978:/usr/include/c++/5/bits/basic_string.h ****        *  @param __str  The string to append.
GAS LISTING /tmp/ccSpSEFs.s 			page 103


 979:/usr/include/c++/5/bits/basic_string.h ****        *  @return  Reference to this string.
 980:/usr/include/c++/5/bits/basic_string.h ****        */
 981:/usr/include/c++/5/bits/basic_string.h ****       basic_string&
 982:/usr/include/c++/5/bits/basic_string.h ****       append(const basic_string& __str)
 983:/usr/include/c++/5/bits/basic_string.h ****       { return _M_append(__str._M_data(), __str.size()); }
 984:/usr/include/c++/5/bits/basic_string.h **** 
 985:/usr/include/c++/5/bits/basic_string.h ****       /**
 986:/usr/include/c++/5/bits/basic_string.h ****        *  @brief  Append a substring.
 987:/usr/include/c++/5/bits/basic_string.h ****        *  @param __str  The string to append.
 988:/usr/include/c++/5/bits/basic_string.h ****        *  @param __pos  Index of the first character of str to append.
 989:/usr/include/c++/5/bits/basic_string.h ****        *  @param __n  The number of characters to append.
 990:/usr/include/c++/5/bits/basic_string.h ****        *  @return  Reference to this string.
 991:/usr/include/c++/5/bits/basic_string.h ****        *  @throw  std::out_of_range if @a __pos is not a valid index.
 992:/usr/include/c++/5/bits/basic_string.h ****        *
 993:/usr/include/c++/5/bits/basic_string.h ****        *  This function appends @a __n characters from @a __str
 994:/usr/include/c++/5/bits/basic_string.h ****        *  starting at @a __pos to this string.  If @a __n is is larger
 995:/usr/include/c++/5/bits/basic_string.h ****        *  than the number of available characters in @a __str, the
 996:/usr/include/c++/5/bits/basic_string.h ****        *  remainder of @a __str is appended.
 997:/usr/include/c++/5/bits/basic_string.h ****        */
 998:/usr/include/c++/5/bits/basic_string.h ****       basic_string&
 999:/usr/include/c++/5/bits/basic_string.h ****       append(const basic_string& __str, size_type __pos, size_type __n)
1000:/usr/include/c++/5/bits/basic_string.h ****       { return _M_append(__str._M_data()
1001:/usr/include/c++/5/bits/basic_string.h **** 			 + __str._M_check(__pos, "basic_string::append"),
1002:/usr/include/c++/5/bits/basic_string.h **** 			 __str._M_limit(__pos, __n)); }
1003:/usr/include/c++/5/bits/basic_string.h **** 
1004:/usr/include/c++/5/bits/basic_string.h ****       /**
1005:/usr/include/c++/5/bits/basic_string.h ****        *  @brief  Append a C substring.
1006:/usr/include/c++/5/bits/basic_string.h ****        *  @param __s  The C string to append.
1007:/usr/include/c++/5/bits/basic_string.h ****        *  @param __n  The number of characters to append.
1008:/usr/include/c++/5/bits/basic_string.h ****        *  @return  Reference to this string.
1009:/usr/include/c++/5/bits/basic_string.h ****        */
1010:/usr/include/c++/5/bits/basic_string.h ****       basic_string&
1011:/usr/include/c++/5/bits/basic_string.h ****       append(const _CharT* __s, size_type __n)
1012:/usr/include/c++/5/bits/basic_string.h ****       {
1013:/usr/include/c++/5/bits/basic_string.h **** 	__glibcxx_requires_string_len(__s, __n);
1014:/usr/include/c++/5/bits/basic_string.h **** 	_M_check_length(size_type(0), __n, "basic_string::append");
1015:/usr/include/c++/5/bits/basic_string.h **** 	return _M_append(__s, __n);
1016:/usr/include/c++/5/bits/basic_string.h ****       }
1017:/usr/include/c++/5/bits/basic_string.h **** 
1018:/usr/include/c++/5/bits/basic_string.h ****       /**
1019:/usr/include/c++/5/bits/basic_string.h ****        *  @brief  Append a C string.
1020:/usr/include/c++/5/bits/basic_string.h ****        *  @param __s  The C string to append.
1021:/usr/include/c++/5/bits/basic_string.h ****        *  @return  Reference to this string.
1022:/usr/include/c++/5/bits/basic_string.h ****        */
1023:/usr/include/c++/5/bits/basic_string.h ****       basic_string&
1024:/usr/include/c++/5/bits/basic_string.h ****       append(const _CharT* __s)
1025:/usr/include/c++/5/bits/basic_string.h ****       {
1026:/usr/include/c++/5/bits/basic_string.h **** 	__glibcxx_requires_string(__s);
1027:/usr/include/c++/5/bits/basic_string.h **** 	const size_type __n = traits_type::length(__s);
1028:/usr/include/c++/5/bits/basic_string.h **** 	_M_check_length(size_type(0), __n, "basic_string::append");
1029:/usr/include/c++/5/bits/basic_string.h **** 	return _M_append(__s, __n);
1030:/usr/include/c++/5/bits/basic_string.h ****       }
1031:/usr/include/c++/5/bits/basic_string.h **** 
1032:/usr/include/c++/5/bits/basic_string.h ****       /**
1033:/usr/include/c++/5/bits/basic_string.h ****        *  @brief  Append multiple characters.
1034:/usr/include/c++/5/bits/basic_string.h ****        *  @param __n  The number of characters to append.
1035:/usr/include/c++/5/bits/basic_string.h ****        *  @param __c  The character to use.
GAS LISTING /tmp/ccSpSEFs.s 			page 104


1036:/usr/include/c++/5/bits/basic_string.h ****        *  @return  Reference to this string.
1037:/usr/include/c++/5/bits/basic_string.h ****        *
1038:/usr/include/c++/5/bits/basic_string.h ****        *  Appends __n copies of __c to this string.
1039:/usr/include/c++/5/bits/basic_string.h ****        */
1040:/usr/include/c++/5/bits/basic_string.h ****       basic_string&
1041:/usr/include/c++/5/bits/basic_string.h ****       append(size_type __n, _CharT __c)
1042:/usr/include/c++/5/bits/basic_string.h ****       { return _M_replace_aux(this->size(), size_type(0), __n, __c); }
1043:/usr/include/c++/5/bits/basic_string.h **** 
1044:/usr/include/c++/5/bits/basic_string.h **** #if __cplusplus >= 201103L
1045:/usr/include/c++/5/bits/basic_string.h ****       /**
1046:/usr/include/c++/5/bits/basic_string.h ****        *  @brief  Append an initializer_list of characters.
1047:/usr/include/c++/5/bits/basic_string.h ****        *  @param __l  The initializer_list of characters to append.
1048:/usr/include/c++/5/bits/basic_string.h ****        *  @return  Reference to this string.
1049:/usr/include/c++/5/bits/basic_string.h ****        */
1050:/usr/include/c++/5/bits/basic_string.h ****       basic_string&
1051:/usr/include/c++/5/bits/basic_string.h ****       append(initializer_list<_CharT> __l)
1052:/usr/include/c++/5/bits/basic_string.h ****       { return this->append(__l.begin(), __l.size()); }
1053:/usr/include/c++/5/bits/basic_string.h **** #endif // C++11
1054:/usr/include/c++/5/bits/basic_string.h **** 
1055:/usr/include/c++/5/bits/basic_string.h ****       /**
1056:/usr/include/c++/5/bits/basic_string.h ****        *  @brief  Append a range of characters.
1057:/usr/include/c++/5/bits/basic_string.h ****        *  @param __first  Iterator referencing the first character to append.
1058:/usr/include/c++/5/bits/basic_string.h ****        *  @param __last  Iterator marking the end of the range.
1059:/usr/include/c++/5/bits/basic_string.h ****        *  @return  Reference to this string.
1060:/usr/include/c++/5/bits/basic_string.h ****        *
1061:/usr/include/c++/5/bits/basic_string.h ****        *  Appends characters in the range [__first,__last) to this string.
1062:/usr/include/c++/5/bits/basic_string.h ****        */
1063:/usr/include/c++/5/bits/basic_string.h **** #if __cplusplus >= 201103L
1064:/usr/include/c++/5/bits/basic_string.h ****       template<class _InputIterator,
1065:/usr/include/c++/5/bits/basic_string.h **** 	       typename = std::_RequireInputIter<_InputIterator>>
1066:/usr/include/c++/5/bits/basic_string.h **** #else
1067:/usr/include/c++/5/bits/basic_string.h ****       template<class _InputIterator>
1068:/usr/include/c++/5/bits/basic_string.h **** #endif
1069:/usr/include/c++/5/bits/basic_string.h ****         basic_string&
1070:/usr/include/c++/5/bits/basic_string.h ****         append(_InputIterator __first, _InputIterator __last)
1071:/usr/include/c++/5/bits/basic_string.h ****         { return this->replace(end(), end(), __first, __last); }
1072:/usr/include/c++/5/bits/basic_string.h **** 
1073:/usr/include/c++/5/bits/basic_string.h ****       /**
1074:/usr/include/c++/5/bits/basic_string.h ****        *  @brief  Append a single character.
1075:/usr/include/c++/5/bits/basic_string.h ****        *  @param __c  Character to append.
1076:/usr/include/c++/5/bits/basic_string.h ****        */
1077:/usr/include/c++/5/bits/basic_string.h ****       void
1078:/usr/include/c++/5/bits/basic_string.h ****       push_back(_CharT __c)
1079:/usr/include/c++/5/bits/basic_string.h ****       {
1080:/usr/include/c++/5/bits/basic_string.h **** 	const size_type __size = this->size();
1081:/usr/include/c++/5/bits/basic_string.h **** 	if (__size + 1 > this->capacity())
1082:/usr/include/c++/5/bits/basic_string.h **** 	  this->_M_mutate(__size, size_type(0), 0, size_type(1));
1083:/usr/include/c++/5/bits/basic_string.h **** 	traits_type::assign(this->_M_data()[__size], __c);
1084:/usr/include/c++/5/bits/basic_string.h **** 	this->_M_set_length(__size + 1);
1085:/usr/include/c++/5/bits/basic_string.h ****       }
1086:/usr/include/c++/5/bits/basic_string.h **** 
1087:/usr/include/c++/5/bits/basic_string.h ****       /**
1088:/usr/include/c++/5/bits/basic_string.h ****        *  @brief  Set value to contents of another string.
1089:/usr/include/c++/5/bits/basic_string.h ****        *  @param  __str  Source string to use.
1090:/usr/include/c++/5/bits/basic_string.h ****        *  @return  Reference to this string.
1091:/usr/include/c++/5/bits/basic_string.h ****        */
1092:/usr/include/c++/5/bits/basic_string.h ****       basic_string&
GAS LISTING /tmp/ccSpSEFs.s 			page 105


1093:/usr/include/c++/5/bits/basic_string.h ****       assign(const basic_string& __str)
1094:/usr/include/c++/5/bits/basic_string.h ****       {
1095:/usr/include/c++/5/bits/basic_string.h **** 	this->_M_assign(__str);
1096:/usr/include/c++/5/bits/basic_string.h **** 	return *this;
1097:/usr/include/c++/5/bits/basic_string.h ****       }
1098:/usr/include/c++/5/bits/basic_string.h **** 
1099:/usr/include/c++/5/bits/basic_string.h **** #if __cplusplus >= 201103L
1100:/usr/include/c++/5/bits/basic_string.h ****       /**
1101:/usr/include/c++/5/bits/basic_string.h ****        *  @brief  Set value to contents of another string.
1102:/usr/include/c++/5/bits/basic_string.h ****        *  @param  __str  Source string to use.
1103:/usr/include/c++/5/bits/basic_string.h ****        *  @return  Reference to this string.
1104:/usr/include/c++/5/bits/basic_string.h ****        *
1105:/usr/include/c++/5/bits/basic_string.h ****        *  This function sets this string to the exact contents of @a __str.
1106:/usr/include/c++/5/bits/basic_string.h ****        *  @a __str is a valid, but unspecified string.
1107:/usr/include/c++/5/bits/basic_string.h ****        */
1108:/usr/include/c++/5/bits/basic_string.h ****       basic_string&
1109:/usr/include/c++/5/bits/basic_string.h ****       assign(basic_string&& __str)
1110:/usr/include/c++/5/bits/basic_string.h ****       {
1111:/usr/include/c++/5/bits/basic_string.h **** 	// _GLIBCXX_RESOLVE_LIB_DEFECTS
1112:/usr/include/c++/5/bits/basic_string.h **** 	// 2063. Contradictory requirements for string move assignment
1113:/usr/include/c++/5/bits/basic_string.h **** 	return *this = std::move(__str);
1114:/usr/include/c++/5/bits/basic_string.h ****       }
1115:/usr/include/c++/5/bits/basic_string.h **** #endif // C++11
1116:/usr/include/c++/5/bits/basic_string.h **** 
1117:/usr/include/c++/5/bits/basic_string.h ****       /**
1118:/usr/include/c++/5/bits/basic_string.h ****        *  @brief  Set value to a substring of a string.
1119:/usr/include/c++/5/bits/basic_string.h ****        *  @param __str  The string to use.
1120:/usr/include/c++/5/bits/basic_string.h ****        *  @param __pos  Index of the first character of str.
1121:/usr/include/c++/5/bits/basic_string.h ****        *  @param __n  Number of characters to use.
1122:/usr/include/c++/5/bits/basic_string.h ****        *  @return  Reference to this string.
1123:/usr/include/c++/5/bits/basic_string.h ****        *  @throw  std::out_of_range if @a pos is not a valid index.
1124:/usr/include/c++/5/bits/basic_string.h ****        *
1125:/usr/include/c++/5/bits/basic_string.h ****        *  This function sets this string to the substring of @a __str
1126:/usr/include/c++/5/bits/basic_string.h ****        *  consisting of @a __n characters at @a __pos.  If @a __n is
1127:/usr/include/c++/5/bits/basic_string.h ****        *  is larger than the number of available characters in @a
1128:/usr/include/c++/5/bits/basic_string.h ****        *  __str, the remainder of @a __str is used.
1129:/usr/include/c++/5/bits/basic_string.h ****        */
1130:/usr/include/c++/5/bits/basic_string.h ****       basic_string&
1131:/usr/include/c++/5/bits/basic_string.h ****       assign(const basic_string& __str, size_type __pos, size_type __n)
1132:/usr/include/c++/5/bits/basic_string.h ****       { return _M_replace(size_type(0), this->size(), __str._M_data()
1133:/usr/include/c++/5/bits/basic_string.h **** 			  + __str._M_check(__pos, "basic_string::assign"),
1134:/usr/include/c++/5/bits/basic_string.h **** 			  __str._M_limit(__pos, __n)); }
1135:/usr/include/c++/5/bits/basic_string.h **** 
1136:/usr/include/c++/5/bits/basic_string.h ****       /**
1137:/usr/include/c++/5/bits/basic_string.h ****        *  @brief  Set value to a C substring.
1138:/usr/include/c++/5/bits/basic_string.h ****        *  @param __s  The C string to use.
1139:/usr/include/c++/5/bits/basic_string.h ****        *  @param __n  Number of characters to use.
1140:/usr/include/c++/5/bits/basic_string.h ****        *  @return  Reference to this string.
1141:/usr/include/c++/5/bits/basic_string.h ****        *
1142:/usr/include/c++/5/bits/basic_string.h ****        *  This function sets the value of this string to the first @a __n
1143:/usr/include/c++/5/bits/basic_string.h ****        *  characters of @a __s.  If @a __n is is larger than the number of
1144:/usr/include/c++/5/bits/basic_string.h ****        *  available characters in @a __s, the remainder of @a __s is used.
1145:/usr/include/c++/5/bits/basic_string.h ****        */
1146:/usr/include/c++/5/bits/basic_string.h ****       basic_string&
1147:/usr/include/c++/5/bits/basic_string.h ****       assign(const _CharT* __s, size_type __n)
1148:/usr/include/c++/5/bits/basic_string.h ****       {
1149:/usr/include/c++/5/bits/basic_string.h **** 	__glibcxx_requires_string_len(__s, __n);
GAS LISTING /tmp/ccSpSEFs.s 			page 106


1150:/usr/include/c++/5/bits/basic_string.h **** 	return _M_replace(size_type(0), this->size(), __s, __n);
1151:/usr/include/c++/5/bits/basic_string.h ****       }
1152:/usr/include/c++/5/bits/basic_string.h **** 
1153:/usr/include/c++/5/bits/basic_string.h ****       /**
1154:/usr/include/c++/5/bits/basic_string.h ****        *  @brief  Set value to contents of a C string.
1155:/usr/include/c++/5/bits/basic_string.h ****        *  @param __s  The C string to use.
1156:/usr/include/c++/5/bits/basic_string.h ****        *  @return  Reference to this string.
1157:/usr/include/c++/5/bits/basic_string.h ****        *
1158:/usr/include/c++/5/bits/basic_string.h ****        *  This function sets the value of this string to the value of @a __s.
1159:/usr/include/c++/5/bits/basic_string.h ****        *  The data is copied, so there is no dependence on @a __s once the
1160:/usr/include/c++/5/bits/basic_string.h ****        *  function returns.
1161:/usr/include/c++/5/bits/basic_string.h ****        */
1162:/usr/include/c++/5/bits/basic_string.h ****       basic_string&
1163:/usr/include/c++/5/bits/basic_string.h ****       assign(const _CharT* __s)
1164:/usr/include/c++/5/bits/basic_string.h ****       {
1165:/usr/include/c++/5/bits/basic_string.h **** 	__glibcxx_requires_string(__s);
1166:/usr/include/c++/5/bits/basic_string.h **** 	return _M_replace(size_type(0), this->size(), __s,
1167:/usr/include/c++/5/bits/basic_string.h **** 			  traits_type::length(__s));
1168:/usr/include/c++/5/bits/basic_string.h ****       }
1169:/usr/include/c++/5/bits/basic_string.h **** 
1170:/usr/include/c++/5/bits/basic_string.h ****       /**
1171:/usr/include/c++/5/bits/basic_string.h ****        *  @brief  Set value to multiple characters.
1172:/usr/include/c++/5/bits/basic_string.h ****        *  @param __n  Length of the resulting string.
1173:/usr/include/c++/5/bits/basic_string.h ****        *  @param __c  The character to use.
1174:/usr/include/c++/5/bits/basic_string.h ****        *  @return  Reference to this string.
1175:/usr/include/c++/5/bits/basic_string.h ****        *
1176:/usr/include/c++/5/bits/basic_string.h ****        *  This function sets the value of this string to @a __n copies of
1177:/usr/include/c++/5/bits/basic_string.h ****        *  character @a __c.
1178:/usr/include/c++/5/bits/basic_string.h ****        */
1179:/usr/include/c++/5/bits/basic_string.h ****       basic_string&
1180:/usr/include/c++/5/bits/basic_string.h ****       assign(size_type __n, _CharT __c)
1181:/usr/include/c++/5/bits/basic_string.h ****       { return _M_replace_aux(size_type(0), this->size(), __n, __c); }
1182:/usr/include/c++/5/bits/basic_string.h **** 
1183:/usr/include/c++/5/bits/basic_string.h ****       /**
1184:/usr/include/c++/5/bits/basic_string.h ****        *  @brief  Set value to a range of characters.
1185:/usr/include/c++/5/bits/basic_string.h ****        *  @param __first  Iterator referencing the first character to append.
1186:/usr/include/c++/5/bits/basic_string.h ****        *  @param __last  Iterator marking the end of the range.
1187:/usr/include/c++/5/bits/basic_string.h ****        *  @return  Reference to this string.
1188:/usr/include/c++/5/bits/basic_string.h ****        *
1189:/usr/include/c++/5/bits/basic_string.h ****        *  Sets value of string to characters in the range [__first,__last).
1190:/usr/include/c++/5/bits/basic_string.h ****       */
1191:/usr/include/c++/5/bits/basic_string.h **** #if __cplusplus >= 201103L
1192:/usr/include/c++/5/bits/basic_string.h ****       template<class _InputIterator,
1193:/usr/include/c++/5/bits/basic_string.h **** 	       typename = std::_RequireInputIter<_InputIterator>>
1194:/usr/include/c++/5/bits/basic_string.h **** #else
1195:/usr/include/c++/5/bits/basic_string.h ****       template<class _InputIterator>
1196:/usr/include/c++/5/bits/basic_string.h **** #endif
1197:/usr/include/c++/5/bits/basic_string.h ****         basic_string&
1198:/usr/include/c++/5/bits/basic_string.h ****         assign(_InputIterator __first, _InputIterator __last)
1199:/usr/include/c++/5/bits/basic_string.h ****         { return this->replace(begin(), end(), __first, __last); }
1200:/usr/include/c++/5/bits/basic_string.h **** 
1201:/usr/include/c++/5/bits/basic_string.h **** #if __cplusplus >= 201103L
1202:/usr/include/c++/5/bits/basic_string.h ****       /**
1203:/usr/include/c++/5/bits/basic_string.h ****        *  @brief  Set value to an initializer_list of characters.
1204:/usr/include/c++/5/bits/basic_string.h ****        *  @param __l  The initializer_list of characters to assign.
1205:/usr/include/c++/5/bits/basic_string.h ****        *  @return  Reference to this string.
1206:/usr/include/c++/5/bits/basic_string.h ****        */
GAS LISTING /tmp/ccSpSEFs.s 			page 107


1207:/usr/include/c++/5/bits/basic_string.h ****       basic_string&
1208:/usr/include/c++/5/bits/basic_string.h ****       assign(initializer_list<_CharT> __l)
1209:/usr/include/c++/5/bits/basic_string.h ****       { return this->assign(__l.begin(), __l.size()); }
1210:/usr/include/c++/5/bits/basic_string.h **** #endif // C++11
1211:/usr/include/c++/5/bits/basic_string.h **** 
1212:/usr/include/c++/5/bits/basic_string.h **** #if __cplusplus >= 201103L
1213:/usr/include/c++/5/bits/basic_string.h ****       /**
1214:/usr/include/c++/5/bits/basic_string.h ****        *  @brief  Insert multiple characters.
1215:/usr/include/c++/5/bits/basic_string.h ****        *  @param __p  Const_iterator referencing location in string to
1216:/usr/include/c++/5/bits/basic_string.h ****        *              insert at.
1217:/usr/include/c++/5/bits/basic_string.h ****        *  @param __n  Number of characters to insert
1218:/usr/include/c++/5/bits/basic_string.h ****        *  @param __c  The character to insert.
1219:/usr/include/c++/5/bits/basic_string.h ****        *  @return  Iterator referencing the first inserted char.
1220:/usr/include/c++/5/bits/basic_string.h ****        *  @throw  std::length_error  If new length exceeds @c max_size().
1221:/usr/include/c++/5/bits/basic_string.h ****        *
1222:/usr/include/c++/5/bits/basic_string.h ****        *  Inserts @a __n copies of character @a __c starting at the
1223:/usr/include/c++/5/bits/basic_string.h ****        *  position referenced by iterator @a __p.  If adding
1224:/usr/include/c++/5/bits/basic_string.h ****        *  characters causes the length to exceed max_size(),
1225:/usr/include/c++/5/bits/basic_string.h ****        *  length_error is thrown.  The value of the string doesn't
1226:/usr/include/c++/5/bits/basic_string.h ****        *  change if an error is thrown.
1227:/usr/include/c++/5/bits/basic_string.h ****       */
1228:/usr/include/c++/5/bits/basic_string.h ****       iterator
1229:/usr/include/c++/5/bits/basic_string.h ****       insert(const_iterator __p, size_type __n, _CharT __c)
1230:/usr/include/c++/5/bits/basic_string.h ****       {
1231:/usr/include/c++/5/bits/basic_string.h **** 	_GLIBCXX_DEBUG_PEDASSERT(__p >= begin() && __p <= end());
1232:/usr/include/c++/5/bits/basic_string.h **** 	const size_type __pos = __p - begin();
1233:/usr/include/c++/5/bits/basic_string.h **** 	this->replace(__p, __p, __n, __c);
1234:/usr/include/c++/5/bits/basic_string.h **** 	return iterator(this->_M_data() + __pos);
1235:/usr/include/c++/5/bits/basic_string.h ****       }
1236:/usr/include/c++/5/bits/basic_string.h **** #else
1237:/usr/include/c++/5/bits/basic_string.h ****       /**
1238:/usr/include/c++/5/bits/basic_string.h ****        *  @brief  Insert multiple characters.
1239:/usr/include/c++/5/bits/basic_string.h ****        *  @param __p  Iterator referencing location in string to insert at.
1240:/usr/include/c++/5/bits/basic_string.h ****        *  @param __n  Number of characters to insert
1241:/usr/include/c++/5/bits/basic_string.h ****        *  @param __c  The character to insert.
1242:/usr/include/c++/5/bits/basic_string.h ****        *  @throw  std::length_error  If new length exceeds @c max_size().
1243:/usr/include/c++/5/bits/basic_string.h ****        *
1244:/usr/include/c++/5/bits/basic_string.h ****        *  Inserts @a __n copies of character @a __c starting at the
1245:/usr/include/c++/5/bits/basic_string.h ****        *  position referenced by iterator @a __p.  If adding
1246:/usr/include/c++/5/bits/basic_string.h ****        *  characters causes the length to exceed max_size(),
1247:/usr/include/c++/5/bits/basic_string.h ****        *  length_error is thrown.  The value of the string doesn't
1248:/usr/include/c++/5/bits/basic_string.h ****        *  change if an error is thrown.
1249:/usr/include/c++/5/bits/basic_string.h ****       */
1250:/usr/include/c++/5/bits/basic_string.h ****       void
1251:/usr/include/c++/5/bits/basic_string.h ****       insert(iterator __p, size_type __n, _CharT __c)
1252:/usr/include/c++/5/bits/basic_string.h ****       {	this->replace(__p, __p, __n, __c);  }
1253:/usr/include/c++/5/bits/basic_string.h **** #endif
1254:/usr/include/c++/5/bits/basic_string.h **** 
1255:/usr/include/c++/5/bits/basic_string.h **** #if __cplusplus >= 201103L
1256:/usr/include/c++/5/bits/basic_string.h ****       /**
1257:/usr/include/c++/5/bits/basic_string.h ****        *  @brief  Insert a range of characters.
1258:/usr/include/c++/5/bits/basic_string.h ****        *  @param __p  Const_iterator referencing location in string to
1259:/usr/include/c++/5/bits/basic_string.h ****        *              insert at.
1260:/usr/include/c++/5/bits/basic_string.h ****        *  @param __beg  Start of range.
1261:/usr/include/c++/5/bits/basic_string.h ****        *  @param __end  End of range.
1262:/usr/include/c++/5/bits/basic_string.h ****        *  @return  Iterator referencing the first inserted char.
1263:/usr/include/c++/5/bits/basic_string.h ****        *  @throw  std::length_error  If new length exceeds @c max_size().
GAS LISTING /tmp/ccSpSEFs.s 			page 108


1264:/usr/include/c++/5/bits/basic_string.h ****        *
1265:/usr/include/c++/5/bits/basic_string.h ****        *  Inserts characters in range [beg,end).  If adding characters
1266:/usr/include/c++/5/bits/basic_string.h ****        *  causes the length to exceed max_size(), length_error is
1267:/usr/include/c++/5/bits/basic_string.h ****        *  thrown.  The value of the string doesn't change if an error
1268:/usr/include/c++/5/bits/basic_string.h ****        *  is thrown.
1269:/usr/include/c++/5/bits/basic_string.h ****       */
1270:/usr/include/c++/5/bits/basic_string.h ****       template<class _InputIterator,
1271:/usr/include/c++/5/bits/basic_string.h **** 	       typename = std::_RequireInputIter<_InputIterator>>
1272:/usr/include/c++/5/bits/basic_string.h **** 	iterator
1273:/usr/include/c++/5/bits/basic_string.h ****         insert(const_iterator __p, _InputIterator __beg, _InputIterator __end)
1274:/usr/include/c++/5/bits/basic_string.h ****         {
1275:/usr/include/c++/5/bits/basic_string.h **** 	  _GLIBCXX_DEBUG_PEDASSERT(__p >= begin() && __p <= end());
1276:/usr/include/c++/5/bits/basic_string.h **** 	  const size_type __pos = __p - begin();
1277:/usr/include/c++/5/bits/basic_string.h **** 	  this->replace(__p, __p, __beg, __end);
1278:/usr/include/c++/5/bits/basic_string.h **** 	  return iterator(this->_M_data() + __pos);
1279:/usr/include/c++/5/bits/basic_string.h **** 	}
1280:/usr/include/c++/5/bits/basic_string.h **** #else
1281:/usr/include/c++/5/bits/basic_string.h ****       /**
1282:/usr/include/c++/5/bits/basic_string.h ****        *  @brief  Insert a range of characters.
1283:/usr/include/c++/5/bits/basic_string.h ****        *  @param __p  Iterator referencing location in string to insert at.
1284:/usr/include/c++/5/bits/basic_string.h ****        *  @param __beg  Start of range.
1285:/usr/include/c++/5/bits/basic_string.h ****        *  @param __end  End of range.
1286:/usr/include/c++/5/bits/basic_string.h ****        *  @throw  std::length_error  If new length exceeds @c max_size().
1287:/usr/include/c++/5/bits/basic_string.h ****        *
1288:/usr/include/c++/5/bits/basic_string.h ****        *  Inserts characters in range [__beg,__end).  If adding
1289:/usr/include/c++/5/bits/basic_string.h ****        *  characters causes the length to exceed max_size(),
1290:/usr/include/c++/5/bits/basic_string.h ****        *  length_error is thrown.  The value of the string doesn't
1291:/usr/include/c++/5/bits/basic_string.h ****        *  change if an error is thrown.
1292:/usr/include/c++/5/bits/basic_string.h ****       */
1293:/usr/include/c++/5/bits/basic_string.h ****       template<class _InputIterator>
1294:/usr/include/c++/5/bits/basic_string.h ****         void
1295:/usr/include/c++/5/bits/basic_string.h ****         insert(iterator __p, _InputIterator __beg, _InputIterator __end)
1296:/usr/include/c++/5/bits/basic_string.h ****         { this->replace(__p, __p, __beg, __end); }
1297:/usr/include/c++/5/bits/basic_string.h **** #endif
1298:/usr/include/c++/5/bits/basic_string.h **** 
1299:/usr/include/c++/5/bits/basic_string.h **** #if __cplusplus >= 201103L
1300:/usr/include/c++/5/bits/basic_string.h ****       /**
1301:/usr/include/c++/5/bits/basic_string.h ****        *  @brief  Insert an initializer_list of characters.
1302:/usr/include/c++/5/bits/basic_string.h ****        *  @param __p  Iterator referencing location in string to insert at.
1303:/usr/include/c++/5/bits/basic_string.h ****        *  @param __l  The initializer_list of characters to insert.
1304:/usr/include/c++/5/bits/basic_string.h ****        *  @throw  std::length_error  If new length exceeds @c max_size().
1305:/usr/include/c++/5/bits/basic_string.h ****        */
1306:/usr/include/c++/5/bits/basic_string.h ****       void
1307:/usr/include/c++/5/bits/basic_string.h ****       insert(iterator __p, initializer_list<_CharT> __l)
1308:/usr/include/c++/5/bits/basic_string.h ****       {
1309:/usr/include/c++/5/bits/basic_string.h **** 	_GLIBCXX_DEBUG_PEDASSERT(__p >= begin() && __p <= end());
1310:/usr/include/c++/5/bits/basic_string.h **** 	this->insert(__p - begin(), __l.begin(), __l.size());
1311:/usr/include/c++/5/bits/basic_string.h ****       }
1312:/usr/include/c++/5/bits/basic_string.h **** #endif // C++11
1313:/usr/include/c++/5/bits/basic_string.h **** 
1314:/usr/include/c++/5/bits/basic_string.h ****       /**
1315:/usr/include/c++/5/bits/basic_string.h ****        *  @brief  Insert value of a string.
1316:/usr/include/c++/5/bits/basic_string.h ****        *  @param __pos1  Iterator referencing location in string to insert at.
1317:/usr/include/c++/5/bits/basic_string.h ****        *  @param __str  The string to insert.
1318:/usr/include/c++/5/bits/basic_string.h ****        *  @return  Reference to this string.
1319:/usr/include/c++/5/bits/basic_string.h ****        *  @throw  std::length_error  If new length exceeds @c max_size().
1320:/usr/include/c++/5/bits/basic_string.h ****        *
GAS LISTING /tmp/ccSpSEFs.s 			page 109


1321:/usr/include/c++/5/bits/basic_string.h ****        *  Inserts value of @a __str starting at @a __pos1.  If adding
1322:/usr/include/c++/5/bits/basic_string.h ****        *  characters causes the length to exceed max_size(),
1323:/usr/include/c++/5/bits/basic_string.h ****        *  length_error is thrown.  The value of the string doesn't
1324:/usr/include/c++/5/bits/basic_string.h ****        *  change if an error is thrown.
1325:/usr/include/c++/5/bits/basic_string.h ****       */
1326:/usr/include/c++/5/bits/basic_string.h ****       basic_string&
1327:/usr/include/c++/5/bits/basic_string.h ****       insert(size_type __pos1, const basic_string& __str)
1328:/usr/include/c++/5/bits/basic_string.h ****       { return this->replace(__pos1, size_type(0),
1329:/usr/include/c++/5/bits/basic_string.h **** 			     __str._M_data(), __str.size()); }
1330:/usr/include/c++/5/bits/basic_string.h **** 
1331:/usr/include/c++/5/bits/basic_string.h ****       /**
1332:/usr/include/c++/5/bits/basic_string.h ****        *  @brief  Insert a substring.
1333:/usr/include/c++/5/bits/basic_string.h ****        *  @param __pos1  Iterator referencing location in string to insert at.
1334:/usr/include/c++/5/bits/basic_string.h ****        *  @param __str  The string to insert.
1335:/usr/include/c++/5/bits/basic_string.h ****        *  @param __pos2  Start of characters in str to insert.
1336:/usr/include/c++/5/bits/basic_string.h ****        *  @param __n  Number of characters to insert.
1337:/usr/include/c++/5/bits/basic_string.h ****        *  @return  Reference to this string.
1338:/usr/include/c++/5/bits/basic_string.h ****        *  @throw  std::length_error  If new length exceeds @c max_size().
1339:/usr/include/c++/5/bits/basic_string.h ****        *  @throw  std::out_of_range  If @a pos1 > size() or
1340:/usr/include/c++/5/bits/basic_string.h ****        *  @a __pos2 > @a str.size().
1341:/usr/include/c++/5/bits/basic_string.h ****        *
1342:/usr/include/c++/5/bits/basic_string.h ****        *  Starting at @a pos1, insert @a __n character of @a __str
1343:/usr/include/c++/5/bits/basic_string.h ****        *  beginning with @a __pos2.  If adding characters causes the
1344:/usr/include/c++/5/bits/basic_string.h ****        *  length to exceed max_size(), length_error is thrown.  If @a
1345:/usr/include/c++/5/bits/basic_string.h ****        *  __pos1 is beyond the end of this string or @a __pos2 is
1346:/usr/include/c++/5/bits/basic_string.h ****        *  beyond the end of @a __str, out_of_range is thrown.  The
1347:/usr/include/c++/5/bits/basic_string.h ****        *  value of the string doesn't change if an error is thrown.
1348:/usr/include/c++/5/bits/basic_string.h ****       */
1349:/usr/include/c++/5/bits/basic_string.h ****       basic_string&
1350:/usr/include/c++/5/bits/basic_string.h ****       insert(size_type __pos1, const basic_string& __str,
1351:/usr/include/c++/5/bits/basic_string.h **** 	     size_type __pos2, size_type __n)
1352:/usr/include/c++/5/bits/basic_string.h ****       { return this->replace(__pos1, size_type(0), __str._M_data()
1353:/usr/include/c++/5/bits/basic_string.h **** 			     + __str._M_check(__pos2, "basic_string::insert"),
1354:/usr/include/c++/5/bits/basic_string.h **** 			     __str._M_limit(__pos2, __n)); }
1355:/usr/include/c++/5/bits/basic_string.h **** 
1356:/usr/include/c++/5/bits/basic_string.h ****       /**
1357:/usr/include/c++/5/bits/basic_string.h ****        *  @brief  Insert a C substring.
1358:/usr/include/c++/5/bits/basic_string.h ****        *  @param __pos  Iterator referencing location in string to insert at.
1359:/usr/include/c++/5/bits/basic_string.h ****        *  @param __s  The C string to insert.
1360:/usr/include/c++/5/bits/basic_string.h ****        *  @param __n  The number of characters to insert.
1361:/usr/include/c++/5/bits/basic_string.h ****        *  @return  Reference to this string.
1362:/usr/include/c++/5/bits/basic_string.h ****        *  @throw  std::length_error  If new length exceeds @c max_size().
1363:/usr/include/c++/5/bits/basic_string.h ****        *  @throw  std::out_of_range  If @a __pos is beyond the end of this
1364:/usr/include/c++/5/bits/basic_string.h ****        *  string.
1365:/usr/include/c++/5/bits/basic_string.h ****        *
1366:/usr/include/c++/5/bits/basic_string.h ****        *  Inserts the first @a __n characters of @a __s starting at @a
1367:/usr/include/c++/5/bits/basic_string.h ****        *  __pos.  If adding characters causes the length to exceed
1368:/usr/include/c++/5/bits/basic_string.h ****        *  max_size(), length_error is thrown.  If @a __pos is beyond
1369:/usr/include/c++/5/bits/basic_string.h ****        *  end(), out_of_range is thrown.  The value of the string
1370:/usr/include/c++/5/bits/basic_string.h ****        *  doesn't change if an error is thrown.
1371:/usr/include/c++/5/bits/basic_string.h ****       */
1372:/usr/include/c++/5/bits/basic_string.h ****       basic_string&
1373:/usr/include/c++/5/bits/basic_string.h ****       insert(size_type __pos, const _CharT* __s, size_type __n)
1374:/usr/include/c++/5/bits/basic_string.h ****       { return this->replace(__pos, size_type(0), __s, __n); }
1375:/usr/include/c++/5/bits/basic_string.h **** 
1376:/usr/include/c++/5/bits/basic_string.h ****       /**
1377:/usr/include/c++/5/bits/basic_string.h ****        *  @brief  Insert a C string.
GAS LISTING /tmp/ccSpSEFs.s 			page 110


1378:/usr/include/c++/5/bits/basic_string.h ****        *  @param __pos  Iterator referencing location in string to insert at.
1379:/usr/include/c++/5/bits/basic_string.h ****        *  @param __s  The C string to insert.
1380:/usr/include/c++/5/bits/basic_string.h ****        *  @return  Reference to this string.
1381:/usr/include/c++/5/bits/basic_string.h ****        *  @throw  std::length_error  If new length exceeds @c max_size().
1382:/usr/include/c++/5/bits/basic_string.h ****        *  @throw  std::out_of_range  If @a pos is beyond the end of this
1383:/usr/include/c++/5/bits/basic_string.h ****        *  string.
1384:/usr/include/c++/5/bits/basic_string.h ****        *
1385:/usr/include/c++/5/bits/basic_string.h ****        *  Inserts the first @a n characters of @a __s starting at @a __pos.  If
1386:/usr/include/c++/5/bits/basic_string.h ****        *  adding characters causes the length to exceed max_size(),
1387:/usr/include/c++/5/bits/basic_string.h ****        *  length_error is thrown.  If @a __pos is beyond end(), out_of_range is
1388:/usr/include/c++/5/bits/basic_string.h ****        *  thrown.  The value of the string doesn't change if an error is
1389:/usr/include/c++/5/bits/basic_string.h ****        *  thrown.
1390:/usr/include/c++/5/bits/basic_string.h ****       */
1391:/usr/include/c++/5/bits/basic_string.h ****       basic_string&
1392:/usr/include/c++/5/bits/basic_string.h ****       insert(size_type __pos, const _CharT* __s)
1393:/usr/include/c++/5/bits/basic_string.h ****       {
1394:/usr/include/c++/5/bits/basic_string.h **** 	__glibcxx_requires_string(__s);
1395:/usr/include/c++/5/bits/basic_string.h **** 	return this->replace(__pos, size_type(0), __s,
1396:/usr/include/c++/5/bits/basic_string.h **** 			     traits_type::length(__s));
1397:/usr/include/c++/5/bits/basic_string.h ****       }
1398:/usr/include/c++/5/bits/basic_string.h **** 
1399:/usr/include/c++/5/bits/basic_string.h ****       /**
1400:/usr/include/c++/5/bits/basic_string.h ****        *  @brief  Insert multiple characters.
1401:/usr/include/c++/5/bits/basic_string.h ****        *  @param __pos  Index in string to insert at.
1402:/usr/include/c++/5/bits/basic_string.h ****        *  @param __n  Number of characters to insert
1403:/usr/include/c++/5/bits/basic_string.h ****        *  @param __c  The character to insert.
1404:/usr/include/c++/5/bits/basic_string.h ****        *  @return  Reference to this string.
1405:/usr/include/c++/5/bits/basic_string.h ****        *  @throw  std::length_error  If new length exceeds @c max_size().
1406:/usr/include/c++/5/bits/basic_string.h ****        *  @throw  std::out_of_range  If @a __pos is beyond the end of this
1407:/usr/include/c++/5/bits/basic_string.h ****        *  string.
1408:/usr/include/c++/5/bits/basic_string.h ****        *
1409:/usr/include/c++/5/bits/basic_string.h ****        *  Inserts @a __n copies of character @a __c starting at index
1410:/usr/include/c++/5/bits/basic_string.h ****        *  @a __pos.  If adding characters causes the length to exceed
1411:/usr/include/c++/5/bits/basic_string.h ****        *  max_size(), length_error is thrown.  If @a __pos > length(),
1412:/usr/include/c++/5/bits/basic_string.h ****        *  out_of_range is thrown.  The value of the string doesn't
1413:/usr/include/c++/5/bits/basic_string.h ****        *  change if an error is thrown.
1414:/usr/include/c++/5/bits/basic_string.h ****       */
1415:/usr/include/c++/5/bits/basic_string.h ****       basic_string&
1416:/usr/include/c++/5/bits/basic_string.h ****       insert(size_type __pos, size_type __n, _CharT __c)
1417:/usr/include/c++/5/bits/basic_string.h ****       { return _M_replace_aux(_M_check(__pos, "basic_string::insert"),
1418:/usr/include/c++/5/bits/basic_string.h **** 			      size_type(0), __n, __c); }
1419:/usr/include/c++/5/bits/basic_string.h **** 
1420:/usr/include/c++/5/bits/basic_string.h ****       /**
1421:/usr/include/c++/5/bits/basic_string.h ****        *  @brief  Insert one character.
1422:/usr/include/c++/5/bits/basic_string.h ****        *  @param __p  Iterator referencing position in string to insert at.
1423:/usr/include/c++/5/bits/basic_string.h ****        *  @param __c  The character to insert.
1424:/usr/include/c++/5/bits/basic_string.h ****        *  @return  Iterator referencing newly inserted char.
1425:/usr/include/c++/5/bits/basic_string.h ****        *  @throw  std::length_error  If new length exceeds @c max_size().
1426:/usr/include/c++/5/bits/basic_string.h ****        *
1427:/usr/include/c++/5/bits/basic_string.h ****        *  Inserts character @a __c at position referenced by @a __p.
1428:/usr/include/c++/5/bits/basic_string.h ****        *  If adding character causes the length to exceed max_size(),
1429:/usr/include/c++/5/bits/basic_string.h ****        *  length_error is thrown.  If @a __p is beyond end of string,
1430:/usr/include/c++/5/bits/basic_string.h ****        *  out_of_range is thrown.  The value of the string doesn't
1431:/usr/include/c++/5/bits/basic_string.h ****        *  change if an error is thrown.
1432:/usr/include/c++/5/bits/basic_string.h ****       */
1433:/usr/include/c++/5/bits/basic_string.h ****       iterator
1434:/usr/include/c++/5/bits/basic_string.h ****       insert(__const_iterator __p, _CharT __c)
GAS LISTING /tmp/ccSpSEFs.s 			page 111


1435:/usr/include/c++/5/bits/basic_string.h ****       {
1436:/usr/include/c++/5/bits/basic_string.h **** 	_GLIBCXX_DEBUG_PEDASSERT(__p >= begin() && __p <= end());
1437:/usr/include/c++/5/bits/basic_string.h **** 	const size_type __pos = __p - begin();
1438:/usr/include/c++/5/bits/basic_string.h **** 	_M_replace_aux(__pos, size_type(0), size_type(1), __c);
1439:/usr/include/c++/5/bits/basic_string.h **** 	return iterator(_M_data() + __pos);
1440:/usr/include/c++/5/bits/basic_string.h ****       }
1441:/usr/include/c++/5/bits/basic_string.h **** 
1442:/usr/include/c++/5/bits/basic_string.h ****       /**
1443:/usr/include/c++/5/bits/basic_string.h ****        *  @brief  Remove characters.
1444:/usr/include/c++/5/bits/basic_string.h ****        *  @param __pos  Index of first character to remove (default 0).
1445:/usr/include/c++/5/bits/basic_string.h ****        *  @param __n  Number of characters to remove (default remainder).
1446:/usr/include/c++/5/bits/basic_string.h ****        *  @return  Reference to this string.
1447:/usr/include/c++/5/bits/basic_string.h ****        *  @throw  std::out_of_range  If @a pos is beyond the end of this
1448:/usr/include/c++/5/bits/basic_string.h ****        *  string.
1449:/usr/include/c++/5/bits/basic_string.h ****        *
1450:/usr/include/c++/5/bits/basic_string.h ****        *  Removes @a __n characters from this string starting at @a
1451:/usr/include/c++/5/bits/basic_string.h ****        *  __pos.  The length of the string is reduced by @a __n.  If
1452:/usr/include/c++/5/bits/basic_string.h ****        *  there are < @a __n characters to remove, the remainder of
1453:/usr/include/c++/5/bits/basic_string.h ****        *  the string is truncated.  If @a __p is beyond end of string,
1454:/usr/include/c++/5/bits/basic_string.h ****        *  out_of_range is thrown.  The value of the string doesn't
1455:/usr/include/c++/5/bits/basic_string.h ****        *  change if an error is thrown.
1456:/usr/include/c++/5/bits/basic_string.h ****       */
1457:/usr/include/c++/5/bits/basic_string.h ****       basic_string&
1458:/usr/include/c++/5/bits/basic_string.h ****       erase(size_type __pos = 0, size_type __n = npos)
1459:/usr/include/c++/5/bits/basic_string.h ****       {
1460:/usr/include/c++/5/bits/basic_string.h **** 	this->_M_erase(_M_check(__pos, "basic_string::erase"),
1461:/usr/include/c++/5/bits/basic_string.h **** 		       _M_limit(__pos, __n));
1462:/usr/include/c++/5/bits/basic_string.h **** 	return *this;
1463:/usr/include/c++/5/bits/basic_string.h ****       }
1464:/usr/include/c++/5/bits/basic_string.h **** 
1465:/usr/include/c++/5/bits/basic_string.h ****       /**
1466:/usr/include/c++/5/bits/basic_string.h ****        *  @brief  Remove one character.
1467:/usr/include/c++/5/bits/basic_string.h ****        *  @param __position  Iterator referencing the character to remove.
1468:/usr/include/c++/5/bits/basic_string.h ****        *  @return  iterator referencing same location after removal.
1469:/usr/include/c++/5/bits/basic_string.h ****        *
1470:/usr/include/c++/5/bits/basic_string.h ****        *  Removes the character at @a __position from this string. The value
1471:/usr/include/c++/5/bits/basic_string.h ****        *  of the string doesn't change if an error is thrown.
1472:/usr/include/c++/5/bits/basic_string.h ****       */
1473:/usr/include/c++/5/bits/basic_string.h ****       iterator
1474:/usr/include/c++/5/bits/basic_string.h ****       erase(__const_iterator __position)
1475:/usr/include/c++/5/bits/basic_string.h ****       {
1476:/usr/include/c++/5/bits/basic_string.h **** 	_GLIBCXX_DEBUG_PEDASSERT(__position >= begin()
1477:/usr/include/c++/5/bits/basic_string.h **** 				 && __position < end());
1478:/usr/include/c++/5/bits/basic_string.h **** 	const size_type __pos = __position - begin();
1479:/usr/include/c++/5/bits/basic_string.h **** 	this->_M_erase(__pos, size_type(1));
1480:/usr/include/c++/5/bits/basic_string.h **** 	return iterator(_M_data() + __pos);
1481:/usr/include/c++/5/bits/basic_string.h ****       }
1482:/usr/include/c++/5/bits/basic_string.h **** 
1483:/usr/include/c++/5/bits/basic_string.h ****       /**
1484:/usr/include/c++/5/bits/basic_string.h ****        *  @brief  Remove a range of characters.
1485:/usr/include/c++/5/bits/basic_string.h ****        *  @param __first  Iterator referencing the first character to remove.
1486:/usr/include/c++/5/bits/basic_string.h ****        *  @param __last  Iterator referencing the end of the range.
1487:/usr/include/c++/5/bits/basic_string.h ****        *  @return  Iterator referencing location of first after removal.
1488:/usr/include/c++/5/bits/basic_string.h ****        *
1489:/usr/include/c++/5/bits/basic_string.h ****        *  Removes the characters in the range [first,last) from this string.
1490:/usr/include/c++/5/bits/basic_string.h ****        *  The value of the string doesn't change if an error is thrown.
1491:/usr/include/c++/5/bits/basic_string.h ****       */
GAS LISTING /tmp/ccSpSEFs.s 			page 112


1492:/usr/include/c++/5/bits/basic_string.h ****       iterator
1493:/usr/include/c++/5/bits/basic_string.h ****       erase(__const_iterator __first, __const_iterator __last)
1494:/usr/include/c++/5/bits/basic_string.h ****       {
1495:/usr/include/c++/5/bits/basic_string.h **** 	_GLIBCXX_DEBUG_PEDASSERT(__first >= begin() && __first <= __last
1496:/usr/include/c++/5/bits/basic_string.h **** 				 && __last <= end());
1497:/usr/include/c++/5/bits/basic_string.h ****         const size_type __pos = __first - begin();
1498:/usr/include/c++/5/bits/basic_string.h **** 	this->_M_erase(__pos, __last - __first);
1499:/usr/include/c++/5/bits/basic_string.h **** 	return iterator(this->_M_data() + __pos);
1500:/usr/include/c++/5/bits/basic_string.h ****       }
1501:/usr/include/c++/5/bits/basic_string.h **** 
1502:/usr/include/c++/5/bits/basic_string.h **** #if __cplusplus >= 201103L
1503:/usr/include/c++/5/bits/basic_string.h ****       /**
1504:/usr/include/c++/5/bits/basic_string.h ****        *  @brief  Remove the last character.
1505:/usr/include/c++/5/bits/basic_string.h ****        *
1506:/usr/include/c++/5/bits/basic_string.h ****        *  The string must be non-empty.
1507:/usr/include/c++/5/bits/basic_string.h ****        */
1508:/usr/include/c++/5/bits/basic_string.h ****       void
1509:/usr/include/c++/5/bits/basic_string.h ****       pop_back() noexcept
1510:/usr/include/c++/5/bits/basic_string.h ****       { _M_erase(size()-1, 1); }
1511:/usr/include/c++/5/bits/basic_string.h **** #endif // C++11
1512:/usr/include/c++/5/bits/basic_string.h **** 
1513:/usr/include/c++/5/bits/basic_string.h ****       /**
1514:/usr/include/c++/5/bits/basic_string.h ****        *  @brief  Replace characters with value from another string.
1515:/usr/include/c++/5/bits/basic_string.h ****        *  @param __pos  Index of first character to replace.
1516:/usr/include/c++/5/bits/basic_string.h ****        *  @param __n  Number of characters to be replaced.
1517:/usr/include/c++/5/bits/basic_string.h ****        *  @param __str  String to insert.
1518:/usr/include/c++/5/bits/basic_string.h ****        *  @return  Reference to this string.
1519:/usr/include/c++/5/bits/basic_string.h ****        *  @throw  std::out_of_range  If @a pos is beyond the end of this
1520:/usr/include/c++/5/bits/basic_string.h ****        *  string.
1521:/usr/include/c++/5/bits/basic_string.h ****        *  @throw  std::length_error  If new length exceeds @c max_size().
1522:/usr/include/c++/5/bits/basic_string.h ****        *
1523:/usr/include/c++/5/bits/basic_string.h ****        *  Removes the characters in the range [__pos,__pos+__n) from
1524:/usr/include/c++/5/bits/basic_string.h ****        *  this string.  In place, the value of @a __str is inserted.
1525:/usr/include/c++/5/bits/basic_string.h ****        *  If @a __pos is beyond end of string, out_of_range is thrown.
1526:/usr/include/c++/5/bits/basic_string.h ****        *  If the length of the result exceeds max_size(), length_error
1527:/usr/include/c++/5/bits/basic_string.h ****        *  is thrown.  The value of the string doesn't change if an
1528:/usr/include/c++/5/bits/basic_string.h ****        *  error is thrown.
1529:/usr/include/c++/5/bits/basic_string.h ****       */
1530:/usr/include/c++/5/bits/basic_string.h ****       basic_string&
1531:/usr/include/c++/5/bits/basic_string.h ****       replace(size_type __pos, size_type __n, const basic_string& __str)
1532:/usr/include/c++/5/bits/basic_string.h ****       { return this->replace(__pos, __n, __str._M_data(), __str.size()); }
1533:/usr/include/c++/5/bits/basic_string.h **** 
1534:/usr/include/c++/5/bits/basic_string.h ****       /**
1535:/usr/include/c++/5/bits/basic_string.h ****        *  @brief  Replace characters with value from another string.
1536:/usr/include/c++/5/bits/basic_string.h ****        *  @param __pos1  Index of first character to replace.
1537:/usr/include/c++/5/bits/basic_string.h ****        *  @param __n1  Number of characters to be replaced.
1538:/usr/include/c++/5/bits/basic_string.h ****        *  @param __str  String to insert.
1539:/usr/include/c++/5/bits/basic_string.h ****        *  @param __pos2  Index of first character of str to use.
1540:/usr/include/c++/5/bits/basic_string.h ****        *  @param __n2  Number of characters from str to use.
1541:/usr/include/c++/5/bits/basic_string.h ****        *  @return  Reference to this string.
1542:/usr/include/c++/5/bits/basic_string.h ****        *  @throw  std::out_of_range  If @a __pos1 > size() or @a __pos2 >
1543:/usr/include/c++/5/bits/basic_string.h ****        *  __str.size().
1544:/usr/include/c++/5/bits/basic_string.h ****        *  @throw  std::length_error  If new length exceeds @c max_size().
1545:/usr/include/c++/5/bits/basic_string.h ****        *
1546:/usr/include/c++/5/bits/basic_string.h ****        *  Removes the characters in the range [__pos1,__pos1 + n) from this
1547:/usr/include/c++/5/bits/basic_string.h ****        *  string.  In place, the value of @a __str is inserted.  If @a __pos is
1548:/usr/include/c++/5/bits/basic_string.h ****        *  beyond end of string, out_of_range is thrown.  If the length of the
GAS LISTING /tmp/ccSpSEFs.s 			page 113


1549:/usr/include/c++/5/bits/basic_string.h ****        *  result exceeds max_size(), length_error is thrown.  The value of the
1550:/usr/include/c++/5/bits/basic_string.h ****        *  string doesn't change if an error is thrown.
1551:/usr/include/c++/5/bits/basic_string.h ****       */
1552:/usr/include/c++/5/bits/basic_string.h ****       basic_string&
1553:/usr/include/c++/5/bits/basic_string.h ****       replace(size_type __pos1, size_type __n1, const basic_string& __str,
1554:/usr/include/c++/5/bits/basic_string.h **** 	      size_type __pos2, size_type __n2)
1555:/usr/include/c++/5/bits/basic_string.h ****       { return this->replace(__pos1, __n1, __str._M_data()
1556:/usr/include/c++/5/bits/basic_string.h **** 			     + __str._M_check(__pos2, "basic_string::replace"),
1557:/usr/include/c++/5/bits/basic_string.h **** 			     __str._M_limit(__pos2, __n2)); }
1558:/usr/include/c++/5/bits/basic_string.h **** 
1559:/usr/include/c++/5/bits/basic_string.h ****       /**
1560:/usr/include/c++/5/bits/basic_string.h ****        *  @brief  Replace characters with value of a C substring.
1561:/usr/include/c++/5/bits/basic_string.h ****        *  @param __pos  Index of first character to replace.
1562:/usr/include/c++/5/bits/basic_string.h ****        *  @param __n1  Number of characters to be replaced.
1563:/usr/include/c++/5/bits/basic_string.h ****        *  @param __s  C string to insert.
1564:/usr/include/c++/5/bits/basic_string.h ****        *  @param __n2  Number of characters from @a s to use.
1565:/usr/include/c++/5/bits/basic_string.h ****        *  @return  Reference to this string.
1566:/usr/include/c++/5/bits/basic_string.h ****        *  @throw  std::out_of_range  If @a pos1 > size().
1567:/usr/include/c++/5/bits/basic_string.h ****        *  @throw  std::length_error  If new length exceeds @c max_size().
1568:/usr/include/c++/5/bits/basic_string.h ****        *
1569:/usr/include/c++/5/bits/basic_string.h ****        *  Removes the characters in the range [__pos,__pos + __n1)
1570:/usr/include/c++/5/bits/basic_string.h ****        *  from this string.  In place, the first @a __n2 characters of
1571:/usr/include/c++/5/bits/basic_string.h ****        *  @a __s are inserted, or all of @a __s if @a __n2 is too large.  If
1572:/usr/include/c++/5/bits/basic_string.h ****        *  @a __pos is beyond end of string, out_of_range is thrown.  If
1573:/usr/include/c++/5/bits/basic_string.h ****        *  the length of result exceeds max_size(), length_error is
1574:/usr/include/c++/5/bits/basic_string.h ****        *  thrown.  The value of the string doesn't change if an error
1575:/usr/include/c++/5/bits/basic_string.h ****        *  is thrown.
1576:/usr/include/c++/5/bits/basic_string.h ****       */
1577:/usr/include/c++/5/bits/basic_string.h ****       basic_string&
1578:/usr/include/c++/5/bits/basic_string.h ****       replace(size_type __pos, size_type __n1, const _CharT* __s,
1579:/usr/include/c++/5/bits/basic_string.h **** 	      size_type __n2)
1580:/usr/include/c++/5/bits/basic_string.h ****       {
1581:/usr/include/c++/5/bits/basic_string.h **** 	__glibcxx_requires_string_len(__s, __n2);
1582:/usr/include/c++/5/bits/basic_string.h **** 	return _M_replace(_M_check(__pos, "basic_string::replace"),
1583:/usr/include/c++/5/bits/basic_string.h **** 			  _M_limit(__pos, __n1), __s, __n2);
1584:/usr/include/c++/5/bits/basic_string.h ****       }
1585:/usr/include/c++/5/bits/basic_string.h **** 
1586:/usr/include/c++/5/bits/basic_string.h ****       /**
1587:/usr/include/c++/5/bits/basic_string.h ****        *  @brief  Replace characters with value of a C string.
1588:/usr/include/c++/5/bits/basic_string.h ****        *  @param __pos  Index of first character to replace.
1589:/usr/include/c++/5/bits/basic_string.h ****        *  @param __n1  Number of characters to be replaced.
1590:/usr/include/c++/5/bits/basic_string.h ****        *  @param __s  C string to insert.
1591:/usr/include/c++/5/bits/basic_string.h ****        *  @return  Reference to this string.
1592:/usr/include/c++/5/bits/basic_string.h ****        *  @throw  std::out_of_range  If @a pos > size().
1593:/usr/include/c++/5/bits/basic_string.h ****        *  @throw  std::length_error  If new length exceeds @c max_size().
1594:/usr/include/c++/5/bits/basic_string.h ****        *
1595:/usr/include/c++/5/bits/basic_string.h ****        *  Removes the characters in the range [__pos,__pos + __n1)
1596:/usr/include/c++/5/bits/basic_string.h ****        *  from this string.  In place, the characters of @a __s are
1597:/usr/include/c++/5/bits/basic_string.h ****        *  inserted.  If @a __pos is beyond end of string, out_of_range
1598:/usr/include/c++/5/bits/basic_string.h ****        *  is thrown.  If the length of result exceeds max_size(),
1599:/usr/include/c++/5/bits/basic_string.h ****        *  length_error is thrown.  The value of the string doesn't
1600:/usr/include/c++/5/bits/basic_string.h ****        *  change if an error is thrown.
1601:/usr/include/c++/5/bits/basic_string.h ****       */
1602:/usr/include/c++/5/bits/basic_string.h ****       basic_string&
1603:/usr/include/c++/5/bits/basic_string.h ****       replace(size_type __pos, size_type __n1, const _CharT* __s)
1604:/usr/include/c++/5/bits/basic_string.h ****       {
1605:/usr/include/c++/5/bits/basic_string.h **** 	__glibcxx_requires_string(__s);
GAS LISTING /tmp/ccSpSEFs.s 			page 114


1606:/usr/include/c++/5/bits/basic_string.h **** 	return this->replace(__pos, __n1, __s, traits_type::length(__s));
1607:/usr/include/c++/5/bits/basic_string.h ****       }
1608:/usr/include/c++/5/bits/basic_string.h **** 
1609:/usr/include/c++/5/bits/basic_string.h ****       /**
1610:/usr/include/c++/5/bits/basic_string.h ****        *  @brief  Replace characters with multiple characters.
1611:/usr/include/c++/5/bits/basic_string.h ****        *  @param __pos  Index of first character to replace.
1612:/usr/include/c++/5/bits/basic_string.h ****        *  @param __n1  Number of characters to be replaced.
1613:/usr/include/c++/5/bits/basic_string.h ****        *  @param __n2  Number of characters to insert.
1614:/usr/include/c++/5/bits/basic_string.h ****        *  @param __c  Character to insert.
1615:/usr/include/c++/5/bits/basic_string.h ****        *  @return  Reference to this string.
1616:/usr/include/c++/5/bits/basic_string.h ****        *  @throw  std::out_of_range  If @a __pos > size().
1617:/usr/include/c++/5/bits/basic_string.h ****        *  @throw  std::length_error  If new length exceeds @c max_size().
1618:/usr/include/c++/5/bits/basic_string.h ****        *
1619:/usr/include/c++/5/bits/basic_string.h ****        *  Removes the characters in the range [pos,pos + n1) from this
1620:/usr/include/c++/5/bits/basic_string.h ****        *  string.  In place, @a __n2 copies of @a __c are inserted.
1621:/usr/include/c++/5/bits/basic_string.h ****        *  If @a __pos is beyond end of string, out_of_range is thrown.
1622:/usr/include/c++/5/bits/basic_string.h ****        *  If the length of result exceeds max_size(), length_error is
1623:/usr/include/c++/5/bits/basic_string.h ****        *  thrown.  The value of the string doesn't change if an error
1624:/usr/include/c++/5/bits/basic_string.h ****        *  is thrown.
1625:/usr/include/c++/5/bits/basic_string.h ****       */
1626:/usr/include/c++/5/bits/basic_string.h ****       basic_string&
1627:/usr/include/c++/5/bits/basic_string.h ****       replace(size_type __pos, size_type __n1, size_type __n2, _CharT __c)
1628:/usr/include/c++/5/bits/basic_string.h ****       { return _M_replace_aux(_M_check(__pos, "basic_string::replace"),
1629:/usr/include/c++/5/bits/basic_string.h **** 			      _M_limit(__pos, __n1), __n2, __c); }
1630:/usr/include/c++/5/bits/basic_string.h **** 
1631:/usr/include/c++/5/bits/basic_string.h ****       /**
1632:/usr/include/c++/5/bits/basic_string.h ****        *  @brief  Replace range of characters with string.
1633:/usr/include/c++/5/bits/basic_string.h ****        *  @param __i1  Iterator referencing start of range to replace.
1634:/usr/include/c++/5/bits/basic_string.h ****        *  @param __i2  Iterator referencing end of range to replace.
1635:/usr/include/c++/5/bits/basic_string.h ****        *  @param __str  String value to insert.
1636:/usr/include/c++/5/bits/basic_string.h ****        *  @return  Reference to this string.
1637:/usr/include/c++/5/bits/basic_string.h ****        *  @throw  std::length_error  If new length exceeds @c max_size().
1638:/usr/include/c++/5/bits/basic_string.h ****        *
1639:/usr/include/c++/5/bits/basic_string.h ****        *  Removes the characters in the range [__i1,__i2).  In place,
1640:/usr/include/c++/5/bits/basic_string.h ****        *  the value of @a __str is inserted.  If the length of result
1641:/usr/include/c++/5/bits/basic_string.h ****        *  exceeds max_size(), length_error is thrown.  The value of
1642:/usr/include/c++/5/bits/basic_string.h ****        *  the string doesn't change if an error is thrown.
1643:/usr/include/c++/5/bits/basic_string.h ****       */
1644:/usr/include/c++/5/bits/basic_string.h ****       basic_string&
1645:/usr/include/c++/5/bits/basic_string.h ****       replace(__const_iterator __i1, __const_iterator __i2,
1646:/usr/include/c++/5/bits/basic_string.h **** 	      const basic_string& __str)
1647:/usr/include/c++/5/bits/basic_string.h ****       { return this->replace(__i1, __i2, __str._M_data(), __str.size()); }
1648:/usr/include/c++/5/bits/basic_string.h **** 
1649:/usr/include/c++/5/bits/basic_string.h ****       /**
1650:/usr/include/c++/5/bits/basic_string.h ****        *  @brief  Replace range of characters with C substring.
1651:/usr/include/c++/5/bits/basic_string.h ****        *  @param __i1  Iterator referencing start of range to replace.
1652:/usr/include/c++/5/bits/basic_string.h ****        *  @param __i2  Iterator referencing end of range to replace.
1653:/usr/include/c++/5/bits/basic_string.h ****        *  @param __s  C string value to insert.
1654:/usr/include/c++/5/bits/basic_string.h ****        *  @param __n  Number of characters from s to insert.
1655:/usr/include/c++/5/bits/basic_string.h ****        *  @return  Reference to this string.
1656:/usr/include/c++/5/bits/basic_string.h ****        *  @throw  std::length_error  If new length exceeds @c max_size().
1657:/usr/include/c++/5/bits/basic_string.h ****        *
1658:/usr/include/c++/5/bits/basic_string.h ****        *  Removes the characters in the range [__i1,__i2).  In place,
1659:/usr/include/c++/5/bits/basic_string.h ****        *  the first @a __n characters of @a __s are inserted.  If the
1660:/usr/include/c++/5/bits/basic_string.h ****        *  length of result exceeds max_size(), length_error is thrown.
1661:/usr/include/c++/5/bits/basic_string.h ****        *  The value of the string doesn't change if an error is
1662:/usr/include/c++/5/bits/basic_string.h ****        *  thrown.
GAS LISTING /tmp/ccSpSEFs.s 			page 115


1663:/usr/include/c++/5/bits/basic_string.h ****       */
1664:/usr/include/c++/5/bits/basic_string.h ****       basic_string&
1665:/usr/include/c++/5/bits/basic_string.h ****       replace(__const_iterator __i1, __const_iterator __i2,
1666:/usr/include/c++/5/bits/basic_string.h **** 	      const _CharT* __s, size_type __n)
1667:/usr/include/c++/5/bits/basic_string.h ****       {
1668:/usr/include/c++/5/bits/basic_string.h **** 	_GLIBCXX_DEBUG_PEDASSERT(begin() <= __i1 && __i1 <= __i2
1669:/usr/include/c++/5/bits/basic_string.h **** 				 && __i2 <= end());
1670:/usr/include/c++/5/bits/basic_string.h **** 	return this->replace(__i1 - begin(), __i2 - __i1, __s, __n);
1671:/usr/include/c++/5/bits/basic_string.h ****       }
1672:/usr/include/c++/5/bits/basic_string.h **** 
1673:/usr/include/c++/5/bits/basic_string.h ****       /**
1674:/usr/include/c++/5/bits/basic_string.h ****        *  @brief  Replace range of characters with C string.
1675:/usr/include/c++/5/bits/basic_string.h ****        *  @param __i1  Iterator referencing start of range to replace.
1676:/usr/include/c++/5/bits/basic_string.h ****        *  @param __i2  Iterator referencing end of range to replace.
1677:/usr/include/c++/5/bits/basic_string.h ****        *  @param __s  C string value to insert.
1678:/usr/include/c++/5/bits/basic_string.h ****        *  @return  Reference to this string.
1679:/usr/include/c++/5/bits/basic_string.h ****        *  @throw  std::length_error  If new length exceeds @c max_size().
1680:/usr/include/c++/5/bits/basic_string.h ****        *
1681:/usr/include/c++/5/bits/basic_string.h ****        *  Removes the characters in the range [__i1,__i2).  In place,
1682:/usr/include/c++/5/bits/basic_string.h ****        *  the characters of @a __s are inserted.  If the length of
1683:/usr/include/c++/5/bits/basic_string.h ****        *  result exceeds max_size(), length_error is thrown.  The
1684:/usr/include/c++/5/bits/basic_string.h ****        *  value of the string doesn't change if an error is thrown.
1685:/usr/include/c++/5/bits/basic_string.h ****       */
1686:/usr/include/c++/5/bits/basic_string.h ****       basic_string&
1687:/usr/include/c++/5/bits/basic_string.h ****       replace(__const_iterator __i1, __const_iterator __i2, const _CharT* __s)
1688:/usr/include/c++/5/bits/basic_string.h ****       {
1689:/usr/include/c++/5/bits/basic_string.h **** 	__glibcxx_requires_string(__s);
1690:/usr/include/c++/5/bits/basic_string.h **** 	return this->replace(__i1, __i2, __s, traits_type::length(__s));
1691:/usr/include/c++/5/bits/basic_string.h ****       }
1692:/usr/include/c++/5/bits/basic_string.h **** 
1693:/usr/include/c++/5/bits/basic_string.h ****       /**
1694:/usr/include/c++/5/bits/basic_string.h ****        *  @brief  Replace range of characters with multiple characters
1695:/usr/include/c++/5/bits/basic_string.h ****        *  @param __i1  Iterator referencing start of range to replace.
1696:/usr/include/c++/5/bits/basic_string.h ****        *  @param __i2  Iterator referencing end of range to replace.
1697:/usr/include/c++/5/bits/basic_string.h ****        *  @param __n  Number of characters to insert.
1698:/usr/include/c++/5/bits/basic_string.h ****        *  @param __c  Character to insert.
1699:/usr/include/c++/5/bits/basic_string.h ****        *  @return  Reference to this string.
1700:/usr/include/c++/5/bits/basic_string.h ****        *  @throw  std::length_error  If new length exceeds @c max_size().
1701:/usr/include/c++/5/bits/basic_string.h ****        *
1702:/usr/include/c++/5/bits/basic_string.h ****        *  Removes the characters in the range [__i1,__i2).  In place,
1703:/usr/include/c++/5/bits/basic_string.h ****        *  @a __n copies of @a __c are inserted.  If the length of
1704:/usr/include/c++/5/bits/basic_string.h ****        *  result exceeds max_size(), length_error is thrown.  The
1705:/usr/include/c++/5/bits/basic_string.h ****        *  value of the string doesn't change if an error is thrown.
1706:/usr/include/c++/5/bits/basic_string.h ****       */
1707:/usr/include/c++/5/bits/basic_string.h ****       basic_string&
1708:/usr/include/c++/5/bits/basic_string.h ****       replace(__const_iterator __i1, __const_iterator __i2, size_type __n,
1709:/usr/include/c++/5/bits/basic_string.h **** 	      _CharT __c)
1710:/usr/include/c++/5/bits/basic_string.h ****       {
1711:/usr/include/c++/5/bits/basic_string.h **** 	_GLIBCXX_DEBUG_PEDASSERT(begin() <= __i1 && __i1 <= __i2
1712:/usr/include/c++/5/bits/basic_string.h **** 				 && __i2 <= end());
1713:/usr/include/c++/5/bits/basic_string.h **** 	return _M_replace_aux(__i1 - begin(), __i2 - __i1, __n, __c);
1714:/usr/include/c++/5/bits/basic_string.h ****       }
1715:/usr/include/c++/5/bits/basic_string.h **** 
1716:/usr/include/c++/5/bits/basic_string.h ****       /**
1717:/usr/include/c++/5/bits/basic_string.h ****        *  @brief  Replace range of characters with range.
1718:/usr/include/c++/5/bits/basic_string.h ****        *  @param __i1  Iterator referencing start of range to replace.
1719:/usr/include/c++/5/bits/basic_string.h ****        *  @param __i2  Iterator referencing end of range to replace.
GAS LISTING /tmp/ccSpSEFs.s 			page 116


1720:/usr/include/c++/5/bits/basic_string.h ****        *  @param __k1  Iterator referencing start of range to insert.
1721:/usr/include/c++/5/bits/basic_string.h ****        *  @param __k2  Iterator referencing end of range to insert.
1722:/usr/include/c++/5/bits/basic_string.h ****        *  @return  Reference to this string.
1723:/usr/include/c++/5/bits/basic_string.h ****        *  @throw  std::length_error  If new length exceeds @c max_size().
1724:/usr/include/c++/5/bits/basic_string.h ****        *
1725:/usr/include/c++/5/bits/basic_string.h ****        *  Removes the characters in the range [__i1,__i2).  In place,
1726:/usr/include/c++/5/bits/basic_string.h ****        *  characters in the range [__k1,__k2) are inserted.  If the
1727:/usr/include/c++/5/bits/basic_string.h ****        *  length of result exceeds max_size(), length_error is thrown.
1728:/usr/include/c++/5/bits/basic_string.h ****        *  The value of the string doesn't change if an error is
1729:/usr/include/c++/5/bits/basic_string.h ****        *  thrown.
1730:/usr/include/c++/5/bits/basic_string.h ****       */
1731:/usr/include/c++/5/bits/basic_string.h **** #if __cplusplus >= 201103L
1732:/usr/include/c++/5/bits/basic_string.h ****       template<class _InputIterator,
1733:/usr/include/c++/5/bits/basic_string.h **** 	       typename = std::_RequireInputIter<_InputIterator>>
1734:/usr/include/c++/5/bits/basic_string.h ****         basic_string&
1735:/usr/include/c++/5/bits/basic_string.h ****         replace(const_iterator __i1, const_iterator __i2,
1736:/usr/include/c++/5/bits/basic_string.h **** 		_InputIterator __k1, _InputIterator __k2)
1737:/usr/include/c++/5/bits/basic_string.h ****         {
1738:/usr/include/c++/5/bits/basic_string.h **** 	  _GLIBCXX_DEBUG_PEDASSERT(begin() <= __i1 && __i1 <= __i2
1739:/usr/include/c++/5/bits/basic_string.h **** 				   && __i2 <= end());
1740:/usr/include/c++/5/bits/basic_string.h **** 	  __glibcxx_requires_valid_range(__k1, __k2);
1741:/usr/include/c++/5/bits/basic_string.h **** 	  return this->_M_replace_dispatch(__i1, __i2, __k1, __k2,
1742:/usr/include/c++/5/bits/basic_string.h **** 					   std::__false_type());
1743:/usr/include/c++/5/bits/basic_string.h **** 	}
1744:/usr/include/c++/5/bits/basic_string.h **** #else
1745:/usr/include/c++/5/bits/basic_string.h ****       template<class _InputIterator>
1746:/usr/include/c++/5/bits/basic_string.h **** #ifdef _GLIBCXX_DISAMBIGUATE_REPLACE_INST
1747:/usr/include/c++/5/bits/basic_string.h ****         typename __enable_if_not_native_iterator<_InputIterator>::__type
1748:/usr/include/c++/5/bits/basic_string.h **** #else
1749:/usr/include/c++/5/bits/basic_string.h ****         basic_string&
1750:/usr/include/c++/5/bits/basic_string.h **** #endif
1751:/usr/include/c++/5/bits/basic_string.h ****         replace(iterator __i1, iterator __i2,
1752:/usr/include/c++/5/bits/basic_string.h **** 		_InputIterator __k1, _InputIterator __k2)
1753:/usr/include/c++/5/bits/basic_string.h ****         {
1754:/usr/include/c++/5/bits/basic_string.h **** 	  _GLIBCXX_DEBUG_PEDASSERT(begin() <= __i1 && __i1 <= __i2
1755:/usr/include/c++/5/bits/basic_string.h **** 				   && __i2 <= end());
1756:/usr/include/c++/5/bits/basic_string.h **** 	  __glibcxx_requires_valid_range(__k1, __k2);
1757:/usr/include/c++/5/bits/basic_string.h **** 	  typedef typename std::__is_integer<_InputIterator>::__type _Integral;
1758:/usr/include/c++/5/bits/basic_string.h **** 	  return _M_replace_dispatch(__i1, __i2, __k1, __k2, _Integral());
1759:/usr/include/c++/5/bits/basic_string.h **** 	}
1760:/usr/include/c++/5/bits/basic_string.h **** #endif
1761:/usr/include/c++/5/bits/basic_string.h **** 
1762:/usr/include/c++/5/bits/basic_string.h ****       // Specializations for the common case of pointer and iterator:
1763:/usr/include/c++/5/bits/basic_string.h ****       // useful to avoid the overhead of temporary buffering in _M_replace.
1764:/usr/include/c++/5/bits/basic_string.h ****       basic_string&
1765:/usr/include/c++/5/bits/basic_string.h ****       replace(__const_iterator __i1, __const_iterator __i2,
1766:/usr/include/c++/5/bits/basic_string.h **** 	      _CharT* __k1, _CharT* __k2)
1767:/usr/include/c++/5/bits/basic_string.h ****       {
1768:/usr/include/c++/5/bits/basic_string.h **** 	_GLIBCXX_DEBUG_PEDASSERT(begin() <= __i1 && __i1 <= __i2
1769:/usr/include/c++/5/bits/basic_string.h **** 				 && __i2 <= end());
1770:/usr/include/c++/5/bits/basic_string.h **** 	__glibcxx_requires_valid_range(__k1, __k2);
1771:/usr/include/c++/5/bits/basic_string.h **** 	return this->replace(__i1 - begin(), __i2 - __i1,
1772:/usr/include/c++/5/bits/basic_string.h **** 			     __k1, __k2 - __k1);
1773:/usr/include/c++/5/bits/basic_string.h ****       }
1774:/usr/include/c++/5/bits/basic_string.h **** 
1775:/usr/include/c++/5/bits/basic_string.h ****       basic_string&
1776:/usr/include/c++/5/bits/basic_string.h ****       replace(__const_iterator __i1, __const_iterator __i2,
GAS LISTING /tmp/ccSpSEFs.s 			page 117


1777:/usr/include/c++/5/bits/basic_string.h **** 	      const _CharT* __k1, const _CharT* __k2)
1778:/usr/include/c++/5/bits/basic_string.h ****       {
1779:/usr/include/c++/5/bits/basic_string.h **** 	_GLIBCXX_DEBUG_PEDASSERT(begin() <= __i1 && __i1 <= __i2
1780:/usr/include/c++/5/bits/basic_string.h **** 				 && __i2 <= end());
1781:/usr/include/c++/5/bits/basic_string.h **** 	__glibcxx_requires_valid_range(__k1, __k2);
1782:/usr/include/c++/5/bits/basic_string.h **** 	return this->replace(__i1 - begin(), __i2 - __i1,
1783:/usr/include/c++/5/bits/basic_string.h **** 			     __k1, __k2 - __k1);
1784:/usr/include/c++/5/bits/basic_string.h ****       }
1785:/usr/include/c++/5/bits/basic_string.h **** 
1786:/usr/include/c++/5/bits/basic_string.h ****       basic_string&
1787:/usr/include/c++/5/bits/basic_string.h ****       replace(__const_iterator __i1, __const_iterator __i2,
1788:/usr/include/c++/5/bits/basic_string.h **** 	      iterator __k1, iterator __k2)
1789:/usr/include/c++/5/bits/basic_string.h ****       {
1790:/usr/include/c++/5/bits/basic_string.h **** 	_GLIBCXX_DEBUG_PEDASSERT(begin() <= __i1 && __i1 <= __i2
1791:/usr/include/c++/5/bits/basic_string.h **** 				 && __i2 <= end());
1792:/usr/include/c++/5/bits/basic_string.h **** 	__glibcxx_requires_valid_range(__k1, __k2);
1793:/usr/include/c++/5/bits/basic_string.h **** 	return this->replace(__i1 - begin(), __i2 - __i1,
1794:/usr/include/c++/5/bits/basic_string.h **** 			     __k1.base(), __k2 - __k1);
1795:/usr/include/c++/5/bits/basic_string.h ****       }
1796:/usr/include/c++/5/bits/basic_string.h **** 
1797:/usr/include/c++/5/bits/basic_string.h ****       basic_string&
1798:/usr/include/c++/5/bits/basic_string.h ****       replace(__const_iterator __i1, __const_iterator __i2,
1799:/usr/include/c++/5/bits/basic_string.h **** 	      const_iterator __k1, const_iterator __k2)
1800:/usr/include/c++/5/bits/basic_string.h ****       {
1801:/usr/include/c++/5/bits/basic_string.h **** 	_GLIBCXX_DEBUG_PEDASSERT(begin() <= __i1 && __i1 <= __i2
1802:/usr/include/c++/5/bits/basic_string.h **** 				 && __i2 <= end());
1803:/usr/include/c++/5/bits/basic_string.h **** 	__glibcxx_requires_valid_range(__k1, __k2);
1804:/usr/include/c++/5/bits/basic_string.h **** 	return this->replace(__i1 - begin(), __i2 - __i1,
1805:/usr/include/c++/5/bits/basic_string.h **** 			     __k1.base(), __k2 - __k1);
1806:/usr/include/c++/5/bits/basic_string.h ****       }
1807:/usr/include/c++/5/bits/basic_string.h **** 
1808:/usr/include/c++/5/bits/basic_string.h **** #if __cplusplus >= 201103L
1809:/usr/include/c++/5/bits/basic_string.h ****       /**
1810:/usr/include/c++/5/bits/basic_string.h ****        *  @brief  Replace range of characters with initializer_list.
1811:/usr/include/c++/5/bits/basic_string.h ****        *  @param __i1  Iterator referencing start of range to replace.
1812:/usr/include/c++/5/bits/basic_string.h ****        *  @param __i2  Iterator referencing end of range to replace.
1813:/usr/include/c++/5/bits/basic_string.h ****        *  @param __l  The initializer_list of characters to insert.
1814:/usr/include/c++/5/bits/basic_string.h ****        *  @return  Reference to this string.
1815:/usr/include/c++/5/bits/basic_string.h ****        *  @throw  std::length_error  If new length exceeds @c max_size().
1816:/usr/include/c++/5/bits/basic_string.h ****        *
1817:/usr/include/c++/5/bits/basic_string.h ****        *  Removes the characters in the range [__i1,__i2).  In place,
1818:/usr/include/c++/5/bits/basic_string.h ****        *  characters in the range [__k1,__k2) are inserted.  If the
1819:/usr/include/c++/5/bits/basic_string.h ****        *  length of result exceeds max_size(), length_error is thrown.
1820:/usr/include/c++/5/bits/basic_string.h ****        *  The value of the string doesn't change if an error is
1821:/usr/include/c++/5/bits/basic_string.h ****        *  thrown.
1822:/usr/include/c++/5/bits/basic_string.h ****       */
1823:/usr/include/c++/5/bits/basic_string.h ****       basic_string& replace(const_iterator __i1, const_iterator __i2,
1824:/usr/include/c++/5/bits/basic_string.h **** 			    initializer_list<_CharT> __l)
1825:/usr/include/c++/5/bits/basic_string.h ****       { return this->replace(__i1, __i2, __l.begin(), __l.end()); }
1826:/usr/include/c++/5/bits/basic_string.h **** #endif // C++11
1827:/usr/include/c++/5/bits/basic_string.h **** 
1828:/usr/include/c++/5/bits/basic_string.h ****     private:
1829:/usr/include/c++/5/bits/basic_string.h ****       template<class _Integer>
1830:/usr/include/c++/5/bits/basic_string.h **** 	basic_string&
1831:/usr/include/c++/5/bits/basic_string.h **** 	_M_replace_dispatch(const_iterator __i1, const_iterator __i2,
1832:/usr/include/c++/5/bits/basic_string.h **** 			    _Integer __n, _Integer __val, __true_type)
1833:/usr/include/c++/5/bits/basic_string.h ****         { return _M_replace_aux(__i1 - begin(), __i2 - __i1, __n, __val); }
GAS LISTING /tmp/ccSpSEFs.s 			page 118


1834:/usr/include/c++/5/bits/basic_string.h **** 
1835:/usr/include/c++/5/bits/basic_string.h ****       template<class _InputIterator>
1836:/usr/include/c++/5/bits/basic_string.h **** 	basic_string&
1837:/usr/include/c++/5/bits/basic_string.h **** 	_M_replace_dispatch(const_iterator __i1, const_iterator __i2,
1838:/usr/include/c++/5/bits/basic_string.h **** 			    _InputIterator __k1, _InputIterator __k2,
1839:/usr/include/c++/5/bits/basic_string.h **** 			    __false_type);
1840:/usr/include/c++/5/bits/basic_string.h **** 
1841:/usr/include/c++/5/bits/basic_string.h ****       basic_string&
1842:/usr/include/c++/5/bits/basic_string.h ****       _M_replace_aux(size_type __pos1, size_type __n1, size_type __n2,
1843:/usr/include/c++/5/bits/basic_string.h **** 		     _CharT __c);
1844:/usr/include/c++/5/bits/basic_string.h **** 
1845:/usr/include/c++/5/bits/basic_string.h ****       basic_string&
1846:/usr/include/c++/5/bits/basic_string.h ****       _M_replace(size_type __pos, size_type __len1, const _CharT* __s,
1847:/usr/include/c++/5/bits/basic_string.h **** 		 const size_type __len2);
1848:/usr/include/c++/5/bits/basic_string.h **** 
1849:/usr/include/c++/5/bits/basic_string.h ****       basic_string&
1850:/usr/include/c++/5/bits/basic_string.h ****       _M_append(const _CharT* __s, size_type __n);
1851:/usr/include/c++/5/bits/basic_string.h **** 
1852:/usr/include/c++/5/bits/basic_string.h ****     public:
1853:/usr/include/c++/5/bits/basic_string.h **** 
1854:/usr/include/c++/5/bits/basic_string.h ****       /**
1855:/usr/include/c++/5/bits/basic_string.h ****        *  @brief  Copy substring into C string.
1856:/usr/include/c++/5/bits/basic_string.h ****        *  @param __s  C string to copy value into.
1857:/usr/include/c++/5/bits/basic_string.h ****        *  @param __n  Number of characters to copy.
1858:/usr/include/c++/5/bits/basic_string.h ****        *  @param __pos  Index of first character to copy.
1859:/usr/include/c++/5/bits/basic_string.h ****        *  @return  Number of characters actually copied
1860:/usr/include/c++/5/bits/basic_string.h ****        *  @throw  std::out_of_range  If __pos > size().
1861:/usr/include/c++/5/bits/basic_string.h ****        *
1862:/usr/include/c++/5/bits/basic_string.h ****        *  Copies up to @a __n characters starting at @a __pos into the
1863:/usr/include/c++/5/bits/basic_string.h ****        *  C string @a __s.  If @a __pos is %greater than size(),
1864:/usr/include/c++/5/bits/basic_string.h ****        *  out_of_range is thrown.
1865:/usr/include/c++/5/bits/basic_string.h ****       */
1866:/usr/include/c++/5/bits/basic_string.h ****       size_type
1867:/usr/include/c++/5/bits/basic_string.h ****       copy(_CharT* __s, size_type __n, size_type __pos = 0) const;
1868:/usr/include/c++/5/bits/basic_string.h **** 
1869:/usr/include/c++/5/bits/basic_string.h ****       /**
1870:/usr/include/c++/5/bits/basic_string.h ****        *  @brief  Swap contents with another string.
1871:/usr/include/c++/5/bits/basic_string.h ****        *  @param __s  String to swap with.
1872:/usr/include/c++/5/bits/basic_string.h ****        *
1873:/usr/include/c++/5/bits/basic_string.h ****        *  Exchanges the contents of this string with that of @a __s in constant
1874:/usr/include/c++/5/bits/basic_string.h ****        *  time.
1875:/usr/include/c++/5/bits/basic_string.h ****       */
1876:/usr/include/c++/5/bits/basic_string.h ****       void
1877:/usr/include/c++/5/bits/basic_string.h ****       swap(basic_string& __s) _GLIBCXX_NOEXCEPT;
1878:/usr/include/c++/5/bits/basic_string.h **** 
1879:/usr/include/c++/5/bits/basic_string.h ****       // String operations:
1880:/usr/include/c++/5/bits/basic_string.h ****       /**
1881:/usr/include/c++/5/bits/basic_string.h ****        *  @brief  Return const pointer to null-terminated contents.
1882:/usr/include/c++/5/bits/basic_string.h ****        *
1883:/usr/include/c++/5/bits/basic_string.h ****        *  This is a handle to internal data.  Do not modify or dire things may
1884:/usr/include/c++/5/bits/basic_string.h ****        *  happen.
1885:/usr/include/c++/5/bits/basic_string.h ****       */
1886:/usr/include/c++/5/bits/basic_string.h ****       const _CharT*
1887:/usr/include/c++/5/bits/basic_string.h ****       c_str() const _GLIBCXX_NOEXCEPT
1888:/usr/include/c++/5/bits/basic_string.h ****       { return _M_data(); }
1889:/usr/include/c++/5/bits/basic_string.h **** 
1890:/usr/include/c++/5/bits/basic_string.h ****       /**
GAS LISTING /tmp/ccSpSEFs.s 			page 119


1891:/usr/include/c++/5/bits/basic_string.h ****        *  @brief  Return const pointer to contents.
1892:/usr/include/c++/5/bits/basic_string.h ****        *
1893:/usr/include/c++/5/bits/basic_string.h ****        *  This is a handle to internal data.  Do not modify or dire things may
1894:/usr/include/c++/5/bits/basic_string.h ****        *  happen.
1895:/usr/include/c++/5/bits/basic_string.h ****       */
1896:/usr/include/c++/5/bits/basic_string.h ****       const _CharT*
1897:/usr/include/c++/5/bits/basic_string.h ****       data() const _GLIBCXX_NOEXCEPT
1898:/usr/include/c++/5/bits/basic_string.h ****       { return _M_data(); }
1899:/usr/include/c++/5/bits/basic_string.h **** 
1900:/usr/include/c++/5/bits/basic_string.h ****       /**
1901:/usr/include/c++/5/bits/basic_string.h ****        *  @brief  Return copy of allocator used to construct this string.
1902:/usr/include/c++/5/bits/basic_string.h ****       */
1903:/usr/include/c++/5/bits/basic_string.h ****       allocator_type
1904:/usr/include/c++/5/bits/basic_string.h ****       get_allocator() const _GLIBCXX_NOEXCEPT
1905:/usr/include/c++/5/bits/basic_string.h ****       { return _M_get_allocator(); }
1906:/usr/include/c++/5/bits/basic_string.h **** 
1907:/usr/include/c++/5/bits/basic_string.h ****       /**
1908:/usr/include/c++/5/bits/basic_string.h ****        *  @brief  Find position of a C substring.
1909:/usr/include/c++/5/bits/basic_string.h ****        *  @param __s  C string to locate.
1910:/usr/include/c++/5/bits/basic_string.h ****        *  @param __pos  Index of character to search from.
1911:/usr/include/c++/5/bits/basic_string.h ****        *  @param __n  Number of characters from @a s to search for.
1912:/usr/include/c++/5/bits/basic_string.h ****        *  @return  Index of start of first occurrence.
1913:/usr/include/c++/5/bits/basic_string.h ****        *
1914:/usr/include/c++/5/bits/basic_string.h ****        *  Starting from @a __pos, searches forward for the first @a
1915:/usr/include/c++/5/bits/basic_string.h ****        *  __n characters in @a __s within this string.  If found,
1916:/usr/include/c++/5/bits/basic_string.h ****        *  returns the index where it begins.  If not found, returns
1917:/usr/include/c++/5/bits/basic_string.h ****        *  npos.
1918:/usr/include/c++/5/bits/basic_string.h ****       */
1919:/usr/include/c++/5/bits/basic_string.h ****       size_type
1920:/usr/include/c++/5/bits/basic_string.h ****       find(const _CharT* __s, size_type __pos, size_type __n) const;
1921:/usr/include/c++/5/bits/basic_string.h **** 
1922:/usr/include/c++/5/bits/basic_string.h ****       /**
1923:/usr/include/c++/5/bits/basic_string.h ****        *  @brief  Find position of a string.
1924:/usr/include/c++/5/bits/basic_string.h ****        *  @param __str  String to locate.
1925:/usr/include/c++/5/bits/basic_string.h ****        *  @param __pos  Index of character to search from (default 0).
1926:/usr/include/c++/5/bits/basic_string.h ****        *  @return  Index of start of first occurrence.
1927:/usr/include/c++/5/bits/basic_string.h ****        *
1928:/usr/include/c++/5/bits/basic_string.h ****        *  Starting from @a __pos, searches forward for value of @a __str within
1929:/usr/include/c++/5/bits/basic_string.h ****        *  this string.  If found, returns the index where it begins.  If not
1930:/usr/include/c++/5/bits/basic_string.h ****        *  found, returns npos.
1931:/usr/include/c++/5/bits/basic_string.h ****       */
1932:/usr/include/c++/5/bits/basic_string.h ****       size_type
1933:/usr/include/c++/5/bits/basic_string.h ****       find(const basic_string& __str, size_type __pos = 0) const
1934:/usr/include/c++/5/bits/basic_string.h **** 	_GLIBCXX_NOEXCEPT
1935:/usr/include/c++/5/bits/basic_string.h ****       { return this->find(__str.data(), __pos, __str.size()); }
1936:/usr/include/c++/5/bits/basic_string.h **** 
1937:/usr/include/c++/5/bits/basic_string.h ****       /**
1938:/usr/include/c++/5/bits/basic_string.h ****        *  @brief  Find position of a C string.
1939:/usr/include/c++/5/bits/basic_string.h ****        *  @param __s  C string to locate.
1940:/usr/include/c++/5/bits/basic_string.h ****        *  @param __pos  Index of character to search from (default 0).
1941:/usr/include/c++/5/bits/basic_string.h ****        *  @return  Index of start of first occurrence.
1942:/usr/include/c++/5/bits/basic_string.h ****        *
1943:/usr/include/c++/5/bits/basic_string.h ****        *  Starting from @a __pos, searches forward for the value of @a
1944:/usr/include/c++/5/bits/basic_string.h ****        *  __s within this string.  If found, returns the index where
1945:/usr/include/c++/5/bits/basic_string.h ****        *  it begins.  If not found, returns npos.
1946:/usr/include/c++/5/bits/basic_string.h ****       */
1947:/usr/include/c++/5/bits/basic_string.h ****       size_type
GAS LISTING /tmp/ccSpSEFs.s 			page 120


1948:/usr/include/c++/5/bits/basic_string.h ****       find(const _CharT* __s, size_type __pos = 0) const
1949:/usr/include/c++/5/bits/basic_string.h ****       {
1950:/usr/include/c++/5/bits/basic_string.h **** 	__glibcxx_requires_string(__s);
1951:/usr/include/c++/5/bits/basic_string.h **** 	return this->find(__s, __pos, traits_type::length(__s));
1952:/usr/include/c++/5/bits/basic_string.h ****       }
1953:/usr/include/c++/5/bits/basic_string.h **** 
1954:/usr/include/c++/5/bits/basic_string.h ****       /**
1955:/usr/include/c++/5/bits/basic_string.h ****        *  @brief  Find position of a character.
1956:/usr/include/c++/5/bits/basic_string.h ****        *  @param __c  Character to locate.
1957:/usr/include/c++/5/bits/basic_string.h ****        *  @param __pos  Index of character to search from (default 0).
1958:/usr/include/c++/5/bits/basic_string.h ****        *  @return  Index of first occurrence.
1959:/usr/include/c++/5/bits/basic_string.h ****        *
1960:/usr/include/c++/5/bits/basic_string.h ****        *  Starting from @a __pos, searches forward for @a __c within
1961:/usr/include/c++/5/bits/basic_string.h ****        *  this string.  If found, returns the index where it was
1962:/usr/include/c++/5/bits/basic_string.h ****        *  found.  If not found, returns npos.
1963:/usr/include/c++/5/bits/basic_string.h ****       */
1964:/usr/include/c++/5/bits/basic_string.h ****       size_type
1965:/usr/include/c++/5/bits/basic_string.h ****       find(_CharT __c, size_type __pos = 0) const _GLIBCXX_NOEXCEPT;
1966:/usr/include/c++/5/bits/basic_string.h **** 
1967:/usr/include/c++/5/bits/basic_string.h ****       /**
1968:/usr/include/c++/5/bits/basic_string.h ****        *  @brief  Find last position of a string.
1969:/usr/include/c++/5/bits/basic_string.h ****        *  @param __str  String to locate.
1970:/usr/include/c++/5/bits/basic_string.h ****        *  @param __pos  Index of character to search back from (default end).
1971:/usr/include/c++/5/bits/basic_string.h ****        *  @return  Index of start of last occurrence.
1972:/usr/include/c++/5/bits/basic_string.h ****        *
1973:/usr/include/c++/5/bits/basic_string.h ****        *  Starting from @a __pos, searches backward for value of @a
1974:/usr/include/c++/5/bits/basic_string.h ****        *  __str within this string.  If found, returns the index where
1975:/usr/include/c++/5/bits/basic_string.h ****        *  it begins.  If not found, returns npos.
1976:/usr/include/c++/5/bits/basic_string.h ****       */
1977:/usr/include/c++/5/bits/basic_string.h ****       size_type
1978:/usr/include/c++/5/bits/basic_string.h ****       rfind(const basic_string& __str, size_type __pos = npos) const
1979:/usr/include/c++/5/bits/basic_string.h **** 	_GLIBCXX_NOEXCEPT
1980:/usr/include/c++/5/bits/basic_string.h ****       { return this->rfind(__str.data(), __pos, __str.size()); }
1981:/usr/include/c++/5/bits/basic_string.h **** 
1982:/usr/include/c++/5/bits/basic_string.h ****       /**
1983:/usr/include/c++/5/bits/basic_string.h ****        *  @brief  Find last position of a C substring.
1984:/usr/include/c++/5/bits/basic_string.h ****        *  @param __s  C string to locate.
1985:/usr/include/c++/5/bits/basic_string.h ****        *  @param __pos  Index of character to search back from.
1986:/usr/include/c++/5/bits/basic_string.h ****        *  @param __n  Number of characters from s to search for.
1987:/usr/include/c++/5/bits/basic_string.h ****        *  @return  Index of start of last occurrence.
1988:/usr/include/c++/5/bits/basic_string.h ****        *
1989:/usr/include/c++/5/bits/basic_string.h ****        *  Starting from @a __pos, searches backward for the first @a
1990:/usr/include/c++/5/bits/basic_string.h ****        *  __n characters in @a __s within this string.  If found,
1991:/usr/include/c++/5/bits/basic_string.h ****        *  returns the index where it begins.  If not found, returns
1992:/usr/include/c++/5/bits/basic_string.h ****        *  npos.
1993:/usr/include/c++/5/bits/basic_string.h ****       */
1994:/usr/include/c++/5/bits/basic_string.h ****       size_type
1995:/usr/include/c++/5/bits/basic_string.h ****       rfind(const _CharT* __s, size_type __pos, size_type __n) const;
1996:/usr/include/c++/5/bits/basic_string.h **** 
1997:/usr/include/c++/5/bits/basic_string.h ****       /**
1998:/usr/include/c++/5/bits/basic_string.h ****        *  @brief  Find last position of a C string.
1999:/usr/include/c++/5/bits/basic_string.h ****        *  @param __s  C string to locate.
2000:/usr/include/c++/5/bits/basic_string.h ****        *  @param __pos  Index of character to start search at (default end).
2001:/usr/include/c++/5/bits/basic_string.h ****        *  @return  Index of start of  last occurrence.
2002:/usr/include/c++/5/bits/basic_string.h ****        *
2003:/usr/include/c++/5/bits/basic_string.h ****        *  Starting from @a __pos, searches backward for the value of
2004:/usr/include/c++/5/bits/basic_string.h ****        *  @a __s within this string.  If found, returns the index
GAS LISTING /tmp/ccSpSEFs.s 			page 121


2005:/usr/include/c++/5/bits/basic_string.h ****        *  where it begins.  If not found, returns npos.
2006:/usr/include/c++/5/bits/basic_string.h ****       */
2007:/usr/include/c++/5/bits/basic_string.h ****       size_type
2008:/usr/include/c++/5/bits/basic_string.h ****       rfind(const _CharT* __s, size_type __pos = npos) const
2009:/usr/include/c++/5/bits/basic_string.h ****       {
2010:/usr/include/c++/5/bits/basic_string.h **** 	__glibcxx_requires_string(__s);
2011:/usr/include/c++/5/bits/basic_string.h **** 	return this->rfind(__s, __pos, traits_type::length(__s));
2012:/usr/include/c++/5/bits/basic_string.h ****       }
2013:/usr/include/c++/5/bits/basic_string.h **** 
2014:/usr/include/c++/5/bits/basic_string.h ****       /**
2015:/usr/include/c++/5/bits/basic_string.h ****        *  @brief  Find last position of a character.
2016:/usr/include/c++/5/bits/basic_string.h ****        *  @param __c  Character to locate.
2017:/usr/include/c++/5/bits/basic_string.h ****        *  @param __pos  Index of character to search back from (default end).
2018:/usr/include/c++/5/bits/basic_string.h ****        *  @return  Index of last occurrence.
2019:/usr/include/c++/5/bits/basic_string.h ****        *
2020:/usr/include/c++/5/bits/basic_string.h ****        *  Starting from @a __pos, searches backward for @a __c within
2021:/usr/include/c++/5/bits/basic_string.h ****        *  this string.  If found, returns the index where it was
2022:/usr/include/c++/5/bits/basic_string.h ****        *  found.  If not found, returns npos.
2023:/usr/include/c++/5/bits/basic_string.h ****       */
2024:/usr/include/c++/5/bits/basic_string.h ****       size_type
2025:/usr/include/c++/5/bits/basic_string.h ****       rfind(_CharT __c, size_type __pos = npos) const _GLIBCXX_NOEXCEPT;
2026:/usr/include/c++/5/bits/basic_string.h **** 
2027:/usr/include/c++/5/bits/basic_string.h ****       /**
2028:/usr/include/c++/5/bits/basic_string.h ****        *  @brief  Find position of a character of string.
2029:/usr/include/c++/5/bits/basic_string.h ****        *  @param __str  String containing characters to locate.
2030:/usr/include/c++/5/bits/basic_string.h ****        *  @param __pos  Index of character to search from (default 0).
2031:/usr/include/c++/5/bits/basic_string.h ****        *  @return  Index of first occurrence.
2032:/usr/include/c++/5/bits/basic_string.h ****        *
2033:/usr/include/c++/5/bits/basic_string.h ****        *  Starting from @a __pos, searches forward for one of the
2034:/usr/include/c++/5/bits/basic_string.h ****        *  characters of @a __str within this string.  If found,
2035:/usr/include/c++/5/bits/basic_string.h ****        *  returns the index where it was found.  If not found, returns
2036:/usr/include/c++/5/bits/basic_string.h ****        *  npos.
2037:/usr/include/c++/5/bits/basic_string.h ****       */
2038:/usr/include/c++/5/bits/basic_string.h ****       size_type
2039:/usr/include/c++/5/bits/basic_string.h ****       find_first_of(const basic_string& __str, size_type __pos = 0) const
2040:/usr/include/c++/5/bits/basic_string.h **** 	_GLIBCXX_NOEXCEPT
2041:/usr/include/c++/5/bits/basic_string.h ****       { return this->find_first_of(__str.data(), __pos, __str.size()); }
2042:/usr/include/c++/5/bits/basic_string.h **** 
2043:/usr/include/c++/5/bits/basic_string.h ****       /**
2044:/usr/include/c++/5/bits/basic_string.h ****        *  @brief  Find position of a character of C substring.
2045:/usr/include/c++/5/bits/basic_string.h ****        *  @param __s  String containing characters to locate.
2046:/usr/include/c++/5/bits/basic_string.h ****        *  @param __pos  Index of character to search from.
2047:/usr/include/c++/5/bits/basic_string.h ****        *  @param __n  Number of characters from s to search for.
2048:/usr/include/c++/5/bits/basic_string.h ****        *  @return  Index of first occurrence.
2049:/usr/include/c++/5/bits/basic_string.h ****        *
2050:/usr/include/c++/5/bits/basic_string.h ****        *  Starting from @a __pos, searches forward for one of the
2051:/usr/include/c++/5/bits/basic_string.h ****        *  first @a __n characters of @a __s within this string.  If
2052:/usr/include/c++/5/bits/basic_string.h ****        *  found, returns the index where it was found.  If not found,
2053:/usr/include/c++/5/bits/basic_string.h ****        *  returns npos.
2054:/usr/include/c++/5/bits/basic_string.h ****       */
2055:/usr/include/c++/5/bits/basic_string.h ****       size_type
2056:/usr/include/c++/5/bits/basic_string.h ****       find_first_of(const _CharT* __s, size_type __pos, size_type __n) const;
2057:/usr/include/c++/5/bits/basic_string.h **** 
2058:/usr/include/c++/5/bits/basic_string.h ****       /**
2059:/usr/include/c++/5/bits/basic_string.h ****        *  @brief  Find position of a character of C string.
2060:/usr/include/c++/5/bits/basic_string.h ****        *  @param __s  String containing characters to locate.
2061:/usr/include/c++/5/bits/basic_string.h ****        *  @param __pos  Index of character to search from (default 0).
GAS LISTING /tmp/ccSpSEFs.s 			page 122


2062:/usr/include/c++/5/bits/basic_string.h ****        *  @return  Index of first occurrence.
2063:/usr/include/c++/5/bits/basic_string.h ****        *
2064:/usr/include/c++/5/bits/basic_string.h ****        *  Starting from @a __pos, searches forward for one of the
2065:/usr/include/c++/5/bits/basic_string.h ****        *  characters of @a __s within this string.  If found, returns
2066:/usr/include/c++/5/bits/basic_string.h ****        *  the index where it was found.  If not found, returns npos.
2067:/usr/include/c++/5/bits/basic_string.h ****       */
2068:/usr/include/c++/5/bits/basic_string.h ****       size_type
2069:/usr/include/c++/5/bits/basic_string.h ****       find_first_of(const _CharT* __s, size_type __pos = 0) const
2070:/usr/include/c++/5/bits/basic_string.h ****       {
2071:/usr/include/c++/5/bits/basic_string.h **** 	__glibcxx_requires_string(__s);
2072:/usr/include/c++/5/bits/basic_string.h **** 	return this->find_first_of(__s, __pos, traits_type::length(__s));
2073:/usr/include/c++/5/bits/basic_string.h ****       }
2074:/usr/include/c++/5/bits/basic_string.h **** 
2075:/usr/include/c++/5/bits/basic_string.h ****       /**
2076:/usr/include/c++/5/bits/basic_string.h ****        *  @brief  Find position of a character.
2077:/usr/include/c++/5/bits/basic_string.h ****        *  @param __c  Character to locate.
2078:/usr/include/c++/5/bits/basic_string.h ****        *  @param __pos  Index of character to search from (default 0).
2079:/usr/include/c++/5/bits/basic_string.h ****        *  @return  Index of first occurrence.
2080:/usr/include/c++/5/bits/basic_string.h ****        *
2081:/usr/include/c++/5/bits/basic_string.h ****        *  Starting from @a __pos, searches forward for the character
2082:/usr/include/c++/5/bits/basic_string.h ****        *  @a __c within this string.  If found, returns the index
2083:/usr/include/c++/5/bits/basic_string.h ****        *  where it was found.  If not found, returns npos.
2084:/usr/include/c++/5/bits/basic_string.h ****        *
2085:/usr/include/c++/5/bits/basic_string.h ****        *  Note: equivalent to find(__c, __pos).
2086:/usr/include/c++/5/bits/basic_string.h ****       */
2087:/usr/include/c++/5/bits/basic_string.h ****       size_type
2088:/usr/include/c++/5/bits/basic_string.h ****       find_first_of(_CharT __c, size_type __pos = 0) const _GLIBCXX_NOEXCEPT
2089:/usr/include/c++/5/bits/basic_string.h ****       { return this->find(__c, __pos); }
2090:/usr/include/c++/5/bits/basic_string.h **** 
2091:/usr/include/c++/5/bits/basic_string.h ****       /**
2092:/usr/include/c++/5/bits/basic_string.h ****        *  @brief  Find last position of a character of string.
2093:/usr/include/c++/5/bits/basic_string.h ****        *  @param __str  String containing characters to locate.
2094:/usr/include/c++/5/bits/basic_string.h ****        *  @param __pos  Index of character to search back from (default end).
2095:/usr/include/c++/5/bits/basic_string.h ****        *  @return  Index of last occurrence.
2096:/usr/include/c++/5/bits/basic_string.h ****        *
2097:/usr/include/c++/5/bits/basic_string.h ****        *  Starting from @a __pos, searches backward for one of the
2098:/usr/include/c++/5/bits/basic_string.h ****        *  characters of @a __str within this string.  If found,
2099:/usr/include/c++/5/bits/basic_string.h ****        *  returns the index where it was found.  If not found, returns
2100:/usr/include/c++/5/bits/basic_string.h ****        *  npos.
2101:/usr/include/c++/5/bits/basic_string.h ****       */
2102:/usr/include/c++/5/bits/basic_string.h ****       size_type
2103:/usr/include/c++/5/bits/basic_string.h ****       find_last_of(const basic_string& __str, size_type __pos = npos) const
2104:/usr/include/c++/5/bits/basic_string.h **** 	_GLIBCXX_NOEXCEPT
2105:/usr/include/c++/5/bits/basic_string.h ****       { return this->find_last_of(__str.data(), __pos, __str.size()); }
2106:/usr/include/c++/5/bits/basic_string.h **** 
2107:/usr/include/c++/5/bits/basic_string.h ****       /**
2108:/usr/include/c++/5/bits/basic_string.h ****        *  @brief  Find last position of a character of C substring.
2109:/usr/include/c++/5/bits/basic_string.h ****        *  @param __s  C string containing characters to locate.
2110:/usr/include/c++/5/bits/basic_string.h ****        *  @param __pos  Index of character to search back from.
2111:/usr/include/c++/5/bits/basic_string.h ****        *  @param __n  Number of characters from s to search for.
2112:/usr/include/c++/5/bits/basic_string.h ****        *  @return  Index of last occurrence.
2113:/usr/include/c++/5/bits/basic_string.h ****        *
2114:/usr/include/c++/5/bits/basic_string.h ****        *  Starting from @a __pos, searches backward for one of the
2115:/usr/include/c++/5/bits/basic_string.h ****        *  first @a __n characters of @a __s within this string.  If
2116:/usr/include/c++/5/bits/basic_string.h ****        *  found, returns the index where it was found.  If not found,
2117:/usr/include/c++/5/bits/basic_string.h ****        *  returns npos.
2118:/usr/include/c++/5/bits/basic_string.h ****       */
GAS LISTING /tmp/ccSpSEFs.s 			page 123


2119:/usr/include/c++/5/bits/basic_string.h ****       size_type
2120:/usr/include/c++/5/bits/basic_string.h ****       find_last_of(const _CharT* __s, size_type __pos, size_type __n) const;
2121:/usr/include/c++/5/bits/basic_string.h **** 
2122:/usr/include/c++/5/bits/basic_string.h ****       /**
2123:/usr/include/c++/5/bits/basic_string.h ****        *  @brief  Find last position of a character of C string.
2124:/usr/include/c++/5/bits/basic_string.h ****        *  @param __s  C string containing characters to locate.
2125:/usr/include/c++/5/bits/basic_string.h ****        *  @param __pos  Index of character to search back from (default end).
2126:/usr/include/c++/5/bits/basic_string.h ****        *  @return  Index of last occurrence.
2127:/usr/include/c++/5/bits/basic_string.h ****        *
2128:/usr/include/c++/5/bits/basic_string.h ****        *  Starting from @a __pos, searches backward for one of the
2129:/usr/include/c++/5/bits/basic_string.h ****        *  characters of @a __s within this string.  If found, returns
2130:/usr/include/c++/5/bits/basic_string.h ****        *  the index where it was found.  If not found, returns npos.
2131:/usr/include/c++/5/bits/basic_string.h ****       */
2132:/usr/include/c++/5/bits/basic_string.h ****       size_type
2133:/usr/include/c++/5/bits/basic_string.h ****       find_last_of(const _CharT* __s, size_type __pos = npos) const
2134:/usr/include/c++/5/bits/basic_string.h ****       {
2135:/usr/include/c++/5/bits/basic_string.h **** 	__glibcxx_requires_string(__s);
2136:/usr/include/c++/5/bits/basic_string.h **** 	return this->find_last_of(__s, __pos, traits_type::length(__s));
2137:/usr/include/c++/5/bits/basic_string.h ****       }
2138:/usr/include/c++/5/bits/basic_string.h **** 
2139:/usr/include/c++/5/bits/basic_string.h ****       /**
2140:/usr/include/c++/5/bits/basic_string.h ****        *  @brief  Find last position of a character.
2141:/usr/include/c++/5/bits/basic_string.h ****        *  @param __c  Character to locate.
2142:/usr/include/c++/5/bits/basic_string.h ****        *  @param __pos  Index of character to search back from (default end).
2143:/usr/include/c++/5/bits/basic_string.h ****        *  @return  Index of last occurrence.
2144:/usr/include/c++/5/bits/basic_string.h ****        *
2145:/usr/include/c++/5/bits/basic_string.h ****        *  Starting from @a __pos, searches backward for @a __c within
2146:/usr/include/c++/5/bits/basic_string.h ****        *  this string.  If found, returns the index where it was
2147:/usr/include/c++/5/bits/basic_string.h ****        *  found.  If not found, returns npos.
2148:/usr/include/c++/5/bits/basic_string.h ****        *
2149:/usr/include/c++/5/bits/basic_string.h ****        *  Note: equivalent to rfind(__c, __pos).
2150:/usr/include/c++/5/bits/basic_string.h ****       */
2151:/usr/include/c++/5/bits/basic_string.h ****       size_type
2152:/usr/include/c++/5/bits/basic_string.h ****       find_last_of(_CharT __c, size_type __pos = npos) const _GLIBCXX_NOEXCEPT
2153:/usr/include/c++/5/bits/basic_string.h ****       { return this->rfind(__c, __pos); }
2154:/usr/include/c++/5/bits/basic_string.h **** 
2155:/usr/include/c++/5/bits/basic_string.h ****       /**
2156:/usr/include/c++/5/bits/basic_string.h ****        *  @brief  Find position of a character not in string.
2157:/usr/include/c++/5/bits/basic_string.h ****        *  @param __str  String containing characters to avoid.
2158:/usr/include/c++/5/bits/basic_string.h ****        *  @param __pos  Index of character to search from (default 0).
2159:/usr/include/c++/5/bits/basic_string.h ****        *  @return  Index of first occurrence.
2160:/usr/include/c++/5/bits/basic_string.h ****        *
2161:/usr/include/c++/5/bits/basic_string.h ****        *  Starting from @a __pos, searches forward for a character not contained
2162:/usr/include/c++/5/bits/basic_string.h ****        *  in @a __str within this string.  If found, returns the index where it
2163:/usr/include/c++/5/bits/basic_string.h ****        *  was found.  If not found, returns npos.
2164:/usr/include/c++/5/bits/basic_string.h ****       */
2165:/usr/include/c++/5/bits/basic_string.h ****       size_type
2166:/usr/include/c++/5/bits/basic_string.h ****       find_first_not_of(const basic_string& __str, size_type __pos = 0) const
2167:/usr/include/c++/5/bits/basic_string.h **** 	_GLIBCXX_NOEXCEPT
2168:/usr/include/c++/5/bits/basic_string.h ****       { return this->find_first_not_of(__str.data(), __pos, __str.size()); }
2169:/usr/include/c++/5/bits/basic_string.h **** 
2170:/usr/include/c++/5/bits/basic_string.h ****       /**
2171:/usr/include/c++/5/bits/basic_string.h ****        *  @brief  Find position of a character not in C substring.
2172:/usr/include/c++/5/bits/basic_string.h ****        *  @param __s  C string containing characters to avoid.
2173:/usr/include/c++/5/bits/basic_string.h ****        *  @param __pos  Index of character to search from.
2174:/usr/include/c++/5/bits/basic_string.h ****        *  @param __n  Number of characters from __s to consider.
2175:/usr/include/c++/5/bits/basic_string.h ****        *  @return  Index of first occurrence.
GAS LISTING /tmp/ccSpSEFs.s 			page 124


2176:/usr/include/c++/5/bits/basic_string.h ****        *
2177:/usr/include/c++/5/bits/basic_string.h ****        *  Starting from @a __pos, searches forward for a character not
2178:/usr/include/c++/5/bits/basic_string.h ****        *  contained in the first @a __n characters of @a __s within
2179:/usr/include/c++/5/bits/basic_string.h ****        *  this string.  If found, returns the index where it was
2180:/usr/include/c++/5/bits/basic_string.h ****        *  found.  If not found, returns npos.
2181:/usr/include/c++/5/bits/basic_string.h ****       */
2182:/usr/include/c++/5/bits/basic_string.h ****       size_type
2183:/usr/include/c++/5/bits/basic_string.h ****       find_first_not_of(const _CharT* __s, size_type __pos,
2184:/usr/include/c++/5/bits/basic_string.h **** 			size_type __n) const;
2185:/usr/include/c++/5/bits/basic_string.h **** 
2186:/usr/include/c++/5/bits/basic_string.h ****       /**
2187:/usr/include/c++/5/bits/basic_string.h ****        *  @brief  Find position of a character not in C string.
2188:/usr/include/c++/5/bits/basic_string.h ****        *  @param __s  C string containing characters to avoid.
2189:/usr/include/c++/5/bits/basic_string.h ****        *  @param __pos  Index of character to search from (default 0).
2190:/usr/include/c++/5/bits/basic_string.h ****        *  @return  Index of first occurrence.
2191:/usr/include/c++/5/bits/basic_string.h ****        *
2192:/usr/include/c++/5/bits/basic_string.h ****        *  Starting from @a __pos, searches forward for a character not
2193:/usr/include/c++/5/bits/basic_string.h ****        *  contained in @a __s within this string.  If found, returns
2194:/usr/include/c++/5/bits/basic_string.h ****        *  the index where it was found.  If not found, returns npos.
2195:/usr/include/c++/5/bits/basic_string.h ****       */
2196:/usr/include/c++/5/bits/basic_string.h ****       size_type
2197:/usr/include/c++/5/bits/basic_string.h ****       find_first_not_of(const _CharT* __s, size_type __pos = 0) const
2198:/usr/include/c++/5/bits/basic_string.h ****       {
2199:/usr/include/c++/5/bits/basic_string.h **** 	__glibcxx_requires_string(__s);
2200:/usr/include/c++/5/bits/basic_string.h **** 	return this->find_first_not_of(__s, __pos, traits_type::length(__s));
2201:/usr/include/c++/5/bits/basic_string.h ****       }
2202:/usr/include/c++/5/bits/basic_string.h **** 
2203:/usr/include/c++/5/bits/basic_string.h ****       /**
2204:/usr/include/c++/5/bits/basic_string.h ****        *  @brief  Find position of a different character.
2205:/usr/include/c++/5/bits/basic_string.h ****        *  @param __c  Character to avoid.
2206:/usr/include/c++/5/bits/basic_string.h ****        *  @param __pos  Index of character to search from (default 0).
2207:/usr/include/c++/5/bits/basic_string.h ****        *  @return  Index of first occurrence.
2208:/usr/include/c++/5/bits/basic_string.h ****        *
2209:/usr/include/c++/5/bits/basic_string.h ****        *  Starting from @a __pos, searches forward for a character
2210:/usr/include/c++/5/bits/basic_string.h ****        *  other than @a __c within this string.  If found, returns the
2211:/usr/include/c++/5/bits/basic_string.h ****        *  index where it was found.  If not found, returns npos.
2212:/usr/include/c++/5/bits/basic_string.h ****       */
2213:/usr/include/c++/5/bits/basic_string.h ****       size_type
2214:/usr/include/c++/5/bits/basic_string.h ****       find_first_not_of(_CharT __c, size_type __pos = 0) const
2215:/usr/include/c++/5/bits/basic_string.h **** 	_GLIBCXX_NOEXCEPT;
2216:/usr/include/c++/5/bits/basic_string.h **** 
2217:/usr/include/c++/5/bits/basic_string.h ****       /**
2218:/usr/include/c++/5/bits/basic_string.h ****        *  @brief  Find last position of a character not in string.
2219:/usr/include/c++/5/bits/basic_string.h ****        *  @param __str  String containing characters to avoid.
2220:/usr/include/c++/5/bits/basic_string.h ****        *  @param __pos  Index of character to search back from (default end).
2221:/usr/include/c++/5/bits/basic_string.h ****        *  @return  Index of last occurrence.
2222:/usr/include/c++/5/bits/basic_string.h ****        *
2223:/usr/include/c++/5/bits/basic_string.h ****        *  Starting from @a __pos, searches backward for a character
2224:/usr/include/c++/5/bits/basic_string.h ****        *  not contained in @a __str within this string.  If found,
2225:/usr/include/c++/5/bits/basic_string.h ****        *  returns the index where it was found.  If not found, returns
2226:/usr/include/c++/5/bits/basic_string.h ****        *  npos.
2227:/usr/include/c++/5/bits/basic_string.h ****       */
2228:/usr/include/c++/5/bits/basic_string.h ****       size_type
2229:/usr/include/c++/5/bits/basic_string.h ****       find_last_not_of(const basic_string& __str, size_type __pos = npos) const
2230:/usr/include/c++/5/bits/basic_string.h **** 	_GLIBCXX_NOEXCEPT
2231:/usr/include/c++/5/bits/basic_string.h ****       { return this->find_last_not_of(__str.data(), __pos, __str.size()); }
2232:/usr/include/c++/5/bits/basic_string.h **** 
GAS LISTING /tmp/ccSpSEFs.s 			page 125


2233:/usr/include/c++/5/bits/basic_string.h ****       /**
2234:/usr/include/c++/5/bits/basic_string.h ****        *  @brief  Find last position of a character not in C substring.
2235:/usr/include/c++/5/bits/basic_string.h ****        *  @param __s  C string containing characters to avoid.
2236:/usr/include/c++/5/bits/basic_string.h ****        *  @param __pos  Index of character to search back from.
2237:/usr/include/c++/5/bits/basic_string.h ****        *  @param __n  Number of characters from s to consider.
2238:/usr/include/c++/5/bits/basic_string.h ****        *  @return  Index of last occurrence.
2239:/usr/include/c++/5/bits/basic_string.h ****        *
2240:/usr/include/c++/5/bits/basic_string.h ****        *  Starting from @a __pos, searches backward for a character not
2241:/usr/include/c++/5/bits/basic_string.h ****        *  contained in the first @a __n characters of @a __s within this string.
2242:/usr/include/c++/5/bits/basic_string.h ****        *  If found, returns the index where it was found.  If not found,
2243:/usr/include/c++/5/bits/basic_string.h ****        *  returns npos.
2244:/usr/include/c++/5/bits/basic_string.h ****       */
2245:/usr/include/c++/5/bits/basic_string.h ****       size_type
2246:/usr/include/c++/5/bits/basic_string.h ****       find_last_not_of(const _CharT* __s, size_type __pos,
2247:/usr/include/c++/5/bits/basic_string.h **** 		       size_type __n) const;
2248:/usr/include/c++/5/bits/basic_string.h ****       /**
2249:/usr/include/c++/5/bits/basic_string.h ****        *  @brief  Find last position of a character not in C string.
2250:/usr/include/c++/5/bits/basic_string.h ****        *  @param __s  C string containing characters to avoid.
2251:/usr/include/c++/5/bits/basic_string.h ****        *  @param __pos  Index of character to search back from (default end).
2252:/usr/include/c++/5/bits/basic_string.h ****        *  @return  Index of last occurrence.
2253:/usr/include/c++/5/bits/basic_string.h ****        *
2254:/usr/include/c++/5/bits/basic_string.h ****        *  Starting from @a __pos, searches backward for a character
2255:/usr/include/c++/5/bits/basic_string.h ****        *  not contained in @a __s within this string.  If found,
2256:/usr/include/c++/5/bits/basic_string.h ****        *  returns the index where it was found.  If not found, returns
2257:/usr/include/c++/5/bits/basic_string.h ****        *  npos.
2258:/usr/include/c++/5/bits/basic_string.h ****       */
2259:/usr/include/c++/5/bits/basic_string.h ****       size_type
2260:/usr/include/c++/5/bits/basic_string.h ****       find_last_not_of(const _CharT* __s, size_type __pos = npos) const
2261:/usr/include/c++/5/bits/basic_string.h ****       {
2262:/usr/include/c++/5/bits/basic_string.h **** 	__glibcxx_requires_string(__s);
2263:/usr/include/c++/5/bits/basic_string.h **** 	return this->find_last_not_of(__s, __pos, traits_type::length(__s));
2264:/usr/include/c++/5/bits/basic_string.h ****       }
2265:/usr/include/c++/5/bits/basic_string.h **** 
2266:/usr/include/c++/5/bits/basic_string.h ****       /**
2267:/usr/include/c++/5/bits/basic_string.h ****        *  @brief  Find last position of a different character.
2268:/usr/include/c++/5/bits/basic_string.h ****        *  @param __c  Character to avoid.
2269:/usr/include/c++/5/bits/basic_string.h ****        *  @param __pos  Index of character to search back from (default end).
2270:/usr/include/c++/5/bits/basic_string.h ****        *  @return  Index of last occurrence.
2271:/usr/include/c++/5/bits/basic_string.h ****        *
2272:/usr/include/c++/5/bits/basic_string.h ****        *  Starting from @a __pos, searches backward for a character other than
2273:/usr/include/c++/5/bits/basic_string.h ****        *  @a __c within this string.  If found, returns the index where it was
2274:/usr/include/c++/5/bits/basic_string.h ****        *  found.  If not found, returns npos.
2275:/usr/include/c++/5/bits/basic_string.h ****       */
2276:/usr/include/c++/5/bits/basic_string.h ****       size_type
2277:/usr/include/c++/5/bits/basic_string.h ****       find_last_not_of(_CharT __c, size_type __pos = npos) const
2278:/usr/include/c++/5/bits/basic_string.h **** 	_GLIBCXX_NOEXCEPT;
2279:/usr/include/c++/5/bits/basic_string.h **** 
2280:/usr/include/c++/5/bits/basic_string.h ****       /**
2281:/usr/include/c++/5/bits/basic_string.h ****        *  @brief  Get a substring.
2282:/usr/include/c++/5/bits/basic_string.h ****        *  @param __pos  Index of first character (default 0).
2283:/usr/include/c++/5/bits/basic_string.h ****        *  @param __n  Number of characters in substring (default remainder).
2284:/usr/include/c++/5/bits/basic_string.h ****        *  @return  The new string.
2285:/usr/include/c++/5/bits/basic_string.h ****        *  @throw  std::out_of_range  If __pos > size().
2286:/usr/include/c++/5/bits/basic_string.h ****        *
2287:/usr/include/c++/5/bits/basic_string.h ****        *  Construct and return a new string using the @a __n
2288:/usr/include/c++/5/bits/basic_string.h ****        *  characters starting at @a __pos.  If the string is too
2289:/usr/include/c++/5/bits/basic_string.h ****        *  short, use the remainder of the characters.  If @a __pos is
GAS LISTING /tmp/ccSpSEFs.s 			page 126


2290:/usr/include/c++/5/bits/basic_string.h ****        *  beyond the end of the string, out_of_range is thrown.
2291:/usr/include/c++/5/bits/basic_string.h ****       */
2292:/usr/include/c++/5/bits/basic_string.h ****       basic_string
2293:/usr/include/c++/5/bits/basic_string.h ****       substr(size_type __pos = 0, size_type __n = npos) const
2294:/usr/include/c++/5/bits/basic_string.h ****       { return basic_string(*this,
2295:/usr/include/c++/5/bits/basic_string.h **** 			    _M_check(__pos, "basic_string::substr"), __n); }
2296:/usr/include/c++/5/bits/basic_string.h **** 
2297:/usr/include/c++/5/bits/basic_string.h ****       /**
2298:/usr/include/c++/5/bits/basic_string.h ****        *  @brief  Compare to a string.
2299:/usr/include/c++/5/bits/basic_string.h ****        *  @param __str  String to compare against.
2300:/usr/include/c++/5/bits/basic_string.h ****        *  @return  Integer < 0, 0, or > 0.
2301:/usr/include/c++/5/bits/basic_string.h ****        *
2302:/usr/include/c++/5/bits/basic_string.h ****        *  Returns an integer < 0 if this string is ordered before @a
2303:/usr/include/c++/5/bits/basic_string.h ****        *  __str, 0 if their values are equivalent, or > 0 if this
2304:/usr/include/c++/5/bits/basic_string.h ****        *  string is ordered after @a __str.  Determines the effective
2305:/usr/include/c++/5/bits/basic_string.h ****        *  length rlen of the strings to compare as the smallest of
2306:/usr/include/c++/5/bits/basic_string.h ****        *  size() and str.size().  The function then compares the two
2307:/usr/include/c++/5/bits/basic_string.h ****        *  strings by calling traits::compare(data(), str.data(),rlen).
2308:/usr/include/c++/5/bits/basic_string.h ****        *  If the result of the comparison is nonzero returns it,
2309:/usr/include/c++/5/bits/basic_string.h ****        *  otherwise the shorter one is ordered first.
2310:/usr/include/c++/5/bits/basic_string.h ****       */
2311:/usr/include/c++/5/bits/basic_string.h ****       int
2312:/usr/include/c++/5/bits/basic_string.h ****       compare(const basic_string& __str) const
2313:/usr/include/c++/5/bits/basic_string.h ****       {
2314:/usr/include/c++/5/bits/basic_string.h **** 	const size_type __size = this->size();
2315:/usr/include/c++/5/bits/basic_string.h **** 	const size_type __osize = __str.size();
2316:/usr/include/c++/5/bits/basic_string.h **** 	const size_type __len = std::min(__size, __osize);
2317:/usr/include/c++/5/bits/basic_string.h **** 
2318:/usr/include/c++/5/bits/basic_string.h **** 	int __r = traits_type::compare(_M_data(), __str.data(), __len);
2319:/usr/include/c++/5/bits/basic_string.h **** 	if (!__r)
2320:/usr/include/c++/5/bits/basic_string.h **** 	  __r = _S_compare(__size, __osize);
2321:/usr/include/c++/5/bits/basic_string.h **** 	return __r;
2322:/usr/include/c++/5/bits/basic_string.h ****       }
2323:/usr/include/c++/5/bits/basic_string.h **** 
2324:/usr/include/c++/5/bits/basic_string.h ****       /**
2325:/usr/include/c++/5/bits/basic_string.h ****        *  @brief  Compare substring to a string.
2326:/usr/include/c++/5/bits/basic_string.h ****        *  @param __pos  Index of first character of substring.
2327:/usr/include/c++/5/bits/basic_string.h ****        *  @param __n  Number of characters in substring.
2328:/usr/include/c++/5/bits/basic_string.h ****        *  @param __str  String to compare against.
2329:/usr/include/c++/5/bits/basic_string.h ****        *  @return  Integer < 0, 0, or > 0.
2330:/usr/include/c++/5/bits/basic_string.h ****        *
2331:/usr/include/c++/5/bits/basic_string.h ****        *  Form the substring of this string from the @a __n characters
2332:/usr/include/c++/5/bits/basic_string.h ****        *  starting at @a __pos.  Returns an integer < 0 if the
2333:/usr/include/c++/5/bits/basic_string.h ****        *  substring is ordered before @a __str, 0 if their values are
2334:/usr/include/c++/5/bits/basic_string.h ****        *  equivalent, or > 0 if the substring is ordered after @a
2335:/usr/include/c++/5/bits/basic_string.h ****        *  __str.  Determines the effective length rlen of the strings
2336:/usr/include/c++/5/bits/basic_string.h ****        *  to compare as the smallest of the length of the substring
2337:/usr/include/c++/5/bits/basic_string.h ****        *  and @a __str.size().  The function then compares the two
2338:/usr/include/c++/5/bits/basic_string.h ****        *  strings by calling
2339:/usr/include/c++/5/bits/basic_string.h ****        *  traits::compare(substring.data(),str.data(),rlen).  If the
2340:/usr/include/c++/5/bits/basic_string.h ****        *  result of the comparison is nonzero returns it, otherwise
2341:/usr/include/c++/5/bits/basic_string.h ****        *  the shorter one is ordered first.
2342:/usr/include/c++/5/bits/basic_string.h ****       */
2343:/usr/include/c++/5/bits/basic_string.h ****       int
2344:/usr/include/c++/5/bits/basic_string.h ****       compare(size_type __pos, size_type __n, const basic_string& __str) const;
2345:/usr/include/c++/5/bits/basic_string.h **** 
2346:/usr/include/c++/5/bits/basic_string.h ****       /**
GAS LISTING /tmp/ccSpSEFs.s 			page 127


2347:/usr/include/c++/5/bits/basic_string.h ****        *  @brief  Compare substring to a substring.
2348:/usr/include/c++/5/bits/basic_string.h ****        *  @param __pos1  Index of first character of substring.
2349:/usr/include/c++/5/bits/basic_string.h ****        *  @param __n1  Number of characters in substring.
2350:/usr/include/c++/5/bits/basic_string.h ****        *  @param __str  String to compare against.
2351:/usr/include/c++/5/bits/basic_string.h ****        *  @param __pos2  Index of first character of substring of str.
2352:/usr/include/c++/5/bits/basic_string.h ****        *  @param __n2  Number of characters in substring of str.
2353:/usr/include/c++/5/bits/basic_string.h ****        *  @return  Integer < 0, 0, or > 0.
2354:/usr/include/c++/5/bits/basic_string.h ****        *
2355:/usr/include/c++/5/bits/basic_string.h ****        *  Form the substring of this string from the @a __n1
2356:/usr/include/c++/5/bits/basic_string.h ****        *  characters starting at @a __pos1.  Form the substring of @a
2357:/usr/include/c++/5/bits/basic_string.h ****        *  __str from the @a __n2 characters starting at @a __pos2.
2358:/usr/include/c++/5/bits/basic_string.h ****        *  Returns an integer < 0 if this substring is ordered before
2359:/usr/include/c++/5/bits/basic_string.h ****        *  the substring of @a __str, 0 if their values are equivalent,
2360:/usr/include/c++/5/bits/basic_string.h ****        *  or > 0 if this substring is ordered after the substring of
2361:/usr/include/c++/5/bits/basic_string.h ****        *  @a __str.  Determines the effective length rlen of the
2362:/usr/include/c++/5/bits/basic_string.h ****        *  strings to compare as the smallest of the lengths of the
2363:/usr/include/c++/5/bits/basic_string.h ****        *  substrings.  The function then compares the two strings by
2364:/usr/include/c++/5/bits/basic_string.h ****        *  calling
2365:/usr/include/c++/5/bits/basic_string.h ****        *  traits::compare(substring.data(),str.substr(pos2,n2).data(),rlen).
2366:/usr/include/c++/5/bits/basic_string.h ****        *  If the result of the comparison is nonzero returns it,
2367:/usr/include/c++/5/bits/basic_string.h ****        *  otherwise the shorter one is ordered first.
2368:/usr/include/c++/5/bits/basic_string.h ****       */
2369:/usr/include/c++/5/bits/basic_string.h ****       int
2370:/usr/include/c++/5/bits/basic_string.h ****       compare(size_type __pos1, size_type __n1, const basic_string& __str,
2371:/usr/include/c++/5/bits/basic_string.h **** 	      size_type __pos2, size_type __n2) const;
2372:/usr/include/c++/5/bits/basic_string.h **** 
2373:/usr/include/c++/5/bits/basic_string.h ****       /**
2374:/usr/include/c++/5/bits/basic_string.h ****        *  @brief  Compare to a C string.
2375:/usr/include/c++/5/bits/basic_string.h ****        *  @param __s  C string to compare against.
2376:/usr/include/c++/5/bits/basic_string.h ****        *  @return  Integer < 0, 0, or > 0.
2377:/usr/include/c++/5/bits/basic_string.h ****        *
2378:/usr/include/c++/5/bits/basic_string.h ****        *  Returns an integer < 0 if this string is ordered before @a __s, 0 if
2379:/usr/include/c++/5/bits/basic_string.h ****        *  their values are equivalent, or > 0 if this string is ordered after
2380:/usr/include/c++/5/bits/basic_string.h ****        *  @a __s.  Determines the effective length rlen of the strings to
2381:/usr/include/c++/5/bits/basic_string.h ****        *  compare as the smallest of size() and the length of a string
2382:/usr/include/c++/5/bits/basic_string.h ****        *  constructed from @a __s.  The function then compares the two strings
2383:/usr/include/c++/5/bits/basic_string.h ****        *  by calling traits::compare(data(),s,rlen).  If the result of the
2384:/usr/include/c++/5/bits/basic_string.h ****        *  comparison is nonzero returns it, otherwise the shorter one is
2385:/usr/include/c++/5/bits/basic_string.h ****        *  ordered first.
2386:/usr/include/c++/5/bits/basic_string.h ****       */
2387:/usr/include/c++/5/bits/basic_string.h ****       int
2388:/usr/include/c++/5/bits/basic_string.h ****       compare(const _CharT* __s) const;
2389:/usr/include/c++/5/bits/basic_string.h **** 
2390:/usr/include/c++/5/bits/basic_string.h ****       // _GLIBCXX_RESOLVE_LIB_DEFECTS
2391:/usr/include/c++/5/bits/basic_string.h ****       // 5 String::compare specification questionable
2392:/usr/include/c++/5/bits/basic_string.h ****       /**
2393:/usr/include/c++/5/bits/basic_string.h ****        *  @brief  Compare substring to a C string.
2394:/usr/include/c++/5/bits/basic_string.h ****        *  @param __pos  Index of first character of substring.
2395:/usr/include/c++/5/bits/basic_string.h ****        *  @param __n1  Number of characters in substring.
2396:/usr/include/c++/5/bits/basic_string.h ****        *  @param __s  C string to compare against.
2397:/usr/include/c++/5/bits/basic_string.h ****        *  @return  Integer < 0, 0, or > 0.
2398:/usr/include/c++/5/bits/basic_string.h ****        *
2399:/usr/include/c++/5/bits/basic_string.h ****        *  Form the substring of this string from the @a __n1
2400:/usr/include/c++/5/bits/basic_string.h ****        *  characters starting at @a pos.  Returns an integer < 0 if
2401:/usr/include/c++/5/bits/basic_string.h ****        *  the substring is ordered before @a __s, 0 if their values
2402:/usr/include/c++/5/bits/basic_string.h ****        *  are equivalent, or > 0 if the substring is ordered after @a
2403:/usr/include/c++/5/bits/basic_string.h ****        *  __s.  Determines the effective length rlen of the strings to
GAS LISTING /tmp/ccSpSEFs.s 			page 128


2404:/usr/include/c++/5/bits/basic_string.h ****        *  compare as the smallest of the length of the substring and
2405:/usr/include/c++/5/bits/basic_string.h ****        *  the length of a string constructed from @a __s.  The
2406:/usr/include/c++/5/bits/basic_string.h ****        *  function then compares the two string by calling
2407:/usr/include/c++/5/bits/basic_string.h ****        *  traits::compare(substring.data(),__s,rlen).  If the result of
2408:/usr/include/c++/5/bits/basic_string.h ****        *  the comparison is nonzero returns it, otherwise the shorter
2409:/usr/include/c++/5/bits/basic_string.h ****        *  one is ordered first.
2410:/usr/include/c++/5/bits/basic_string.h ****       */
2411:/usr/include/c++/5/bits/basic_string.h ****       int
2412:/usr/include/c++/5/bits/basic_string.h ****       compare(size_type __pos, size_type __n1, const _CharT* __s) const;
2413:/usr/include/c++/5/bits/basic_string.h **** 
2414:/usr/include/c++/5/bits/basic_string.h ****       /**
2415:/usr/include/c++/5/bits/basic_string.h ****        *  @brief  Compare substring against a character %array.
2416:/usr/include/c++/5/bits/basic_string.h ****        *  @param __pos  Index of first character of substring.
2417:/usr/include/c++/5/bits/basic_string.h ****        *  @param __n1  Number of characters in substring.
2418:/usr/include/c++/5/bits/basic_string.h ****        *  @param __s  character %array to compare against.
2419:/usr/include/c++/5/bits/basic_string.h ****        *  @param __n2  Number of characters of s.
2420:/usr/include/c++/5/bits/basic_string.h ****        *  @return  Integer < 0, 0, or > 0.
2421:/usr/include/c++/5/bits/basic_string.h ****        *
2422:/usr/include/c++/5/bits/basic_string.h ****        *  Form the substring of this string from the @a __n1
2423:/usr/include/c++/5/bits/basic_string.h ****        *  characters starting at @a __pos.  Form a string from the
2424:/usr/include/c++/5/bits/basic_string.h ****        *  first @a __n2 characters of @a __s.  Returns an integer < 0
2425:/usr/include/c++/5/bits/basic_string.h ****        *  if this substring is ordered before the string from @a __s,
2426:/usr/include/c++/5/bits/basic_string.h ****        *  0 if their values are equivalent, or > 0 if this substring
2427:/usr/include/c++/5/bits/basic_string.h ****        *  is ordered after the string from @a __s.  Determines the
2428:/usr/include/c++/5/bits/basic_string.h ****        *  effective length rlen of the strings to compare as the
2429:/usr/include/c++/5/bits/basic_string.h ****        *  smallest of the length of the substring and @a __n2.  The
2430:/usr/include/c++/5/bits/basic_string.h ****        *  function then compares the two strings by calling
2431:/usr/include/c++/5/bits/basic_string.h ****        *  traits::compare(substring.data(),s,rlen).  If the result of
2432:/usr/include/c++/5/bits/basic_string.h ****        *  the comparison is nonzero returns it, otherwise the shorter
2433:/usr/include/c++/5/bits/basic_string.h ****        *  one is ordered first.
2434:/usr/include/c++/5/bits/basic_string.h ****        *
2435:/usr/include/c++/5/bits/basic_string.h ****        *  NB: s must have at least n2 characters, &apos;\\0&apos; has
2436:/usr/include/c++/5/bits/basic_string.h ****        *  no special meaning.
2437:/usr/include/c++/5/bits/basic_string.h ****       */
2438:/usr/include/c++/5/bits/basic_string.h ****       int
2439:/usr/include/c++/5/bits/basic_string.h ****       compare(size_type __pos, size_type __n1, const _CharT* __s,
2440:/usr/include/c++/5/bits/basic_string.h **** 	      size_type __n2) const;
2441:/usr/include/c++/5/bits/basic_string.h ****   };
2442:/usr/include/c++/5/bits/basic_string.h **** _GLIBCXX_END_NAMESPACE_CXX11
2443:/usr/include/c++/5/bits/basic_string.h **** #else  // !_GLIBCXX_USE_CXX11_ABI
2444:/usr/include/c++/5/bits/basic_string.h ****   // Reference-counted COW string implentation
2445:/usr/include/c++/5/bits/basic_string.h **** 
2446:/usr/include/c++/5/bits/basic_string.h ****   /**
2447:/usr/include/c++/5/bits/basic_string.h ****    *  @class basic_string basic_string.h <string>
2448:/usr/include/c++/5/bits/basic_string.h ****    *  @brief  Managing sequences of characters and character-like objects.
2449:/usr/include/c++/5/bits/basic_string.h ****    *
2450:/usr/include/c++/5/bits/basic_string.h ****    *  @ingroup strings
2451:/usr/include/c++/5/bits/basic_string.h ****    *  @ingroup sequences
2452:/usr/include/c++/5/bits/basic_string.h ****    *
2453:/usr/include/c++/5/bits/basic_string.h ****    *  @tparam _CharT  Type of character
2454:/usr/include/c++/5/bits/basic_string.h ****    *  @tparam _Traits  Traits for character type, defaults to
2455:/usr/include/c++/5/bits/basic_string.h ****    *                   char_traits<_CharT>.
2456:/usr/include/c++/5/bits/basic_string.h ****    *  @tparam _Alloc  Allocator type, defaults to allocator<_CharT>.
2457:/usr/include/c++/5/bits/basic_string.h ****    *
2458:/usr/include/c++/5/bits/basic_string.h ****    *  Meets the requirements of a <a href="tables.html#65">container</a>, a
2459:/usr/include/c++/5/bits/basic_string.h ****    *  <a href="tables.html#66">reversible container</a>, and a
2460:/usr/include/c++/5/bits/basic_string.h ****    *  <a href="tables.html#67">sequence</a>.  Of the
GAS LISTING /tmp/ccSpSEFs.s 			page 129


2461:/usr/include/c++/5/bits/basic_string.h ****    *  <a href="tables.html#68">optional sequence requirements</a>, only
2462:/usr/include/c++/5/bits/basic_string.h ****    *  @c push_back, @c at, and @c %array access are supported.
2463:/usr/include/c++/5/bits/basic_string.h ****    *
2464:/usr/include/c++/5/bits/basic_string.h ****    *  @doctodo
2465:/usr/include/c++/5/bits/basic_string.h ****    *
2466:/usr/include/c++/5/bits/basic_string.h ****    *
2467:/usr/include/c++/5/bits/basic_string.h ****    *  Documentation?  What's that?
2468:/usr/include/c++/5/bits/basic_string.h ****    *  Nathan Myers <ncm@cantrip.org>.
2469:/usr/include/c++/5/bits/basic_string.h ****    *
2470:/usr/include/c++/5/bits/basic_string.h ****    *  A string looks like this:
2471:/usr/include/c++/5/bits/basic_string.h ****    *
2472:/usr/include/c++/5/bits/basic_string.h ****    *  @code
2473:/usr/include/c++/5/bits/basic_string.h ****    *                                        [_Rep]
2474:/usr/include/c++/5/bits/basic_string.h ****    *                                        _M_length
2475:/usr/include/c++/5/bits/basic_string.h ****    *   [basic_string<char_type>]            _M_capacity
2476:/usr/include/c++/5/bits/basic_string.h ****    *   _M_dataplus                          _M_refcount
2477:/usr/include/c++/5/bits/basic_string.h ****    *   _M_p ---------------->               unnamed array of char_type
2478:/usr/include/c++/5/bits/basic_string.h ****    *  @endcode
2479:/usr/include/c++/5/bits/basic_string.h ****    *
2480:/usr/include/c++/5/bits/basic_string.h ****    *  Where the _M_p points to the first character in the string, and
2481:/usr/include/c++/5/bits/basic_string.h ****    *  you cast it to a pointer-to-_Rep and subtract 1 to get a
2482:/usr/include/c++/5/bits/basic_string.h ****    *  pointer to the header.
2483:/usr/include/c++/5/bits/basic_string.h ****    *
2484:/usr/include/c++/5/bits/basic_string.h ****    *  This approach has the enormous advantage that a string object
2485:/usr/include/c++/5/bits/basic_string.h ****    *  requires only one allocation.  All the ugliness is confined
2486:/usr/include/c++/5/bits/basic_string.h ****    *  within a single %pair of inline functions, which each compile to
2487:/usr/include/c++/5/bits/basic_string.h ****    *  a single @a add instruction: _Rep::_M_data(), and
2488:/usr/include/c++/5/bits/basic_string.h ****    *  string::_M_rep(); and the allocation function which gets a
2489:/usr/include/c++/5/bits/basic_string.h ****    *  block of raw bytes and with room enough and constructs a _Rep
2490:/usr/include/c++/5/bits/basic_string.h ****    *  object at the front.
2491:/usr/include/c++/5/bits/basic_string.h ****    *
2492:/usr/include/c++/5/bits/basic_string.h ****    *  The reason you want _M_data pointing to the character %array and
2493:/usr/include/c++/5/bits/basic_string.h ****    *  not the _Rep is so that the debugger can see the string
2494:/usr/include/c++/5/bits/basic_string.h ****    *  contents. (Probably we should add a non-inline member to get
2495:/usr/include/c++/5/bits/basic_string.h ****    *  the _Rep for the debugger to use, so users can check the actual
2496:/usr/include/c++/5/bits/basic_string.h ****    *  string length.)
2497:/usr/include/c++/5/bits/basic_string.h ****    *
2498:/usr/include/c++/5/bits/basic_string.h ****    *  Note that the _Rep object is a POD so that you can have a
2499:/usr/include/c++/5/bits/basic_string.h ****    *  static <em>empty string</em> _Rep object already @a constructed before
2500:/usr/include/c++/5/bits/basic_string.h ****    *  static constructors have run.  The reference-count encoding is
2501:/usr/include/c++/5/bits/basic_string.h ****    *  chosen so that a 0 indicates one reference, so you never try to
2502:/usr/include/c++/5/bits/basic_string.h ****    *  destroy the empty-string _Rep object.
2503:/usr/include/c++/5/bits/basic_string.h ****    *
2504:/usr/include/c++/5/bits/basic_string.h ****    *  All but the last paragraph is considered pretty conventional
2505:/usr/include/c++/5/bits/basic_string.h ****    *  for a C++ string implementation.
2506:/usr/include/c++/5/bits/basic_string.h ****   */
2507:/usr/include/c++/5/bits/basic_string.h ****   // 21.3  Template class basic_string
2508:/usr/include/c++/5/bits/basic_string.h ****   template<typename _CharT, typename _Traits, typename _Alloc>
2509:/usr/include/c++/5/bits/basic_string.h ****     class basic_string
2510:/usr/include/c++/5/bits/basic_string.h ****     {
2511:/usr/include/c++/5/bits/basic_string.h ****       typedef typename _Alloc::template rebind<_CharT>::other _CharT_alloc_type;
2512:/usr/include/c++/5/bits/basic_string.h **** 
2513:/usr/include/c++/5/bits/basic_string.h ****       // Types:
2514:/usr/include/c++/5/bits/basic_string.h ****     public:
2515:/usr/include/c++/5/bits/basic_string.h ****       typedef _Traits					    traits_type;
2516:/usr/include/c++/5/bits/basic_string.h ****       typedef typename _Traits::char_type		    value_type;
2517:/usr/include/c++/5/bits/basic_string.h ****       typedef _Alloc					    allocator_type;
GAS LISTING /tmp/ccSpSEFs.s 			page 130


2518:/usr/include/c++/5/bits/basic_string.h ****       typedef typename _CharT_alloc_type::size_type	    size_type;
2519:/usr/include/c++/5/bits/basic_string.h ****       typedef typename _CharT_alloc_type::difference_type   difference_type;
2520:/usr/include/c++/5/bits/basic_string.h ****       typedef typename _CharT_alloc_type::reference	    reference;
2521:/usr/include/c++/5/bits/basic_string.h ****       typedef typename _CharT_alloc_type::const_reference   const_reference;
2522:/usr/include/c++/5/bits/basic_string.h ****       typedef typename _CharT_alloc_type::pointer	    pointer;
2523:/usr/include/c++/5/bits/basic_string.h ****       typedef typename _CharT_alloc_type::const_pointer	    const_pointer;
2524:/usr/include/c++/5/bits/basic_string.h ****       typedef __gnu_cxx::__normal_iterator<pointer, basic_string>  iterator;
2525:/usr/include/c++/5/bits/basic_string.h ****       typedef __gnu_cxx::__normal_iterator<const_pointer, basic_string>
2526:/usr/include/c++/5/bits/basic_string.h ****                                                             const_iterator;
2527:/usr/include/c++/5/bits/basic_string.h ****       typedef std::reverse_iterator<const_iterator>	const_reverse_iterator;
2528:/usr/include/c++/5/bits/basic_string.h ****       typedef std::reverse_iterator<iterator>		    reverse_iterator;
2529:/usr/include/c++/5/bits/basic_string.h **** 
2530:/usr/include/c++/5/bits/basic_string.h ****     private:
2531:/usr/include/c++/5/bits/basic_string.h ****       // _Rep: string representation
2532:/usr/include/c++/5/bits/basic_string.h ****       //   Invariants:
2533:/usr/include/c++/5/bits/basic_string.h ****       //   1. String really contains _M_length + 1 characters: due to 21.3.4
2534:/usr/include/c++/5/bits/basic_string.h ****       //      must be kept null-terminated.
2535:/usr/include/c++/5/bits/basic_string.h ****       //   2. _M_capacity >= _M_length
2536:/usr/include/c++/5/bits/basic_string.h ****       //      Allocated memory is always (_M_capacity + 1) * sizeof(_CharT).
2537:/usr/include/c++/5/bits/basic_string.h ****       //   3. _M_refcount has three states:
2538:/usr/include/c++/5/bits/basic_string.h ****       //      -1: leaked, one reference, no ref-copies allowed, non-const.
2539:/usr/include/c++/5/bits/basic_string.h ****       //       0: one reference, non-const.
2540:/usr/include/c++/5/bits/basic_string.h ****       //     n>0: n + 1 references, operations require a lock, const.
2541:/usr/include/c++/5/bits/basic_string.h ****       //   4. All fields==0 is an empty string, given the extra storage
2542:/usr/include/c++/5/bits/basic_string.h ****       //      beyond-the-end for a null terminator; thus, the shared
2543:/usr/include/c++/5/bits/basic_string.h ****       //      empty string representation needs no constructor.
2544:/usr/include/c++/5/bits/basic_string.h **** 
2545:/usr/include/c++/5/bits/basic_string.h ****       struct _Rep_base
2546:/usr/include/c++/5/bits/basic_string.h ****       {
2547:/usr/include/c++/5/bits/basic_string.h **** 	size_type		_M_length;
2548:/usr/include/c++/5/bits/basic_string.h **** 	size_type		_M_capacity;
2549:/usr/include/c++/5/bits/basic_string.h **** 	_Atomic_word		_M_refcount;
2550:/usr/include/c++/5/bits/basic_string.h ****       };
2551:/usr/include/c++/5/bits/basic_string.h **** 
2552:/usr/include/c++/5/bits/basic_string.h ****       struct _Rep : _Rep_base
2553:/usr/include/c++/5/bits/basic_string.h ****       {
2554:/usr/include/c++/5/bits/basic_string.h **** 	// Types:
2555:/usr/include/c++/5/bits/basic_string.h **** 	typedef typename _Alloc::template rebind<char>::other _Raw_bytes_alloc;
2556:/usr/include/c++/5/bits/basic_string.h **** 
2557:/usr/include/c++/5/bits/basic_string.h **** 	// (Public) Data members:
2558:/usr/include/c++/5/bits/basic_string.h **** 
2559:/usr/include/c++/5/bits/basic_string.h **** 	// The maximum number of individual char_type elements of an
2560:/usr/include/c++/5/bits/basic_string.h **** 	// individual string is determined by _S_max_size. This is the
2561:/usr/include/c++/5/bits/basic_string.h **** 	// value that will be returned by max_size().  (Whereas npos
2562:/usr/include/c++/5/bits/basic_string.h **** 	// is the maximum number of bytes the allocator can allocate.)
2563:/usr/include/c++/5/bits/basic_string.h **** 	// If one was to divvy up the theoretical largest size string,
2564:/usr/include/c++/5/bits/basic_string.h **** 	// with a terminating character and m _CharT elements, it'd
2565:/usr/include/c++/5/bits/basic_string.h **** 	// look like this:
2566:/usr/include/c++/5/bits/basic_string.h **** 	// npos = sizeof(_Rep) + (m * sizeof(_CharT)) + sizeof(_CharT)
2567:/usr/include/c++/5/bits/basic_string.h **** 	// Solving for m:
2568:/usr/include/c++/5/bits/basic_string.h **** 	// m = ((npos - sizeof(_Rep))/sizeof(CharT)) - 1
2569:/usr/include/c++/5/bits/basic_string.h **** 	// In addition, this implementation quarters this amount.
2570:/usr/include/c++/5/bits/basic_string.h **** 	static const size_type	_S_max_size;
2571:/usr/include/c++/5/bits/basic_string.h **** 	static const _CharT	_S_terminal;
2572:/usr/include/c++/5/bits/basic_string.h **** 
2573:/usr/include/c++/5/bits/basic_string.h **** 	// The following storage is init'd to 0 by the linker, resulting
2574:/usr/include/c++/5/bits/basic_string.h ****         // (carefully) in an empty string with one reference.
GAS LISTING /tmp/ccSpSEFs.s 			page 131


2575:/usr/include/c++/5/bits/basic_string.h ****         static size_type _S_empty_rep_storage[];
2576:/usr/include/c++/5/bits/basic_string.h **** 
2577:/usr/include/c++/5/bits/basic_string.h ****         static _Rep&
2578:/usr/include/c++/5/bits/basic_string.h ****         _S_empty_rep() _GLIBCXX_NOEXCEPT
2579:/usr/include/c++/5/bits/basic_string.h ****         { 
2580:/usr/include/c++/5/bits/basic_string.h **** 	  // NB: Mild hack to avoid strict-aliasing warnings.  Note that
2581:/usr/include/c++/5/bits/basic_string.h **** 	  // _S_empty_rep_storage is never modified and the punning should
2582:/usr/include/c++/5/bits/basic_string.h **** 	  // be reasonably safe in this case.
2583:/usr/include/c++/5/bits/basic_string.h **** 	  void* __p = reinterpret_cast<void*>(&_S_empty_rep_storage);
2584:/usr/include/c++/5/bits/basic_string.h **** 	  return *reinterpret_cast<_Rep*>(__p);
2585:/usr/include/c++/5/bits/basic_string.h **** 	}
2586:/usr/include/c++/5/bits/basic_string.h **** 
2587:/usr/include/c++/5/bits/basic_string.h ****         bool
2588:/usr/include/c++/5/bits/basic_string.h **** 	_M_is_leaked() const _GLIBCXX_NOEXCEPT
2589:/usr/include/c++/5/bits/basic_string.h ****         { return this->_M_refcount < 0; }
2590:/usr/include/c++/5/bits/basic_string.h **** 
2591:/usr/include/c++/5/bits/basic_string.h ****         bool
2592:/usr/include/c++/5/bits/basic_string.h **** 	_M_is_shared() const _GLIBCXX_NOEXCEPT
2593:/usr/include/c++/5/bits/basic_string.h ****         { return this->_M_refcount > 0; }
2594:/usr/include/c++/5/bits/basic_string.h **** 
2595:/usr/include/c++/5/bits/basic_string.h ****         void
2596:/usr/include/c++/5/bits/basic_string.h **** 	_M_set_leaked() _GLIBCXX_NOEXCEPT
2597:/usr/include/c++/5/bits/basic_string.h ****         { this->_M_refcount = -1; }
2598:/usr/include/c++/5/bits/basic_string.h **** 
2599:/usr/include/c++/5/bits/basic_string.h ****         void
2600:/usr/include/c++/5/bits/basic_string.h **** 	_M_set_sharable() _GLIBCXX_NOEXCEPT
2601:/usr/include/c++/5/bits/basic_string.h ****         { this->_M_refcount = 0; }
2602:/usr/include/c++/5/bits/basic_string.h **** 
2603:/usr/include/c++/5/bits/basic_string.h **** 	void
2604:/usr/include/c++/5/bits/basic_string.h **** 	_M_set_length_and_sharable(size_type __n) _GLIBCXX_NOEXCEPT
2605:/usr/include/c++/5/bits/basic_string.h **** 	{
2606:/usr/include/c++/5/bits/basic_string.h **** #if _GLIBCXX_FULLY_DYNAMIC_STRING == 0
2607:/usr/include/c++/5/bits/basic_string.h **** 	  if (__builtin_expect(this != &_S_empty_rep(), false))
2608:/usr/include/c++/5/bits/basic_string.h **** #endif
2609:/usr/include/c++/5/bits/basic_string.h **** 	    {
2610:/usr/include/c++/5/bits/basic_string.h **** 	      this->_M_set_sharable();  // One reference.
2611:/usr/include/c++/5/bits/basic_string.h **** 	      this->_M_length = __n;
2612:/usr/include/c++/5/bits/basic_string.h **** 	      traits_type::assign(this->_M_refdata()[__n], _S_terminal);
2613:/usr/include/c++/5/bits/basic_string.h **** 	      // grrr. (per 21.3.4)
2614:/usr/include/c++/5/bits/basic_string.h **** 	      // You cannot leave those LWG people alone for a second.
2615:/usr/include/c++/5/bits/basic_string.h **** 	    }
2616:/usr/include/c++/5/bits/basic_string.h **** 	}
2617:/usr/include/c++/5/bits/basic_string.h **** 
2618:/usr/include/c++/5/bits/basic_string.h **** 	_CharT*
2619:/usr/include/c++/5/bits/basic_string.h **** 	_M_refdata() throw()
2620:/usr/include/c++/5/bits/basic_string.h **** 	{ return reinterpret_cast<_CharT*>(this + 1); }
2621:/usr/include/c++/5/bits/basic_string.h **** 
2622:/usr/include/c++/5/bits/basic_string.h **** 	_CharT*
2623:/usr/include/c++/5/bits/basic_string.h **** 	_M_grab(const _Alloc& __alloc1, const _Alloc& __alloc2)
2624:/usr/include/c++/5/bits/basic_string.h **** 	{
2625:/usr/include/c++/5/bits/basic_string.h **** 	  return (!_M_is_leaked() && __alloc1 == __alloc2)
2626:/usr/include/c++/5/bits/basic_string.h **** 	          ? _M_refcopy() : _M_clone(__alloc1);
2627:/usr/include/c++/5/bits/basic_string.h **** 	}
2628:/usr/include/c++/5/bits/basic_string.h **** 
2629:/usr/include/c++/5/bits/basic_string.h **** 	// Create & Destroy
2630:/usr/include/c++/5/bits/basic_string.h **** 	static _Rep*
2631:/usr/include/c++/5/bits/basic_string.h **** 	_S_create(size_type, size_type, const _Alloc&);
GAS LISTING /tmp/ccSpSEFs.s 			page 132


2632:/usr/include/c++/5/bits/basic_string.h **** 
2633:/usr/include/c++/5/bits/basic_string.h **** 	void
2634:/usr/include/c++/5/bits/basic_string.h **** 	_M_dispose(const _Alloc& __a) _GLIBCXX_NOEXCEPT
2635:/usr/include/c++/5/bits/basic_string.h **** 	{
2636:/usr/include/c++/5/bits/basic_string.h **** #if _GLIBCXX_FULLY_DYNAMIC_STRING == 0
2637:/usr/include/c++/5/bits/basic_string.h **** 	  if (__builtin_expect(this != &_S_empty_rep(), false))
2638:/usr/include/c++/5/bits/basic_string.h **** #endif
2639:/usr/include/c++/5/bits/basic_string.h **** 	    {
2640:/usr/include/c++/5/bits/basic_string.h **** 	      // Be race-detector-friendly.  For more info see bits/c++config.
2641:/usr/include/c++/5/bits/basic_string.h **** 	      _GLIBCXX_SYNCHRONIZATION_HAPPENS_BEFORE(&this->_M_refcount);
2642:/usr/include/c++/5/bits/basic_string.h **** 	      if (__gnu_cxx::__exchange_and_add_dispatch(&this->_M_refcount,
2643:/usr/include/c++/5/bits/basic_string.h **** 							 -1) <= 0)
2644:/usr/include/c++/5/bits/basic_string.h **** 		{
2645:/usr/include/c++/5/bits/basic_string.h **** 		  _GLIBCXX_SYNCHRONIZATION_HAPPENS_AFTER(&this->_M_refcount);
2646:/usr/include/c++/5/bits/basic_string.h **** 		  _M_destroy(__a);
2647:/usr/include/c++/5/bits/basic_string.h **** 		}
2648:/usr/include/c++/5/bits/basic_string.h **** 	    }
2649:/usr/include/c++/5/bits/basic_string.h **** 	}  // XXX MT
2650:/usr/include/c++/5/bits/basic_string.h **** 
2651:/usr/include/c++/5/bits/basic_string.h **** 	void
2652:/usr/include/c++/5/bits/basic_string.h **** 	_M_destroy(const _Alloc&) throw();
2653:/usr/include/c++/5/bits/basic_string.h **** 
2654:/usr/include/c++/5/bits/basic_string.h **** 	_CharT*
2655:/usr/include/c++/5/bits/basic_string.h **** 	_M_refcopy() throw()
2656:/usr/include/c++/5/bits/basic_string.h **** 	{
2657:/usr/include/c++/5/bits/basic_string.h **** #if _GLIBCXX_FULLY_DYNAMIC_STRING == 0
2658:/usr/include/c++/5/bits/basic_string.h **** 	  if (__builtin_expect(this != &_S_empty_rep(), false))
2659:/usr/include/c++/5/bits/basic_string.h **** #endif
2660:/usr/include/c++/5/bits/basic_string.h ****             __gnu_cxx::__atomic_add_dispatch(&this->_M_refcount, 1);
2661:/usr/include/c++/5/bits/basic_string.h **** 	  return _M_refdata();
2662:/usr/include/c++/5/bits/basic_string.h **** 	}  // XXX MT
2663:/usr/include/c++/5/bits/basic_string.h **** 
2664:/usr/include/c++/5/bits/basic_string.h **** 	_CharT*
2665:/usr/include/c++/5/bits/basic_string.h **** 	_M_clone(const _Alloc&, size_type __res = 0);
2666:/usr/include/c++/5/bits/basic_string.h ****       };
2667:/usr/include/c++/5/bits/basic_string.h **** 
2668:/usr/include/c++/5/bits/basic_string.h ****       // Use empty-base optimization: http://www.cantrip.org/emptyopt.html
2669:/usr/include/c++/5/bits/basic_string.h ****       struct _Alloc_hider : _Alloc
2670:/usr/include/c++/5/bits/basic_string.h ****       {
2671:/usr/include/c++/5/bits/basic_string.h **** 	_Alloc_hider(_CharT* __dat, const _Alloc& __a) _GLIBCXX_NOEXCEPT
2672:/usr/include/c++/5/bits/basic_string.h **** 	: _Alloc(__a), _M_p(__dat) { }
2673:/usr/include/c++/5/bits/basic_string.h **** 
2674:/usr/include/c++/5/bits/basic_string.h **** 	_CharT* _M_p; // The actual data.
2675:/usr/include/c++/5/bits/basic_string.h ****       };
2676:/usr/include/c++/5/bits/basic_string.h **** 
2677:/usr/include/c++/5/bits/basic_string.h ****     public:
2678:/usr/include/c++/5/bits/basic_string.h ****       // Data Members (public):
2679:/usr/include/c++/5/bits/basic_string.h ****       // NB: This is an unsigned type, and thus represents the maximum
2680:/usr/include/c++/5/bits/basic_string.h ****       // size that the allocator can hold.
2681:/usr/include/c++/5/bits/basic_string.h ****       ///  Value returned by various member functions when they fail.
2682:/usr/include/c++/5/bits/basic_string.h ****       static const size_type	npos = static_cast<size_type>(-1);
2683:/usr/include/c++/5/bits/basic_string.h **** 
2684:/usr/include/c++/5/bits/basic_string.h ****     private:
2685:/usr/include/c++/5/bits/basic_string.h ****       // Data Members (private):
2686:/usr/include/c++/5/bits/basic_string.h ****       mutable _Alloc_hider	_M_dataplus;
2687:/usr/include/c++/5/bits/basic_string.h **** 
2688:/usr/include/c++/5/bits/basic_string.h ****       _CharT*
GAS LISTING /tmp/ccSpSEFs.s 			page 133


2689:/usr/include/c++/5/bits/basic_string.h ****       _M_data() const _GLIBCXX_NOEXCEPT
2690:/usr/include/c++/5/bits/basic_string.h ****       { return  _M_dataplus._M_p; }
2691:/usr/include/c++/5/bits/basic_string.h **** 
2692:/usr/include/c++/5/bits/basic_string.h ****       _CharT*
2693:/usr/include/c++/5/bits/basic_string.h ****       _M_data(_CharT* __p) _GLIBCXX_NOEXCEPT
2694:/usr/include/c++/5/bits/basic_string.h ****       { return (_M_dataplus._M_p = __p); }
2695:/usr/include/c++/5/bits/basic_string.h **** 
2696:/usr/include/c++/5/bits/basic_string.h ****       _Rep*
2697:/usr/include/c++/5/bits/basic_string.h ****       _M_rep() const _GLIBCXX_NOEXCEPT
2698:/usr/include/c++/5/bits/basic_string.h ****       { return &((reinterpret_cast<_Rep*> (_M_data()))[-1]); }
2699:/usr/include/c++/5/bits/basic_string.h **** 
2700:/usr/include/c++/5/bits/basic_string.h ****       // For the internal use we have functions similar to `begin'/`end'
2701:/usr/include/c++/5/bits/basic_string.h ****       // but they do not call _M_leak.
2702:/usr/include/c++/5/bits/basic_string.h ****       iterator
2703:/usr/include/c++/5/bits/basic_string.h ****       _M_ibegin() const _GLIBCXX_NOEXCEPT
2704:/usr/include/c++/5/bits/basic_string.h ****       { return iterator(_M_data()); }
2705:/usr/include/c++/5/bits/basic_string.h **** 
2706:/usr/include/c++/5/bits/basic_string.h ****       iterator
2707:/usr/include/c++/5/bits/basic_string.h ****       _M_iend() const _GLIBCXX_NOEXCEPT
2708:/usr/include/c++/5/bits/basic_string.h ****       { return iterator(_M_data() + this->size()); }
2709:/usr/include/c++/5/bits/basic_string.h **** 
2710:/usr/include/c++/5/bits/basic_string.h ****       void
2711:/usr/include/c++/5/bits/basic_string.h ****       _M_leak()    // for use in begin() & non-const op[]
2712:/usr/include/c++/5/bits/basic_string.h ****       {
2713:/usr/include/c++/5/bits/basic_string.h **** 	if (!_M_rep()->_M_is_leaked())
2714:/usr/include/c++/5/bits/basic_string.h **** 	  _M_leak_hard();
2715:/usr/include/c++/5/bits/basic_string.h ****       }
2716:/usr/include/c++/5/bits/basic_string.h **** 
2717:/usr/include/c++/5/bits/basic_string.h ****       size_type
2718:/usr/include/c++/5/bits/basic_string.h ****       _M_check(size_type __pos, const char* __s) const
2719:/usr/include/c++/5/bits/basic_string.h ****       {
2720:/usr/include/c++/5/bits/basic_string.h **** 	if (__pos > this->size())
2721:/usr/include/c++/5/bits/basic_string.h **** 	  __throw_out_of_range_fmt(__N("%s: __pos (which is %zu) > "
2722:/usr/include/c++/5/bits/basic_string.h **** 				       "this->size() (which is %zu)"),
2723:/usr/include/c++/5/bits/basic_string.h **** 				   __s, __pos, this->size());
2724:/usr/include/c++/5/bits/basic_string.h **** 	return __pos;
2725:/usr/include/c++/5/bits/basic_string.h ****       }
2726:/usr/include/c++/5/bits/basic_string.h **** 
2727:/usr/include/c++/5/bits/basic_string.h ****       void
2728:/usr/include/c++/5/bits/basic_string.h ****       _M_check_length(size_type __n1, size_type __n2, const char* __s) const
2729:/usr/include/c++/5/bits/basic_string.h ****       {
2730:/usr/include/c++/5/bits/basic_string.h **** 	if (this->max_size() - (this->size() - __n1) < __n2)
2731:/usr/include/c++/5/bits/basic_string.h **** 	  __throw_length_error(__N(__s));
2732:/usr/include/c++/5/bits/basic_string.h ****       }
2733:/usr/include/c++/5/bits/basic_string.h **** 
2734:/usr/include/c++/5/bits/basic_string.h ****       // NB: _M_limit doesn't check for a bad __pos value.
2735:/usr/include/c++/5/bits/basic_string.h ****       size_type
2736:/usr/include/c++/5/bits/basic_string.h ****       _M_limit(size_type __pos, size_type __off) const _GLIBCXX_NOEXCEPT
2737:/usr/include/c++/5/bits/basic_string.h ****       {
2738:/usr/include/c++/5/bits/basic_string.h **** 	const bool __testoff =  __off < this->size() - __pos;
2739:/usr/include/c++/5/bits/basic_string.h **** 	return __testoff ? __off : this->size() - __pos;
2740:/usr/include/c++/5/bits/basic_string.h ****       }
2741:/usr/include/c++/5/bits/basic_string.h **** 
2742:/usr/include/c++/5/bits/basic_string.h ****       // True if _Rep and source do not overlap.
2743:/usr/include/c++/5/bits/basic_string.h ****       bool
2744:/usr/include/c++/5/bits/basic_string.h ****       _M_disjunct(const _CharT* __s) const _GLIBCXX_NOEXCEPT
2745:/usr/include/c++/5/bits/basic_string.h ****       {
GAS LISTING /tmp/ccSpSEFs.s 			page 134


2746:/usr/include/c++/5/bits/basic_string.h **** 	return (less<const _CharT*>()(__s, _M_data())
2747:/usr/include/c++/5/bits/basic_string.h **** 		|| less<const _CharT*>()(_M_data() + this->size(), __s));
2748:/usr/include/c++/5/bits/basic_string.h ****       }
2749:/usr/include/c++/5/bits/basic_string.h **** 
2750:/usr/include/c++/5/bits/basic_string.h ****       // When __n = 1 way faster than the general multichar
2751:/usr/include/c++/5/bits/basic_string.h ****       // traits_type::copy/move/assign.
2752:/usr/include/c++/5/bits/basic_string.h ****       static void
2753:/usr/include/c++/5/bits/basic_string.h ****       _M_copy(_CharT* __d, const _CharT* __s, size_type __n) _GLIBCXX_NOEXCEPT
2754:/usr/include/c++/5/bits/basic_string.h ****       {
2755:/usr/include/c++/5/bits/basic_string.h **** 	if (__n == 1)
2756:/usr/include/c++/5/bits/basic_string.h **** 	  traits_type::assign(*__d, *__s);
2757:/usr/include/c++/5/bits/basic_string.h **** 	else
2758:/usr/include/c++/5/bits/basic_string.h **** 	  traits_type::copy(__d, __s, __n);
2759:/usr/include/c++/5/bits/basic_string.h ****       }
2760:/usr/include/c++/5/bits/basic_string.h **** 
2761:/usr/include/c++/5/bits/basic_string.h ****       static void
2762:/usr/include/c++/5/bits/basic_string.h ****       _M_move(_CharT* __d, const _CharT* __s, size_type __n) _GLIBCXX_NOEXCEPT
2763:/usr/include/c++/5/bits/basic_string.h ****       {
2764:/usr/include/c++/5/bits/basic_string.h **** 	if (__n == 1)
2765:/usr/include/c++/5/bits/basic_string.h **** 	  traits_type::assign(*__d, *__s);
2766:/usr/include/c++/5/bits/basic_string.h **** 	else
2767:/usr/include/c++/5/bits/basic_string.h **** 	  traits_type::move(__d, __s, __n);	  
2768:/usr/include/c++/5/bits/basic_string.h ****       }
2769:/usr/include/c++/5/bits/basic_string.h **** 
2770:/usr/include/c++/5/bits/basic_string.h ****       static void
2771:/usr/include/c++/5/bits/basic_string.h ****       _M_assign(_CharT* __d, size_type __n, _CharT __c) _GLIBCXX_NOEXCEPT
2772:/usr/include/c++/5/bits/basic_string.h ****       {
2773:/usr/include/c++/5/bits/basic_string.h **** 	if (__n == 1)
2774:/usr/include/c++/5/bits/basic_string.h **** 	  traits_type::assign(*__d, __c);
2775:/usr/include/c++/5/bits/basic_string.h **** 	else
2776:/usr/include/c++/5/bits/basic_string.h **** 	  traits_type::assign(__d, __n, __c);	  
2777:/usr/include/c++/5/bits/basic_string.h ****       }
2778:/usr/include/c++/5/bits/basic_string.h **** 
2779:/usr/include/c++/5/bits/basic_string.h ****       // _S_copy_chars is a separate template to permit specialization
2780:/usr/include/c++/5/bits/basic_string.h ****       // to optimize for the common case of pointers as iterators.
2781:/usr/include/c++/5/bits/basic_string.h ****       template<class _Iterator>
2782:/usr/include/c++/5/bits/basic_string.h ****         static void
2783:/usr/include/c++/5/bits/basic_string.h ****         _S_copy_chars(_CharT* __p, _Iterator __k1, _Iterator __k2)
2784:/usr/include/c++/5/bits/basic_string.h ****         {
2785:/usr/include/c++/5/bits/basic_string.h **** 	  for (; __k1 != __k2; ++__k1, ++__p)
2786:/usr/include/c++/5/bits/basic_string.h **** 	    traits_type::assign(*__p, *__k1); // These types are off.
2787:/usr/include/c++/5/bits/basic_string.h **** 	}
2788:/usr/include/c++/5/bits/basic_string.h **** 
2789:/usr/include/c++/5/bits/basic_string.h ****       static void
2790:/usr/include/c++/5/bits/basic_string.h ****       _S_copy_chars(_CharT* __p, iterator __k1, iterator __k2) _GLIBCXX_NOEXCEPT
2791:/usr/include/c++/5/bits/basic_string.h ****       { _S_copy_chars(__p, __k1.base(), __k2.base()); }
2792:/usr/include/c++/5/bits/basic_string.h **** 
2793:/usr/include/c++/5/bits/basic_string.h ****       static void
2794:/usr/include/c++/5/bits/basic_string.h ****       _S_copy_chars(_CharT* __p, const_iterator __k1, const_iterator __k2)
2795:/usr/include/c++/5/bits/basic_string.h ****       _GLIBCXX_NOEXCEPT
2796:/usr/include/c++/5/bits/basic_string.h ****       { _S_copy_chars(__p, __k1.base(), __k2.base()); }
2797:/usr/include/c++/5/bits/basic_string.h **** 
2798:/usr/include/c++/5/bits/basic_string.h ****       static void
2799:/usr/include/c++/5/bits/basic_string.h ****       _S_copy_chars(_CharT* __p, _CharT* __k1, _CharT* __k2) _GLIBCXX_NOEXCEPT
2800:/usr/include/c++/5/bits/basic_string.h ****       { _M_copy(__p, __k1, __k2 - __k1); }
2801:/usr/include/c++/5/bits/basic_string.h **** 
2802:/usr/include/c++/5/bits/basic_string.h ****       static void
GAS LISTING /tmp/ccSpSEFs.s 			page 135


2803:/usr/include/c++/5/bits/basic_string.h ****       _S_copy_chars(_CharT* __p, const _CharT* __k1, const _CharT* __k2)
2804:/usr/include/c++/5/bits/basic_string.h ****       _GLIBCXX_NOEXCEPT
2805:/usr/include/c++/5/bits/basic_string.h ****       { _M_copy(__p, __k1, __k2 - __k1); }
2806:/usr/include/c++/5/bits/basic_string.h **** 
2807:/usr/include/c++/5/bits/basic_string.h ****       static int
2808:/usr/include/c++/5/bits/basic_string.h ****       _S_compare(size_type __n1, size_type __n2) _GLIBCXX_NOEXCEPT
2809:/usr/include/c++/5/bits/basic_string.h ****       {
2810:/usr/include/c++/5/bits/basic_string.h **** 	const difference_type __d = difference_type(__n1 - __n2);
2811:/usr/include/c++/5/bits/basic_string.h **** 
2812:/usr/include/c++/5/bits/basic_string.h **** 	if (__d > __gnu_cxx::__numeric_traits<int>::__max)
2813:/usr/include/c++/5/bits/basic_string.h **** 	  return __gnu_cxx::__numeric_traits<int>::__max;
2814:/usr/include/c++/5/bits/basic_string.h **** 	else if (__d < __gnu_cxx::__numeric_traits<int>::__min)
2815:/usr/include/c++/5/bits/basic_string.h **** 	  return __gnu_cxx::__numeric_traits<int>::__min;
2816:/usr/include/c++/5/bits/basic_string.h **** 	else
2817:/usr/include/c++/5/bits/basic_string.h **** 	  return int(__d);
2818:/usr/include/c++/5/bits/basic_string.h ****       }
2819:/usr/include/c++/5/bits/basic_string.h **** 
2820:/usr/include/c++/5/bits/basic_string.h ****       void
2821:/usr/include/c++/5/bits/basic_string.h ****       _M_mutate(size_type __pos, size_type __len1, size_type __len2);
2822:/usr/include/c++/5/bits/basic_string.h **** 
2823:/usr/include/c++/5/bits/basic_string.h ****       void
2824:/usr/include/c++/5/bits/basic_string.h ****       _M_leak_hard();
2825:/usr/include/c++/5/bits/basic_string.h **** 
2826:/usr/include/c++/5/bits/basic_string.h ****       static _Rep&
2827:/usr/include/c++/5/bits/basic_string.h ****       _S_empty_rep() _GLIBCXX_NOEXCEPT
2828:/usr/include/c++/5/bits/basic_string.h ****       { return _Rep::_S_empty_rep(); }
2829:/usr/include/c++/5/bits/basic_string.h **** 
2830:/usr/include/c++/5/bits/basic_string.h ****     public:
2831:/usr/include/c++/5/bits/basic_string.h ****       // Construct/copy/destroy:
2832:/usr/include/c++/5/bits/basic_string.h ****       // NB: We overload ctors in some cases instead of using default
2833:/usr/include/c++/5/bits/basic_string.h ****       // arguments, per 17.4.4.4 para. 2 item 2.
2834:/usr/include/c++/5/bits/basic_string.h **** 
2835:/usr/include/c++/5/bits/basic_string.h ****       /**
2836:/usr/include/c++/5/bits/basic_string.h ****        *  @brief  Default constructor creates an empty string.
2837:/usr/include/c++/5/bits/basic_string.h ****        */
2838:/usr/include/c++/5/bits/basic_string.h ****       basic_string()
2839:/usr/include/c++/5/bits/basic_string.h **** #if _GLIBCXX_FULLY_DYNAMIC_STRING == 0
2840:/usr/include/c++/5/bits/basic_string.h ****       : _M_dataplus(_S_empty_rep()._M_refdata(), _Alloc()) { }
2841:/usr/include/c++/5/bits/basic_string.h **** #else
2842:/usr/include/c++/5/bits/basic_string.h ****       : _M_dataplus(_S_construct(size_type(), _CharT(), _Alloc()), _Alloc()){ }
2843:/usr/include/c++/5/bits/basic_string.h **** #endif
2844:/usr/include/c++/5/bits/basic_string.h **** 
2845:/usr/include/c++/5/bits/basic_string.h ****       /**
2846:/usr/include/c++/5/bits/basic_string.h ****        *  @brief  Construct an empty string using allocator @a a.
2847:/usr/include/c++/5/bits/basic_string.h ****        */
2848:/usr/include/c++/5/bits/basic_string.h ****       explicit
2849:/usr/include/c++/5/bits/basic_string.h ****       basic_string(const _Alloc& __a);
2850:/usr/include/c++/5/bits/basic_string.h **** 
2851:/usr/include/c++/5/bits/basic_string.h ****       // NB: per LWG issue 42, semantics different from IS:
2852:/usr/include/c++/5/bits/basic_string.h ****       /**
2853:/usr/include/c++/5/bits/basic_string.h ****        *  @brief  Construct string with copy of value of @a str.
2854:/usr/include/c++/5/bits/basic_string.h ****        *  @param  __str  Source string.
2855:/usr/include/c++/5/bits/basic_string.h ****        */
2856:/usr/include/c++/5/bits/basic_string.h ****       basic_string(const basic_string& __str);
2857:/usr/include/c++/5/bits/basic_string.h ****       /**
2858:/usr/include/c++/5/bits/basic_string.h ****        *  @brief  Construct string as copy of a substring.
2859:/usr/include/c++/5/bits/basic_string.h ****        *  @param  __str  Source string.
GAS LISTING /tmp/ccSpSEFs.s 			page 136


2860:/usr/include/c++/5/bits/basic_string.h ****        *  @param  __pos  Index of first character to copy from.
2861:/usr/include/c++/5/bits/basic_string.h ****        *  @param  __n  Number of characters to copy (default remainder).
2862:/usr/include/c++/5/bits/basic_string.h ****        */
2863:/usr/include/c++/5/bits/basic_string.h ****       basic_string(const basic_string& __str, size_type __pos,
2864:/usr/include/c++/5/bits/basic_string.h **** 		   size_type __n = npos);
2865:/usr/include/c++/5/bits/basic_string.h ****       /**
2866:/usr/include/c++/5/bits/basic_string.h ****        *  @brief  Construct string as copy of a substring.
2867:/usr/include/c++/5/bits/basic_string.h ****        *  @param  __str  Source string.
2868:/usr/include/c++/5/bits/basic_string.h ****        *  @param  __pos  Index of first character to copy from.
2869:/usr/include/c++/5/bits/basic_string.h ****        *  @param  __n  Number of characters to copy.
2870:/usr/include/c++/5/bits/basic_string.h ****        *  @param  __a  Allocator to use.
2871:/usr/include/c++/5/bits/basic_string.h ****        */
2872:/usr/include/c++/5/bits/basic_string.h ****       basic_string(const basic_string& __str, size_type __pos,
2873:/usr/include/c++/5/bits/basic_string.h **** 		   size_type __n, const _Alloc& __a);
2874:/usr/include/c++/5/bits/basic_string.h **** 
2875:/usr/include/c++/5/bits/basic_string.h ****       /**
2876:/usr/include/c++/5/bits/basic_string.h ****        *  @brief  Construct string initialized by a character %array.
2877:/usr/include/c++/5/bits/basic_string.h ****        *  @param  __s  Source character %array.
2878:/usr/include/c++/5/bits/basic_string.h ****        *  @param  __n  Number of characters to copy.
2879:/usr/include/c++/5/bits/basic_string.h ****        *  @param  __a  Allocator to use (default is default allocator).
2880:/usr/include/c++/5/bits/basic_string.h ****        *
2881:/usr/include/c++/5/bits/basic_string.h ****        *  NB: @a __s must have at least @a __n characters, &apos;\\0&apos;
2882:/usr/include/c++/5/bits/basic_string.h ****        *  has no special meaning.
2883:/usr/include/c++/5/bits/basic_string.h ****        */
2884:/usr/include/c++/5/bits/basic_string.h ****       basic_string(const _CharT* __s, size_type __n,
2885:/usr/include/c++/5/bits/basic_string.h **** 		   const _Alloc& __a = _Alloc());
2886:/usr/include/c++/5/bits/basic_string.h ****       /**
2887:/usr/include/c++/5/bits/basic_string.h ****        *  @brief  Construct string as copy of a C string.
2888:/usr/include/c++/5/bits/basic_string.h ****        *  @param  __s  Source C string.
2889:/usr/include/c++/5/bits/basic_string.h ****        *  @param  __a  Allocator to use (default is default allocator).
2890:/usr/include/c++/5/bits/basic_string.h ****        */
2891:/usr/include/c++/5/bits/basic_string.h ****       basic_string(const _CharT* __s, const _Alloc& __a = _Alloc());
2892:/usr/include/c++/5/bits/basic_string.h ****       /**
2893:/usr/include/c++/5/bits/basic_string.h ****        *  @brief  Construct string as multiple characters.
2894:/usr/include/c++/5/bits/basic_string.h ****        *  @param  __n  Number of characters.
2895:/usr/include/c++/5/bits/basic_string.h ****        *  @param  __c  Character to use.
2896:/usr/include/c++/5/bits/basic_string.h ****        *  @param  __a  Allocator to use (default is default allocator).
2897:/usr/include/c++/5/bits/basic_string.h ****        */
2898:/usr/include/c++/5/bits/basic_string.h ****       basic_string(size_type __n, _CharT __c, const _Alloc& __a = _Alloc());
2899:/usr/include/c++/5/bits/basic_string.h **** 
2900:/usr/include/c++/5/bits/basic_string.h **** #if __cplusplus >= 201103L
2901:/usr/include/c++/5/bits/basic_string.h ****       /**
2902:/usr/include/c++/5/bits/basic_string.h ****        *  @brief  Move construct string.
2903:/usr/include/c++/5/bits/basic_string.h ****        *  @param  __str  Source string.
2904:/usr/include/c++/5/bits/basic_string.h ****        *
2905:/usr/include/c++/5/bits/basic_string.h ****        *  The newly-created string contains the exact contents of @a __str.
2906:/usr/include/c++/5/bits/basic_string.h ****        *  @a __str is a valid, but unspecified string.
2907:/usr/include/c++/5/bits/basic_string.h ****        **/
2908:/usr/include/c++/5/bits/basic_string.h ****       basic_string(basic_string&& __str)
2909:/usr/include/c++/5/bits/basic_string.h **** #if _GLIBCXX_FULLY_DYNAMIC_STRING == 0
2910:/usr/include/c++/5/bits/basic_string.h ****       noexcept // FIXME C++11: should always be noexcept.
2911:/usr/include/c++/5/bits/basic_string.h **** #endif
2912:/usr/include/c++/5/bits/basic_string.h ****       : _M_dataplus(__str._M_dataplus)
2913:/usr/include/c++/5/bits/basic_string.h ****       {
2914:/usr/include/c++/5/bits/basic_string.h **** #if _GLIBCXX_FULLY_DYNAMIC_STRING == 0
2915:/usr/include/c++/5/bits/basic_string.h **** 	__str._M_data(_S_empty_rep()._M_refdata());
2916:/usr/include/c++/5/bits/basic_string.h **** #else
GAS LISTING /tmp/ccSpSEFs.s 			page 137


2917:/usr/include/c++/5/bits/basic_string.h **** 	__str._M_data(_S_construct(size_type(), _CharT(), get_allocator()));
2918:/usr/include/c++/5/bits/basic_string.h **** #endif
2919:/usr/include/c++/5/bits/basic_string.h ****       }
2920:/usr/include/c++/5/bits/basic_string.h **** 
2921:/usr/include/c++/5/bits/basic_string.h ****       /**
2922:/usr/include/c++/5/bits/basic_string.h ****        *  @brief  Construct string from an initializer %list.
2923:/usr/include/c++/5/bits/basic_string.h ****        *  @param  __l  std::initializer_list of characters.
2924:/usr/include/c++/5/bits/basic_string.h ****        *  @param  __a  Allocator to use (default is default allocator).
2925:/usr/include/c++/5/bits/basic_string.h ****        */
2926:/usr/include/c++/5/bits/basic_string.h ****       basic_string(initializer_list<_CharT> __l, const _Alloc& __a = _Alloc());
2927:/usr/include/c++/5/bits/basic_string.h **** #endif // C++11
2928:/usr/include/c++/5/bits/basic_string.h **** 
2929:/usr/include/c++/5/bits/basic_string.h ****       /**
2930:/usr/include/c++/5/bits/basic_string.h ****        *  @brief  Construct string as copy of a range.
2931:/usr/include/c++/5/bits/basic_string.h ****        *  @param  __beg  Start of range.
2932:/usr/include/c++/5/bits/basic_string.h ****        *  @param  __end  End of range.
2933:/usr/include/c++/5/bits/basic_string.h ****        *  @param  __a  Allocator to use (default is default allocator).
2934:/usr/include/c++/5/bits/basic_string.h ****        */
2935:/usr/include/c++/5/bits/basic_string.h ****       template<class _InputIterator>
2936:/usr/include/c++/5/bits/basic_string.h ****         basic_string(_InputIterator __beg, _InputIterator __end,
2937:/usr/include/c++/5/bits/basic_string.h **** 		     const _Alloc& __a = _Alloc());
2938:/usr/include/c++/5/bits/basic_string.h **** 
2939:/usr/include/c++/5/bits/basic_string.h ****       /**
2940:/usr/include/c++/5/bits/basic_string.h ****        *  @brief  Destroy the string instance.
2941:/usr/include/c++/5/bits/basic_string.h ****        */
2942:/usr/include/c++/5/bits/basic_string.h ****       ~basic_string() _GLIBCXX_NOEXCEPT
2943:/usr/include/c++/5/bits/basic_string.h ****       { _M_rep()->_M_dispose(this->get_allocator()); }
2944:/usr/include/c++/5/bits/basic_string.h **** 
2945:/usr/include/c++/5/bits/basic_string.h ****       /**
2946:/usr/include/c++/5/bits/basic_string.h ****        *  @brief  Assign the value of @a str to this string.
2947:/usr/include/c++/5/bits/basic_string.h ****        *  @param  __str  Source string.
2948:/usr/include/c++/5/bits/basic_string.h ****        */
2949:/usr/include/c++/5/bits/basic_string.h ****       basic_string&
2950:/usr/include/c++/5/bits/basic_string.h ****       operator=(const basic_string& __str) 
2951:/usr/include/c++/5/bits/basic_string.h ****       { return this->assign(__str); }
2952:/usr/include/c++/5/bits/basic_string.h **** 
2953:/usr/include/c++/5/bits/basic_string.h ****       /**
2954:/usr/include/c++/5/bits/basic_string.h ****        *  @brief  Copy contents of @a s into this string.
2955:/usr/include/c++/5/bits/basic_string.h ****        *  @param  __s  Source null-terminated string.
2956:/usr/include/c++/5/bits/basic_string.h ****        */
2957:/usr/include/c++/5/bits/basic_string.h ****       basic_string&
2958:/usr/include/c++/5/bits/basic_string.h ****       operator=(const _CharT* __s) 
2959:/usr/include/c++/5/bits/basic_string.h ****       { return this->assign(__s); }
2960:/usr/include/c++/5/bits/basic_string.h **** 
2961:/usr/include/c++/5/bits/basic_string.h ****       /**
2962:/usr/include/c++/5/bits/basic_string.h ****        *  @brief  Set value to string of length 1.
2963:/usr/include/c++/5/bits/basic_string.h ****        *  @param  __c  Source character.
2964:/usr/include/c++/5/bits/basic_string.h ****        *
2965:/usr/include/c++/5/bits/basic_string.h ****        *  Assigning to a character makes this string length 1 and
2966:/usr/include/c++/5/bits/basic_string.h ****        *  (*this)[0] == @a c.
2967:/usr/include/c++/5/bits/basic_string.h ****        */
2968:/usr/include/c++/5/bits/basic_string.h ****       basic_string&
2969:/usr/include/c++/5/bits/basic_string.h ****       operator=(_CharT __c) 
2970:/usr/include/c++/5/bits/basic_string.h ****       { 
2971:/usr/include/c++/5/bits/basic_string.h **** 	this->assign(1, __c); 
2972:/usr/include/c++/5/bits/basic_string.h **** 	return *this;
2973:/usr/include/c++/5/bits/basic_string.h ****       }
GAS LISTING /tmp/ccSpSEFs.s 			page 138


2974:/usr/include/c++/5/bits/basic_string.h **** 
2975:/usr/include/c++/5/bits/basic_string.h **** #if __cplusplus >= 201103L
2976:/usr/include/c++/5/bits/basic_string.h ****       /**
2977:/usr/include/c++/5/bits/basic_string.h ****        *  @brief  Move assign the value of @a str to this string.
2978:/usr/include/c++/5/bits/basic_string.h ****        *  @param  __str  Source string.
2979:/usr/include/c++/5/bits/basic_string.h ****        *
2980:/usr/include/c++/5/bits/basic_string.h ****        *  The contents of @a str are moved into this string (without copying).
2981:/usr/include/c++/5/bits/basic_string.h ****        *  @a str is a valid, but unspecified string.
2982:/usr/include/c++/5/bits/basic_string.h ****        **/
2983:/usr/include/c++/5/bits/basic_string.h ****       // PR 58265, this should be noexcept.
2984:/usr/include/c++/5/bits/basic_string.h ****       basic_string&
2985:/usr/include/c++/5/bits/basic_string.h ****       operator=(basic_string&& __str)
2986:/usr/include/c++/5/bits/basic_string.h ****       {
2987:/usr/include/c++/5/bits/basic_string.h **** 	// NB: DR 1204.
2988:/usr/include/c++/5/bits/basic_string.h **** 	this->swap(__str);
2989:/usr/include/c++/5/bits/basic_string.h **** 	return *this;
2990:/usr/include/c++/5/bits/basic_string.h ****       }
2991:/usr/include/c++/5/bits/basic_string.h **** 
2992:/usr/include/c++/5/bits/basic_string.h ****       /**
2993:/usr/include/c++/5/bits/basic_string.h ****        *  @brief  Set value to string constructed from initializer %list.
2994:/usr/include/c++/5/bits/basic_string.h ****        *  @param  __l  std::initializer_list.
2995:/usr/include/c++/5/bits/basic_string.h ****        */
2996:/usr/include/c++/5/bits/basic_string.h ****       basic_string&
2997:/usr/include/c++/5/bits/basic_string.h ****       operator=(initializer_list<_CharT> __l)
2998:/usr/include/c++/5/bits/basic_string.h ****       {
2999:/usr/include/c++/5/bits/basic_string.h **** 	this->assign(__l.begin(), __l.size());
3000:/usr/include/c++/5/bits/basic_string.h **** 	return *this;
3001:/usr/include/c++/5/bits/basic_string.h ****       }
3002:/usr/include/c++/5/bits/basic_string.h **** #endif // C++11
3003:/usr/include/c++/5/bits/basic_string.h **** 
3004:/usr/include/c++/5/bits/basic_string.h ****       // Iterators:
3005:/usr/include/c++/5/bits/basic_string.h ****       /**
3006:/usr/include/c++/5/bits/basic_string.h ****        *  Returns a read/write iterator that points to the first character in
3007:/usr/include/c++/5/bits/basic_string.h ****        *  the %string.  Unshares the string.
3008:/usr/include/c++/5/bits/basic_string.h ****        */
3009:/usr/include/c++/5/bits/basic_string.h ****       iterator
3010:/usr/include/c++/5/bits/basic_string.h ****       begin() // FIXME C++11: should be noexcept.
3011:/usr/include/c++/5/bits/basic_string.h ****       {
3012:/usr/include/c++/5/bits/basic_string.h **** 	_M_leak();
3013:/usr/include/c++/5/bits/basic_string.h **** 	return iterator(_M_data());
3014:/usr/include/c++/5/bits/basic_string.h ****       }
3015:/usr/include/c++/5/bits/basic_string.h **** 
3016:/usr/include/c++/5/bits/basic_string.h ****       /**
3017:/usr/include/c++/5/bits/basic_string.h ****        *  Returns a read-only (constant) iterator that points to the first
3018:/usr/include/c++/5/bits/basic_string.h ****        *  character in the %string.
3019:/usr/include/c++/5/bits/basic_string.h ****        */
3020:/usr/include/c++/5/bits/basic_string.h ****       const_iterator
3021:/usr/include/c++/5/bits/basic_string.h ****       begin() const _GLIBCXX_NOEXCEPT
3022:/usr/include/c++/5/bits/basic_string.h ****       { return const_iterator(_M_data()); }
3023:/usr/include/c++/5/bits/basic_string.h **** 
3024:/usr/include/c++/5/bits/basic_string.h ****       /**
3025:/usr/include/c++/5/bits/basic_string.h ****        *  Returns a read/write iterator that points one past the last
3026:/usr/include/c++/5/bits/basic_string.h ****        *  character in the %string.  Unshares the string.
3027:/usr/include/c++/5/bits/basic_string.h ****        */
3028:/usr/include/c++/5/bits/basic_string.h ****       iterator
3029:/usr/include/c++/5/bits/basic_string.h ****       end() // FIXME C++11: should be noexcept.
3030:/usr/include/c++/5/bits/basic_string.h ****       {
GAS LISTING /tmp/ccSpSEFs.s 			page 139


3031:/usr/include/c++/5/bits/basic_string.h **** 	_M_leak();
3032:/usr/include/c++/5/bits/basic_string.h **** 	return iterator(_M_data() + this->size());
3033:/usr/include/c++/5/bits/basic_string.h ****       }
3034:/usr/include/c++/5/bits/basic_string.h **** 
3035:/usr/include/c++/5/bits/basic_string.h ****       /**
3036:/usr/include/c++/5/bits/basic_string.h ****        *  Returns a read-only (constant) iterator that points one past the
3037:/usr/include/c++/5/bits/basic_string.h ****        *  last character in the %string.
3038:/usr/include/c++/5/bits/basic_string.h ****        */
3039:/usr/include/c++/5/bits/basic_string.h ****       const_iterator
3040:/usr/include/c++/5/bits/basic_string.h ****       end() const _GLIBCXX_NOEXCEPT
3041:/usr/include/c++/5/bits/basic_string.h ****       { return const_iterator(_M_data() + this->size()); }
3042:/usr/include/c++/5/bits/basic_string.h **** 
3043:/usr/include/c++/5/bits/basic_string.h ****       /**
3044:/usr/include/c++/5/bits/basic_string.h ****        *  Returns a read/write reverse iterator that points to the last
3045:/usr/include/c++/5/bits/basic_string.h ****        *  character in the %string.  Iteration is done in reverse element
3046:/usr/include/c++/5/bits/basic_string.h ****        *  order.  Unshares the string.
3047:/usr/include/c++/5/bits/basic_string.h ****        */
3048:/usr/include/c++/5/bits/basic_string.h ****       reverse_iterator
3049:/usr/include/c++/5/bits/basic_string.h ****       rbegin() // FIXME C++11: should be noexcept.
3050:/usr/include/c++/5/bits/basic_string.h ****       { return reverse_iterator(this->end()); }
3051:/usr/include/c++/5/bits/basic_string.h **** 
3052:/usr/include/c++/5/bits/basic_string.h ****       /**
3053:/usr/include/c++/5/bits/basic_string.h ****        *  Returns a read-only (constant) reverse iterator that points
3054:/usr/include/c++/5/bits/basic_string.h ****        *  to the last character in the %string.  Iteration is done in
3055:/usr/include/c++/5/bits/basic_string.h ****        *  reverse element order.
3056:/usr/include/c++/5/bits/basic_string.h ****        */
3057:/usr/include/c++/5/bits/basic_string.h ****       const_reverse_iterator
3058:/usr/include/c++/5/bits/basic_string.h ****       rbegin() const _GLIBCXX_NOEXCEPT
3059:/usr/include/c++/5/bits/basic_string.h ****       { return const_reverse_iterator(this->end()); }
3060:/usr/include/c++/5/bits/basic_string.h **** 
3061:/usr/include/c++/5/bits/basic_string.h ****       /**
3062:/usr/include/c++/5/bits/basic_string.h ****        *  Returns a read/write reverse iterator that points to one before the
3063:/usr/include/c++/5/bits/basic_string.h ****        *  first character in the %string.  Iteration is done in reverse
3064:/usr/include/c++/5/bits/basic_string.h ****        *  element order.  Unshares the string.
3065:/usr/include/c++/5/bits/basic_string.h ****        */
3066:/usr/include/c++/5/bits/basic_string.h ****       reverse_iterator
3067:/usr/include/c++/5/bits/basic_string.h ****       rend() // FIXME C++11: should be noexcept.
3068:/usr/include/c++/5/bits/basic_string.h ****       { return reverse_iterator(this->begin()); }
3069:/usr/include/c++/5/bits/basic_string.h **** 
3070:/usr/include/c++/5/bits/basic_string.h ****       /**
3071:/usr/include/c++/5/bits/basic_string.h ****        *  Returns a read-only (constant) reverse iterator that points
3072:/usr/include/c++/5/bits/basic_string.h ****        *  to one before the first character in the %string.  Iteration
3073:/usr/include/c++/5/bits/basic_string.h ****        *  is done in reverse element order.
3074:/usr/include/c++/5/bits/basic_string.h ****        */
3075:/usr/include/c++/5/bits/basic_string.h ****       const_reverse_iterator
3076:/usr/include/c++/5/bits/basic_string.h ****       rend() const _GLIBCXX_NOEXCEPT
3077:/usr/include/c++/5/bits/basic_string.h ****       { return const_reverse_iterator(this->begin()); }
3078:/usr/include/c++/5/bits/basic_string.h **** 
3079:/usr/include/c++/5/bits/basic_string.h **** #if __cplusplus >= 201103L
3080:/usr/include/c++/5/bits/basic_string.h ****       /**
3081:/usr/include/c++/5/bits/basic_string.h ****        *  Returns a read-only (constant) iterator that points to the first
3082:/usr/include/c++/5/bits/basic_string.h ****        *  character in the %string.
3083:/usr/include/c++/5/bits/basic_string.h ****        */
3084:/usr/include/c++/5/bits/basic_string.h ****       const_iterator
3085:/usr/include/c++/5/bits/basic_string.h ****       cbegin() const noexcept
3086:/usr/include/c++/5/bits/basic_string.h ****       { return const_iterator(this->_M_data()); }
3087:/usr/include/c++/5/bits/basic_string.h **** 
GAS LISTING /tmp/ccSpSEFs.s 			page 140


3088:/usr/include/c++/5/bits/basic_string.h ****       /**
3089:/usr/include/c++/5/bits/basic_string.h ****        *  Returns a read-only (constant) iterator that points one past the
3090:/usr/include/c++/5/bits/basic_string.h ****        *  last character in the %string.
3091:/usr/include/c++/5/bits/basic_string.h ****        */
3092:/usr/include/c++/5/bits/basic_string.h ****       const_iterator
3093:/usr/include/c++/5/bits/basic_string.h ****       cend() const noexcept
3094:/usr/include/c++/5/bits/basic_string.h ****       { return const_iterator(this->_M_data() + this->size()); }
3095:/usr/include/c++/5/bits/basic_string.h **** 
3096:/usr/include/c++/5/bits/basic_string.h ****       /**
3097:/usr/include/c++/5/bits/basic_string.h ****        *  Returns a read-only (constant) reverse iterator that points
3098:/usr/include/c++/5/bits/basic_string.h ****        *  to the last character in the %string.  Iteration is done in
3099:/usr/include/c++/5/bits/basic_string.h ****        *  reverse element order.
3100:/usr/include/c++/5/bits/basic_string.h ****        */
3101:/usr/include/c++/5/bits/basic_string.h ****       const_reverse_iterator
3102:/usr/include/c++/5/bits/basic_string.h ****       crbegin() const noexcept
3103:/usr/include/c++/5/bits/basic_string.h ****       { return const_reverse_iterator(this->end()); }
3104:/usr/include/c++/5/bits/basic_string.h **** 
3105:/usr/include/c++/5/bits/basic_string.h ****       /**
3106:/usr/include/c++/5/bits/basic_string.h ****        *  Returns a read-only (constant) reverse iterator that points
3107:/usr/include/c++/5/bits/basic_string.h ****        *  to one before the first character in the %string.  Iteration
3108:/usr/include/c++/5/bits/basic_string.h ****        *  is done in reverse element order.
3109:/usr/include/c++/5/bits/basic_string.h ****        */
3110:/usr/include/c++/5/bits/basic_string.h ****       const_reverse_iterator
3111:/usr/include/c++/5/bits/basic_string.h ****       crend() const noexcept
3112:/usr/include/c++/5/bits/basic_string.h ****       { return const_reverse_iterator(this->begin()); }
3113:/usr/include/c++/5/bits/basic_string.h **** #endif
3114:/usr/include/c++/5/bits/basic_string.h **** 
3115:/usr/include/c++/5/bits/basic_string.h ****     public:
3116:/usr/include/c++/5/bits/basic_string.h ****       // Capacity:
3117:/usr/include/c++/5/bits/basic_string.h ****       ///  Returns the number of characters in the string, not including any
3118:/usr/include/c++/5/bits/basic_string.h ****       ///  null-termination.
3119:/usr/include/c++/5/bits/basic_string.h ****       size_type
3120:/usr/include/c++/5/bits/basic_string.h ****       size() const _GLIBCXX_NOEXCEPT
3121:/usr/include/c++/5/bits/basic_string.h ****       { return _M_rep()->_M_length; }
3122:/usr/include/c++/5/bits/basic_string.h **** 
3123:/usr/include/c++/5/bits/basic_string.h ****       ///  Returns the number of characters in the string, not including any
3124:/usr/include/c++/5/bits/basic_string.h ****       ///  null-termination.
3125:/usr/include/c++/5/bits/basic_string.h ****       size_type
3126:/usr/include/c++/5/bits/basic_string.h ****       length() const _GLIBCXX_NOEXCEPT
3127:/usr/include/c++/5/bits/basic_string.h ****       { return _M_rep()->_M_length; }
3128:/usr/include/c++/5/bits/basic_string.h **** 
3129:/usr/include/c++/5/bits/basic_string.h ****       ///  Returns the size() of the largest possible %string.
3130:/usr/include/c++/5/bits/basic_string.h ****       size_type
3131:/usr/include/c++/5/bits/basic_string.h ****       max_size() const _GLIBCXX_NOEXCEPT
3132:/usr/include/c++/5/bits/basic_string.h ****       { return _Rep::_S_max_size; }
3133:/usr/include/c++/5/bits/basic_string.h **** 
3134:/usr/include/c++/5/bits/basic_string.h ****       /**
3135:/usr/include/c++/5/bits/basic_string.h ****        *  @brief  Resizes the %string to the specified number of characters.
3136:/usr/include/c++/5/bits/basic_string.h ****        *  @param  __n  Number of characters the %string should contain.
3137:/usr/include/c++/5/bits/basic_string.h ****        *  @param  __c  Character to fill any new elements.
3138:/usr/include/c++/5/bits/basic_string.h ****        *
3139:/usr/include/c++/5/bits/basic_string.h ****        *  This function will %resize the %string to the specified
3140:/usr/include/c++/5/bits/basic_string.h ****        *  number of characters.  If the number is smaller than the
3141:/usr/include/c++/5/bits/basic_string.h ****        *  %string's current size the %string is truncated, otherwise
3142:/usr/include/c++/5/bits/basic_string.h ****        *  the %string is extended and new elements are %set to @a __c.
3143:/usr/include/c++/5/bits/basic_string.h ****        */
3144:/usr/include/c++/5/bits/basic_string.h ****       void
GAS LISTING /tmp/ccSpSEFs.s 			page 141


3145:/usr/include/c++/5/bits/basic_string.h ****       resize(size_type __n, _CharT __c);
3146:/usr/include/c++/5/bits/basic_string.h **** 
3147:/usr/include/c++/5/bits/basic_string.h ****       /**
3148:/usr/include/c++/5/bits/basic_string.h ****        *  @brief  Resizes the %string to the specified number of characters.
3149:/usr/include/c++/5/bits/basic_string.h ****        *  @param  __n  Number of characters the %string should contain.
3150:/usr/include/c++/5/bits/basic_string.h ****        *
3151:/usr/include/c++/5/bits/basic_string.h ****        *  This function will resize the %string to the specified length.  If
3152:/usr/include/c++/5/bits/basic_string.h ****        *  the new size is smaller than the %string's current size the %string
3153:/usr/include/c++/5/bits/basic_string.h ****        *  is truncated, otherwise the %string is extended and new characters
3154:/usr/include/c++/5/bits/basic_string.h ****        *  are default-constructed.  For basic types such as char, this means
3155:/usr/include/c++/5/bits/basic_string.h ****        *  setting them to 0.
3156:/usr/include/c++/5/bits/basic_string.h ****        */
3157:/usr/include/c++/5/bits/basic_string.h ****       void
3158:/usr/include/c++/5/bits/basic_string.h ****       resize(size_type __n)
3159:/usr/include/c++/5/bits/basic_string.h ****       { this->resize(__n, _CharT()); }
3160:/usr/include/c++/5/bits/basic_string.h **** 
3161:/usr/include/c++/5/bits/basic_string.h **** #if __cplusplus >= 201103L
3162:/usr/include/c++/5/bits/basic_string.h ****       ///  A non-binding request to reduce capacity() to size().
3163:/usr/include/c++/5/bits/basic_string.h ****       void
3164:/usr/include/c++/5/bits/basic_string.h ****       shrink_to_fit() _GLIBCXX_NOEXCEPT
3165:/usr/include/c++/5/bits/basic_string.h ****       {
3166:/usr/include/c++/5/bits/basic_string.h **** #if __cpp_exceptions
3167:/usr/include/c++/5/bits/basic_string.h **** 	if (capacity() > size())
3168:/usr/include/c++/5/bits/basic_string.h **** 	  {
3169:/usr/include/c++/5/bits/basic_string.h **** 	    try
3170:/usr/include/c++/5/bits/basic_string.h **** 	      { reserve(0); }
3171:/usr/include/c++/5/bits/basic_string.h **** 	    catch(...)
3172:/usr/include/c++/5/bits/basic_string.h **** 	      { }
3173:/usr/include/c++/5/bits/basic_string.h **** 	  }
3174:/usr/include/c++/5/bits/basic_string.h **** #endif
3175:/usr/include/c++/5/bits/basic_string.h ****       }
3176:/usr/include/c++/5/bits/basic_string.h **** #endif
3177:/usr/include/c++/5/bits/basic_string.h **** 
3178:/usr/include/c++/5/bits/basic_string.h ****       /**
3179:/usr/include/c++/5/bits/basic_string.h ****        *  Returns the total number of characters that the %string can hold
3180:/usr/include/c++/5/bits/basic_string.h ****        *  before needing to allocate more memory.
3181:/usr/include/c++/5/bits/basic_string.h ****        */
3182:/usr/include/c++/5/bits/basic_string.h ****       size_type
3183:/usr/include/c++/5/bits/basic_string.h ****       capacity() const _GLIBCXX_NOEXCEPT
3184:/usr/include/c++/5/bits/basic_string.h ****       { return _M_rep()->_M_capacity; }
3185:/usr/include/c++/5/bits/basic_string.h **** 
3186:/usr/include/c++/5/bits/basic_string.h ****       /**
3187:/usr/include/c++/5/bits/basic_string.h ****        *  @brief  Attempt to preallocate enough memory for specified number of
3188:/usr/include/c++/5/bits/basic_string.h ****        *          characters.
3189:/usr/include/c++/5/bits/basic_string.h ****        *  @param  __res_arg  Number of characters required.
3190:/usr/include/c++/5/bits/basic_string.h ****        *  @throw  std::length_error  If @a __res_arg exceeds @c max_size().
3191:/usr/include/c++/5/bits/basic_string.h ****        *
3192:/usr/include/c++/5/bits/basic_string.h ****        *  This function attempts to reserve enough memory for the
3193:/usr/include/c++/5/bits/basic_string.h ****        *  %string to hold the specified number of characters.  If the
3194:/usr/include/c++/5/bits/basic_string.h ****        *  number requested is more than max_size(), length_error is
3195:/usr/include/c++/5/bits/basic_string.h ****        *  thrown.
3196:/usr/include/c++/5/bits/basic_string.h ****        *
3197:/usr/include/c++/5/bits/basic_string.h ****        *  The advantage of this function is that if optimal code is a
3198:/usr/include/c++/5/bits/basic_string.h ****        *  necessity and the user can determine the string length that will be
3199:/usr/include/c++/5/bits/basic_string.h ****        *  required, the user can reserve the memory in %advance, and thus
3200:/usr/include/c++/5/bits/basic_string.h ****        *  prevent a possible reallocation of memory and copying of %string
3201:/usr/include/c++/5/bits/basic_string.h ****        *  data.
GAS LISTING /tmp/ccSpSEFs.s 			page 142


3202:/usr/include/c++/5/bits/basic_string.h ****        */
3203:/usr/include/c++/5/bits/basic_string.h ****       void
3204:/usr/include/c++/5/bits/basic_string.h ****       reserve(size_type __res_arg = 0);
3205:/usr/include/c++/5/bits/basic_string.h **** 
3206:/usr/include/c++/5/bits/basic_string.h ****       /**
3207:/usr/include/c++/5/bits/basic_string.h ****        *  Erases the string, making it empty.
3208:/usr/include/c++/5/bits/basic_string.h ****        */
3209:/usr/include/c++/5/bits/basic_string.h ****       // PR 56166: this should not throw.
3210:/usr/include/c++/5/bits/basic_string.h ****       void
3211:/usr/include/c++/5/bits/basic_string.h ****       clear()
3212:/usr/include/c++/5/bits/basic_string.h ****       { _M_mutate(0, this->size(), 0); }
3213:/usr/include/c++/5/bits/basic_string.h **** 
3214:/usr/include/c++/5/bits/basic_string.h ****       /**
3215:/usr/include/c++/5/bits/basic_string.h ****        *  Returns true if the %string is empty.  Equivalent to 
3216:/usr/include/c++/5/bits/basic_string.h ****        *  <code>*this == ""</code>.
3217:/usr/include/c++/5/bits/basic_string.h ****        */
3218:/usr/include/c++/5/bits/basic_string.h ****       bool
3219:/usr/include/c++/5/bits/basic_string.h ****       empty() const _GLIBCXX_NOEXCEPT
3220:/usr/include/c++/5/bits/basic_string.h ****       { return this->size() == 0; }
3221:/usr/include/c++/5/bits/basic_string.h **** 
3222:/usr/include/c++/5/bits/basic_string.h ****       // Element access:
3223:/usr/include/c++/5/bits/basic_string.h ****       /**
3224:/usr/include/c++/5/bits/basic_string.h ****        *  @brief  Subscript access to the data contained in the %string.
3225:/usr/include/c++/5/bits/basic_string.h ****        *  @param  __pos  The index of the character to access.
3226:/usr/include/c++/5/bits/basic_string.h ****        *  @return  Read-only (constant) reference to the character.
3227:/usr/include/c++/5/bits/basic_string.h ****        *
3228:/usr/include/c++/5/bits/basic_string.h ****        *  This operator allows for easy, array-style, data access.
3229:/usr/include/c++/5/bits/basic_string.h ****        *  Note that data access with this operator is unchecked and
3230:/usr/include/c++/5/bits/basic_string.h ****        *  out_of_range lookups are not defined. (For checked lookups
3231:/usr/include/c++/5/bits/basic_string.h ****        *  see at().)
3232:/usr/include/c++/5/bits/basic_string.h ****        */
3233:/usr/include/c++/5/bits/basic_string.h ****       const_reference
3234:/usr/include/c++/5/bits/basic_string.h ****       operator[] (size_type __pos) const _GLIBCXX_NOEXCEPT
3235:/usr/include/c++/5/bits/basic_string.h ****       {
3236:/usr/include/c++/5/bits/basic_string.h **** 	_GLIBCXX_DEBUG_ASSERT(__pos <= size());
3237:/usr/include/c++/5/bits/basic_string.h **** 	return _M_data()[__pos];
3238:/usr/include/c++/5/bits/basic_string.h ****       }
3239:/usr/include/c++/5/bits/basic_string.h **** 
3240:/usr/include/c++/5/bits/basic_string.h ****       /**
3241:/usr/include/c++/5/bits/basic_string.h ****        *  @brief  Subscript access to the data contained in the %string.
3242:/usr/include/c++/5/bits/basic_string.h ****        *  @param  __pos  The index of the character to access.
3243:/usr/include/c++/5/bits/basic_string.h ****        *  @return  Read/write reference to the character.
3244:/usr/include/c++/5/bits/basic_string.h ****        *
3245:/usr/include/c++/5/bits/basic_string.h ****        *  This operator allows for easy, array-style, data access.
3246:/usr/include/c++/5/bits/basic_string.h ****        *  Note that data access with this operator is unchecked and
3247:/usr/include/c++/5/bits/basic_string.h ****        *  out_of_range lookups are not defined. (For checked lookups
3248:/usr/include/c++/5/bits/basic_string.h ****        *  see at().)  Unshares the string.
3249:/usr/include/c++/5/bits/basic_string.h ****        */
3250:/usr/include/c++/5/bits/basic_string.h ****       reference
3251:/usr/include/c++/5/bits/basic_string.h ****       operator[](size_type __pos)
3252:/usr/include/c++/5/bits/basic_string.h ****       {
3253:/usr/include/c++/5/bits/basic_string.h ****         // Allow pos == size() both in C++98 mode, as v3 extension,
3254:/usr/include/c++/5/bits/basic_string.h **** 	// and in C++11 mode.
3255:/usr/include/c++/5/bits/basic_string.h **** 	_GLIBCXX_DEBUG_ASSERT(__pos <= size());
3256:/usr/include/c++/5/bits/basic_string.h ****         // In pedantic mode be strict in C++98 mode.
3257:/usr/include/c++/5/bits/basic_string.h **** 	_GLIBCXX_DEBUG_PEDASSERT(__cplusplus >= 201103L || __pos < size());
3258:/usr/include/c++/5/bits/basic_string.h **** 	_M_leak();
GAS LISTING /tmp/ccSpSEFs.s 			page 143


3259:/usr/include/c++/5/bits/basic_string.h **** 	return _M_data()[__pos];
3260:/usr/include/c++/5/bits/basic_string.h ****       }
3261:/usr/include/c++/5/bits/basic_string.h **** 
3262:/usr/include/c++/5/bits/basic_string.h ****       /**
3263:/usr/include/c++/5/bits/basic_string.h ****        *  @brief  Provides access to the data contained in the %string.
3264:/usr/include/c++/5/bits/basic_string.h ****        *  @param __n The index of the character to access.
3265:/usr/include/c++/5/bits/basic_string.h ****        *  @return  Read-only (const) reference to the character.
3266:/usr/include/c++/5/bits/basic_string.h ****        *  @throw  std::out_of_range  If @a n is an invalid index.
3267:/usr/include/c++/5/bits/basic_string.h ****        *
3268:/usr/include/c++/5/bits/basic_string.h ****        *  This function provides for safer data access.  The parameter is
3269:/usr/include/c++/5/bits/basic_string.h ****        *  first checked that it is in the range of the string.  The function
3270:/usr/include/c++/5/bits/basic_string.h ****        *  throws out_of_range if the check fails.
3271:/usr/include/c++/5/bits/basic_string.h ****        */
3272:/usr/include/c++/5/bits/basic_string.h ****       const_reference
3273:/usr/include/c++/5/bits/basic_string.h ****       at(size_type __n) const
3274:/usr/include/c++/5/bits/basic_string.h ****       {
3275:/usr/include/c++/5/bits/basic_string.h **** 	if (__n >= this->size())
3276:/usr/include/c++/5/bits/basic_string.h **** 	  __throw_out_of_range_fmt(__N("basic_string::at: __n "
3277:/usr/include/c++/5/bits/basic_string.h **** 				       "(which is %zu) >= this->size() "
3278:/usr/include/c++/5/bits/basic_string.h **** 				       "(which is %zu)"),
3279:/usr/include/c++/5/bits/basic_string.h **** 				   __n, this->size());
3280:/usr/include/c++/5/bits/basic_string.h **** 	return _M_data()[__n];
3281:/usr/include/c++/5/bits/basic_string.h ****       }
3282:/usr/include/c++/5/bits/basic_string.h **** 
3283:/usr/include/c++/5/bits/basic_string.h ****       /**
3284:/usr/include/c++/5/bits/basic_string.h ****        *  @brief  Provides access to the data contained in the %string.
3285:/usr/include/c++/5/bits/basic_string.h ****        *  @param __n The index of the character to access.
3286:/usr/include/c++/5/bits/basic_string.h ****        *  @return  Read/write reference to the character.
3287:/usr/include/c++/5/bits/basic_string.h ****        *  @throw  std::out_of_range  If @a n is an invalid index.
3288:/usr/include/c++/5/bits/basic_string.h ****        *
3289:/usr/include/c++/5/bits/basic_string.h ****        *  This function provides for safer data access.  The parameter is
3290:/usr/include/c++/5/bits/basic_string.h ****        *  first checked that it is in the range of the string.  The function
3291:/usr/include/c++/5/bits/basic_string.h ****        *  throws out_of_range if the check fails.  Success results in
3292:/usr/include/c++/5/bits/basic_string.h ****        *  unsharing the string.
3293:/usr/include/c++/5/bits/basic_string.h ****        */
3294:/usr/include/c++/5/bits/basic_string.h ****       reference
3295:/usr/include/c++/5/bits/basic_string.h ****       at(size_type __n)
3296:/usr/include/c++/5/bits/basic_string.h ****       {
3297:/usr/include/c++/5/bits/basic_string.h **** 	if (__n >= size())
3298:/usr/include/c++/5/bits/basic_string.h **** 	  __throw_out_of_range_fmt(__N("basic_string::at: __n "
3299:/usr/include/c++/5/bits/basic_string.h **** 				       "(which is %zu) >= this->size() "
3300:/usr/include/c++/5/bits/basic_string.h **** 				       "(which is %zu)"),
3301:/usr/include/c++/5/bits/basic_string.h **** 				   __n, this->size());
3302:/usr/include/c++/5/bits/basic_string.h **** 	_M_leak();
3303:/usr/include/c++/5/bits/basic_string.h **** 	return _M_data()[__n];
3304:/usr/include/c++/5/bits/basic_string.h ****       }
3305:/usr/include/c++/5/bits/basic_string.h **** 
3306:/usr/include/c++/5/bits/basic_string.h **** #if __cplusplus >= 201103L
3307:/usr/include/c++/5/bits/basic_string.h ****       /**
3308:/usr/include/c++/5/bits/basic_string.h ****        *  Returns a read/write reference to the data at the first
3309:/usr/include/c++/5/bits/basic_string.h ****        *  element of the %string.
3310:/usr/include/c++/5/bits/basic_string.h ****        */
3311:/usr/include/c++/5/bits/basic_string.h ****       reference
3312:/usr/include/c++/5/bits/basic_string.h ****       front()
3313:/usr/include/c++/5/bits/basic_string.h ****       { return operator[](0); }
3314:/usr/include/c++/5/bits/basic_string.h **** 
3315:/usr/include/c++/5/bits/basic_string.h ****       /**
GAS LISTING /tmp/ccSpSEFs.s 			page 144


3316:/usr/include/c++/5/bits/basic_string.h ****        *  Returns a read-only (constant) reference to the data at the first
3317:/usr/include/c++/5/bits/basic_string.h ****        *  element of the %string.
3318:/usr/include/c++/5/bits/basic_string.h ****        */
3319:/usr/include/c++/5/bits/basic_string.h ****       const_reference
3320:/usr/include/c++/5/bits/basic_string.h ****       front() const _GLIBCXX_NOEXCEPT
3321:/usr/include/c++/5/bits/basic_string.h ****       { return operator[](0); }
3322:/usr/include/c++/5/bits/basic_string.h **** 
3323:/usr/include/c++/5/bits/basic_string.h ****       /**
3324:/usr/include/c++/5/bits/basic_string.h ****        *  Returns a read/write reference to the data at the last
3325:/usr/include/c++/5/bits/basic_string.h ****        *  element of the %string.
3326:/usr/include/c++/5/bits/basic_string.h ****        */
3327:/usr/include/c++/5/bits/basic_string.h ****       reference
3328:/usr/include/c++/5/bits/basic_string.h ****       back()
3329:/usr/include/c++/5/bits/basic_string.h ****       { return operator[](this->size() - 1); }
3330:/usr/include/c++/5/bits/basic_string.h **** 
3331:/usr/include/c++/5/bits/basic_string.h ****       /**
3332:/usr/include/c++/5/bits/basic_string.h ****        *  Returns a read-only (constant) reference to the data at the
3333:/usr/include/c++/5/bits/basic_string.h ****        *  last element of the %string.
3334:/usr/include/c++/5/bits/basic_string.h ****        */
3335:/usr/include/c++/5/bits/basic_string.h ****       const_reference
3336:/usr/include/c++/5/bits/basic_string.h ****       back() const _GLIBCXX_NOEXCEPT
3337:/usr/include/c++/5/bits/basic_string.h ****       { return operator[](this->size() - 1); }
3338:/usr/include/c++/5/bits/basic_string.h **** #endif
3339:/usr/include/c++/5/bits/basic_string.h **** 
3340:/usr/include/c++/5/bits/basic_string.h ****       // Modifiers:
3341:/usr/include/c++/5/bits/basic_string.h ****       /**
3342:/usr/include/c++/5/bits/basic_string.h ****        *  @brief  Append a string to this string.
3343:/usr/include/c++/5/bits/basic_string.h ****        *  @param __str  The string to append.
3344:/usr/include/c++/5/bits/basic_string.h ****        *  @return  Reference to this string.
3345:/usr/include/c++/5/bits/basic_string.h ****        */
3346:/usr/include/c++/5/bits/basic_string.h ****       basic_string&
3347:/usr/include/c++/5/bits/basic_string.h ****       operator+=(const basic_string& __str)
3348:/usr/include/c++/5/bits/basic_string.h ****       { return this->append(__str); }
3349:/usr/include/c++/5/bits/basic_string.h **** 
3350:/usr/include/c++/5/bits/basic_string.h ****       /**
3351:/usr/include/c++/5/bits/basic_string.h ****        *  @brief  Append a C string.
3352:/usr/include/c++/5/bits/basic_string.h ****        *  @param __s  The C string to append.
3353:/usr/include/c++/5/bits/basic_string.h ****        *  @return  Reference to this string.
3354:/usr/include/c++/5/bits/basic_string.h ****        */
3355:/usr/include/c++/5/bits/basic_string.h ****       basic_string&
3356:/usr/include/c++/5/bits/basic_string.h ****       operator+=(const _CharT* __s)
3357:/usr/include/c++/5/bits/basic_string.h ****       { return this->append(__s); }
3358:/usr/include/c++/5/bits/basic_string.h **** 
3359:/usr/include/c++/5/bits/basic_string.h ****       /**
3360:/usr/include/c++/5/bits/basic_string.h ****        *  @brief  Append a character.
3361:/usr/include/c++/5/bits/basic_string.h ****        *  @param __c  The character to append.
3362:/usr/include/c++/5/bits/basic_string.h ****        *  @return  Reference to this string.
3363:/usr/include/c++/5/bits/basic_string.h ****        */
3364:/usr/include/c++/5/bits/basic_string.h ****       basic_string&
3365:/usr/include/c++/5/bits/basic_string.h ****       operator+=(_CharT __c)
3366:/usr/include/c++/5/bits/basic_string.h ****       { 
3367:/usr/include/c++/5/bits/basic_string.h **** 	this->push_back(__c);
3368:/usr/include/c++/5/bits/basic_string.h **** 	return *this;
3369:/usr/include/c++/5/bits/basic_string.h ****       }
3370:/usr/include/c++/5/bits/basic_string.h **** 
3371:/usr/include/c++/5/bits/basic_string.h **** #if __cplusplus >= 201103L
3372:/usr/include/c++/5/bits/basic_string.h ****       /**
GAS LISTING /tmp/ccSpSEFs.s 			page 145


3373:/usr/include/c++/5/bits/basic_string.h ****        *  @brief  Append an initializer_list of characters.
3374:/usr/include/c++/5/bits/basic_string.h ****        *  @param __l  The initializer_list of characters to be appended.
3375:/usr/include/c++/5/bits/basic_string.h ****        *  @return  Reference to this string.
3376:/usr/include/c++/5/bits/basic_string.h ****        */
3377:/usr/include/c++/5/bits/basic_string.h ****       basic_string&
3378:/usr/include/c++/5/bits/basic_string.h ****       operator+=(initializer_list<_CharT> __l)
3379:/usr/include/c++/5/bits/basic_string.h ****       { return this->append(__l.begin(), __l.size()); }
3380:/usr/include/c++/5/bits/basic_string.h **** #endif // C++11
3381:/usr/include/c++/5/bits/basic_string.h **** 
3382:/usr/include/c++/5/bits/basic_string.h ****       /**
3383:/usr/include/c++/5/bits/basic_string.h ****        *  @brief  Append a string to this string.
3384:/usr/include/c++/5/bits/basic_string.h ****        *  @param __str  The string to append.
3385:/usr/include/c++/5/bits/basic_string.h ****        *  @return  Reference to this string.
3386:/usr/include/c++/5/bits/basic_string.h ****        */
3387:/usr/include/c++/5/bits/basic_string.h ****       basic_string&
3388:/usr/include/c++/5/bits/basic_string.h ****       append(const basic_string& __str);
3389:/usr/include/c++/5/bits/basic_string.h **** 
3390:/usr/include/c++/5/bits/basic_string.h ****       /**
3391:/usr/include/c++/5/bits/basic_string.h ****        *  @brief  Append a substring.
3392:/usr/include/c++/5/bits/basic_string.h ****        *  @param __str  The string to append.
3393:/usr/include/c++/5/bits/basic_string.h ****        *  @param __pos  Index of the first character of str to append.
3394:/usr/include/c++/5/bits/basic_string.h ****        *  @param __n  The number of characters to append.
3395:/usr/include/c++/5/bits/basic_string.h ****        *  @return  Reference to this string.
3396:/usr/include/c++/5/bits/basic_string.h ****        *  @throw  std::out_of_range if @a __pos is not a valid index.
3397:/usr/include/c++/5/bits/basic_string.h ****        *
3398:/usr/include/c++/5/bits/basic_string.h ****        *  This function appends @a __n characters from @a __str
3399:/usr/include/c++/5/bits/basic_string.h ****        *  starting at @a __pos to this string.  If @a __n is is larger
3400:/usr/include/c++/5/bits/basic_string.h ****        *  than the number of available characters in @a __str, the
3401:/usr/include/c++/5/bits/basic_string.h ****        *  remainder of @a __str is appended.
3402:/usr/include/c++/5/bits/basic_string.h ****        */
3403:/usr/include/c++/5/bits/basic_string.h ****       basic_string&
3404:/usr/include/c++/5/bits/basic_string.h ****       append(const basic_string& __str, size_type __pos, size_type __n);
3405:/usr/include/c++/5/bits/basic_string.h **** 
3406:/usr/include/c++/5/bits/basic_string.h ****       /**
3407:/usr/include/c++/5/bits/basic_string.h ****        *  @brief  Append a C substring.
3408:/usr/include/c++/5/bits/basic_string.h ****        *  @param __s  The C string to append.
3409:/usr/include/c++/5/bits/basic_string.h ****        *  @param __n  The number of characters to append.
3410:/usr/include/c++/5/bits/basic_string.h ****        *  @return  Reference to this string.
3411:/usr/include/c++/5/bits/basic_string.h ****        */
3412:/usr/include/c++/5/bits/basic_string.h ****       basic_string&
3413:/usr/include/c++/5/bits/basic_string.h ****       append(const _CharT* __s, size_type __n);
3414:/usr/include/c++/5/bits/basic_string.h **** 
3415:/usr/include/c++/5/bits/basic_string.h ****       /**
3416:/usr/include/c++/5/bits/basic_string.h ****        *  @brief  Append a C string.
3417:/usr/include/c++/5/bits/basic_string.h ****        *  @param __s  The C string to append.
3418:/usr/include/c++/5/bits/basic_string.h ****        *  @return  Reference to this string.
3419:/usr/include/c++/5/bits/basic_string.h ****        */
3420:/usr/include/c++/5/bits/basic_string.h ****       basic_string&
3421:/usr/include/c++/5/bits/basic_string.h ****       append(const _CharT* __s)
3422:/usr/include/c++/5/bits/basic_string.h ****       {
3423:/usr/include/c++/5/bits/basic_string.h **** 	__glibcxx_requires_string(__s);
3424:/usr/include/c++/5/bits/basic_string.h **** 	return this->append(__s, traits_type::length(__s));
3425:/usr/include/c++/5/bits/basic_string.h ****       }
3426:/usr/include/c++/5/bits/basic_string.h **** 
3427:/usr/include/c++/5/bits/basic_string.h ****       /**
3428:/usr/include/c++/5/bits/basic_string.h ****        *  @brief  Append multiple characters.
3429:/usr/include/c++/5/bits/basic_string.h ****        *  @param __n  The number of characters to append.
GAS LISTING /tmp/ccSpSEFs.s 			page 146


3430:/usr/include/c++/5/bits/basic_string.h ****        *  @param __c  The character to use.
3431:/usr/include/c++/5/bits/basic_string.h ****        *  @return  Reference to this string.
3432:/usr/include/c++/5/bits/basic_string.h ****        *
3433:/usr/include/c++/5/bits/basic_string.h ****        *  Appends __n copies of __c to this string.
3434:/usr/include/c++/5/bits/basic_string.h ****        */
3435:/usr/include/c++/5/bits/basic_string.h ****       basic_string&
3436:/usr/include/c++/5/bits/basic_string.h ****       append(size_type __n, _CharT __c);
3437:/usr/include/c++/5/bits/basic_string.h **** 
3438:/usr/include/c++/5/bits/basic_string.h **** #if __cplusplus >= 201103L
3439:/usr/include/c++/5/bits/basic_string.h ****       /**
3440:/usr/include/c++/5/bits/basic_string.h ****        *  @brief  Append an initializer_list of characters.
3441:/usr/include/c++/5/bits/basic_string.h ****        *  @param __l  The initializer_list of characters to append.
3442:/usr/include/c++/5/bits/basic_string.h ****        *  @return  Reference to this string.
3443:/usr/include/c++/5/bits/basic_string.h ****        */
3444:/usr/include/c++/5/bits/basic_string.h ****       basic_string&
3445:/usr/include/c++/5/bits/basic_string.h ****       append(initializer_list<_CharT> __l)
3446:/usr/include/c++/5/bits/basic_string.h ****       { return this->append(__l.begin(), __l.size()); }
3447:/usr/include/c++/5/bits/basic_string.h **** #endif // C++11
3448:/usr/include/c++/5/bits/basic_string.h **** 
3449:/usr/include/c++/5/bits/basic_string.h ****       /**
3450:/usr/include/c++/5/bits/basic_string.h ****        *  @brief  Append a range of characters.
3451:/usr/include/c++/5/bits/basic_string.h ****        *  @param __first  Iterator referencing the first character to append.
3452:/usr/include/c++/5/bits/basic_string.h ****        *  @param __last  Iterator marking the end of the range.
3453:/usr/include/c++/5/bits/basic_string.h ****        *  @return  Reference to this string.
3454:/usr/include/c++/5/bits/basic_string.h ****        *
3455:/usr/include/c++/5/bits/basic_string.h ****        *  Appends characters in the range [__first,__last) to this string.
3456:/usr/include/c++/5/bits/basic_string.h ****        */
3457:/usr/include/c++/5/bits/basic_string.h ****       template<class _InputIterator>
3458:/usr/include/c++/5/bits/basic_string.h ****         basic_string&
3459:/usr/include/c++/5/bits/basic_string.h ****         append(_InputIterator __first, _InputIterator __last)
3460:/usr/include/c++/5/bits/basic_string.h ****         { return this->replace(_M_iend(), _M_iend(), __first, __last); }
3461:/usr/include/c++/5/bits/basic_string.h **** 
3462:/usr/include/c++/5/bits/basic_string.h ****       /**
3463:/usr/include/c++/5/bits/basic_string.h ****        *  @brief  Append a single character.
3464:/usr/include/c++/5/bits/basic_string.h ****        *  @param __c  Character to append.
3465:/usr/include/c++/5/bits/basic_string.h ****        */
3466:/usr/include/c++/5/bits/basic_string.h ****       void
3467:/usr/include/c++/5/bits/basic_string.h ****       push_back(_CharT __c)
3468:/usr/include/c++/5/bits/basic_string.h ****       { 
3469:/usr/include/c++/5/bits/basic_string.h **** 	const size_type __len = 1 + this->size();
3470:/usr/include/c++/5/bits/basic_string.h **** 	if (__len > this->capacity() || _M_rep()->_M_is_shared())
3471:/usr/include/c++/5/bits/basic_string.h **** 	  this->reserve(__len);
3472:/usr/include/c++/5/bits/basic_string.h **** 	traits_type::assign(_M_data()[this->size()], __c);
3473:/usr/include/c++/5/bits/basic_string.h **** 	_M_rep()->_M_set_length_and_sharable(__len);
3474:/usr/include/c++/5/bits/basic_string.h ****       }
3475:/usr/include/c++/5/bits/basic_string.h **** 
3476:/usr/include/c++/5/bits/basic_string.h ****       /**
3477:/usr/include/c++/5/bits/basic_string.h ****        *  @brief  Set value to contents of another string.
3478:/usr/include/c++/5/bits/basic_string.h ****        *  @param  __str  Source string to use.
3479:/usr/include/c++/5/bits/basic_string.h ****        *  @return  Reference to this string.
3480:/usr/include/c++/5/bits/basic_string.h ****        */
3481:/usr/include/c++/5/bits/basic_string.h ****       basic_string&
3482:/usr/include/c++/5/bits/basic_string.h ****       assign(const basic_string& __str);
3483:/usr/include/c++/5/bits/basic_string.h **** 
3484:/usr/include/c++/5/bits/basic_string.h **** #if __cplusplus >= 201103L
3485:/usr/include/c++/5/bits/basic_string.h ****       /**
3486:/usr/include/c++/5/bits/basic_string.h ****        *  @brief  Set value to contents of another string.
GAS LISTING /tmp/ccSpSEFs.s 			page 147


3487:/usr/include/c++/5/bits/basic_string.h ****        *  @param  __str  Source string to use.
3488:/usr/include/c++/5/bits/basic_string.h ****        *  @return  Reference to this string.
3489:/usr/include/c++/5/bits/basic_string.h ****        *
3490:/usr/include/c++/5/bits/basic_string.h ****        *  This function sets this string to the exact contents of @a __str.
3491:/usr/include/c++/5/bits/basic_string.h ****        *  @a __str is a valid, but unspecified string.
3492:/usr/include/c++/5/bits/basic_string.h ****        */
3493:/usr/include/c++/5/bits/basic_string.h ****       // PR 58265, this should be noexcept.
3494:/usr/include/c++/5/bits/basic_string.h ****       basic_string&
3495:/usr/include/c++/5/bits/basic_string.h ****       assign(basic_string&& __str)
3496:/usr/include/c++/5/bits/basic_string.h ****       {
3497:/usr/include/c++/5/bits/basic_string.h **** 	this->swap(__str);
3498:/usr/include/c++/5/bits/basic_string.h **** 	return *this;
3499:/usr/include/c++/5/bits/basic_string.h ****       }
3500:/usr/include/c++/5/bits/basic_string.h **** #endif // C++11
3501:/usr/include/c++/5/bits/basic_string.h **** 
3502:/usr/include/c++/5/bits/basic_string.h ****       /**
3503:/usr/include/c++/5/bits/basic_string.h ****        *  @brief  Set value to a substring of a string.
3504:/usr/include/c++/5/bits/basic_string.h ****        *  @param __str  The string to use.
3505:/usr/include/c++/5/bits/basic_string.h ****        *  @param __pos  Index of the first character of str.
3506:/usr/include/c++/5/bits/basic_string.h ****        *  @param __n  Number of characters to use.
3507:/usr/include/c++/5/bits/basic_string.h ****        *  @return  Reference to this string.
3508:/usr/include/c++/5/bits/basic_string.h ****        *  @throw  std::out_of_range if @a pos is not a valid index.
3509:/usr/include/c++/5/bits/basic_string.h ****        *
3510:/usr/include/c++/5/bits/basic_string.h ****        *  This function sets this string to the substring of @a __str
3511:/usr/include/c++/5/bits/basic_string.h ****        *  consisting of @a __n characters at @a __pos.  If @a __n is
3512:/usr/include/c++/5/bits/basic_string.h ****        *  is larger than the number of available characters in @a
3513:/usr/include/c++/5/bits/basic_string.h ****        *  __str, the remainder of @a __str is used.
3514:/usr/include/c++/5/bits/basic_string.h ****        */
3515:/usr/include/c++/5/bits/basic_string.h ****       basic_string&
3516:/usr/include/c++/5/bits/basic_string.h ****       assign(const basic_string& __str, size_type __pos, size_type __n)
3517:/usr/include/c++/5/bits/basic_string.h ****       { return this->assign(__str._M_data()
3518:/usr/include/c++/5/bits/basic_string.h **** 			    + __str._M_check(__pos, "basic_string::assign"),
3519:/usr/include/c++/5/bits/basic_string.h **** 			    __str._M_limit(__pos, __n)); }
3520:/usr/include/c++/5/bits/basic_string.h **** 
3521:/usr/include/c++/5/bits/basic_string.h ****       /**
3522:/usr/include/c++/5/bits/basic_string.h ****        *  @brief  Set value to a C substring.
3523:/usr/include/c++/5/bits/basic_string.h ****        *  @param __s  The C string to use.
3524:/usr/include/c++/5/bits/basic_string.h ****        *  @param __n  Number of characters to use.
3525:/usr/include/c++/5/bits/basic_string.h ****        *  @return  Reference to this string.
3526:/usr/include/c++/5/bits/basic_string.h ****        *
3527:/usr/include/c++/5/bits/basic_string.h ****        *  This function sets the value of this string to the first @a __n
3528:/usr/include/c++/5/bits/basic_string.h ****        *  characters of @a __s.  If @a __n is is larger than the number of
3529:/usr/include/c++/5/bits/basic_string.h ****        *  available characters in @a __s, the remainder of @a __s is used.
3530:/usr/include/c++/5/bits/basic_string.h ****        */
3531:/usr/include/c++/5/bits/basic_string.h ****       basic_string&
3532:/usr/include/c++/5/bits/basic_string.h ****       assign(const _CharT* __s, size_type __n);
3533:/usr/include/c++/5/bits/basic_string.h **** 
3534:/usr/include/c++/5/bits/basic_string.h ****       /**
3535:/usr/include/c++/5/bits/basic_string.h ****        *  @brief  Set value to contents of a C string.
3536:/usr/include/c++/5/bits/basic_string.h ****        *  @param __s  The C string to use.
3537:/usr/include/c++/5/bits/basic_string.h ****        *  @return  Reference to this string.
3538:/usr/include/c++/5/bits/basic_string.h ****        *
3539:/usr/include/c++/5/bits/basic_string.h ****        *  This function sets the value of this string to the value of @a __s.
3540:/usr/include/c++/5/bits/basic_string.h ****        *  The data is copied, so there is no dependence on @a __s once the
3541:/usr/include/c++/5/bits/basic_string.h ****        *  function returns.
3542:/usr/include/c++/5/bits/basic_string.h ****        */
3543:/usr/include/c++/5/bits/basic_string.h ****       basic_string&
GAS LISTING /tmp/ccSpSEFs.s 			page 148


3544:/usr/include/c++/5/bits/basic_string.h ****       assign(const _CharT* __s)
3545:/usr/include/c++/5/bits/basic_string.h ****       {
3546:/usr/include/c++/5/bits/basic_string.h **** 	__glibcxx_requires_string(__s);
3547:/usr/include/c++/5/bits/basic_string.h **** 	return this->assign(__s, traits_type::length(__s));
3548:/usr/include/c++/5/bits/basic_string.h ****       }
3549:/usr/include/c++/5/bits/basic_string.h **** 
3550:/usr/include/c++/5/bits/basic_string.h ****       /**
3551:/usr/include/c++/5/bits/basic_string.h ****        *  @brief  Set value to multiple characters.
3552:/usr/include/c++/5/bits/basic_string.h ****        *  @param __n  Length of the resulting string.
3553:/usr/include/c++/5/bits/basic_string.h ****        *  @param __c  The character to use.
3554:/usr/include/c++/5/bits/basic_string.h ****        *  @return  Reference to this string.
3555:/usr/include/c++/5/bits/basic_string.h ****        *
3556:/usr/include/c++/5/bits/basic_string.h ****        *  This function sets the value of this string to @a __n copies of
3557:/usr/include/c++/5/bits/basic_string.h ****        *  character @a __c.
3558:/usr/include/c++/5/bits/basic_string.h ****        */
3559:/usr/include/c++/5/bits/basic_string.h ****       basic_string&
3560:/usr/include/c++/5/bits/basic_string.h ****       assign(size_type __n, _CharT __c)
3561:/usr/include/c++/5/bits/basic_string.h ****       { return _M_replace_aux(size_type(0), this->size(), __n, __c); }
3562:/usr/include/c++/5/bits/basic_string.h **** 
3563:/usr/include/c++/5/bits/basic_string.h ****       /**
3564:/usr/include/c++/5/bits/basic_string.h ****        *  @brief  Set value to a range of characters.
3565:/usr/include/c++/5/bits/basic_string.h ****        *  @param __first  Iterator referencing the first character to append.
3566:/usr/include/c++/5/bits/basic_string.h ****        *  @param __last  Iterator marking the end of the range.
3567:/usr/include/c++/5/bits/basic_string.h ****        *  @return  Reference to this string.
3568:/usr/include/c++/5/bits/basic_string.h ****        *
3569:/usr/include/c++/5/bits/basic_string.h ****        *  Sets value of string to characters in the range [__first,__last).
3570:/usr/include/c++/5/bits/basic_string.h ****       */
3571:/usr/include/c++/5/bits/basic_string.h ****       template<class _InputIterator>
3572:/usr/include/c++/5/bits/basic_string.h ****         basic_string&
3573:/usr/include/c++/5/bits/basic_string.h ****         assign(_InputIterator __first, _InputIterator __last)
3574:/usr/include/c++/5/bits/basic_string.h ****         { return this->replace(_M_ibegin(), _M_iend(), __first, __last); }
3575:/usr/include/c++/5/bits/basic_string.h **** 
3576:/usr/include/c++/5/bits/basic_string.h **** #if __cplusplus >= 201103L
3577:/usr/include/c++/5/bits/basic_string.h ****       /**
3578:/usr/include/c++/5/bits/basic_string.h ****        *  @brief  Set value to an initializer_list of characters.
3579:/usr/include/c++/5/bits/basic_string.h ****        *  @param __l  The initializer_list of characters to assign.
3580:/usr/include/c++/5/bits/basic_string.h ****        *  @return  Reference to this string.
3581:/usr/include/c++/5/bits/basic_string.h ****        */
3582:/usr/include/c++/5/bits/basic_string.h ****       basic_string&
3583:/usr/include/c++/5/bits/basic_string.h ****       assign(initializer_list<_CharT> __l)
3584:/usr/include/c++/5/bits/basic_string.h ****       { return this->assign(__l.begin(), __l.size()); }
3585:/usr/include/c++/5/bits/basic_string.h **** #endif // C++11
3586:/usr/include/c++/5/bits/basic_string.h **** 
3587:/usr/include/c++/5/bits/basic_string.h ****       /**
3588:/usr/include/c++/5/bits/basic_string.h ****        *  @brief  Insert multiple characters.
3589:/usr/include/c++/5/bits/basic_string.h ****        *  @param __p  Iterator referencing location in string to insert at.
3590:/usr/include/c++/5/bits/basic_string.h ****        *  @param __n  Number of characters to insert
3591:/usr/include/c++/5/bits/basic_string.h ****        *  @param __c  The character to insert.
3592:/usr/include/c++/5/bits/basic_string.h ****        *  @throw  std::length_error  If new length exceeds @c max_size().
3593:/usr/include/c++/5/bits/basic_string.h ****        *
3594:/usr/include/c++/5/bits/basic_string.h ****        *  Inserts @a __n copies of character @a __c starting at the
3595:/usr/include/c++/5/bits/basic_string.h ****        *  position referenced by iterator @a __p.  If adding
3596:/usr/include/c++/5/bits/basic_string.h ****        *  characters causes the length to exceed max_size(),
3597:/usr/include/c++/5/bits/basic_string.h ****        *  length_error is thrown.  The value of the string doesn't
3598:/usr/include/c++/5/bits/basic_string.h ****        *  change if an error is thrown.
3599:/usr/include/c++/5/bits/basic_string.h ****       */
3600:/usr/include/c++/5/bits/basic_string.h ****       void
GAS LISTING /tmp/ccSpSEFs.s 			page 149


3601:/usr/include/c++/5/bits/basic_string.h ****       insert(iterator __p, size_type __n, _CharT __c)
3602:/usr/include/c++/5/bits/basic_string.h ****       {	this->replace(__p, __p, __n, __c);  }
3603:/usr/include/c++/5/bits/basic_string.h **** 
3604:/usr/include/c++/5/bits/basic_string.h ****       /**
3605:/usr/include/c++/5/bits/basic_string.h ****        *  @brief  Insert a range of characters.
3606:/usr/include/c++/5/bits/basic_string.h ****        *  @param __p  Iterator referencing location in string to insert at.
3607:/usr/include/c++/5/bits/basic_string.h ****        *  @param __beg  Start of range.
3608:/usr/include/c++/5/bits/basic_string.h ****        *  @param __end  End of range.
3609:/usr/include/c++/5/bits/basic_string.h ****        *  @throw  std::length_error  If new length exceeds @c max_size().
3610:/usr/include/c++/5/bits/basic_string.h ****        *
3611:/usr/include/c++/5/bits/basic_string.h ****        *  Inserts characters in range [__beg,__end).  If adding
3612:/usr/include/c++/5/bits/basic_string.h ****        *  characters causes the length to exceed max_size(),
3613:/usr/include/c++/5/bits/basic_string.h ****        *  length_error is thrown.  The value of the string doesn't
3614:/usr/include/c++/5/bits/basic_string.h ****        *  change if an error is thrown.
3615:/usr/include/c++/5/bits/basic_string.h ****       */
3616:/usr/include/c++/5/bits/basic_string.h ****       template<class _InputIterator>
3617:/usr/include/c++/5/bits/basic_string.h ****         void
3618:/usr/include/c++/5/bits/basic_string.h ****         insert(iterator __p, _InputIterator __beg, _InputIterator __end)
3619:/usr/include/c++/5/bits/basic_string.h ****         { this->replace(__p, __p, __beg, __end); }
3620:/usr/include/c++/5/bits/basic_string.h **** 
3621:/usr/include/c++/5/bits/basic_string.h **** #if __cplusplus >= 201103L
3622:/usr/include/c++/5/bits/basic_string.h ****       /**
3623:/usr/include/c++/5/bits/basic_string.h ****        *  @brief  Insert an initializer_list of characters.
3624:/usr/include/c++/5/bits/basic_string.h ****        *  @param __p  Iterator referencing location in string to insert at.
3625:/usr/include/c++/5/bits/basic_string.h ****        *  @param __l  The initializer_list of characters to insert.
3626:/usr/include/c++/5/bits/basic_string.h ****        *  @throw  std::length_error  If new length exceeds @c max_size().
3627:/usr/include/c++/5/bits/basic_string.h ****        */
3628:/usr/include/c++/5/bits/basic_string.h ****       void
3629:/usr/include/c++/5/bits/basic_string.h ****       insert(iterator __p, initializer_list<_CharT> __l)
3630:/usr/include/c++/5/bits/basic_string.h ****       {
3631:/usr/include/c++/5/bits/basic_string.h **** 	_GLIBCXX_DEBUG_PEDASSERT(__p >= _M_ibegin() && __p <= _M_iend());
3632:/usr/include/c++/5/bits/basic_string.h **** 	this->insert(__p - _M_ibegin(), __l.begin(), __l.size());
3633:/usr/include/c++/5/bits/basic_string.h ****       }
3634:/usr/include/c++/5/bits/basic_string.h **** #endif // C++11
3635:/usr/include/c++/5/bits/basic_string.h **** 
3636:/usr/include/c++/5/bits/basic_string.h ****       /**
3637:/usr/include/c++/5/bits/basic_string.h ****        *  @brief  Insert value of a string.
3638:/usr/include/c++/5/bits/basic_string.h ****        *  @param __pos1  Iterator referencing location in string to insert at.
3639:/usr/include/c++/5/bits/basic_string.h ****        *  @param __str  The string to insert.
3640:/usr/include/c++/5/bits/basic_string.h ****        *  @return  Reference to this string.
3641:/usr/include/c++/5/bits/basic_string.h ****        *  @throw  std::length_error  If new length exceeds @c max_size().
3642:/usr/include/c++/5/bits/basic_string.h ****        *
3643:/usr/include/c++/5/bits/basic_string.h ****        *  Inserts value of @a __str starting at @a __pos1.  If adding
3644:/usr/include/c++/5/bits/basic_string.h ****        *  characters causes the length to exceed max_size(),
3645:/usr/include/c++/5/bits/basic_string.h ****        *  length_error is thrown.  The value of the string doesn't
3646:/usr/include/c++/5/bits/basic_string.h ****        *  change if an error is thrown.
3647:/usr/include/c++/5/bits/basic_string.h ****       */
3648:/usr/include/c++/5/bits/basic_string.h ****       basic_string&
3649:/usr/include/c++/5/bits/basic_string.h ****       insert(size_type __pos1, const basic_string& __str)
3650:/usr/include/c++/5/bits/basic_string.h ****       { return this->insert(__pos1, __str, size_type(0), __str.size()); }
3651:/usr/include/c++/5/bits/basic_string.h **** 
3652:/usr/include/c++/5/bits/basic_string.h ****       /**
3653:/usr/include/c++/5/bits/basic_string.h ****        *  @brief  Insert a substring.
3654:/usr/include/c++/5/bits/basic_string.h ****        *  @param __pos1  Iterator referencing location in string to insert at.
3655:/usr/include/c++/5/bits/basic_string.h ****        *  @param __str  The string to insert.
3656:/usr/include/c++/5/bits/basic_string.h ****        *  @param __pos2  Start of characters in str to insert.
3657:/usr/include/c++/5/bits/basic_string.h ****        *  @param __n  Number of characters to insert.
GAS LISTING /tmp/ccSpSEFs.s 			page 150


3658:/usr/include/c++/5/bits/basic_string.h ****        *  @return  Reference to this string.
3659:/usr/include/c++/5/bits/basic_string.h ****        *  @throw  std::length_error  If new length exceeds @c max_size().
3660:/usr/include/c++/5/bits/basic_string.h ****        *  @throw  std::out_of_range  If @a pos1 > size() or
3661:/usr/include/c++/5/bits/basic_string.h ****        *  @a __pos2 > @a str.size().
3662:/usr/include/c++/5/bits/basic_string.h ****        *
3663:/usr/include/c++/5/bits/basic_string.h ****        *  Starting at @a pos1, insert @a __n character of @a __str
3664:/usr/include/c++/5/bits/basic_string.h ****        *  beginning with @a __pos2.  If adding characters causes the
3665:/usr/include/c++/5/bits/basic_string.h ****        *  length to exceed max_size(), length_error is thrown.  If @a
3666:/usr/include/c++/5/bits/basic_string.h ****        *  __pos1 is beyond the end of this string or @a __pos2 is
3667:/usr/include/c++/5/bits/basic_string.h ****        *  beyond the end of @a __str, out_of_range is thrown.  The
3668:/usr/include/c++/5/bits/basic_string.h ****        *  value of the string doesn't change if an error is thrown.
3669:/usr/include/c++/5/bits/basic_string.h ****       */
3670:/usr/include/c++/5/bits/basic_string.h ****       basic_string&
3671:/usr/include/c++/5/bits/basic_string.h ****       insert(size_type __pos1, const basic_string& __str,
3672:/usr/include/c++/5/bits/basic_string.h **** 	     size_type __pos2, size_type __n)
3673:/usr/include/c++/5/bits/basic_string.h ****       { return this->insert(__pos1, __str._M_data()
3674:/usr/include/c++/5/bits/basic_string.h **** 			    + __str._M_check(__pos2, "basic_string::insert"),
3675:/usr/include/c++/5/bits/basic_string.h **** 			    __str._M_limit(__pos2, __n)); }
3676:/usr/include/c++/5/bits/basic_string.h **** 
3677:/usr/include/c++/5/bits/basic_string.h ****       /**
3678:/usr/include/c++/5/bits/basic_string.h ****        *  @brief  Insert a C substring.
3679:/usr/include/c++/5/bits/basic_string.h ****        *  @param __pos  Iterator referencing location in string to insert at.
3680:/usr/include/c++/5/bits/basic_string.h ****        *  @param __s  The C string to insert.
3681:/usr/include/c++/5/bits/basic_string.h ****        *  @param __n  The number of characters to insert.
3682:/usr/include/c++/5/bits/basic_string.h ****        *  @return  Reference to this string.
3683:/usr/include/c++/5/bits/basic_string.h ****        *  @throw  std::length_error  If new length exceeds @c max_size().
3684:/usr/include/c++/5/bits/basic_string.h ****        *  @throw  std::out_of_range  If @a __pos is beyond the end of this
3685:/usr/include/c++/5/bits/basic_string.h ****        *  string.
3686:/usr/include/c++/5/bits/basic_string.h ****        *
3687:/usr/include/c++/5/bits/basic_string.h ****        *  Inserts the first @a __n characters of @a __s starting at @a
3688:/usr/include/c++/5/bits/basic_string.h ****        *  __pos.  If adding characters causes the length to exceed
3689:/usr/include/c++/5/bits/basic_string.h ****        *  max_size(), length_error is thrown.  If @a __pos is beyond
3690:/usr/include/c++/5/bits/basic_string.h ****        *  end(), out_of_range is thrown.  The value of the string
3691:/usr/include/c++/5/bits/basic_string.h ****        *  doesn't change if an error is thrown.
3692:/usr/include/c++/5/bits/basic_string.h ****       */
3693:/usr/include/c++/5/bits/basic_string.h ****       basic_string&
3694:/usr/include/c++/5/bits/basic_string.h ****       insert(size_type __pos, const _CharT* __s, size_type __n);
3695:/usr/include/c++/5/bits/basic_string.h **** 
3696:/usr/include/c++/5/bits/basic_string.h ****       /**
3697:/usr/include/c++/5/bits/basic_string.h ****        *  @brief  Insert a C string.
3698:/usr/include/c++/5/bits/basic_string.h ****        *  @param __pos  Iterator referencing location in string to insert at.
3699:/usr/include/c++/5/bits/basic_string.h ****        *  @param __s  The C string to insert.
3700:/usr/include/c++/5/bits/basic_string.h ****        *  @return  Reference to this string.
3701:/usr/include/c++/5/bits/basic_string.h ****        *  @throw  std::length_error  If new length exceeds @c max_size().
3702:/usr/include/c++/5/bits/basic_string.h ****        *  @throw  std::out_of_range  If @a pos is beyond the end of this
3703:/usr/include/c++/5/bits/basic_string.h ****        *  string.
3704:/usr/include/c++/5/bits/basic_string.h ****        *
3705:/usr/include/c++/5/bits/basic_string.h ****        *  Inserts the first @a n characters of @a __s starting at @a __pos.  If
3706:/usr/include/c++/5/bits/basic_string.h ****        *  adding characters causes the length to exceed max_size(),
3707:/usr/include/c++/5/bits/basic_string.h ****        *  length_error is thrown.  If @a __pos is beyond end(), out_of_range is
3708:/usr/include/c++/5/bits/basic_string.h ****        *  thrown.  The value of the string doesn't change if an error is
3709:/usr/include/c++/5/bits/basic_string.h ****        *  thrown.
3710:/usr/include/c++/5/bits/basic_string.h ****       */
3711:/usr/include/c++/5/bits/basic_string.h ****       basic_string&
3712:/usr/include/c++/5/bits/basic_string.h ****       insert(size_type __pos, const _CharT* __s)
3713:/usr/include/c++/5/bits/basic_string.h ****       {
3714:/usr/include/c++/5/bits/basic_string.h **** 	__glibcxx_requires_string(__s);
GAS LISTING /tmp/ccSpSEFs.s 			page 151


3715:/usr/include/c++/5/bits/basic_string.h **** 	return this->insert(__pos, __s, traits_type::length(__s));
3716:/usr/include/c++/5/bits/basic_string.h ****       }
3717:/usr/include/c++/5/bits/basic_string.h **** 
3718:/usr/include/c++/5/bits/basic_string.h ****       /**
3719:/usr/include/c++/5/bits/basic_string.h ****        *  @brief  Insert multiple characters.
3720:/usr/include/c++/5/bits/basic_string.h ****        *  @param __pos  Index in string to insert at.
3721:/usr/include/c++/5/bits/basic_string.h ****        *  @param __n  Number of characters to insert
3722:/usr/include/c++/5/bits/basic_string.h ****        *  @param __c  The character to insert.
3723:/usr/include/c++/5/bits/basic_string.h ****        *  @return  Reference to this string.
3724:/usr/include/c++/5/bits/basic_string.h ****        *  @throw  std::length_error  If new length exceeds @c max_size().
3725:/usr/include/c++/5/bits/basic_string.h ****        *  @throw  std::out_of_range  If @a __pos is beyond the end of this
3726:/usr/include/c++/5/bits/basic_string.h ****        *  string.
3727:/usr/include/c++/5/bits/basic_string.h ****        *
3728:/usr/include/c++/5/bits/basic_string.h ****        *  Inserts @a __n copies of character @a __c starting at index
3729:/usr/include/c++/5/bits/basic_string.h ****        *  @a __pos.  If adding characters causes the length to exceed
3730:/usr/include/c++/5/bits/basic_string.h ****        *  max_size(), length_error is thrown.  If @a __pos > length(),
3731:/usr/include/c++/5/bits/basic_string.h ****        *  out_of_range is thrown.  The value of the string doesn't
3732:/usr/include/c++/5/bits/basic_string.h ****        *  change if an error is thrown.
3733:/usr/include/c++/5/bits/basic_string.h ****       */
3734:/usr/include/c++/5/bits/basic_string.h ****       basic_string&
3735:/usr/include/c++/5/bits/basic_string.h ****       insert(size_type __pos, size_type __n, _CharT __c)
3736:/usr/include/c++/5/bits/basic_string.h ****       { return _M_replace_aux(_M_check(__pos, "basic_string::insert"),
3737:/usr/include/c++/5/bits/basic_string.h **** 			      size_type(0), __n, __c); }
3738:/usr/include/c++/5/bits/basic_string.h **** 
3739:/usr/include/c++/5/bits/basic_string.h ****       /**
3740:/usr/include/c++/5/bits/basic_string.h ****        *  @brief  Insert one character.
3741:/usr/include/c++/5/bits/basic_string.h ****        *  @param __p  Iterator referencing position in string to insert at.
3742:/usr/include/c++/5/bits/basic_string.h ****        *  @param __c  The character to insert.
3743:/usr/include/c++/5/bits/basic_string.h ****        *  @return  Iterator referencing newly inserted char.
3744:/usr/include/c++/5/bits/basic_string.h ****        *  @throw  std::length_error  If new length exceeds @c max_size().
3745:/usr/include/c++/5/bits/basic_string.h ****        *
3746:/usr/include/c++/5/bits/basic_string.h ****        *  Inserts character @a __c at position referenced by @a __p.
3747:/usr/include/c++/5/bits/basic_string.h ****        *  If adding character causes the length to exceed max_size(),
3748:/usr/include/c++/5/bits/basic_string.h ****        *  length_error is thrown.  If @a __p is beyond end of string,
3749:/usr/include/c++/5/bits/basic_string.h ****        *  out_of_range is thrown.  The value of the string doesn't
3750:/usr/include/c++/5/bits/basic_string.h ****        *  change if an error is thrown.
3751:/usr/include/c++/5/bits/basic_string.h ****       */
3752:/usr/include/c++/5/bits/basic_string.h ****       iterator
3753:/usr/include/c++/5/bits/basic_string.h ****       insert(iterator __p, _CharT __c)
3754:/usr/include/c++/5/bits/basic_string.h ****       {
3755:/usr/include/c++/5/bits/basic_string.h **** 	_GLIBCXX_DEBUG_PEDASSERT(__p >= _M_ibegin() && __p <= _M_iend());
3756:/usr/include/c++/5/bits/basic_string.h **** 	const size_type __pos = __p - _M_ibegin();
3757:/usr/include/c++/5/bits/basic_string.h **** 	_M_replace_aux(__pos, size_type(0), size_type(1), __c);
3758:/usr/include/c++/5/bits/basic_string.h **** 	_M_rep()->_M_set_leaked();
3759:/usr/include/c++/5/bits/basic_string.h **** 	return iterator(_M_data() + __pos);
3760:/usr/include/c++/5/bits/basic_string.h ****       }
3761:/usr/include/c++/5/bits/basic_string.h **** 
3762:/usr/include/c++/5/bits/basic_string.h ****       /**
3763:/usr/include/c++/5/bits/basic_string.h ****        *  @brief  Remove characters.
3764:/usr/include/c++/5/bits/basic_string.h ****        *  @param __pos  Index of first character to remove (default 0).
3765:/usr/include/c++/5/bits/basic_string.h ****        *  @param __n  Number of characters to remove (default remainder).
3766:/usr/include/c++/5/bits/basic_string.h ****        *  @return  Reference to this string.
3767:/usr/include/c++/5/bits/basic_string.h ****        *  @throw  std::out_of_range  If @a pos is beyond the end of this
3768:/usr/include/c++/5/bits/basic_string.h ****        *  string.
3769:/usr/include/c++/5/bits/basic_string.h ****        *
3770:/usr/include/c++/5/bits/basic_string.h ****        *  Removes @a __n characters from this string starting at @a
3771:/usr/include/c++/5/bits/basic_string.h ****        *  __pos.  The length of the string is reduced by @a __n.  If
GAS LISTING /tmp/ccSpSEFs.s 			page 152


3772:/usr/include/c++/5/bits/basic_string.h ****        *  there are < @a __n characters to remove, the remainder of
3773:/usr/include/c++/5/bits/basic_string.h ****        *  the string is truncated.  If @a __p is beyond end of string,
3774:/usr/include/c++/5/bits/basic_string.h ****        *  out_of_range is thrown.  The value of the string doesn't
3775:/usr/include/c++/5/bits/basic_string.h ****        *  change if an error is thrown.
3776:/usr/include/c++/5/bits/basic_string.h ****       */
3777:/usr/include/c++/5/bits/basic_string.h ****       basic_string&
3778:/usr/include/c++/5/bits/basic_string.h ****       erase(size_type __pos = 0, size_type __n = npos)
3779:/usr/include/c++/5/bits/basic_string.h ****       { 
3780:/usr/include/c++/5/bits/basic_string.h **** 	_M_mutate(_M_check(__pos, "basic_string::erase"),
3781:/usr/include/c++/5/bits/basic_string.h **** 		  _M_limit(__pos, __n), size_type(0));
3782:/usr/include/c++/5/bits/basic_string.h **** 	return *this;
3783:/usr/include/c++/5/bits/basic_string.h ****       }
3784:/usr/include/c++/5/bits/basic_string.h **** 
3785:/usr/include/c++/5/bits/basic_string.h ****       /**
3786:/usr/include/c++/5/bits/basic_string.h ****        *  @brief  Remove one character.
3787:/usr/include/c++/5/bits/basic_string.h ****        *  @param __position  Iterator referencing the character to remove.
3788:/usr/include/c++/5/bits/basic_string.h ****        *  @return  iterator referencing same location after removal.
3789:/usr/include/c++/5/bits/basic_string.h ****        *
3790:/usr/include/c++/5/bits/basic_string.h ****        *  Removes the character at @a __position from this string. The value
3791:/usr/include/c++/5/bits/basic_string.h ****        *  of the string doesn't change if an error is thrown.
3792:/usr/include/c++/5/bits/basic_string.h ****       */
3793:/usr/include/c++/5/bits/basic_string.h ****       iterator
3794:/usr/include/c++/5/bits/basic_string.h ****       erase(iterator __position)
3795:/usr/include/c++/5/bits/basic_string.h ****       {
3796:/usr/include/c++/5/bits/basic_string.h **** 	_GLIBCXX_DEBUG_PEDASSERT(__position >= _M_ibegin()
3797:/usr/include/c++/5/bits/basic_string.h **** 				 && __position < _M_iend());
3798:/usr/include/c++/5/bits/basic_string.h **** 	const size_type __pos = __position - _M_ibegin();
3799:/usr/include/c++/5/bits/basic_string.h **** 	_M_mutate(__pos, size_type(1), size_type(0));
3800:/usr/include/c++/5/bits/basic_string.h **** 	_M_rep()->_M_set_leaked();
3801:/usr/include/c++/5/bits/basic_string.h **** 	return iterator(_M_data() + __pos);
3802:/usr/include/c++/5/bits/basic_string.h ****       }
3803:/usr/include/c++/5/bits/basic_string.h **** 
3804:/usr/include/c++/5/bits/basic_string.h ****       /**
3805:/usr/include/c++/5/bits/basic_string.h ****        *  @brief  Remove a range of characters.
3806:/usr/include/c++/5/bits/basic_string.h ****        *  @param __first  Iterator referencing the first character to remove.
3807:/usr/include/c++/5/bits/basic_string.h ****        *  @param __last  Iterator referencing the end of the range.
3808:/usr/include/c++/5/bits/basic_string.h ****        *  @return  Iterator referencing location of first after removal.
3809:/usr/include/c++/5/bits/basic_string.h ****        *
3810:/usr/include/c++/5/bits/basic_string.h ****        *  Removes the characters in the range [first,last) from this string.
3811:/usr/include/c++/5/bits/basic_string.h ****        *  The value of the string doesn't change if an error is thrown.
3812:/usr/include/c++/5/bits/basic_string.h ****       */
3813:/usr/include/c++/5/bits/basic_string.h ****       iterator
3814:/usr/include/c++/5/bits/basic_string.h ****       erase(iterator __first, iterator __last);
3815:/usr/include/c++/5/bits/basic_string.h ****  
3816:/usr/include/c++/5/bits/basic_string.h **** #if __cplusplus >= 201103L
3817:/usr/include/c++/5/bits/basic_string.h ****       /**
3818:/usr/include/c++/5/bits/basic_string.h ****        *  @brief  Remove the last character.
3819:/usr/include/c++/5/bits/basic_string.h ****        *
3820:/usr/include/c++/5/bits/basic_string.h ****        *  The string must be non-empty.
3821:/usr/include/c++/5/bits/basic_string.h ****        */
3822:/usr/include/c++/5/bits/basic_string.h ****       void
3823:/usr/include/c++/5/bits/basic_string.h ****       pop_back() // FIXME C++11: should be noexcept.
3824:/usr/include/c++/5/bits/basic_string.h ****       { erase(size()-1, 1); }
3825:/usr/include/c++/5/bits/basic_string.h **** #endif // C++11
3826:/usr/include/c++/5/bits/basic_string.h **** 
3827:/usr/include/c++/5/bits/basic_string.h ****       /**
3828:/usr/include/c++/5/bits/basic_string.h ****        *  @brief  Replace characters with value from another string.
GAS LISTING /tmp/ccSpSEFs.s 			page 153


3829:/usr/include/c++/5/bits/basic_string.h ****        *  @param __pos  Index of first character to replace.
3830:/usr/include/c++/5/bits/basic_string.h ****        *  @param __n  Number of characters to be replaced.
3831:/usr/include/c++/5/bits/basic_string.h ****        *  @param __str  String to insert.
3832:/usr/include/c++/5/bits/basic_string.h ****        *  @return  Reference to this string.
3833:/usr/include/c++/5/bits/basic_string.h ****        *  @throw  std::out_of_range  If @a pos is beyond the end of this
3834:/usr/include/c++/5/bits/basic_string.h ****        *  string.
3835:/usr/include/c++/5/bits/basic_string.h ****        *  @throw  std::length_error  If new length exceeds @c max_size().
3836:/usr/include/c++/5/bits/basic_string.h ****        *
3837:/usr/include/c++/5/bits/basic_string.h ****        *  Removes the characters in the range [__pos,__pos+__n) from
3838:/usr/include/c++/5/bits/basic_string.h ****        *  this string.  In place, the value of @a __str is inserted.
3839:/usr/include/c++/5/bits/basic_string.h ****        *  If @a __pos is beyond end of string, out_of_range is thrown.
3840:/usr/include/c++/5/bits/basic_string.h ****        *  If the length of the result exceeds max_size(), length_error
3841:/usr/include/c++/5/bits/basic_string.h ****        *  is thrown.  The value of the string doesn't change if an
3842:/usr/include/c++/5/bits/basic_string.h ****        *  error is thrown.
3843:/usr/include/c++/5/bits/basic_string.h ****       */
3844:/usr/include/c++/5/bits/basic_string.h ****       basic_string&
3845:/usr/include/c++/5/bits/basic_string.h ****       replace(size_type __pos, size_type __n, const basic_string& __str)
3846:/usr/include/c++/5/bits/basic_string.h ****       { return this->replace(__pos, __n, __str._M_data(), __str.size()); }
3847:/usr/include/c++/5/bits/basic_string.h **** 
3848:/usr/include/c++/5/bits/basic_string.h ****       /**
3849:/usr/include/c++/5/bits/basic_string.h ****        *  @brief  Replace characters with value from another string.
3850:/usr/include/c++/5/bits/basic_string.h ****        *  @param __pos1  Index of first character to replace.
3851:/usr/include/c++/5/bits/basic_string.h ****        *  @param __n1  Number of characters to be replaced.
3852:/usr/include/c++/5/bits/basic_string.h ****        *  @param __str  String to insert.
3853:/usr/include/c++/5/bits/basic_string.h ****        *  @param __pos2  Index of first character of str to use.
3854:/usr/include/c++/5/bits/basic_string.h ****        *  @param __n2  Number of characters from str to use.
3855:/usr/include/c++/5/bits/basic_string.h ****        *  @return  Reference to this string.
3856:/usr/include/c++/5/bits/basic_string.h ****        *  @throw  std::out_of_range  If @a __pos1 > size() or @a __pos2 >
3857:/usr/include/c++/5/bits/basic_string.h ****        *  __str.size().
3858:/usr/include/c++/5/bits/basic_string.h ****        *  @throw  std::length_error  If new length exceeds @c max_size().
3859:/usr/include/c++/5/bits/basic_string.h ****        *
3860:/usr/include/c++/5/bits/basic_string.h ****        *  Removes the characters in the range [__pos1,__pos1 + n) from this
3861:/usr/include/c++/5/bits/basic_string.h ****        *  string.  In place, the value of @a __str is inserted.  If @a __pos is
3862:/usr/include/c++/5/bits/basic_string.h ****        *  beyond end of string, out_of_range is thrown.  If the length of the
3863:/usr/include/c++/5/bits/basic_string.h ****        *  result exceeds max_size(), length_error is thrown.  The value of the
3864:/usr/include/c++/5/bits/basic_string.h ****        *  string doesn't change if an error is thrown.
3865:/usr/include/c++/5/bits/basic_string.h ****       */
3866:/usr/include/c++/5/bits/basic_string.h ****       basic_string&
3867:/usr/include/c++/5/bits/basic_string.h ****       replace(size_type __pos1, size_type __n1, const basic_string& __str,
3868:/usr/include/c++/5/bits/basic_string.h **** 	      size_type __pos2, size_type __n2)
3869:/usr/include/c++/5/bits/basic_string.h ****       { return this->replace(__pos1, __n1, __str._M_data()
3870:/usr/include/c++/5/bits/basic_string.h **** 			     + __str._M_check(__pos2, "basic_string::replace"),
3871:/usr/include/c++/5/bits/basic_string.h **** 			     __str._M_limit(__pos2, __n2)); }
3872:/usr/include/c++/5/bits/basic_string.h **** 
3873:/usr/include/c++/5/bits/basic_string.h ****       /**
3874:/usr/include/c++/5/bits/basic_string.h ****        *  @brief  Replace characters with value of a C substring.
3875:/usr/include/c++/5/bits/basic_string.h ****        *  @param __pos  Index of first character to replace.
3876:/usr/include/c++/5/bits/basic_string.h ****        *  @param __n1  Number of characters to be replaced.
3877:/usr/include/c++/5/bits/basic_string.h ****        *  @param __s  C string to insert.
3878:/usr/include/c++/5/bits/basic_string.h ****        *  @param __n2  Number of characters from @a s to use.
3879:/usr/include/c++/5/bits/basic_string.h ****        *  @return  Reference to this string.
3880:/usr/include/c++/5/bits/basic_string.h ****        *  @throw  std::out_of_range  If @a pos1 > size().
3881:/usr/include/c++/5/bits/basic_string.h ****        *  @throw  std::length_error  If new length exceeds @c max_size().
3882:/usr/include/c++/5/bits/basic_string.h ****        *
3883:/usr/include/c++/5/bits/basic_string.h ****        *  Removes the characters in the range [__pos,__pos + __n1)
3884:/usr/include/c++/5/bits/basic_string.h ****        *  from this string.  In place, the first @a __n2 characters of
3885:/usr/include/c++/5/bits/basic_string.h ****        *  @a __s are inserted, or all of @a __s if @a __n2 is too large.  If
GAS LISTING /tmp/ccSpSEFs.s 			page 154


3886:/usr/include/c++/5/bits/basic_string.h ****        *  @a __pos is beyond end of string, out_of_range is thrown.  If
3887:/usr/include/c++/5/bits/basic_string.h ****        *  the length of result exceeds max_size(), length_error is
3888:/usr/include/c++/5/bits/basic_string.h ****        *  thrown.  The value of the string doesn't change if an error
3889:/usr/include/c++/5/bits/basic_string.h ****        *  is thrown.
3890:/usr/include/c++/5/bits/basic_string.h ****       */
3891:/usr/include/c++/5/bits/basic_string.h ****       basic_string&
3892:/usr/include/c++/5/bits/basic_string.h ****       replace(size_type __pos, size_type __n1, const _CharT* __s,
3893:/usr/include/c++/5/bits/basic_string.h **** 	      size_type __n2);
3894:/usr/include/c++/5/bits/basic_string.h **** 
3895:/usr/include/c++/5/bits/basic_string.h ****       /**
3896:/usr/include/c++/5/bits/basic_string.h ****        *  @brief  Replace characters with value of a C string.
3897:/usr/include/c++/5/bits/basic_string.h ****        *  @param __pos  Index of first character to replace.
3898:/usr/include/c++/5/bits/basic_string.h ****        *  @param __n1  Number of characters to be replaced.
3899:/usr/include/c++/5/bits/basic_string.h ****        *  @param __s  C string to insert.
3900:/usr/include/c++/5/bits/basic_string.h ****        *  @return  Reference to this string.
3901:/usr/include/c++/5/bits/basic_string.h ****        *  @throw  std::out_of_range  If @a pos > size().
3902:/usr/include/c++/5/bits/basic_string.h ****        *  @throw  std::length_error  If new length exceeds @c max_size().
3903:/usr/include/c++/5/bits/basic_string.h ****        *
3904:/usr/include/c++/5/bits/basic_string.h ****        *  Removes the characters in the range [__pos,__pos + __n1)
3905:/usr/include/c++/5/bits/basic_string.h ****        *  from this string.  In place, the characters of @a __s are
3906:/usr/include/c++/5/bits/basic_string.h ****        *  inserted.  If @a __pos is beyond end of string, out_of_range
3907:/usr/include/c++/5/bits/basic_string.h ****        *  is thrown.  If the length of result exceeds max_size(),
3908:/usr/include/c++/5/bits/basic_string.h ****        *  length_error is thrown.  The value of the string doesn't
3909:/usr/include/c++/5/bits/basic_string.h ****        *  change if an error is thrown.
3910:/usr/include/c++/5/bits/basic_string.h ****       */
3911:/usr/include/c++/5/bits/basic_string.h ****       basic_string&
3912:/usr/include/c++/5/bits/basic_string.h ****       replace(size_type __pos, size_type __n1, const _CharT* __s)
3913:/usr/include/c++/5/bits/basic_string.h ****       {
3914:/usr/include/c++/5/bits/basic_string.h **** 	__glibcxx_requires_string(__s);
3915:/usr/include/c++/5/bits/basic_string.h **** 	return this->replace(__pos, __n1, __s, traits_type::length(__s));
3916:/usr/include/c++/5/bits/basic_string.h ****       }
3917:/usr/include/c++/5/bits/basic_string.h **** 
3918:/usr/include/c++/5/bits/basic_string.h ****       /**
3919:/usr/include/c++/5/bits/basic_string.h ****        *  @brief  Replace characters with multiple characters.
3920:/usr/include/c++/5/bits/basic_string.h ****        *  @param __pos  Index of first character to replace.
3921:/usr/include/c++/5/bits/basic_string.h ****        *  @param __n1  Number of characters to be replaced.
3922:/usr/include/c++/5/bits/basic_string.h ****        *  @param __n2  Number of characters to insert.
3923:/usr/include/c++/5/bits/basic_string.h ****        *  @param __c  Character to insert.
3924:/usr/include/c++/5/bits/basic_string.h ****        *  @return  Reference to this string.
3925:/usr/include/c++/5/bits/basic_string.h ****        *  @throw  std::out_of_range  If @a __pos > size().
3926:/usr/include/c++/5/bits/basic_string.h ****        *  @throw  std::length_error  If new length exceeds @c max_size().
3927:/usr/include/c++/5/bits/basic_string.h ****        *
3928:/usr/include/c++/5/bits/basic_string.h ****        *  Removes the characters in the range [pos,pos + n1) from this
3929:/usr/include/c++/5/bits/basic_string.h ****        *  string.  In place, @a __n2 copies of @a __c are inserted.
3930:/usr/include/c++/5/bits/basic_string.h ****        *  If @a __pos is beyond end of string, out_of_range is thrown.
3931:/usr/include/c++/5/bits/basic_string.h ****        *  If the length of result exceeds max_size(), length_error is
3932:/usr/include/c++/5/bits/basic_string.h ****        *  thrown.  The value of the string doesn't change if an error
3933:/usr/include/c++/5/bits/basic_string.h ****        *  is thrown.
3934:/usr/include/c++/5/bits/basic_string.h ****       */
3935:/usr/include/c++/5/bits/basic_string.h ****       basic_string&
3936:/usr/include/c++/5/bits/basic_string.h ****       replace(size_type __pos, size_type __n1, size_type __n2, _CharT __c)
3937:/usr/include/c++/5/bits/basic_string.h ****       { return _M_replace_aux(_M_check(__pos, "basic_string::replace"),
3938:/usr/include/c++/5/bits/basic_string.h **** 			      _M_limit(__pos, __n1), __n2, __c); }
3939:/usr/include/c++/5/bits/basic_string.h **** 
3940:/usr/include/c++/5/bits/basic_string.h ****       /**
3941:/usr/include/c++/5/bits/basic_string.h ****        *  @brief  Replace range of characters with string.
3942:/usr/include/c++/5/bits/basic_string.h ****        *  @param __i1  Iterator referencing start of range to replace.
GAS LISTING /tmp/ccSpSEFs.s 			page 155


3943:/usr/include/c++/5/bits/basic_string.h ****        *  @param __i2  Iterator referencing end of range to replace.
3944:/usr/include/c++/5/bits/basic_string.h ****        *  @param __str  String value to insert.
3945:/usr/include/c++/5/bits/basic_string.h ****        *  @return  Reference to this string.
3946:/usr/include/c++/5/bits/basic_string.h ****        *  @throw  std::length_error  If new length exceeds @c max_size().
3947:/usr/include/c++/5/bits/basic_string.h ****        *
3948:/usr/include/c++/5/bits/basic_string.h ****        *  Removes the characters in the range [__i1,__i2).  In place,
3949:/usr/include/c++/5/bits/basic_string.h ****        *  the value of @a __str is inserted.  If the length of result
3950:/usr/include/c++/5/bits/basic_string.h ****        *  exceeds max_size(), length_error is thrown.  The value of
3951:/usr/include/c++/5/bits/basic_string.h ****        *  the string doesn't change if an error is thrown.
3952:/usr/include/c++/5/bits/basic_string.h ****       */
3953:/usr/include/c++/5/bits/basic_string.h ****       basic_string&
3954:/usr/include/c++/5/bits/basic_string.h ****       replace(iterator __i1, iterator __i2, const basic_string& __str)
3955:/usr/include/c++/5/bits/basic_string.h ****       { return this->replace(__i1, __i2, __str._M_data(), __str.size()); }
3956:/usr/include/c++/5/bits/basic_string.h **** 
3957:/usr/include/c++/5/bits/basic_string.h ****       /**
3958:/usr/include/c++/5/bits/basic_string.h ****        *  @brief  Replace range of characters with C substring.
3959:/usr/include/c++/5/bits/basic_string.h ****        *  @param __i1  Iterator referencing start of range to replace.
3960:/usr/include/c++/5/bits/basic_string.h ****        *  @param __i2  Iterator referencing end of range to replace.
3961:/usr/include/c++/5/bits/basic_string.h ****        *  @param __s  C string value to insert.
3962:/usr/include/c++/5/bits/basic_string.h ****        *  @param __n  Number of characters from s to insert.
3963:/usr/include/c++/5/bits/basic_string.h ****        *  @return  Reference to this string.
3964:/usr/include/c++/5/bits/basic_string.h ****        *  @throw  std::length_error  If new length exceeds @c max_size().
3965:/usr/include/c++/5/bits/basic_string.h ****        *
3966:/usr/include/c++/5/bits/basic_string.h ****        *  Removes the characters in the range [__i1,__i2).  In place,
3967:/usr/include/c++/5/bits/basic_string.h ****        *  the first @a __n characters of @a __s are inserted.  If the
3968:/usr/include/c++/5/bits/basic_string.h ****        *  length of result exceeds max_size(), length_error is thrown.
3969:/usr/include/c++/5/bits/basic_string.h ****        *  The value of the string doesn't change if an error is
3970:/usr/include/c++/5/bits/basic_string.h ****        *  thrown.
3971:/usr/include/c++/5/bits/basic_string.h ****       */
3972:/usr/include/c++/5/bits/basic_string.h ****       basic_string&
3973:/usr/include/c++/5/bits/basic_string.h ****       replace(iterator __i1, iterator __i2, const _CharT* __s, size_type __n)
3974:/usr/include/c++/5/bits/basic_string.h ****       {
3975:/usr/include/c++/5/bits/basic_string.h **** 	_GLIBCXX_DEBUG_PEDASSERT(_M_ibegin() <= __i1 && __i1 <= __i2
3976:/usr/include/c++/5/bits/basic_string.h **** 				 && __i2 <= _M_iend());
3977:/usr/include/c++/5/bits/basic_string.h **** 	return this->replace(__i1 - _M_ibegin(), __i2 - __i1, __s, __n);
3978:/usr/include/c++/5/bits/basic_string.h ****       }
3979:/usr/include/c++/5/bits/basic_string.h **** 
3980:/usr/include/c++/5/bits/basic_string.h ****       /**
3981:/usr/include/c++/5/bits/basic_string.h ****        *  @brief  Replace range of characters with C string.
3982:/usr/include/c++/5/bits/basic_string.h ****        *  @param __i1  Iterator referencing start of range to replace.
3983:/usr/include/c++/5/bits/basic_string.h ****        *  @param __i2  Iterator referencing end of range to replace.
3984:/usr/include/c++/5/bits/basic_string.h ****        *  @param __s  C string value to insert.
3985:/usr/include/c++/5/bits/basic_string.h ****        *  @return  Reference to this string.
3986:/usr/include/c++/5/bits/basic_string.h ****        *  @throw  std::length_error  If new length exceeds @c max_size().
3987:/usr/include/c++/5/bits/basic_string.h ****        *
3988:/usr/include/c++/5/bits/basic_string.h ****        *  Removes the characters in the range [__i1,__i2).  In place,
3989:/usr/include/c++/5/bits/basic_string.h ****        *  the characters of @a __s are inserted.  If the length of
3990:/usr/include/c++/5/bits/basic_string.h ****        *  result exceeds max_size(), length_error is thrown.  The
3991:/usr/include/c++/5/bits/basic_string.h ****        *  value of the string doesn't change if an error is thrown.
3992:/usr/include/c++/5/bits/basic_string.h ****       */
3993:/usr/include/c++/5/bits/basic_string.h ****       basic_string&
3994:/usr/include/c++/5/bits/basic_string.h ****       replace(iterator __i1, iterator __i2, const _CharT* __s)
3995:/usr/include/c++/5/bits/basic_string.h ****       {
3996:/usr/include/c++/5/bits/basic_string.h **** 	__glibcxx_requires_string(__s);
3997:/usr/include/c++/5/bits/basic_string.h **** 	return this->replace(__i1, __i2, __s, traits_type::length(__s));
3998:/usr/include/c++/5/bits/basic_string.h ****       }
3999:/usr/include/c++/5/bits/basic_string.h **** 
GAS LISTING /tmp/ccSpSEFs.s 			page 156


4000:/usr/include/c++/5/bits/basic_string.h ****       /**
4001:/usr/include/c++/5/bits/basic_string.h ****        *  @brief  Replace range of characters with multiple characters
4002:/usr/include/c++/5/bits/basic_string.h ****        *  @param __i1  Iterator referencing start of range to replace.
4003:/usr/include/c++/5/bits/basic_string.h ****        *  @param __i2  Iterator referencing end of range to replace.
4004:/usr/include/c++/5/bits/basic_string.h ****        *  @param __n  Number of characters to insert.
4005:/usr/include/c++/5/bits/basic_string.h ****        *  @param __c  Character to insert.
4006:/usr/include/c++/5/bits/basic_string.h ****        *  @return  Reference to this string.
4007:/usr/include/c++/5/bits/basic_string.h ****        *  @throw  std::length_error  If new length exceeds @c max_size().
4008:/usr/include/c++/5/bits/basic_string.h ****        *
4009:/usr/include/c++/5/bits/basic_string.h ****        *  Removes the characters in the range [__i1,__i2).  In place,
4010:/usr/include/c++/5/bits/basic_string.h ****        *  @a __n copies of @a __c are inserted.  If the length of
4011:/usr/include/c++/5/bits/basic_string.h ****        *  result exceeds max_size(), length_error is thrown.  The
4012:/usr/include/c++/5/bits/basic_string.h ****        *  value of the string doesn't change if an error is thrown.
4013:/usr/include/c++/5/bits/basic_string.h ****       */
4014:/usr/include/c++/5/bits/basic_string.h ****       basic_string&
4015:/usr/include/c++/5/bits/basic_string.h ****       replace(iterator __i1, iterator __i2, size_type __n, _CharT __c)
4016:/usr/include/c++/5/bits/basic_string.h ****       {
4017:/usr/include/c++/5/bits/basic_string.h **** 	_GLIBCXX_DEBUG_PEDASSERT(_M_ibegin() <= __i1 && __i1 <= __i2
4018:/usr/include/c++/5/bits/basic_string.h **** 				 && __i2 <= _M_iend());
4019:/usr/include/c++/5/bits/basic_string.h **** 	return _M_replace_aux(__i1 - _M_ibegin(), __i2 - __i1, __n, __c);
4020:/usr/include/c++/5/bits/basic_string.h ****       }
4021:/usr/include/c++/5/bits/basic_string.h **** 
4022:/usr/include/c++/5/bits/basic_string.h ****       /**
4023:/usr/include/c++/5/bits/basic_string.h ****        *  @brief  Replace range of characters with range.
4024:/usr/include/c++/5/bits/basic_string.h ****        *  @param __i1  Iterator referencing start of range to replace.
4025:/usr/include/c++/5/bits/basic_string.h ****        *  @param __i2  Iterator referencing end of range to replace.
4026:/usr/include/c++/5/bits/basic_string.h ****        *  @param __k1  Iterator referencing start of range to insert.
4027:/usr/include/c++/5/bits/basic_string.h ****        *  @param __k2  Iterator referencing end of range to insert.
4028:/usr/include/c++/5/bits/basic_string.h ****        *  @return  Reference to this string.
4029:/usr/include/c++/5/bits/basic_string.h ****        *  @throw  std::length_error  If new length exceeds @c max_size().
4030:/usr/include/c++/5/bits/basic_string.h ****        *
4031:/usr/include/c++/5/bits/basic_string.h ****        *  Removes the characters in the range [__i1,__i2).  In place,
4032:/usr/include/c++/5/bits/basic_string.h ****        *  characters in the range [__k1,__k2) are inserted.  If the
4033:/usr/include/c++/5/bits/basic_string.h ****        *  length of result exceeds max_size(), length_error is thrown.
4034:/usr/include/c++/5/bits/basic_string.h ****        *  The value of the string doesn't change if an error is
4035:/usr/include/c++/5/bits/basic_string.h ****        *  thrown.
4036:/usr/include/c++/5/bits/basic_string.h ****       */
4037:/usr/include/c++/5/bits/basic_string.h ****       template<class _InputIterator>
4038:/usr/include/c++/5/bits/basic_string.h ****         basic_string&
4039:/usr/include/c++/5/bits/basic_string.h ****         replace(iterator __i1, iterator __i2,
4040:/usr/include/c++/5/bits/basic_string.h **** 		_InputIterator __k1, _InputIterator __k2)
4041:/usr/include/c++/5/bits/basic_string.h ****         {
4042:/usr/include/c++/5/bits/basic_string.h **** 	  _GLIBCXX_DEBUG_PEDASSERT(_M_ibegin() <= __i1 && __i1 <= __i2
4043:/usr/include/c++/5/bits/basic_string.h **** 				   && __i2 <= _M_iend());
4044:/usr/include/c++/5/bits/basic_string.h **** 	  __glibcxx_requires_valid_range(__k1, __k2);
4045:/usr/include/c++/5/bits/basic_string.h **** 	  typedef typename std::__is_integer<_InputIterator>::__type _Integral;
4046:/usr/include/c++/5/bits/basic_string.h **** 	  return _M_replace_dispatch(__i1, __i2, __k1, __k2, _Integral());
4047:/usr/include/c++/5/bits/basic_string.h **** 	}
4048:/usr/include/c++/5/bits/basic_string.h **** 
4049:/usr/include/c++/5/bits/basic_string.h ****       // Specializations for the common case of pointer and iterator:
4050:/usr/include/c++/5/bits/basic_string.h ****       // useful to avoid the overhead of temporary buffering in _M_replace.
4051:/usr/include/c++/5/bits/basic_string.h ****       basic_string&
4052:/usr/include/c++/5/bits/basic_string.h ****       replace(iterator __i1, iterator __i2, _CharT* __k1, _CharT* __k2)
4053:/usr/include/c++/5/bits/basic_string.h ****       {
4054:/usr/include/c++/5/bits/basic_string.h **** 	_GLIBCXX_DEBUG_PEDASSERT(_M_ibegin() <= __i1 && __i1 <= __i2
4055:/usr/include/c++/5/bits/basic_string.h **** 				 && __i2 <= _M_iend());
4056:/usr/include/c++/5/bits/basic_string.h **** 	__glibcxx_requires_valid_range(__k1, __k2);
GAS LISTING /tmp/ccSpSEFs.s 			page 157


4057:/usr/include/c++/5/bits/basic_string.h **** 	return this->replace(__i1 - _M_ibegin(), __i2 - __i1,
4058:/usr/include/c++/5/bits/basic_string.h **** 			     __k1, __k2 - __k1);
4059:/usr/include/c++/5/bits/basic_string.h ****       }
4060:/usr/include/c++/5/bits/basic_string.h **** 
4061:/usr/include/c++/5/bits/basic_string.h ****       basic_string&
4062:/usr/include/c++/5/bits/basic_string.h ****       replace(iterator __i1, iterator __i2,
4063:/usr/include/c++/5/bits/basic_string.h **** 	      const _CharT* __k1, const _CharT* __k2)
4064:/usr/include/c++/5/bits/basic_string.h ****       {
4065:/usr/include/c++/5/bits/basic_string.h **** 	_GLIBCXX_DEBUG_PEDASSERT(_M_ibegin() <= __i1 && __i1 <= __i2
4066:/usr/include/c++/5/bits/basic_string.h **** 				 && __i2 <= _M_iend());
4067:/usr/include/c++/5/bits/basic_string.h **** 	__glibcxx_requires_valid_range(__k1, __k2);
4068:/usr/include/c++/5/bits/basic_string.h **** 	return this->replace(__i1 - _M_ibegin(), __i2 - __i1,
4069:/usr/include/c++/5/bits/basic_string.h **** 			     __k1, __k2 - __k1);
4070:/usr/include/c++/5/bits/basic_string.h ****       }
4071:/usr/include/c++/5/bits/basic_string.h **** 
4072:/usr/include/c++/5/bits/basic_string.h ****       basic_string&
4073:/usr/include/c++/5/bits/basic_string.h ****       replace(iterator __i1, iterator __i2, iterator __k1, iterator __k2)
4074:/usr/include/c++/5/bits/basic_string.h ****       {
4075:/usr/include/c++/5/bits/basic_string.h **** 	_GLIBCXX_DEBUG_PEDASSERT(_M_ibegin() <= __i1 && __i1 <= __i2
4076:/usr/include/c++/5/bits/basic_string.h **** 				 && __i2 <= _M_iend());
4077:/usr/include/c++/5/bits/basic_string.h **** 	__glibcxx_requires_valid_range(__k1, __k2);
4078:/usr/include/c++/5/bits/basic_string.h **** 	return this->replace(__i1 - _M_ibegin(), __i2 - __i1,
4079:/usr/include/c++/5/bits/basic_string.h **** 			     __k1.base(), __k2 - __k1);
4080:/usr/include/c++/5/bits/basic_string.h ****       }
4081:/usr/include/c++/5/bits/basic_string.h **** 
4082:/usr/include/c++/5/bits/basic_string.h ****       basic_string&
4083:/usr/include/c++/5/bits/basic_string.h ****       replace(iterator __i1, iterator __i2,
4084:/usr/include/c++/5/bits/basic_string.h **** 	      const_iterator __k1, const_iterator __k2)
4085:/usr/include/c++/5/bits/basic_string.h ****       {
4086:/usr/include/c++/5/bits/basic_string.h **** 	_GLIBCXX_DEBUG_PEDASSERT(_M_ibegin() <= __i1 && __i1 <= __i2
4087:/usr/include/c++/5/bits/basic_string.h **** 				 && __i2 <= _M_iend());
4088:/usr/include/c++/5/bits/basic_string.h **** 	__glibcxx_requires_valid_range(__k1, __k2);
4089:/usr/include/c++/5/bits/basic_string.h **** 	return this->replace(__i1 - _M_ibegin(), __i2 - __i1,
4090:/usr/include/c++/5/bits/basic_string.h **** 			     __k1.base(), __k2 - __k1);
4091:/usr/include/c++/5/bits/basic_string.h ****       }
4092:/usr/include/c++/5/bits/basic_string.h ****       
4093:/usr/include/c++/5/bits/basic_string.h **** #if __cplusplus >= 201103L
4094:/usr/include/c++/5/bits/basic_string.h ****       /**
4095:/usr/include/c++/5/bits/basic_string.h ****        *  @brief  Replace range of characters with initializer_list.
4096:/usr/include/c++/5/bits/basic_string.h ****        *  @param __i1  Iterator referencing start of range to replace.
4097:/usr/include/c++/5/bits/basic_string.h ****        *  @param __i2  Iterator referencing end of range to replace.
4098:/usr/include/c++/5/bits/basic_string.h ****        *  @param __l  The initializer_list of characters to insert.
4099:/usr/include/c++/5/bits/basic_string.h ****        *  @return  Reference to this string.
4100:/usr/include/c++/5/bits/basic_string.h ****        *  @throw  std::length_error  If new length exceeds @c max_size().
4101:/usr/include/c++/5/bits/basic_string.h ****        *
4102:/usr/include/c++/5/bits/basic_string.h ****        *  Removes the characters in the range [__i1,__i2).  In place,
4103:/usr/include/c++/5/bits/basic_string.h ****        *  characters in the range [__k1,__k2) are inserted.  If the
4104:/usr/include/c++/5/bits/basic_string.h ****        *  length of result exceeds max_size(), length_error is thrown.
4105:/usr/include/c++/5/bits/basic_string.h ****        *  The value of the string doesn't change if an error is
4106:/usr/include/c++/5/bits/basic_string.h ****        *  thrown.
4107:/usr/include/c++/5/bits/basic_string.h ****       */
4108:/usr/include/c++/5/bits/basic_string.h ****       basic_string& replace(iterator __i1, iterator __i2,
4109:/usr/include/c++/5/bits/basic_string.h **** 			    initializer_list<_CharT> __l)
4110:/usr/include/c++/5/bits/basic_string.h ****       { return this->replace(__i1, __i2, __l.begin(), __l.end()); }
4111:/usr/include/c++/5/bits/basic_string.h **** #endif // C++11
4112:/usr/include/c++/5/bits/basic_string.h **** 
4113:/usr/include/c++/5/bits/basic_string.h ****     private:
GAS LISTING /tmp/ccSpSEFs.s 			page 158


4114:/usr/include/c++/5/bits/basic_string.h ****       template<class _Integer>
4115:/usr/include/c++/5/bits/basic_string.h **** 	basic_string&
4116:/usr/include/c++/5/bits/basic_string.h **** 	_M_replace_dispatch(iterator __i1, iterator __i2, _Integer __n,
4117:/usr/include/c++/5/bits/basic_string.h **** 			    _Integer __val, __true_type)
4118:/usr/include/c++/5/bits/basic_string.h ****         { return _M_replace_aux(__i1 - _M_ibegin(), __i2 - __i1, __n, __val); }
4119:/usr/include/c++/5/bits/basic_string.h **** 
4120:/usr/include/c++/5/bits/basic_string.h ****       template<class _InputIterator>
4121:/usr/include/c++/5/bits/basic_string.h **** 	basic_string&
4122:/usr/include/c++/5/bits/basic_string.h **** 	_M_replace_dispatch(iterator __i1, iterator __i2, _InputIterator __k1,
4123:/usr/include/c++/5/bits/basic_string.h **** 			    _InputIterator __k2, __false_type);
4124:/usr/include/c++/5/bits/basic_string.h **** 
4125:/usr/include/c++/5/bits/basic_string.h ****       basic_string&
4126:/usr/include/c++/5/bits/basic_string.h ****       _M_replace_aux(size_type __pos1, size_type __n1, size_type __n2,
4127:/usr/include/c++/5/bits/basic_string.h **** 		     _CharT __c);
4128:/usr/include/c++/5/bits/basic_string.h **** 
4129:/usr/include/c++/5/bits/basic_string.h ****       basic_string&
4130:/usr/include/c++/5/bits/basic_string.h ****       _M_replace_safe(size_type __pos1, size_type __n1, const _CharT* __s,
4131:/usr/include/c++/5/bits/basic_string.h **** 		      size_type __n2);
4132:/usr/include/c++/5/bits/basic_string.h **** 
4133:/usr/include/c++/5/bits/basic_string.h ****       // _S_construct_aux is used to implement the 21.3.1 para 15 which
4134:/usr/include/c++/5/bits/basic_string.h ****       // requires special behaviour if _InIter is an integral type
4135:/usr/include/c++/5/bits/basic_string.h ****       template<class _InIterator>
4136:/usr/include/c++/5/bits/basic_string.h ****         static _CharT*
4137:/usr/include/c++/5/bits/basic_string.h ****         _S_construct_aux(_InIterator __beg, _InIterator __end,
4138:/usr/include/c++/5/bits/basic_string.h **** 			 const _Alloc& __a, __false_type)
4139:/usr/include/c++/5/bits/basic_string.h **** 	{
4140:/usr/include/c++/5/bits/basic_string.h ****           typedef typename iterator_traits<_InIterator>::iterator_category _Tag;
4141:/usr/include/c++/5/bits/basic_string.h ****           return _S_construct(__beg, __end, __a, _Tag());
4142:/usr/include/c++/5/bits/basic_string.h **** 	}
4143:/usr/include/c++/5/bits/basic_string.h **** 
4144:/usr/include/c++/5/bits/basic_string.h ****       // _GLIBCXX_RESOLVE_LIB_DEFECTS
4145:/usr/include/c++/5/bits/basic_string.h ****       // 438. Ambiguity in the "do the right thing" clause
4146:/usr/include/c++/5/bits/basic_string.h ****       template<class _Integer>
4147:/usr/include/c++/5/bits/basic_string.h ****         static _CharT*
4148:/usr/include/c++/5/bits/basic_string.h ****         _S_construct_aux(_Integer __beg, _Integer __end,
4149:/usr/include/c++/5/bits/basic_string.h **** 			 const _Alloc& __a, __true_type)
4150:/usr/include/c++/5/bits/basic_string.h ****         { return _S_construct_aux_2(static_cast<size_type>(__beg),
4151:/usr/include/c++/5/bits/basic_string.h **** 				    __end, __a); }
4152:/usr/include/c++/5/bits/basic_string.h **** 
4153:/usr/include/c++/5/bits/basic_string.h ****       static _CharT*
4154:/usr/include/c++/5/bits/basic_string.h ****       _S_construct_aux_2(size_type __req, _CharT __c, const _Alloc& __a)
4155:/usr/include/c++/5/bits/basic_string.h ****       { return _S_construct(__req, __c, __a); }
4156:/usr/include/c++/5/bits/basic_string.h **** 
4157:/usr/include/c++/5/bits/basic_string.h ****       template<class _InIterator>
4158:/usr/include/c++/5/bits/basic_string.h ****         static _CharT*
4159:/usr/include/c++/5/bits/basic_string.h ****         _S_construct(_InIterator __beg, _InIterator __end, const _Alloc& __a)
4160:/usr/include/c++/5/bits/basic_string.h **** 	{
4161:/usr/include/c++/5/bits/basic_string.h **** 	  typedef typename std::__is_integer<_InIterator>::__type _Integral;
4162:/usr/include/c++/5/bits/basic_string.h **** 	  return _S_construct_aux(__beg, __end, __a, _Integral());
4163:/usr/include/c++/5/bits/basic_string.h ****         }
4164:/usr/include/c++/5/bits/basic_string.h **** 
4165:/usr/include/c++/5/bits/basic_string.h ****       // For Input Iterators, used in istreambuf_iterators, etc.
4166:/usr/include/c++/5/bits/basic_string.h ****       template<class _InIterator>
4167:/usr/include/c++/5/bits/basic_string.h ****         static _CharT*
4168:/usr/include/c++/5/bits/basic_string.h ****          _S_construct(_InIterator __beg, _InIterator __end, const _Alloc& __a,
4169:/usr/include/c++/5/bits/basic_string.h **** 		      input_iterator_tag);
4170:/usr/include/c++/5/bits/basic_string.h **** 
GAS LISTING /tmp/ccSpSEFs.s 			page 159


4171:/usr/include/c++/5/bits/basic_string.h ****       // For forward_iterators up to random_access_iterators, used for
4172:/usr/include/c++/5/bits/basic_string.h ****       // string::iterator, _CharT*, etc.
4173:/usr/include/c++/5/bits/basic_string.h ****       template<class _FwdIterator>
4174:/usr/include/c++/5/bits/basic_string.h ****         static _CharT*
4175:/usr/include/c++/5/bits/basic_string.h ****         _S_construct(_FwdIterator __beg, _FwdIterator __end, const _Alloc& __a,
4176:/usr/include/c++/5/bits/basic_string.h **** 		     forward_iterator_tag);
4177:/usr/include/c++/5/bits/basic_string.h **** 
4178:/usr/include/c++/5/bits/basic_string.h ****       static _CharT*
4179:/usr/include/c++/5/bits/basic_string.h ****       _S_construct(size_type __req, _CharT __c, const _Alloc& __a);
4180:/usr/include/c++/5/bits/basic_string.h **** 
4181:/usr/include/c++/5/bits/basic_string.h ****     public:
4182:/usr/include/c++/5/bits/basic_string.h **** 
4183:/usr/include/c++/5/bits/basic_string.h ****       /**
4184:/usr/include/c++/5/bits/basic_string.h ****        *  @brief  Copy substring into C string.
4185:/usr/include/c++/5/bits/basic_string.h ****        *  @param __s  C string to copy value into.
4186:/usr/include/c++/5/bits/basic_string.h ****        *  @param __n  Number of characters to copy.
4187:/usr/include/c++/5/bits/basic_string.h ****        *  @param __pos  Index of first character to copy.
4188:/usr/include/c++/5/bits/basic_string.h ****        *  @return  Number of characters actually copied
4189:/usr/include/c++/5/bits/basic_string.h ****        *  @throw  std::out_of_range  If __pos > size().
4190:/usr/include/c++/5/bits/basic_string.h ****        *
4191:/usr/include/c++/5/bits/basic_string.h ****        *  Copies up to @a __n characters starting at @a __pos into the
4192:/usr/include/c++/5/bits/basic_string.h ****        *  C string @a __s.  If @a __pos is %greater than size(),
4193:/usr/include/c++/5/bits/basic_string.h ****        *  out_of_range is thrown.
4194:/usr/include/c++/5/bits/basic_string.h ****       */
4195:/usr/include/c++/5/bits/basic_string.h ****       size_type
4196:/usr/include/c++/5/bits/basic_string.h ****       copy(_CharT* __s, size_type __n, size_type __pos = 0) const;
4197:/usr/include/c++/5/bits/basic_string.h **** 
4198:/usr/include/c++/5/bits/basic_string.h ****       /**
4199:/usr/include/c++/5/bits/basic_string.h ****        *  @brief  Swap contents with another string.
4200:/usr/include/c++/5/bits/basic_string.h ****        *  @param __s  String to swap with.
4201:/usr/include/c++/5/bits/basic_string.h ****        *
4202:/usr/include/c++/5/bits/basic_string.h ****        *  Exchanges the contents of this string with that of @a __s in constant
4203:/usr/include/c++/5/bits/basic_string.h ****        *  time.
4204:/usr/include/c++/5/bits/basic_string.h ****       */
4205:/usr/include/c++/5/bits/basic_string.h ****       // PR 58265, this should be noexcept.
4206:/usr/include/c++/5/bits/basic_string.h ****       void
4207:/usr/include/c++/5/bits/basic_string.h ****       swap(basic_string& __s);
4208:/usr/include/c++/5/bits/basic_string.h **** 
4209:/usr/include/c++/5/bits/basic_string.h ****       // String operations:
4210:/usr/include/c++/5/bits/basic_string.h ****       /**
4211:/usr/include/c++/5/bits/basic_string.h ****        *  @brief  Return const pointer to null-terminated contents.
4212:/usr/include/c++/5/bits/basic_string.h ****        *
4213:/usr/include/c++/5/bits/basic_string.h ****        *  This is a handle to internal data.  Do not modify or dire things may
4214:/usr/include/c++/5/bits/basic_string.h ****        *  happen.
4215:/usr/include/c++/5/bits/basic_string.h ****       */
4216:/usr/include/c++/5/bits/basic_string.h ****       const _CharT*
4217:/usr/include/c++/5/bits/basic_string.h ****       c_str() const _GLIBCXX_NOEXCEPT
4218:/usr/include/c++/5/bits/basic_string.h ****       { return _M_data(); }
4219:/usr/include/c++/5/bits/basic_string.h **** 
4220:/usr/include/c++/5/bits/basic_string.h ****       /**
4221:/usr/include/c++/5/bits/basic_string.h ****        *  @brief  Return const pointer to contents.
4222:/usr/include/c++/5/bits/basic_string.h ****        *
4223:/usr/include/c++/5/bits/basic_string.h ****        *  This is a handle to internal data.  Do not modify or dire things may
4224:/usr/include/c++/5/bits/basic_string.h ****        *  happen.
4225:/usr/include/c++/5/bits/basic_string.h ****       */
4226:/usr/include/c++/5/bits/basic_string.h ****       const _CharT*
4227:/usr/include/c++/5/bits/basic_string.h ****       data() const _GLIBCXX_NOEXCEPT
GAS LISTING /tmp/ccSpSEFs.s 			page 160


4228:/usr/include/c++/5/bits/basic_string.h ****       { return _M_data(); }
4229:/usr/include/c++/5/bits/basic_string.h **** 
4230:/usr/include/c++/5/bits/basic_string.h ****       /**
4231:/usr/include/c++/5/bits/basic_string.h ****        *  @brief  Return copy of allocator used to construct this string.
4232:/usr/include/c++/5/bits/basic_string.h ****       */
4233:/usr/include/c++/5/bits/basic_string.h ****       allocator_type
4234:/usr/include/c++/5/bits/basic_string.h ****       get_allocator() const _GLIBCXX_NOEXCEPT
4235:/usr/include/c++/5/bits/basic_string.h ****       { return _M_dataplus; }
4236:/usr/include/c++/5/bits/basic_string.h **** 
4237:/usr/include/c++/5/bits/basic_string.h ****       /**
4238:/usr/include/c++/5/bits/basic_string.h ****        *  @brief  Find position of a C substring.
4239:/usr/include/c++/5/bits/basic_string.h ****        *  @param __s  C string to locate.
4240:/usr/include/c++/5/bits/basic_string.h ****        *  @param __pos  Index of character to search from.
4241:/usr/include/c++/5/bits/basic_string.h ****        *  @param __n  Number of characters from @a s to search for.
4242:/usr/include/c++/5/bits/basic_string.h ****        *  @return  Index of start of first occurrence.
4243:/usr/include/c++/5/bits/basic_string.h ****        *
4244:/usr/include/c++/5/bits/basic_string.h ****        *  Starting from @a __pos, searches forward for the first @a
4245:/usr/include/c++/5/bits/basic_string.h ****        *  __n characters in @a __s within this string.  If found,
4246:/usr/include/c++/5/bits/basic_string.h ****        *  returns the index where it begins.  If not found, returns
4247:/usr/include/c++/5/bits/basic_string.h ****        *  npos.
4248:/usr/include/c++/5/bits/basic_string.h ****       */
4249:/usr/include/c++/5/bits/basic_string.h ****       size_type
4250:/usr/include/c++/5/bits/basic_string.h ****       find(const _CharT* __s, size_type __pos, size_type __n) const;
4251:/usr/include/c++/5/bits/basic_string.h **** 
4252:/usr/include/c++/5/bits/basic_string.h ****       /**
4253:/usr/include/c++/5/bits/basic_string.h ****        *  @brief  Find position of a string.
4254:/usr/include/c++/5/bits/basic_string.h ****        *  @param __str  String to locate.
4255:/usr/include/c++/5/bits/basic_string.h ****        *  @param __pos  Index of character to search from (default 0).
4256:/usr/include/c++/5/bits/basic_string.h ****        *  @return  Index of start of first occurrence.
4257:/usr/include/c++/5/bits/basic_string.h ****        *
4258:/usr/include/c++/5/bits/basic_string.h ****        *  Starting from @a __pos, searches forward for value of @a __str within
4259:/usr/include/c++/5/bits/basic_string.h ****        *  this string.  If found, returns the index where it begins.  If not
4260:/usr/include/c++/5/bits/basic_string.h ****        *  found, returns npos.
4261:/usr/include/c++/5/bits/basic_string.h ****       */
4262:/usr/include/c++/5/bits/basic_string.h ****       size_type
4263:/usr/include/c++/5/bits/basic_string.h ****       find(const basic_string& __str, size_type __pos = 0) const
4264:/usr/include/c++/5/bits/basic_string.h **** 	_GLIBCXX_NOEXCEPT
4265:/usr/include/c++/5/bits/basic_string.h ****       { return this->find(__str.data(), __pos, __str.size()); }
4266:/usr/include/c++/5/bits/basic_string.h **** 
4267:/usr/include/c++/5/bits/basic_string.h ****       /**
4268:/usr/include/c++/5/bits/basic_string.h ****        *  @brief  Find position of a C string.
4269:/usr/include/c++/5/bits/basic_string.h ****        *  @param __s  C string to locate.
4270:/usr/include/c++/5/bits/basic_string.h ****        *  @param __pos  Index of character to search from (default 0).
4271:/usr/include/c++/5/bits/basic_string.h ****        *  @return  Index of start of first occurrence.
4272:/usr/include/c++/5/bits/basic_string.h ****        *
4273:/usr/include/c++/5/bits/basic_string.h ****        *  Starting from @a __pos, searches forward for the value of @a
4274:/usr/include/c++/5/bits/basic_string.h ****        *  __s within this string.  If found, returns the index where
4275:/usr/include/c++/5/bits/basic_string.h ****        *  it begins.  If not found, returns npos.
4276:/usr/include/c++/5/bits/basic_string.h ****       */
4277:/usr/include/c++/5/bits/basic_string.h ****       size_type
4278:/usr/include/c++/5/bits/basic_string.h ****       find(const _CharT* __s, size_type __pos = 0) const
4279:/usr/include/c++/5/bits/basic_string.h ****       {
4280:/usr/include/c++/5/bits/basic_string.h **** 	__glibcxx_requires_string(__s);
4281:/usr/include/c++/5/bits/basic_string.h **** 	return this->find(__s, __pos, traits_type::length(__s));
4282:/usr/include/c++/5/bits/basic_string.h ****       }
4283:/usr/include/c++/5/bits/basic_string.h **** 
4284:/usr/include/c++/5/bits/basic_string.h ****       /**
GAS LISTING /tmp/ccSpSEFs.s 			page 161


4285:/usr/include/c++/5/bits/basic_string.h ****        *  @brief  Find position of a character.
4286:/usr/include/c++/5/bits/basic_string.h ****        *  @param __c  Character to locate.
4287:/usr/include/c++/5/bits/basic_string.h ****        *  @param __pos  Index of character to search from (default 0).
4288:/usr/include/c++/5/bits/basic_string.h ****        *  @return  Index of first occurrence.
4289:/usr/include/c++/5/bits/basic_string.h ****        *
4290:/usr/include/c++/5/bits/basic_string.h ****        *  Starting from @a __pos, searches forward for @a __c within
4291:/usr/include/c++/5/bits/basic_string.h ****        *  this string.  If found, returns the index where it was
4292:/usr/include/c++/5/bits/basic_string.h ****        *  found.  If not found, returns npos.
4293:/usr/include/c++/5/bits/basic_string.h ****       */
4294:/usr/include/c++/5/bits/basic_string.h ****       size_type
4295:/usr/include/c++/5/bits/basic_string.h ****       find(_CharT __c, size_type __pos = 0) const _GLIBCXX_NOEXCEPT;
4296:/usr/include/c++/5/bits/basic_string.h **** 
4297:/usr/include/c++/5/bits/basic_string.h ****       /**
4298:/usr/include/c++/5/bits/basic_string.h ****        *  @brief  Find last position of a string.
4299:/usr/include/c++/5/bits/basic_string.h ****        *  @param __str  String to locate.
4300:/usr/include/c++/5/bits/basic_string.h ****        *  @param __pos  Index of character to search back from (default end).
4301:/usr/include/c++/5/bits/basic_string.h ****        *  @return  Index of start of last occurrence.
4302:/usr/include/c++/5/bits/basic_string.h ****        *
4303:/usr/include/c++/5/bits/basic_string.h ****        *  Starting from @a __pos, searches backward for value of @a
4304:/usr/include/c++/5/bits/basic_string.h ****        *  __str within this string.  If found, returns the index where
4305:/usr/include/c++/5/bits/basic_string.h ****        *  it begins.  If not found, returns npos.
4306:/usr/include/c++/5/bits/basic_string.h ****       */
4307:/usr/include/c++/5/bits/basic_string.h ****       size_type
4308:/usr/include/c++/5/bits/basic_string.h ****       rfind(const basic_string& __str, size_type __pos = npos) const
4309:/usr/include/c++/5/bits/basic_string.h **** 	_GLIBCXX_NOEXCEPT
4310:/usr/include/c++/5/bits/basic_string.h ****       { return this->rfind(__str.data(), __pos, __str.size()); }
4311:/usr/include/c++/5/bits/basic_string.h **** 
4312:/usr/include/c++/5/bits/basic_string.h ****       /**
4313:/usr/include/c++/5/bits/basic_string.h ****        *  @brief  Find last position of a C substring.
4314:/usr/include/c++/5/bits/basic_string.h ****        *  @param __s  C string to locate.
4315:/usr/include/c++/5/bits/basic_string.h ****        *  @param __pos  Index of character to search back from.
4316:/usr/include/c++/5/bits/basic_string.h ****        *  @param __n  Number of characters from s to search for.
4317:/usr/include/c++/5/bits/basic_string.h ****        *  @return  Index of start of last occurrence.
4318:/usr/include/c++/5/bits/basic_string.h ****        *
4319:/usr/include/c++/5/bits/basic_string.h ****        *  Starting from @a __pos, searches backward for the first @a
4320:/usr/include/c++/5/bits/basic_string.h ****        *  __n characters in @a __s within this string.  If found,
4321:/usr/include/c++/5/bits/basic_string.h ****        *  returns the index where it begins.  If not found, returns
4322:/usr/include/c++/5/bits/basic_string.h ****        *  npos.
4323:/usr/include/c++/5/bits/basic_string.h ****       */
4324:/usr/include/c++/5/bits/basic_string.h ****       size_type
4325:/usr/include/c++/5/bits/basic_string.h ****       rfind(const _CharT* __s, size_type __pos, size_type __n) const;
4326:/usr/include/c++/5/bits/basic_string.h **** 
4327:/usr/include/c++/5/bits/basic_string.h ****       /**
4328:/usr/include/c++/5/bits/basic_string.h ****        *  @brief  Find last position of a C string.
4329:/usr/include/c++/5/bits/basic_string.h ****        *  @param __s  C string to locate.
4330:/usr/include/c++/5/bits/basic_string.h ****        *  @param __pos  Index of character to start search at (default end).
4331:/usr/include/c++/5/bits/basic_string.h ****        *  @return  Index of start of  last occurrence.
4332:/usr/include/c++/5/bits/basic_string.h ****        *
4333:/usr/include/c++/5/bits/basic_string.h ****        *  Starting from @a __pos, searches backward for the value of
4334:/usr/include/c++/5/bits/basic_string.h ****        *  @a __s within this string.  If found, returns the index
4335:/usr/include/c++/5/bits/basic_string.h ****        *  where it begins.  If not found, returns npos.
4336:/usr/include/c++/5/bits/basic_string.h ****       */
4337:/usr/include/c++/5/bits/basic_string.h ****       size_type
4338:/usr/include/c++/5/bits/basic_string.h ****       rfind(const _CharT* __s, size_type __pos = npos) const
4339:/usr/include/c++/5/bits/basic_string.h ****       {
4340:/usr/include/c++/5/bits/basic_string.h **** 	__glibcxx_requires_string(__s);
4341:/usr/include/c++/5/bits/basic_string.h **** 	return this->rfind(__s, __pos, traits_type::length(__s));
GAS LISTING /tmp/ccSpSEFs.s 			page 162


4342:/usr/include/c++/5/bits/basic_string.h ****       }
4343:/usr/include/c++/5/bits/basic_string.h **** 
4344:/usr/include/c++/5/bits/basic_string.h ****       /**
4345:/usr/include/c++/5/bits/basic_string.h ****        *  @brief  Find last position of a character.
4346:/usr/include/c++/5/bits/basic_string.h ****        *  @param __c  Character to locate.
4347:/usr/include/c++/5/bits/basic_string.h ****        *  @param __pos  Index of character to search back from (default end).
4348:/usr/include/c++/5/bits/basic_string.h ****        *  @return  Index of last occurrence.
4349:/usr/include/c++/5/bits/basic_string.h ****        *
4350:/usr/include/c++/5/bits/basic_string.h ****        *  Starting from @a __pos, searches backward for @a __c within
4351:/usr/include/c++/5/bits/basic_string.h ****        *  this string.  If found, returns the index where it was
4352:/usr/include/c++/5/bits/basic_string.h ****        *  found.  If not found, returns npos.
4353:/usr/include/c++/5/bits/basic_string.h ****       */
4354:/usr/include/c++/5/bits/basic_string.h ****       size_type
4355:/usr/include/c++/5/bits/basic_string.h ****       rfind(_CharT __c, size_type __pos = npos) const _GLIBCXX_NOEXCEPT;
4356:/usr/include/c++/5/bits/basic_string.h **** 
4357:/usr/include/c++/5/bits/basic_string.h ****       /**
4358:/usr/include/c++/5/bits/basic_string.h ****        *  @brief  Find position of a character of string.
4359:/usr/include/c++/5/bits/basic_string.h ****        *  @param __str  String containing characters to locate.
4360:/usr/include/c++/5/bits/basic_string.h ****        *  @param __pos  Index of character to search from (default 0).
4361:/usr/include/c++/5/bits/basic_string.h ****        *  @return  Index of first occurrence.
4362:/usr/include/c++/5/bits/basic_string.h ****        *
4363:/usr/include/c++/5/bits/basic_string.h ****        *  Starting from @a __pos, searches forward for one of the
4364:/usr/include/c++/5/bits/basic_string.h ****        *  characters of @a __str within this string.  If found,
4365:/usr/include/c++/5/bits/basic_string.h ****        *  returns the index where it was found.  If not found, returns
4366:/usr/include/c++/5/bits/basic_string.h ****        *  npos.
4367:/usr/include/c++/5/bits/basic_string.h ****       */
4368:/usr/include/c++/5/bits/basic_string.h ****       size_type
4369:/usr/include/c++/5/bits/basic_string.h ****       find_first_of(const basic_string& __str, size_type __pos = 0) const
4370:/usr/include/c++/5/bits/basic_string.h **** 	_GLIBCXX_NOEXCEPT
4371:/usr/include/c++/5/bits/basic_string.h ****       { return this->find_first_of(__str.data(), __pos, __str.size()); }
4372:/usr/include/c++/5/bits/basic_string.h **** 
4373:/usr/include/c++/5/bits/basic_string.h ****       /**
4374:/usr/include/c++/5/bits/basic_string.h ****        *  @brief  Find position of a character of C substring.
4375:/usr/include/c++/5/bits/basic_string.h ****        *  @param __s  String containing characters to locate.
4376:/usr/include/c++/5/bits/basic_string.h ****        *  @param __pos  Index of character to search from.
4377:/usr/include/c++/5/bits/basic_string.h ****        *  @param __n  Number of characters from s to search for.
4378:/usr/include/c++/5/bits/basic_string.h ****        *  @return  Index of first occurrence.
4379:/usr/include/c++/5/bits/basic_string.h ****        *
4380:/usr/include/c++/5/bits/basic_string.h ****        *  Starting from @a __pos, searches forward for one of the
4381:/usr/include/c++/5/bits/basic_string.h ****        *  first @a __n characters of @a __s within this string.  If
4382:/usr/include/c++/5/bits/basic_string.h ****        *  found, returns the index where it was found.  If not found,
4383:/usr/include/c++/5/bits/basic_string.h ****        *  returns npos.
4384:/usr/include/c++/5/bits/basic_string.h ****       */
4385:/usr/include/c++/5/bits/basic_string.h ****       size_type
4386:/usr/include/c++/5/bits/basic_string.h ****       find_first_of(const _CharT* __s, size_type __pos, size_type __n) const;
4387:/usr/include/c++/5/bits/basic_string.h **** 
4388:/usr/include/c++/5/bits/basic_string.h ****       /**
4389:/usr/include/c++/5/bits/basic_string.h ****        *  @brief  Find position of a character of C string.
4390:/usr/include/c++/5/bits/basic_string.h ****        *  @param __s  String containing characters to locate.
4391:/usr/include/c++/5/bits/basic_string.h ****        *  @param __pos  Index of character to search from (default 0).
4392:/usr/include/c++/5/bits/basic_string.h ****        *  @return  Index of first occurrence.
4393:/usr/include/c++/5/bits/basic_string.h ****        *
4394:/usr/include/c++/5/bits/basic_string.h ****        *  Starting from @a __pos, searches forward for one of the
4395:/usr/include/c++/5/bits/basic_string.h ****        *  characters of @a __s within this string.  If found, returns
4396:/usr/include/c++/5/bits/basic_string.h ****        *  the index where it was found.  If not found, returns npos.
4397:/usr/include/c++/5/bits/basic_string.h ****       */
4398:/usr/include/c++/5/bits/basic_string.h ****       size_type
GAS LISTING /tmp/ccSpSEFs.s 			page 163


4399:/usr/include/c++/5/bits/basic_string.h ****       find_first_of(const _CharT* __s, size_type __pos = 0) const
4400:/usr/include/c++/5/bits/basic_string.h ****       {
4401:/usr/include/c++/5/bits/basic_string.h **** 	__glibcxx_requires_string(__s);
4402:/usr/include/c++/5/bits/basic_string.h **** 	return this->find_first_of(__s, __pos, traits_type::length(__s));
4403:/usr/include/c++/5/bits/basic_string.h ****       }
4404:/usr/include/c++/5/bits/basic_string.h **** 
4405:/usr/include/c++/5/bits/basic_string.h ****       /**
4406:/usr/include/c++/5/bits/basic_string.h ****        *  @brief  Find position of a character.
4407:/usr/include/c++/5/bits/basic_string.h ****        *  @param __c  Character to locate.
4408:/usr/include/c++/5/bits/basic_string.h ****        *  @param __pos  Index of character to search from (default 0).
4409:/usr/include/c++/5/bits/basic_string.h ****        *  @return  Index of first occurrence.
4410:/usr/include/c++/5/bits/basic_string.h ****        *
4411:/usr/include/c++/5/bits/basic_string.h ****        *  Starting from @a __pos, searches forward for the character
4412:/usr/include/c++/5/bits/basic_string.h ****        *  @a __c within this string.  If found, returns the index
4413:/usr/include/c++/5/bits/basic_string.h ****        *  where it was found.  If not found, returns npos.
4414:/usr/include/c++/5/bits/basic_string.h ****        *
4415:/usr/include/c++/5/bits/basic_string.h ****        *  Note: equivalent to find(__c, __pos).
4416:/usr/include/c++/5/bits/basic_string.h ****       */
4417:/usr/include/c++/5/bits/basic_string.h ****       size_type
4418:/usr/include/c++/5/bits/basic_string.h ****       find_first_of(_CharT __c, size_type __pos = 0) const _GLIBCXX_NOEXCEPT
4419:/usr/include/c++/5/bits/basic_string.h ****       { return this->find(__c, __pos); }
4420:/usr/include/c++/5/bits/basic_string.h **** 
4421:/usr/include/c++/5/bits/basic_string.h ****       /**
4422:/usr/include/c++/5/bits/basic_string.h ****        *  @brief  Find last position of a character of string.
4423:/usr/include/c++/5/bits/basic_string.h ****        *  @param __str  String containing characters to locate.
4424:/usr/include/c++/5/bits/basic_string.h ****        *  @param __pos  Index of character to search back from (default end).
4425:/usr/include/c++/5/bits/basic_string.h ****        *  @return  Index of last occurrence.
4426:/usr/include/c++/5/bits/basic_string.h ****        *
4427:/usr/include/c++/5/bits/basic_string.h ****        *  Starting from @a __pos, searches backward for one of the
4428:/usr/include/c++/5/bits/basic_string.h ****        *  characters of @a __str within this string.  If found,
4429:/usr/include/c++/5/bits/basic_string.h ****        *  returns the index where it was found.  If not found, returns
4430:/usr/include/c++/5/bits/basic_string.h ****        *  npos.
4431:/usr/include/c++/5/bits/basic_string.h ****       */
4432:/usr/include/c++/5/bits/basic_string.h ****       size_type
4433:/usr/include/c++/5/bits/basic_string.h ****       find_last_of(const basic_string& __str, size_type __pos = npos) const
4434:/usr/include/c++/5/bits/basic_string.h **** 	_GLIBCXX_NOEXCEPT
4435:/usr/include/c++/5/bits/basic_string.h ****       { return this->find_last_of(__str.data(), __pos, __str.size()); }
4436:/usr/include/c++/5/bits/basic_string.h **** 
4437:/usr/include/c++/5/bits/basic_string.h ****       /**
4438:/usr/include/c++/5/bits/basic_string.h ****        *  @brief  Find last position of a character of C substring.
4439:/usr/include/c++/5/bits/basic_string.h ****        *  @param __s  C string containing characters to locate.
4440:/usr/include/c++/5/bits/basic_string.h ****        *  @param __pos  Index of character to search back from.
4441:/usr/include/c++/5/bits/basic_string.h ****        *  @param __n  Number of characters from s to search for.
4442:/usr/include/c++/5/bits/basic_string.h ****        *  @return  Index of last occurrence.
4443:/usr/include/c++/5/bits/basic_string.h ****        *
4444:/usr/include/c++/5/bits/basic_string.h ****        *  Starting from @a __pos, searches backward for one of the
4445:/usr/include/c++/5/bits/basic_string.h ****        *  first @a __n characters of @a __s within this string.  If
4446:/usr/include/c++/5/bits/basic_string.h ****        *  found, returns the index where it was found.  If not found,
4447:/usr/include/c++/5/bits/basic_string.h ****        *  returns npos.
4448:/usr/include/c++/5/bits/basic_string.h ****       */
4449:/usr/include/c++/5/bits/basic_string.h ****       size_type
4450:/usr/include/c++/5/bits/basic_string.h ****       find_last_of(const _CharT* __s, size_type __pos, size_type __n) const;
4451:/usr/include/c++/5/bits/basic_string.h **** 
4452:/usr/include/c++/5/bits/basic_string.h ****       /**
4453:/usr/include/c++/5/bits/basic_string.h ****        *  @brief  Find last position of a character of C string.
4454:/usr/include/c++/5/bits/basic_string.h ****        *  @param __s  C string containing characters to locate.
4455:/usr/include/c++/5/bits/basic_string.h ****        *  @param __pos  Index of character to search back from (default end).
GAS LISTING /tmp/ccSpSEFs.s 			page 164


4456:/usr/include/c++/5/bits/basic_string.h ****        *  @return  Index of last occurrence.
4457:/usr/include/c++/5/bits/basic_string.h ****        *
4458:/usr/include/c++/5/bits/basic_string.h ****        *  Starting from @a __pos, searches backward for one of the
4459:/usr/include/c++/5/bits/basic_string.h ****        *  characters of @a __s within this string.  If found, returns
4460:/usr/include/c++/5/bits/basic_string.h ****        *  the index where it was found.  If not found, returns npos.
4461:/usr/include/c++/5/bits/basic_string.h ****       */
4462:/usr/include/c++/5/bits/basic_string.h ****       size_type
4463:/usr/include/c++/5/bits/basic_string.h ****       find_last_of(const _CharT* __s, size_type __pos = npos) const
4464:/usr/include/c++/5/bits/basic_string.h ****       {
4465:/usr/include/c++/5/bits/basic_string.h **** 	__glibcxx_requires_string(__s);
4466:/usr/include/c++/5/bits/basic_string.h **** 	return this->find_last_of(__s, __pos, traits_type::length(__s));
4467:/usr/include/c++/5/bits/basic_string.h ****       }
4468:/usr/include/c++/5/bits/basic_string.h **** 
4469:/usr/include/c++/5/bits/basic_string.h ****       /**
4470:/usr/include/c++/5/bits/basic_string.h ****        *  @brief  Find last position of a character.
4471:/usr/include/c++/5/bits/basic_string.h ****        *  @param __c  Character to locate.
4472:/usr/include/c++/5/bits/basic_string.h ****        *  @param __pos  Index of character to search back from (default end).
4473:/usr/include/c++/5/bits/basic_string.h ****        *  @return  Index of last occurrence.
4474:/usr/include/c++/5/bits/basic_string.h ****        *
4475:/usr/include/c++/5/bits/basic_string.h ****        *  Starting from @a __pos, searches backward for @a __c within
4476:/usr/include/c++/5/bits/basic_string.h ****        *  this string.  If found, returns the index where it was
4477:/usr/include/c++/5/bits/basic_string.h ****        *  found.  If not found, returns npos.
4478:/usr/include/c++/5/bits/basic_string.h ****        *
4479:/usr/include/c++/5/bits/basic_string.h ****        *  Note: equivalent to rfind(__c, __pos).
4480:/usr/include/c++/5/bits/basic_string.h ****       */
4481:/usr/include/c++/5/bits/basic_string.h ****       size_type
4482:/usr/include/c++/5/bits/basic_string.h ****       find_last_of(_CharT __c, size_type __pos = npos) const _GLIBCXX_NOEXCEPT
4483:/usr/include/c++/5/bits/basic_string.h ****       { return this->rfind(__c, __pos); }
4484:/usr/include/c++/5/bits/basic_string.h **** 
4485:/usr/include/c++/5/bits/basic_string.h ****       /**
4486:/usr/include/c++/5/bits/basic_string.h ****        *  @brief  Find position of a character not in string.
4487:/usr/include/c++/5/bits/basic_string.h ****        *  @param __str  String containing characters to avoid.
4488:/usr/include/c++/5/bits/basic_string.h ****        *  @param __pos  Index of character to search from (default 0).
4489:/usr/include/c++/5/bits/basic_string.h ****        *  @return  Index of first occurrence.
4490:/usr/include/c++/5/bits/basic_string.h ****        *
4491:/usr/include/c++/5/bits/basic_string.h ****        *  Starting from @a __pos, searches forward for a character not contained
4492:/usr/include/c++/5/bits/basic_string.h ****        *  in @a __str within this string.  If found, returns the index where it
4493:/usr/include/c++/5/bits/basic_string.h ****        *  was found.  If not found, returns npos.
4494:/usr/include/c++/5/bits/basic_string.h ****       */
4495:/usr/include/c++/5/bits/basic_string.h ****       size_type
4496:/usr/include/c++/5/bits/basic_string.h ****       find_first_not_of(const basic_string& __str, size_type __pos = 0) const
4497:/usr/include/c++/5/bits/basic_string.h **** 	_GLIBCXX_NOEXCEPT
4498:/usr/include/c++/5/bits/basic_string.h ****       { return this->find_first_not_of(__str.data(), __pos, __str.size()); }
4499:/usr/include/c++/5/bits/basic_string.h **** 
4500:/usr/include/c++/5/bits/basic_string.h ****       /**
4501:/usr/include/c++/5/bits/basic_string.h ****        *  @brief  Find position of a character not in C substring.
4502:/usr/include/c++/5/bits/basic_string.h ****        *  @param __s  C string containing characters to avoid.
4503:/usr/include/c++/5/bits/basic_string.h ****        *  @param __pos  Index of character to search from.
4504:/usr/include/c++/5/bits/basic_string.h ****        *  @param __n  Number of characters from __s to consider.
4505:/usr/include/c++/5/bits/basic_string.h ****        *  @return  Index of first occurrence.
4506:/usr/include/c++/5/bits/basic_string.h ****        *
4507:/usr/include/c++/5/bits/basic_string.h ****        *  Starting from @a __pos, searches forward for a character not
4508:/usr/include/c++/5/bits/basic_string.h ****        *  contained in the first @a __n characters of @a __s within
4509:/usr/include/c++/5/bits/basic_string.h ****        *  this string.  If found, returns the index where it was
4510:/usr/include/c++/5/bits/basic_string.h ****        *  found.  If not found, returns npos.
4511:/usr/include/c++/5/bits/basic_string.h ****       */
4512:/usr/include/c++/5/bits/basic_string.h ****       size_type
GAS LISTING /tmp/ccSpSEFs.s 			page 165


4513:/usr/include/c++/5/bits/basic_string.h ****       find_first_not_of(const _CharT* __s, size_type __pos,
4514:/usr/include/c++/5/bits/basic_string.h **** 			size_type __n) const;
4515:/usr/include/c++/5/bits/basic_string.h **** 
4516:/usr/include/c++/5/bits/basic_string.h ****       /**
4517:/usr/include/c++/5/bits/basic_string.h ****        *  @brief  Find position of a character not in C string.
4518:/usr/include/c++/5/bits/basic_string.h ****        *  @param __s  C string containing characters to avoid.
4519:/usr/include/c++/5/bits/basic_string.h ****        *  @param __pos  Index of character to search from (default 0).
4520:/usr/include/c++/5/bits/basic_string.h ****        *  @return  Index of first occurrence.
4521:/usr/include/c++/5/bits/basic_string.h ****        *
4522:/usr/include/c++/5/bits/basic_string.h ****        *  Starting from @a __pos, searches forward for a character not
4523:/usr/include/c++/5/bits/basic_string.h ****        *  contained in @a __s within this string.  If found, returns
4524:/usr/include/c++/5/bits/basic_string.h ****        *  the index where it was found.  If not found, returns npos.
4525:/usr/include/c++/5/bits/basic_string.h ****       */
4526:/usr/include/c++/5/bits/basic_string.h ****       size_type
4527:/usr/include/c++/5/bits/basic_string.h ****       find_first_not_of(const _CharT* __s, size_type __pos = 0) const
4528:/usr/include/c++/5/bits/basic_string.h ****       {
4529:/usr/include/c++/5/bits/basic_string.h **** 	__glibcxx_requires_string(__s);
4530:/usr/include/c++/5/bits/basic_string.h **** 	return this->find_first_not_of(__s, __pos, traits_type::length(__s));
4531:/usr/include/c++/5/bits/basic_string.h ****       }
4532:/usr/include/c++/5/bits/basic_string.h **** 
4533:/usr/include/c++/5/bits/basic_string.h ****       /**
4534:/usr/include/c++/5/bits/basic_string.h ****        *  @brief  Find position of a different character.
4535:/usr/include/c++/5/bits/basic_string.h ****        *  @param __c  Character to avoid.
4536:/usr/include/c++/5/bits/basic_string.h ****        *  @param __pos  Index of character to search from (default 0).
4537:/usr/include/c++/5/bits/basic_string.h ****        *  @return  Index of first occurrence.
4538:/usr/include/c++/5/bits/basic_string.h ****        *
4539:/usr/include/c++/5/bits/basic_string.h ****        *  Starting from @a __pos, searches forward for a character
4540:/usr/include/c++/5/bits/basic_string.h ****        *  other than @a __c within this string.  If found, returns the
4541:/usr/include/c++/5/bits/basic_string.h ****        *  index where it was found.  If not found, returns npos.
4542:/usr/include/c++/5/bits/basic_string.h ****       */
4543:/usr/include/c++/5/bits/basic_string.h ****       size_type
4544:/usr/include/c++/5/bits/basic_string.h ****       find_first_not_of(_CharT __c, size_type __pos = 0) const
4545:/usr/include/c++/5/bits/basic_string.h **** 	_GLIBCXX_NOEXCEPT;
4546:/usr/include/c++/5/bits/basic_string.h **** 
4547:/usr/include/c++/5/bits/basic_string.h ****       /**
4548:/usr/include/c++/5/bits/basic_string.h ****        *  @brief  Find last position of a character not in string.
4549:/usr/include/c++/5/bits/basic_string.h ****        *  @param __str  String containing characters to avoid.
4550:/usr/include/c++/5/bits/basic_string.h ****        *  @param __pos  Index of character to search back from (default end).
4551:/usr/include/c++/5/bits/basic_string.h ****        *  @return  Index of last occurrence.
4552:/usr/include/c++/5/bits/basic_string.h ****        *
4553:/usr/include/c++/5/bits/basic_string.h ****        *  Starting from @a __pos, searches backward for a character
4554:/usr/include/c++/5/bits/basic_string.h ****        *  not contained in @a __str within this string.  If found,
4555:/usr/include/c++/5/bits/basic_string.h ****        *  returns the index where it was found.  If not found, returns
4556:/usr/include/c++/5/bits/basic_string.h ****        *  npos.
4557:/usr/include/c++/5/bits/basic_string.h ****       */
4558:/usr/include/c++/5/bits/basic_string.h ****       size_type
4559:/usr/include/c++/5/bits/basic_string.h ****       find_last_not_of(const basic_string& __str, size_type __pos = npos) const
4560:/usr/include/c++/5/bits/basic_string.h **** 	_GLIBCXX_NOEXCEPT
4561:/usr/include/c++/5/bits/basic_string.h ****       { return this->find_last_not_of(__str.data(), __pos, __str.size()); }
4562:/usr/include/c++/5/bits/basic_string.h **** 
4563:/usr/include/c++/5/bits/basic_string.h ****       /**
4564:/usr/include/c++/5/bits/basic_string.h ****        *  @brief  Find last position of a character not in C substring.
4565:/usr/include/c++/5/bits/basic_string.h ****        *  @param __s  C string containing characters to avoid.
4566:/usr/include/c++/5/bits/basic_string.h ****        *  @param __pos  Index of character to search back from.
4567:/usr/include/c++/5/bits/basic_string.h ****        *  @param __n  Number of characters from s to consider.
4568:/usr/include/c++/5/bits/basic_string.h ****        *  @return  Index of last occurrence.
4569:/usr/include/c++/5/bits/basic_string.h ****        *
GAS LISTING /tmp/ccSpSEFs.s 			page 166


4570:/usr/include/c++/5/bits/basic_string.h ****        *  Starting from @a __pos, searches backward for a character not
4571:/usr/include/c++/5/bits/basic_string.h ****        *  contained in the first @a __n characters of @a __s within this string.
4572:/usr/include/c++/5/bits/basic_string.h ****        *  If found, returns the index where it was found.  If not found,
4573:/usr/include/c++/5/bits/basic_string.h ****        *  returns npos.
4574:/usr/include/c++/5/bits/basic_string.h ****       */
4575:/usr/include/c++/5/bits/basic_string.h ****       size_type
4576:/usr/include/c++/5/bits/basic_string.h ****       find_last_not_of(const _CharT* __s, size_type __pos,
4577:/usr/include/c++/5/bits/basic_string.h **** 		       size_type __n) const;
4578:/usr/include/c++/5/bits/basic_string.h ****       /**
4579:/usr/include/c++/5/bits/basic_string.h ****        *  @brief  Find last position of a character not in C string.
4580:/usr/include/c++/5/bits/basic_string.h ****        *  @param __s  C string containing characters to avoid.
4581:/usr/include/c++/5/bits/basic_string.h ****        *  @param __pos  Index of character to search back from (default end).
4582:/usr/include/c++/5/bits/basic_string.h ****        *  @return  Index of last occurrence.
4583:/usr/include/c++/5/bits/basic_string.h ****        *
4584:/usr/include/c++/5/bits/basic_string.h ****        *  Starting from @a __pos, searches backward for a character
4585:/usr/include/c++/5/bits/basic_string.h ****        *  not contained in @a __s within this string.  If found,
4586:/usr/include/c++/5/bits/basic_string.h ****        *  returns the index where it was found.  If not found, returns
4587:/usr/include/c++/5/bits/basic_string.h ****        *  npos.
4588:/usr/include/c++/5/bits/basic_string.h ****       */
4589:/usr/include/c++/5/bits/basic_string.h ****       size_type
4590:/usr/include/c++/5/bits/basic_string.h ****       find_last_not_of(const _CharT* __s, size_type __pos = npos) const
4591:/usr/include/c++/5/bits/basic_string.h ****       {
4592:/usr/include/c++/5/bits/basic_string.h **** 	__glibcxx_requires_string(__s);
4593:/usr/include/c++/5/bits/basic_string.h **** 	return this->find_last_not_of(__s, __pos, traits_type::length(__s));
4594:/usr/include/c++/5/bits/basic_string.h ****       }
4595:/usr/include/c++/5/bits/basic_string.h **** 
4596:/usr/include/c++/5/bits/basic_string.h ****       /**
4597:/usr/include/c++/5/bits/basic_string.h ****        *  @brief  Find last position of a different character.
4598:/usr/include/c++/5/bits/basic_string.h ****        *  @param __c  Character to avoid.
4599:/usr/include/c++/5/bits/basic_string.h ****        *  @param __pos  Index of character to search back from (default end).
4600:/usr/include/c++/5/bits/basic_string.h ****        *  @return  Index of last occurrence.
4601:/usr/include/c++/5/bits/basic_string.h ****        *
4602:/usr/include/c++/5/bits/basic_string.h ****        *  Starting from @a __pos, searches backward for a character other than
4603:/usr/include/c++/5/bits/basic_string.h ****        *  @a __c within this string.  If found, returns the index where it was
4604:/usr/include/c++/5/bits/basic_string.h ****        *  found.  If not found, returns npos.
4605:/usr/include/c++/5/bits/basic_string.h ****       */
4606:/usr/include/c++/5/bits/basic_string.h ****       size_type
4607:/usr/include/c++/5/bits/basic_string.h ****       find_last_not_of(_CharT __c, size_type __pos = npos) const
4608:/usr/include/c++/5/bits/basic_string.h **** 	_GLIBCXX_NOEXCEPT;
4609:/usr/include/c++/5/bits/basic_string.h **** 
4610:/usr/include/c++/5/bits/basic_string.h ****       /**
4611:/usr/include/c++/5/bits/basic_string.h ****        *  @brief  Get a substring.
4612:/usr/include/c++/5/bits/basic_string.h ****        *  @param __pos  Index of first character (default 0).
4613:/usr/include/c++/5/bits/basic_string.h ****        *  @param __n  Number of characters in substring (default remainder).
4614:/usr/include/c++/5/bits/basic_string.h ****        *  @return  The new string.
4615:/usr/include/c++/5/bits/basic_string.h ****        *  @throw  std::out_of_range  If __pos > size().
4616:/usr/include/c++/5/bits/basic_string.h ****        *
4617:/usr/include/c++/5/bits/basic_string.h ****        *  Construct and return a new string using the @a __n
4618:/usr/include/c++/5/bits/basic_string.h ****        *  characters starting at @a __pos.  If the string is too
4619:/usr/include/c++/5/bits/basic_string.h ****        *  short, use the remainder of the characters.  If @a __pos is
4620:/usr/include/c++/5/bits/basic_string.h ****        *  beyond the end of the string, out_of_range is thrown.
4621:/usr/include/c++/5/bits/basic_string.h ****       */
4622:/usr/include/c++/5/bits/basic_string.h ****       basic_string
4623:/usr/include/c++/5/bits/basic_string.h ****       substr(size_type __pos = 0, size_type __n = npos) const
4624:/usr/include/c++/5/bits/basic_string.h ****       { return basic_string(*this,
4625:/usr/include/c++/5/bits/basic_string.h **** 			    _M_check(__pos, "basic_string::substr"), __n); }
4626:/usr/include/c++/5/bits/basic_string.h **** 
GAS LISTING /tmp/ccSpSEFs.s 			page 167


4627:/usr/include/c++/5/bits/basic_string.h ****       /**
4628:/usr/include/c++/5/bits/basic_string.h ****        *  @brief  Compare to a string.
4629:/usr/include/c++/5/bits/basic_string.h ****        *  @param __str  String to compare against.
4630:/usr/include/c++/5/bits/basic_string.h ****        *  @return  Integer < 0, 0, or > 0.
4631:/usr/include/c++/5/bits/basic_string.h ****        *
4632:/usr/include/c++/5/bits/basic_string.h ****        *  Returns an integer < 0 if this string is ordered before @a
4633:/usr/include/c++/5/bits/basic_string.h ****        *  __str, 0 if their values are equivalent, or > 0 if this
4634:/usr/include/c++/5/bits/basic_string.h ****        *  string is ordered after @a __str.  Determines the effective
4635:/usr/include/c++/5/bits/basic_string.h ****        *  length rlen of the strings to compare as the smallest of
4636:/usr/include/c++/5/bits/basic_string.h ****        *  size() and str.size().  The function then compares the two
4637:/usr/include/c++/5/bits/basic_string.h ****        *  strings by calling traits::compare(data(), str.data(),rlen).
4638:/usr/include/c++/5/bits/basic_string.h ****        *  If the result of the comparison is nonzero returns it,
4639:/usr/include/c++/5/bits/basic_string.h ****        *  otherwise the shorter one is ordered first.
4640:/usr/include/c++/5/bits/basic_string.h ****       */
4641:/usr/include/c++/5/bits/basic_string.h ****       int
4642:/usr/include/c++/5/bits/basic_string.h ****       compare(const basic_string& __str) const
4643:/usr/include/c++/5/bits/basic_string.h ****       {
4644:/usr/include/c++/5/bits/basic_string.h **** 	const size_type __size = this->size();
4645:/usr/include/c++/5/bits/basic_string.h **** 	const size_type __osize = __str.size();
4646:/usr/include/c++/5/bits/basic_string.h **** 	const size_type __len = std::min(__size, __osize);
4647:/usr/include/c++/5/bits/basic_string.h **** 
4648:/usr/include/c++/5/bits/basic_string.h **** 	int __r = traits_type::compare(_M_data(), __str.data(), __len);
4649:/usr/include/c++/5/bits/basic_string.h **** 	if (!__r)
4650:/usr/include/c++/5/bits/basic_string.h **** 	  __r = _S_compare(__size, __osize);
4651:/usr/include/c++/5/bits/basic_string.h **** 	return __r;
4652:/usr/include/c++/5/bits/basic_string.h ****       }
4653:/usr/include/c++/5/bits/basic_string.h **** 
4654:/usr/include/c++/5/bits/basic_string.h ****       /**
4655:/usr/include/c++/5/bits/basic_string.h ****        *  @brief  Compare substring to a string.
4656:/usr/include/c++/5/bits/basic_string.h ****        *  @param __pos  Index of first character of substring.
4657:/usr/include/c++/5/bits/basic_string.h ****        *  @param __n  Number of characters in substring.
4658:/usr/include/c++/5/bits/basic_string.h ****        *  @param __str  String to compare against.
4659:/usr/include/c++/5/bits/basic_string.h ****        *  @return  Integer < 0, 0, or > 0.
4660:/usr/include/c++/5/bits/basic_string.h ****        *
4661:/usr/include/c++/5/bits/basic_string.h ****        *  Form the substring of this string from the @a __n characters
4662:/usr/include/c++/5/bits/basic_string.h ****        *  starting at @a __pos.  Returns an integer < 0 if the
4663:/usr/include/c++/5/bits/basic_string.h ****        *  substring is ordered before @a __str, 0 if their values are
4664:/usr/include/c++/5/bits/basic_string.h ****        *  equivalent, or > 0 if the substring is ordered after @a
4665:/usr/include/c++/5/bits/basic_string.h ****        *  __str.  Determines the effective length rlen of the strings
4666:/usr/include/c++/5/bits/basic_string.h ****        *  to compare as the smallest of the length of the substring
4667:/usr/include/c++/5/bits/basic_string.h ****        *  and @a __str.size().  The function then compares the two
4668:/usr/include/c++/5/bits/basic_string.h ****        *  strings by calling
4669:/usr/include/c++/5/bits/basic_string.h ****        *  traits::compare(substring.data(),str.data(),rlen).  If the
4670:/usr/include/c++/5/bits/basic_string.h ****        *  result of the comparison is nonzero returns it, otherwise
4671:/usr/include/c++/5/bits/basic_string.h ****        *  the shorter one is ordered first.
4672:/usr/include/c++/5/bits/basic_string.h ****       */
4673:/usr/include/c++/5/bits/basic_string.h ****       int
4674:/usr/include/c++/5/bits/basic_string.h ****       compare(size_type __pos, size_type __n, const basic_string& __str) const;
4675:/usr/include/c++/5/bits/basic_string.h **** 
4676:/usr/include/c++/5/bits/basic_string.h ****       /**
4677:/usr/include/c++/5/bits/basic_string.h ****        *  @brief  Compare substring to a substring.
4678:/usr/include/c++/5/bits/basic_string.h ****        *  @param __pos1  Index of first character of substring.
4679:/usr/include/c++/5/bits/basic_string.h ****        *  @param __n1  Number of characters in substring.
4680:/usr/include/c++/5/bits/basic_string.h ****        *  @param __str  String to compare against.
4681:/usr/include/c++/5/bits/basic_string.h ****        *  @param __pos2  Index of first character of substring of str.
4682:/usr/include/c++/5/bits/basic_string.h ****        *  @param __n2  Number of characters in substring of str.
4683:/usr/include/c++/5/bits/basic_string.h ****        *  @return  Integer < 0, 0, or > 0.
GAS LISTING /tmp/ccSpSEFs.s 			page 168


4684:/usr/include/c++/5/bits/basic_string.h ****        *
4685:/usr/include/c++/5/bits/basic_string.h ****        *  Form the substring of this string from the @a __n1
4686:/usr/include/c++/5/bits/basic_string.h ****        *  characters starting at @a __pos1.  Form the substring of @a
4687:/usr/include/c++/5/bits/basic_string.h ****        *  __str from the @a __n2 characters starting at @a __pos2.
4688:/usr/include/c++/5/bits/basic_string.h ****        *  Returns an integer < 0 if this substring is ordered before
4689:/usr/include/c++/5/bits/basic_string.h ****        *  the substring of @a __str, 0 if their values are equivalent,
4690:/usr/include/c++/5/bits/basic_string.h ****        *  or > 0 if this substring is ordered after the substring of
4691:/usr/include/c++/5/bits/basic_string.h ****        *  @a __str.  Determines the effective length rlen of the
4692:/usr/include/c++/5/bits/basic_string.h ****        *  strings to compare as the smallest of the lengths of the
4693:/usr/include/c++/5/bits/basic_string.h ****        *  substrings.  The function then compares the two strings by
4694:/usr/include/c++/5/bits/basic_string.h ****        *  calling
4695:/usr/include/c++/5/bits/basic_string.h ****        *  traits::compare(substring.data(),str.substr(pos2,n2).data(),rlen).
4696:/usr/include/c++/5/bits/basic_string.h ****        *  If the result of the comparison is nonzero returns it,
4697:/usr/include/c++/5/bits/basic_string.h ****        *  otherwise the shorter one is ordered first.
4698:/usr/include/c++/5/bits/basic_string.h ****       */
4699:/usr/include/c++/5/bits/basic_string.h ****       int
4700:/usr/include/c++/5/bits/basic_string.h ****       compare(size_type __pos1, size_type __n1, const basic_string& __str,
4701:/usr/include/c++/5/bits/basic_string.h **** 	      size_type __pos2, size_type __n2) const;
4702:/usr/include/c++/5/bits/basic_string.h **** 
4703:/usr/include/c++/5/bits/basic_string.h ****       /**
4704:/usr/include/c++/5/bits/basic_string.h ****        *  @brief  Compare to a C string.
4705:/usr/include/c++/5/bits/basic_string.h ****        *  @param __s  C string to compare against.
4706:/usr/include/c++/5/bits/basic_string.h ****        *  @return  Integer < 0, 0, or > 0.
4707:/usr/include/c++/5/bits/basic_string.h ****        *
4708:/usr/include/c++/5/bits/basic_string.h ****        *  Returns an integer < 0 if this string is ordered before @a __s, 0 if
4709:/usr/include/c++/5/bits/basic_string.h ****        *  their values are equivalent, or > 0 if this string is ordered after
4710:/usr/include/c++/5/bits/basic_string.h ****        *  @a __s.  Determines the effective length rlen of the strings to
4711:/usr/include/c++/5/bits/basic_string.h ****        *  compare as the smallest of size() and the length of a string
4712:/usr/include/c++/5/bits/basic_string.h ****        *  constructed from @a __s.  The function then compares the two strings
4713:/usr/include/c++/5/bits/basic_string.h ****        *  by calling traits::compare(data(),s,rlen).  If the result of the
4714:/usr/include/c++/5/bits/basic_string.h ****        *  comparison is nonzero returns it, otherwise the shorter one is
4715:/usr/include/c++/5/bits/basic_string.h ****        *  ordered first.
4716:/usr/include/c++/5/bits/basic_string.h ****       */
4717:/usr/include/c++/5/bits/basic_string.h ****       int
4718:/usr/include/c++/5/bits/basic_string.h ****       compare(const _CharT* __s) const;
4719:/usr/include/c++/5/bits/basic_string.h **** 
4720:/usr/include/c++/5/bits/basic_string.h ****       // _GLIBCXX_RESOLVE_LIB_DEFECTS
4721:/usr/include/c++/5/bits/basic_string.h ****       // 5 String::compare specification questionable
4722:/usr/include/c++/5/bits/basic_string.h ****       /**
4723:/usr/include/c++/5/bits/basic_string.h ****        *  @brief  Compare substring to a C string.
4724:/usr/include/c++/5/bits/basic_string.h ****        *  @param __pos  Index of first character of substring.
4725:/usr/include/c++/5/bits/basic_string.h ****        *  @param __n1  Number of characters in substring.
4726:/usr/include/c++/5/bits/basic_string.h ****        *  @param __s  C string to compare against.
4727:/usr/include/c++/5/bits/basic_string.h ****        *  @return  Integer < 0, 0, or > 0.
4728:/usr/include/c++/5/bits/basic_string.h ****        *
4729:/usr/include/c++/5/bits/basic_string.h ****        *  Form the substring of this string from the @a __n1
4730:/usr/include/c++/5/bits/basic_string.h ****        *  characters starting at @a pos.  Returns an integer < 0 if
4731:/usr/include/c++/5/bits/basic_string.h ****        *  the substring is ordered before @a __s, 0 if their values
4732:/usr/include/c++/5/bits/basic_string.h ****        *  are equivalent, or > 0 if the substring is ordered after @a
4733:/usr/include/c++/5/bits/basic_string.h ****        *  __s.  Determines the effective length rlen of the strings to
4734:/usr/include/c++/5/bits/basic_string.h ****        *  compare as the smallest of the length of the substring and
4735:/usr/include/c++/5/bits/basic_string.h ****        *  the length of a string constructed from @a __s.  The
4736:/usr/include/c++/5/bits/basic_string.h ****        *  function then compares the two string by calling
4737:/usr/include/c++/5/bits/basic_string.h ****        *  traits::compare(substring.data(),__s,rlen).  If the result of
4738:/usr/include/c++/5/bits/basic_string.h ****        *  the comparison is nonzero returns it, otherwise the shorter
4739:/usr/include/c++/5/bits/basic_string.h ****        *  one is ordered first.
4740:/usr/include/c++/5/bits/basic_string.h ****       */
GAS LISTING /tmp/ccSpSEFs.s 			page 169


4741:/usr/include/c++/5/bits/basic_string.h ****       int
4742:/usr/include/c++/5/bits/basic_string.h ****       compare(size_type __pos, size_type __n1, const _CharT* __s) const;
4743:/usr/include/c++/5/bits/basic_string.h **** 
4744:/usr/include/c++/5/bits/basic_string.h ****       /**
4745:/usr/include/c++/5/bits/basic_string.h ****        *  @brief  Compare substring against a character %array.
4746:/usr/include/c++/5/bits/basic_string.h ****        *  @param __pos  Index of first character of substring.
4747:/usr/include/c++/5/bits/basic_string.h ****        *  @param __n1  Number of characters in substring.
4748:/usr/include/c++/5/bits/basic_string.h ****        *  @param __s  character %array to compare against.
4749:/usr/include/c++/5/bits/basic_string.h ****        *  @param __n2  Number of characters of s.
4750:/usr/include/c++/5/bits/basic_string.h ****        *  @return  Integer < 0, 0, or > 0.
4751:/usr/include/c++/5/bits/basic_string.h ****        *
4752:/usr/include/c++/5/bits/basic_string.h ****        *  Form the substring of this string from the @a __n1
4753:/usr/include/c++/5/bits/basic_string.h ****        *  characters starting at @a __pos.  Form a string from the
4754:/usr/include/c++/5/bits/basic_string.h ****        *  first @a __n2 characters of @a __s.  Returns an integer < 0
4755:/usr/include/c++/5/bits/basic_string.h ****        *  if this substring is ordered before the string from @a __s,
4756:/usr/include/c++/5/bits/basic_string.h ****        *  0 if their values are equivalent, or > 0 if this substring
4757:/usr/include/c++/5/bits/basic_string.h ****        *  is ordered after the string from @a __s.  Determines the
4758:/usr/include/c++/5/bits/basic_string.h ****        *  effective length rlen of the strings to compare as the
4759:/usr/include/c++/5/bits/basic_string.h ****        *  smallest of the length of the substring and @a __n2.  The
4760:/usr/include/c++/5/bits/basic_string.h ****        *  function then compares the two strings by calling
4761:/usr/include/c++/5/bits/basic_string.h ****        *  traits::compare(substring.data(),s,rlen).  If the result of
4762:/usr/include/c++/5/bits/basic_string.h ****        *  the comparison is nonzero returns it, otherwise the shorter
4763:/usr/include/c++/5/bits/basic_string.h ****        *  one is ordered first.
4764:/usr/include/c++/5/bits/basic_string.h ****        *
4765:/usr/include/c++/5/bits/basic_string.h ****        *  NB: s must have at least n2 characters, &apos;\\0&apos; has
4766:/usr/include/c++/5/bits/basic_string.h ****        *  no special meaning.
4767:/usr/include/c++/5/bits/basic_string.h ****       */
4768:/usr/include/c++/5/bits/basic_string.h ****       int
4769:/usr/include/c++/5/bits/basic_string.h ****       compare(size_type __pos, size_type __n1, const _CharT* __s,
4770:/usr/include/c++/5/bits/basic_string.h **** 	      size_type __n2) const;
4771:/usr/include/c++/5/bits/basic_string.h ****   };
4772:/usr/include/c++/5/bits/basic_string.h **** #endif  // !_GLIBCXX_USE_CXX11_ABI
4773:/usr/include/c++/5/bits/basic_string.h **** 
4774:/usr/include/c++/5/bits/basic_string.h ****   // operator+
4775:/usr/include/c++/5/bits/basic_string.h ****   /**
4776:/usr/include/c++/5/bits/basic_string.h ****    *  @brief  Concatenate two strings.
4777:/usr/include/c++/5/bits/basic_string.h ****    *  @param __lhs  First string.
4778:/usr/include/c++/5/bits/basic_string.h ****    *  @param __rhs  Last string.
4779:/usr/include/c++/5/bits/basic_string.h ****    *  @return  New string with value of @a __lhs followed by @a __rhs.
4780:/usr/include/c++/5/bits/basic_string.h ****    */
4781:/usr/include/c++/5/bits/basic_string.h ****   template<typename _CharT, typename _Traits, typename _Alloc>
4782:/usr/include/c++/5/bits/basic_string.h ****     basic_string<_CharT, _Traits, _Alloc>
4783:/usr/include/c++/5/bits/basic_string.h ****     operator+(const basic_string<_CharT, _Traits, _Alloc>& __lhs,
4784:/usr/include/c++/5/bits/basic_string.h **** 	      const basic_string<_CharT, _Traits, _Alloc>& __rhs)
4785:/usr/include/c++/5/bits/basic_string.h ****     {
4786:/usr/include/c++/5/bits/basic_string.h ****       basic_string<_CharT, _Traits, _Alloc> __str(__lhs);
4787:/usr/include/c++/5/bits/basic_string.h ****       __str.append(__rhs);
4788:/usr/include/c++/5/bits/basic_string.h ****       return __str;
4789:/usr/include/c++/5/bits/basic_string.h ****     }
4790:/usr/include/c++/5/bits/basic_string.h **** 
4791:/usr/include/c++/5/bits/basic_string.h ****   /**
4792:/usr/include/c++/5/bits/basic_string.h ****    *  @brief  Concatenate C string and string.
4793:/usr/include/c++/5/bits/basic_string.h ****    *  @param __lhs  First string.
4794:/usr/include/c++/5/bits/basic_string.h ****    *  @param __rhs  Last string.
4795:/usr/include/c++/5/bits/basic_string.h ****    *  @return  New string with value of @a __lhs followed by @a __rhs.
4796:/usr/include/c++/5/bits/basic_string.h ****    */
4797:/usr/include/c++/5/bits/basic_string.h ****   template<typename _CharT, typename _Traits, typename _Alloc>
GAS LISTING /tmp/ccSpSEFs.s 			page 170


4798:/usr/include/c++/5/bits/basic_string.h ****     basic_string<_CharT,_Traits,_Alloc>
4799:/usr/include/c++/5/bits/basic_string.h ****     operator+(const _CharT* __lhs,
4800:/usr/include/c++/5/bits/basic_string.h **** 	      const basic_string<_CharT,_Traits,_Alloc>& __rhs);
4801:/usr/include/c++/5/bits/basic_string.h **** 
4802:/usr/include/c++/5/bits/basic_string.h ****   /**
4803:/usr/include/c++/5/bits/basic_string.h ****    *  @brief  Concatenate character and string.
4804:/usr/include/c++/5/bits/basic_string.h ****    *  @param __lhs  First string.
4805:/usr/include/c++/5/bits/basic_string.h ****    *  @param __rhs  Last string.
4806:/usr/include/c++/5/bits/basic_string.h ****    *  @return  New string with @a __lhs followed by @a __rhs.
4807:/usr/include/c++/5/bits/basic_string.h ****    */
4808:/usr/include/c++/5/bits/basic_string.h ****   template<typename _CharT, typename _Traits, typename _Alloc>
4809:/usr/include/c++/5/bits/basic_string.h ****     basic_string<_CharT,_Traits,_Alloc>
4810:/usr/include/c++/5/bits/basic_string.h ****     operator+(_CharT __lhs, const basic_string<_CharT,_Traits,_Alloc>& __rhs);
4811:/usr/include/c++/5/bits/basic_string.h **** 
4812:/usr/include/c++/5/bits/basic_string.h ****   /**
4813:/usr/include/c++/5/bits/basic_string.h ****    *  @brief  Concatenate string and C string.
4814:/usr/include/c++/5/bits/basic_string.h ****    *  @param __lhs  First string.
4815:/usr/include/c++/5/bits/basic_string.h ****    *  @param __rhs  Last string.
4816:/usr/include/c++/5/bits/basic_string.h ****    *  @return  New string with @a __lhs followed by @a __rhs.
4817:/usr/include/c++/5/bits/basic_string.h ****    */
4818:/usr/include/c++/5/bits/basic_string.h ****   template<typename _CharT, typename _Traits, typename _Alloc>
4819:/usr/include/c++/5/bits/basic_string.h ****     inline basic_string<_CharT, _Traits, _Alloc>
4820:/usr/include/c++/5/bits/basic_string.h ****     operator+(const basic_string<_CharT, _Traits, _Alloc>& __lhs,
 3376              		.loc 2 4820 0
 3377              		.cfi_startproc
 3378              		.cfi_personality 0x3,__gxx_personality_v0
 3379              		.cfi_lsda 0x3,.LLSDA6874
 3380 0000 55       		pushq	%rbp
 3381              		.cfi_def_cfa_offset 16
 3382              		.cfi_offset 6, -16
 3383 0001 4889E5   		movq	%rsp, %rbp
 3384              		.cfi_def_cfa_register 6
 3385 0004 53       		pushq	%rbx
 3386 0005 4883EC38 		subq	$56, %rsp
 3387              		.cfi_offset 3, -24
 3388 0009 48897DD8 		movq	%rdi, -40(%rbp)
 3389 000d 488975D0 		movq	%rsi, -48(%rbp)
 3390 0011 488955C8 		movq	%rdx, -56(%rbp)
 3391              		.loc 2 4820 0
 3392 0015 64488B04 		movq	%fs:40, %rax
 3392      25280000 
 3392      00
 3393 001e 488945E8 		movq	%rax, -24(%rbp)
 3394 0022 31C0     		xorl	%eax, %eax
4821:/usr/include/c++/5/bits/basic_string.h **** 	      const _CharT* __rhs)
4822:/usr/include/c++/5/bits/basic_string.h ****     {
4823:/usr/include/c++/5/bits/basic_string.h ****       basic_string<_CharT, _Traits, _Alloc> __str(__lhs);
 3395              		.loc 2 4823 0
 3396 0024 488B55D0 		movq	-48(%rbp), %rdx
 3397 0028 488B45D8 		movq	-40(%rbp), %rax
 3398 002c 4889D6   		movq	%rdx, %rsi
 3399 002f 4889C7   		movq	%rax, %rdi
 3400              	.LEHB5:
 3401 0032 E8000000 		call	_ZNSt7__cxx1112basic_stringIcSt11char_traitsIcESaIcEEC1ERKS4_
 3401      00
 3402              	.LEHE5:
4824:/usr/include/c++/5/bits/basic_string.h ****       __str.append(__rhs);
GAS LISTING /tmp/ccSpSEFs.s 			page 171


 3403              		.loc 2 4824 0
 3404 0037 488B55C8 		movq	-56(%rbp), %rdx
 3405 003b 488B45D8 		movq	-40(%rbp), %rax
 3406 003f 4889D6   		movq	%rdx, %rsi
 3407 0042 4889C7   		movq	%rax, %rdi
 3408              	.LEHB6:
 3409 0045 E8000000 		call	_ZNSt7__cxx1112basic_stringIcSt11char_traitsIcESaIcEE6appendEPKc
 3409      00
 3410              	.LEHE6:
4825:/usr/include/c++/5/bits/basic_string.h ****       return __str;
 3411              		.loc 2 4825 0
 3412 004a EB1A     		jmp	.L241
 3413              	.L240:
 3414 004c 4889C3   		movq	%rax, %rbx
 3415 004f 488B45D8 		movq	-40(%rbp), %rax
 3416 0053 4889C7   		movq	%rax, %rdi
 3417 0056 E8000000 		call	_ZNSt7__cxx1112basic_stringIcSt11char_traitsIcESaIcEED1Ev
 3417      00
 3418 005b 4889D8   		movq	%rbx, %rax
 3419 005e 4889C7   		movq	%rax, %rdi
 3420              	.LEHB7:
 3421 0061 E8000000 		call	_Unwind_Resume
 3421      00
 3422              	.LEHE7:
 3423              	.L241:
4826:/usr/include/c++/5/bits/basic_string.h ****     }
 3424              		.loc 2 4826 0
 3425 0066 488B45D8 		movq	-40(%rbp), %rax
 3426 006a 488B4DE8 		movq	-24(%rbp), %rcx
 3427 006e 6448330C 		xorq	%fs:40, %rcx
 3427      25280000 
 3427      00
 3428 0077 7405     		je	.L239
 3429 0079 E8000000 		call	__stack_chk_fail
 3429      00
 3430              	.L239:
 3431 007e 4883C438 		addq	$56, %rsp
 3432 0082 5B       		popq	%rbx
 3433 0083 5D       		popq	%rbp
 3434              		.cfi_def_cfa 7, 8
 3435 0084 C3       		ret
 3436              		.cfi_endproc
 3437              	.LFE6874:
 3438              		.section	.gcc_except_table
 3439              	.LLSDA6874:
 3440 0022 FF       		.byte	0xff
 3441 0023 FF       		.byte	0xff
 3442 0024 01       		.byte	0x1
 3443 0025 0C       		.uleb128 .LLSDACSE6874-.LLSDACSB6874
 3444              	.LLSDACSB6874:
 3445 0026 32       		.uleb128 .LEHB5-.LFB6874
 3446 0027 05       		.uleb128 .LEHE5-.LEHB5
 3447 0028 00       		.uleb128 0
 3448 0029 00       		.uleb128 0
 3449 002a 45       		.uleb128 .LEHB6-.LFB6874
 3450 002b 05       		.uleb128 .LEHE6-.LEHB6
 3451 002c 4C       		.uleb128 .L240-.LFB6874
GAS LISTING /tmp/ccSpSEFs.s 			page 172


 3452 002d 00       		.uleb128 0
 3453 002e 61       		.uleb128 .LEHB7-.LFB6874
 3454 002f 05       		.uleb128 .LEHE7-.LEHB7
 3455 0030 00       		.uleb128 0
 3456 0031 00       		.uleb128 0
 3457              	.LLSDACSE6874:
 3458              		.section	.text._ZStplIcSt11char_traitsIcESaIcEENSt7__cxx1112basic_stringIT_T0_T1_EERKS8_PKS5_,"axG
 3460              		.section	.text._ZSt3minIdERKT_S2_S2_,"axG",@progbits,_ZSt3minIdERKT_S2_S2_,comdat
 3461              		.weak	_ZSt3minIdERKT_S2_S2_
 3463              	_ZSt3minIdERKT_S2_S2_:
 3464              	.LFB6918:
 3465              		.file 3 "/usr/include/c++/5/bits/stl_algobase.h"
   1:/usr/include/c++/5/bits/stl_algobase.h **** // Core algorithmic facilities -*- C++ -*-
   2:/usr/include/c++/5/bits/stl_algobase.h **** 
   3:/usr/include/c++/5/bits/stl_algobase.h **** // Copyright (C) 2001-2015 Free Software Foundation, Inc.
   4:/usr/include/c++/5/bits/stl_algobase.h **** //
   5:/usr/include/c++/5/bits/stl_algobase.h **** // This file is part of the GNU ISO C++ Library.  This library is free
   6:/usr/include/c++/5/bits/stl_algobase.h **** // software; you can redistribute it and/or modify it under the
   7:/usr/include/c++/5/bits/stl_algobase.h **** // terms of the GNU General Public License as published by the
   8:/usr/include/c++/5/bits/stl_algobase.h **** // Free Software Foundation; either version 3, or (at your option)
   9:/usr/include/c++/5/bits/stl_algobase.h **** // any later version.
  10:/usr/include/c++/5/bits/stl_algobase.h **** 
  11:/usr/include/c++/5/bits/stl_algobase.h **** // This library is distributed in the hope that it will be useful,
  12:/usr/include/c++/5/bits/stl_algobase.h **** // but WITHOUT ANY WARRANTY; without even the implied warranty of
  13:/usr/include/c++/5/bits/stl_algobase.h **** // MERCHANTABILITY or FITNESS FOR A PARTICULAR PURPOSE.  See the
  14:/usr/include/c++/5/bits/stl_algobase.h **** // GNU General Public License for more details.
  15:/usr/include/c++/5/bits/stl_algobase.h **** 
  16:/usr/include/c++/5/bits/stl_algobase.h **** // Under Section 7 of GPL version 3, you are granted additional
  17:/usr/include/c++/5/bits/stl_algobase.h **** // permissions described in the GCC Runtime Library Exception, version
  18:/usr/include/c++/5/bits/stl_algobase.h **** // 3.1, as published by the Free Software Foundation.
  19:/usr/include/c++/5/bits/stl_algobase.h **** 
  20:/usr/include/c++/5/bits/stl_algobase.h **** // You should have received a copy of the GNU General Public License and
  21:/usr/include/c++/5/bits/stl_algobase.h **** // a copy of the GCC Runtime Library Exception along with this program;
  22:/usr/include/c++/5/bits/stl_algobase.h **** // see the files COPYING3 and COPYING.RUNTIME respectively.  If not, see
  23:/usr/include/c++/5/bits/stl_algobase.h **** // <http://www.gnu.org/licenses/>.
  24:/usr/include/c++/5/bits/stl_algobase.h **** 
  25:/usr/include/c++/5/bits/stl_algobase.h **** /*
  26:/usr/include/c++/5/bits/stl_algobase.h ****  *
  27:/usr/include/c++/5/bits/stl_algobase.h ****  * Copyright (c) 1994
  28:/usr/include/c++/5/bits/stl_algobase.h ****  * Hewlett-Packard Company
  29:/usr/include/c++/5/bits/stl_algobase.h ****  *
  30:/usr/include/c++/5/bits/stl_algobase.h ****  * Permission to use, copy, modify, distribute and sell this software
  31:/usr/include/c++/5/bits/stl_algobase.h ****  * and its documentation for any purpose is hereby granted without fee,
  32:/usr/include/c++/5/bits/stl_algobase.h ****  * provided that the above copyright notice appear in all copies and
  33:/usr/include/c++/5/bits/stl_algobase.h ****  * that both that copyright notice and this permission notice appear
  34:/usr/include/c++/5/bits/stl_algobase.h ****  * in supporting documentation.  Hewlett-Packard Company makes no
  35:/usr/include/c++/5/bits/stl_algobase.h ****  * representations about the suitability of this software for any
  36:/usr/include/c++/5/bits/stl_algobase.h ****  * purpose.  It is provided "as is" without express or implied warranty.
  37:/usr/include/c++/5/bits/stl_algobase.h ****  *
  38:/usr/include/c++/5/bits/stl_algobase.h ****  *
  39:/usr/include/c++/5/bits/stl_algobase.h ****  * Copyright (c) 1996-1998
  40:/usr/include/c++/5/bits/stl_algobase.h ****  * Silicon Graphics Computer Systems, Inc.
  41:/usr/include/c++/5/bits/stl_algobase.h ****  *
  42:/usr/include/c++/5/bits/stl_algobase.h ****  * Permission to use, copy, modify, distribute and sell this software
  43:/usr/include/c++/5/bits/stl_algobase.h ****  * and its documentation for any purpose is hereby granted without fee,
  44:/usr/include/c++/5/bits/stl_algobase.h ****  * provided that the above copyright notice appear in all copies and
  45:/usr/include/c++/5/bits/stl_algobase.h ****  * that both that copyright notice and this permission notice appear
GAS LISTING /tmp/ccSpSEFs.s 			page 173


  46:/usr/include/c++/5/bits/stl_algobase.h ****  * in supporting documentation.  Silicon Graphics makes no
  47:/usr/include/c++/5/bits/stl_algobase.h ****  * representations about the suitability of this software for any
  48:/usr/include/c++/5/bits/stl_algobase.h ****  * purpose.  It is provided "as is" without express or implied warranty.
  49:/usr/include/c++/5/bits/stl_algobase.h ****  */
  50:/usr/include/c++/5/bits/stl_algobase.h **** 
  51:/usr/include/c++/5/bits/stl_algobase.h **** /** @file bits/stl_algobase.h
  52:/usr/include/c++/5/bits/stl_algobase.h ****  *  This is an internal header file, included by other library headers.
  53:/usr/include/c++/5/bits/stl_algobase.h ****  *  Do not attempt to use it directly. @headername{algorithm}
  54:/usr/include/c++/5/bits/stl_algobase.h ****  */
  55:/usr/include/c++/5/bits/stl_algobase.h **** 
  56:/usr/include/c++/5/bits/stl_algobase.h **** #ifndef _STL_ALGOBASE_H
  57:/usr/include/c++/5/bits/stl_algobase.h **** #define _STL_ALGOBASE_H 1
  58:/usr/include/c++/5/bits/stl_algobase.h **** 
  59:/usr/include/c++/5/bits/stl_algobase.h **** #include <bits/c++config.h>
  60:/usr/include/c++/5/bits/stl_algobase.h **** #include <bits/functexcept.h>
  61:/usr/include/c++/5/bits/stl_algobase.h **** #include <bits/cpp_type_traits.h>
  62:/usr/include/c++/5/bits/stl_algobase.h **** #include <ext/type_traits.h>
  63:/usr/include/c++/5/bits/stl_algobase.h **** #include <ext/numeric_traits.h>
  64:/usr/include/c++/5/bits/stl_algobase.h **** #include <bits/stl_pair.h>
  65:/usr/include/c++/5/bits/stl_algobase.h **** #include <bits/stl_iterator_base_types.h>
  66:/usr/include/c++/5/bits/stl_algobase.h **** #include <bits/stl_iterator_base_funcs.h>
  67:/usr/include/c++/5/bits/stl_algobase.h **** #include <bits/stl_iterator.h>
  68:/usr/include/c++/5/bits/stl_algobase.h **** #include <bits/concept_check.h>
  69:/usr/include/c++/5/bits/stl_algobase.h **** #include <debug/debug.h>
  70:/usr/include/c++/5/bits/stl_algobase.h **** #include <bits/move.h> // For std::swap and _GLIBCXX_MOVE
  71:/usr/include/c++/5/bits/stl_algobase.h **** #include <bits/predefined_ops.h>
  72:/usr/include/c++/5/bits/stl_algobase.h **** 
  73:/usr/include/c++/5/bits/stl_algobase.h **** namespace std _GLIBCXX_VISIBILITY(default)
  74:/usr/include/c++/5/bits/stl_algobase.h **** {
  75:/usr/include/c++/5/bits/stl_algobase.h **** _GLIBCXX_BEGIN_NAMESPACE_VERSION
  76:/usr/include/c++/5/bits/stl_algobase.h **** 
  77:/usr/include/c++/5/bits/stl_algobase.h **** #if __cplusplus < 201103L
  78:/usr/include/c++/5/bits/stl_algobase.h ****   // See http://gcc.gnu.org/ml/libstdc++/2004-08/msg00167.html: in a
  79:/usr/include/c++/5/bits/stl_algobase.h ****   // nutshell, we are partially implementing the resolution of DR 187,
  80:/usr/include/c++/5/bits/stl_algobase.h ****   // when it's safe, i.e., the value_types are equal.
  81:/usr/include/c++/5/bits/stl_algobase.h ****   template<bool _BoolType>
  82:/usr/include/c++/5/bits/stl_algobase.h ****     struct __iter_swap
  83:/usr/include/c++/5/bits/stl_algobase.h ****     {
  84:/usr/include/c++/5/bits/stl_algobase.h ****       template<typename _ForwardIterator1, typename _ForwardIterator2>
  85:/usr/include/c++/5/bits/stl_algobase.h ****         static void
  86:/usr/include/c++/5/bits/stl_algobase.h ****         iter_swap(_ForwardIterator1 __a, _ForwardIterator2 __b)
  87:/usr/include/c++/5/bits/stl_algobase.h ****         {
  88:/usr/include/c++/5/bits/stl_algobase.h ****           typedef typename iterator_traits<_ForwardIterator1>::value_type
  89:/usr/include/c++/5/bits/stl_algobase.h ****             _ValueType1;
  90:/usr/include/c++/5/bits/stl_algobase.h ****           _ValueType1 __tmp = _GLIBCXX_MOVE(*__a);
  91:/usr/include/c++/5/bits/stl_algobase.h ****           *__a = _GLIBCXX_MOVE(*__b);
  92:/usr/include/c++/5/bits/stl_algobase.h ****           *__b = _GLIBCXX_MOVE(__tmp);
  93:/usr/include/c++/5/bits/stl_algobase.h **** 	}
  94:/usr/include/c++/5/bits/stl_algobase.h ****     };
  95:/usr/include/c++/5/bits/stl_algobase.h **** 
  96:/usr/include/c++/5/bits/stl_algobase.h ****   template<>
  97:/usr/include/c++/5/bits/stl_algobase.h ****     struct __iter_swap<true>
  98:/usr/include/c++/5/bits/stl_algobase.h ****     {
  99:/usr/include/c++/5/bits/stl_algobase.h ****       template<typename _ForwardIterator1, typename _ForwardIterator2>
 100:/usr/include/c++/5/bits/stl_algobase.h ****         static void 
 101:/usr/include/c++/5/bits/stl_algobase.h ****         iter_swap(_ForwardIterator1 __a, _ForwardIterator2 __b)
 102:/usr/include/c++/5/bits/stl_algobase.h ****         {
GAS LISTING /tmp/ccSpSEFs.s 			page 174


 103:/usr/include/c++/5/bits/stl_algobase.h ****           swap(*__a, *__b);
 104:/usr/include/c++/5/bits/stl_algobase.h ****         }
 105:/usr/include/c++/5/bits/stl_algobase.h ****     };
 106:/usr/include/c++/5/bits/stl_algobase.h **** #endif
 107:/usr/include/c++/5/bits/stl_algobase.h **** 
 108:/usr/include/c++/5/bits/stl_algobase.h ****   /**
 109:/usr/include/c++/5/bits/stl_algobase.h ****    *  @brief Swaps the contents of two iterators.
 110:/usr/include/c++/5/bits/stl_algobase.h ****    *  @ingroup mutating_algorithms
 111:/usr/include/c++/5/bits/stl_algobase.h ****    *  @param  __a  An iterator.
 112:/usr/include/c++/5/bits/stl_algobase.h ****    *  @param  __b  Another iterator.
 113:/usr/include/c++/5/bits/stl_algobase.h ****    *  @return   Nothing.
 114:/usr/include/c++/5/bits/stl_algobase.h ****    *
 115:/usr/include/c++/5/bits/stl_algobase.h ****    *  This function swaps the values pointed to by two iterators, not the
 116:/usr/include/c++/5/bits/stl_algobase.h ****    *  iterators themselves.
 117:/usr/include/c++/5/bits/stl_algobase.h ****   */
 118:/usr/include/c++/5/bits/stl_algobase.h ****   template<typename _ForwardIterator1, typename _ForwardIterator2>
 119:/usr/include/c++/5/bits/stl_algobase.h ****     inline void
 120:/usr/include/c++/5/bits/stl_algobase.h ****     iter_swap(_ForwardIterator1 __a, _ForwardIterator2 __b)
 121:/usr/include/c++/5/bits/stl_algobase.h ****     {
 122:/usr/include/c++/5/bits/stl_algobase.h ****       // concept requirements
 123:/usr/include/c++/5/bits/stl_algobase.h ****       __glibcxx_function_requires(_Mutable_ForwardIteratorConcept<
 124:/usr/include/c++/5/bits/stl_algobase.h **** 				  _ForwardIterator1>)
 125:/usr/include/c++/5/bits/stl_algobase.h ****       __glibcxx_function_requires(_Mutable_ForwardIteratorConcept<
 126:/usr/include/c++/5/bits/stl_algobase.h **** 				  _ForwardIterator2>)
 127:/usr/include/c++/5/bits/stl_algobase.h **** 
 128:/usr/include/c++/5/bits/stl_algobase.h **** #if __cplusplus < 201103L
 129:/usr/include/c++/5/bits/stl_algobase.h ****       typedef typename iterator_traits<_ForwardIterator1>::value_type
 130:/usr/include/c++/5/bits/stl_algobase.h **** 	_ValueType1;
 131:/usr/include/c++/5/bits/stl_algobase.h ****       typedef typename iterator_traits<_ForwardIterator2>::value_type
 132:/usr/include/c++/5/bits/stl_algobase.h **** 	_ValueType2;
 133:/usr/include/c++/5/bits/stl_algobase.h **** 
 134:/usr/include/c++/5/bits/stl_algobase.h ****       __glibcxx_function_requires(_ConvertibleConcept<_ValueType1,
 135:/usr/include/c++/5/bits/stl_algobase.h **** 				  _ValueType2>)
 136:/usr/include/c++/5/bits/stl_algobase.h ****       __glibcxx_function_requires(_ConvertibleConcept<_ValueType2,
 137:/usr/include/c++/5/bits/stl_algobase.h **** 				  _ValueType1>)
 138:/usr/include/c++/5/bits/stl_algobase.h **** 
 139:/usr/include/c++/5/bits/stl_algobase.h ****       typedef typename iterator_traits<_ForwardIterator1>::reference
 140:/usr/include/c++/5/bits/stl_algobase.h **** 	_ReferenceType1;
 141:/usr/include/c++/5/bits/stl_algobase.h ****       typedef typename iterator_traits<_ForwardIterator2>::reference
 142:/usr/include/c++/5/bits/stl_algobase.h **** 	_ReferenceType2;
 143:/usr/include/c++/5/bits/stl_algobase.h ****       std::__iter_swap<__are_same<_ValueType1, _ValueType2>::__value
 144:/usr/include/c++/5/bits/stl_algobase.h **** 	&& __are_same<_ValueType1&, _ReferenceType1>::__value
 145:/usr/include/c++/5/bits/stl_algobase.h **** 	&& __are_same<_ValueType2&, _ReferenceType2>::__value>::
 146:/usr/include/c++/5/bits/stl_algobase.h **** 	iter_swap(__a, __b);
 147:/usr/include/c++/5/bits/stl_algobase.h **** #else
 148:/usr/include/c++/5/bits/stl_algobase.h ****       swap(*__a, *__b);
 149:/usr/include/c++/5/bits/stl_algobase.h **** #endif
 150:/usr/include/c++/5/bits/stl_algobase.h ****     }
 151:/usr/include/c++/5/bits/stl_algobase.h **** 
 152:/usr/include/c++/5/bits/stl_algobase.h ****   /**
 153:/usr/include/c++/5/bits/stl_algobase.h ****    *  @brief Swap the elements of two sequences.
 154:/usr/include/c++/5/bits/stl_algobase.h ****    *  @ingroup mutating_algorithms
 155:/usr/include/c++/5/bits/stl_algobase.h ****    *  @param  __first1  A forward iterator.
 156:/usr/include/c++/5/bits/stl_algobase.h ****    *  @param  __last1   A forward iterator.
 157:/usr/include/c++/5/bits/stl_algobase.h ****    *  @param  __first2  A forward iterator.
 158:/usr/include/c++/5/bits/stl_algobase.h ****    *  @return   An iterator equal to @p first2+(last1-first1).
 159:/usr/include/c++/5/bits/stl_algobase.h ****    *
GAS LISTING /tmp/ccSpSEFs.s 			page 175


 160:/usr/include/c++/5/bits/stl_algobase.h ****    *  Swaps each element in the range @p [first1,last1) with the
 161:/usr/include/c++/5/bits/stl_algobase.h ****    *  corresponding element in the range @p [first2,(last1-first1)).
 162:/usr/include/c++/5/bits/stl_algobase.h ****    *  The ranges must not overlap.
 163:/usr/include/c++/5/bits/stl_algobase.h ****   */
 164:/usr/include/c++/5/bits/stl_algobase.h ****   template<typename _ForwardIterator1, typename _ForwardIterator2>
 165:/usr/include/c++/5/bits/stl_algobase.h ****     _ForwardIterator2
 166:/usr/include/c++/5/bits/stl_algobase.h ****     swap_ranges(_ForwardIterator1 __first1, _ForwardIterator1 __last1,
 167:/usr/include/c++/5/bits/stl_algobase.h **** 		_ForwardIterator2 __first2)
 168:/usr/include/c++/5/bits/stl_algobase.h ****     {
 169:/usr/include/c++/5/bits/stl_algobase.h ****       // concept requirements
 170:/usr/include/c++/5/bits/stl_algobase.h ****       __glibcxx_function_requires(_Mutable_ForwardIteratorConcept<
 171:/usr/include/c++/5/bits/stl_algobase.h **** 				  _ForwardIterator1>)
 172:/usr/include/c++/5/bits/stl_algobase.h ****       __glibcxx_function_requires(_Mutable_ForwardIteratorConcept<
 173:/usr/include/c++/5/bits/stl_algobase.h **** 				  _ForwardIterator2>)
 174:/usr/include/c++/5/bits/stl_algobase.h ****       __glibcxx_requires_valid_range(__first1, __last1);
 175:/usr/include/c++/5/bits/stl_algobase.h **** 
 176:/usr/include/c++/5/bits/stl_algobase.h ****       for (; __first1 != __last1; ++__first1, ++__first2)
 177:/usr/include/c++/5/bits/stl_algobase.h **** 	std::iter_swap(__first1, __first2);
 178:/usr/include/c++/5/bits/stl_algobase.h ****       return __first2;
 179:/usr/include/c++/5/bits/stl_algobase.h ****     }
 180:/usr/include/c++/5/bits/stl_algobase.h **** 
 181:/usr/include/c++/5/bits/stl_algobase.h ****   /**
 182:/usr/include/c++/5/bits/stl_algobase.h ****    *  @brief This does what you think it does.
 183:/usr/include/c++/5/bits/stl_algobase.h ****    *  @ingroup sorting_algorithms
 184:/usr/include/c++/5/bits/stl_algobase.h ****    *  @param  __a  A thing of arbitrary type.
 185:/usr/include/c++/5/bits/stl_algobase.h ****    *  @param  __b  Another thing of arbitrary type.
 186:/usr/include/c++/5/bits/stl_algobase.h ****    *  @return   The lesser of the parameters.
 187:/usr/include/c++/5/bits/stl_algobase.h ****    *
 188:/usr/include/c++/5/bits/stl_algobase.h ****    *  This is the simple classic generic implementation.  It will work on
 189:/usr/include/c++/5/bits/stl_algobase.h ****    *  temporary expressions, since they are only evaluated once, unlike a
 190:/usr/include/c++/5/bits/stl_algobase.h ****    *  preprocessor macro.
 191:/usr/include/c++/5/bits/stl_algobase.h ****   */
 192:/usr/include/c++/5/bits/stl_algobase.h ****   template<typename _Tp>
 193:/usr/include/c++/5/bits/stl_algobase.h ****     _GLIBCXX14_CONSTEXPR
 194:/usr/include/c++/5/bits/stl_algobase.h ****     inline const _Tp&
 195:/usr/include/c++/5/bits/stl_algobase.h ****     min(const _Tp& __a, const _Tp& __b)
 3466              		.loc 3 195 0
 3467              		.cfi_startproc
 3468 0000 55       		pushq	%rbp
 3469              		.cfi_def_cfa_offset 16
 3470              		.cfi_offset 6, -16
 3471 0001 4889E5   		movq	%rsp, %rbp
 3472              		.cfi_def_cfa_register 6
 3473 0004 48897DF8 		movq	%rdi, -8(%rbp)
 3474 0008 488975F0 		movq	%rsi, -16(%rbp)
 196:/usr/include/c++/5/bits/stl_algobase.h ****     {
 197:/usr/include/c++/5/bits/stl_algobase.h ****       // concept requirements
 198:/usr/include/c++/5/bits/stl_algobase.h ****       __glibcxx_function_requires(_LessThanComparableConcept<_Tp>)
 199:/usr/include/c++/5/bits/stl_algobase.h ****       //return __b < __a ? __b : __a;
 200:/usr/include/c++/5/bits/stl_algobase.h ****       if (__b < __a)
 3475              		.loc 3 200 0
 3476 000c 488B45F0 		movq	-16(%rbp), %rax
 3477 0010 F20F1008 		movsd	(%rax), %xmm1
 3478 0014 488B45F8 		movq	-8(%rbp), %rax
 3479 0018 F20F1000 		movsd	(%rax), %xmm0
 3480 001c 660F2EC1 		ucomisd	%xmm1, %xmm0
 3481 0020 7606     		jbe	.L247
GAS LISTING /tmp/ccSpSEFs.s 			page 176


 201:/usr/include/c++/5/bits/stl_algobase.h **** 	return __b;
 3482              		.loc 3 201 0
 3483 0022 488B45F0 		movq	-16(%rbp), %rax
 3484 0026 EB04     		jmp	.L245
 3485              	.L247:
 202:/usr/include/c++/5/bits/stl_algobase.h ****       return __a;
 3486              		.loc 3 202 0
 3487 0028 488B45F8 		movq	-8(%rbp), %rax
 3488              	.L245:
 203:/usr/include/c++/5/bits/stl_algobase.h ****     }
 3489              		.loc 3 203 0
 3490 002c 5D       		popq	%rbp
 3491              		.cfi_def_cfa 7, 8
 3492 002d C3       		ret
 3493              		.cfi_endproc
 3494              	.LFE6918:
 3496              		.weak	_ZTV4Mesh
 3497              		.section	.rodata._ZTV4Mesh,"aG",@progbits,_ZTV4Mesh,comdat
 3498              		.align 8
 3501              	_ZTV4Mesh:
 3502 0000 00000000 		.quad	0
 3502      00000000 
 3503 0008 00000000 		.quad	_ZTI4Mesh
 3503      00000000 
 3504 0010 00000000 		.quad	_ZN4MeshD1Ev
 3504      00000000 
 3505 0018 00000000 		.quad	_ZN4MeshD0Ev
 3505      00000000 
 3506              		.weak	_ZTI4Mesh
 3507              		.section	.rodata._ZTI4Mesh,"aG",@progbits,_ZTI4Mesh,comdat
 3508              		.align 8
 3511              	_ZTI4Mesh:
 3512 0000 00000000 		.quad	_ZTVN10__cxxabiv117__class_type_infoE+16
 3512      00000000 
 3513 0008 00000000 		.quad	_ZTS4Mesh
 3513      00000000 
 3514              		.weak	_ZTS4Mesh
 3515              		.section	.rodata._ZTS4Mesh,"aG",@progbits,_ZTS4Mesh,comdat
 3518              	_ZTS4Mesh:
 3519 0000 344D6573 		.string	"4Mesh"
 3519      6800
 3520              		.text
 3522              	_Z41__static_initialization_and_destruction_0ii:
 3523              	.LFB7105:
 3524              		.loc 1 464 0
 3525              		.cfi_startproc
 3526 2aed 55       		pushq	%rbp
 3527              		.cfi_def_cfa_offset 16
 3528              		.cfi_offset 6, -16
 3529 2aee 4889E5   		movq	%rsp, %rbp
 3530              		.cfi_def_cfa_register 6
 3531 2af1 4883EC10 		subq	$16, %rsp
 3532 2af5 897DFC   		movl	%edi, -4(%rbp)
 3533 2af8 8975F8   		movl	%esi, -8(%rbp)
 3534              		.loc 1 464 0
 3535 2afb 837DFC01 		cmpl	$1, -4(%rbp)
 3536 2aff 7527     		jne	.L250
GAS LISTING /tmp/ccSpSEFs.s 			page 177


 3537              		.loc 1 464 0 is_stmt 0 discriminator 1
 3538 2b01 817DF8FF 		cmpl	$65535, -8(%rbp)
 3538      FF0000
 3539 2b08 751E     		jne	.L250
 3540              		.file 4 "/usr/include/c++/5/iostream"
   1:/usr/include/c++/5/iostream **** // Standard iostream objects -*- C++ -*-
   2:/usr/include/c++/5/iostream **** 
   3:/usr/include/c++/5/iostream **** // Copyright (C) 1997-2015 Free Software Foundation, Inc.
   4:/usr/include/c++/5/iostream **** //
   5:/usr/include/c++/5/iostream **** // This file is part of the GNU ISO C++ Library.  This library is free
   6:/usr/include/c++/5/iostream **** // software; you can redistribute it and/or modify it under the
   7:/usr/include/c++/5/iostream **** // terms of the GNU General Public License as published by the
   8:/usr/include/c++/5/iostream **** // Free Software Foundation; either version 3, or (at your option)
   9:/usr/include/c++/5/iostream **** // any later version.
  10:/usr/include/c++/5/iostream **** 
  11:/usr/include/c++/5/iostream **** // This library is distributed in the hope that it will be useful,
  12:/usr/include/c++/5/iostream **** // but WITHOUT ANY WARRANTY; without even the implied warranty of
  13:/usr/include/c++/5/iostream **** // MERCHANTABILITY or FITNESS FOR A PARTICULAR PURPOSE.  See the
  14:/usr/include/c++/5/iostream **** // GNU General Public License for more details.
  15:/usr/include/c++/5/iostream **** 
  16:/usr/include/c++/5/iostream **** // Under Section 7 of GPL version 3, you are granted additional
  17:/usr/include/c++/5/iostream **** // permissions described in the GCC Runtime Library Exception, version
  18:/usr/include/c++/5/iostream **** // 3.1, as published by the Free Software Foundation.
  19:/usr/include/c++/5/iostream **** 
  20:/usr/include/c++/5/iostream **** // You should have received a copy of the GNU General Public License and
  21:/usr/include/c++/5/iostream **** // a copy of the GCC Runtime Library Exception along with this program;
  22:/usr/include/c++/5/iostream **** // see the files COPYING3 and COPYING.RUNTIME respectively.  If not, see
  23:/usr/include/c++/5/iostream **** // <http://www.gnu.org/licenses/>.
  24:/usr/include/c++/5/iostream **** 
  25:/usr/include/c++/5/iostream **** /** @file include/iostream
  26:/usr/include/c++/5/iostream ****  *  This is a Standard C++ Library header.
  27:/usr/include/c++/5/iostream ****  */
  28:/usr/include/c++/5/iostream **** 
  29:/usr/include/c++/5/iostream **** //
  30:/usr/include/c++/5/iostream **** // ISO C++ 14882: 27.3  Standard iostream objects
  31:/usr/include/c++/5/iostream **** //
  32:/usr/include/c++/5/iostream **** 
  33:/usr/include/c++/5/iostream **** #ifndef _GLIBCXX_IOSTREAM
  34:/usr/include/c++/5/iostream **** #define _GLIBCXX_IOSTREAM 1
  35:/usr/include/c++/5/iostream **** 
  36:/usr/include/c++/5/iostream **** #pragma GCC system_header
  37:/usr/include/c++/5/iostream **** 
  38:/usr/include/c++/5/iostream **** #include <bits/c++config.h>
  39:/usr/include/c++/5/iostream **** #include <ostream>
  40:/usr/include/c++/5/iostream **** #include <istream>
  41:/usr/include/c++/5/iostream **** 
  42:/usr/include/c++/5/iostream **** namespace std _GLIBCXX_VISIBILITY(default)
  43:/usr/include/c++/5/iostream **** {
  44:/usr/include/c++/5/iostream **** _GLIBCXX_BEGIN_NAMESPACE_VERSION
  45:/usr/include/c++/5/iostream **** 
  46:/usr/include/c++/5/iostream ****   /**
  47:/usr/include/c++/5/iostream ****    *  @name Standard Stream Objects
  48:/usr/include/c++/5/iostream ****    *
  49:/usr/include/c++/5/iostream ****    *  The &lt;iostream&gt; header declares the eight <em>standard stream
  50:/usr/include/c++/5/iostream ****    *  objects</em>.  For other declarations, see
  51:/usr/include/c++/5/iostream ****    *  http://gcc.gnu.org/onlinedocs/libstdc++/manual/io.html
  52:/usr/include/c++/5/iostream ****    *  and the @link iosfwd I/O forward declarations @endlink
GAS LISTING /tmp/ccSpSEFs.s 			page 178


  53:/usr/include/c++/5/iostream ****    *
  54:/usr/include/c++/5/iostream ****    *  They are required by default to cooperate with the global C
  55:/usr/include/c++/5/iostream ****    *  library's @c FILE streams, and to be available during program
  56:/usr/include/c++/5/iostream ****    *  startup and termination. For more information, see the section of the
  57:/usr/include/c++/5/iostream ****    *  manual linked to above.
  58:/usr/include/c++/5/iostream ****   */
  59:/usr/include/c++/5/iostream ****   //@{
  60:/usr/include/c++/5/iostream ****   extern istream cin;		/// Linked to standard input
  61:/usr/include/c++/5/iostream ****   extern ostream cout;		/// Linked to standard output
  62:/usr/include/c++/5/iostream ****   extern ostream cerr;		/// Linked to standard error (unbuffered)
  63:/usr/include/c++/5/iostream ****   extern ostream clog;		/// Linked to standard error (buffered)
  64:/usr/include/c++/5/iostream **** 
  65:/usr/include/c++/5/iostream **** #ifdef _GLIBCXX_USE_WCHAR_T
  66:/usr/include/c++/5/iostream ****   extern wistream wcin;		/// Linked to standard input
  67:/usr/include/c++/5/iostream ****   extern wostream wcout;	/// Linked to standard output
  68:/usr/include/c++/5/iostream ****   extern wostream wcerr;	/// Linked to standard error (unbuffered)
  69:/usr/include/c++/5/iostream ****   extern wostream wclog;	/// Linked to standard error (buffered)
  70:/usr/include/c++/5/iostream **** #endif
  71:/usr/include/c++/5/iostream ****   //@}
  72:/usr/include/c++/5/iostream **** 
  73:/usr/include/c++/5/iostream ****   // For construction of filebuffers for cout, cin, cerr, clog et. al.
  74:/usr/include/c++/5/iostream ****   static ios_base::Init __ioinit;
 3541              		.loc 4 74 0 is_stmt 1
 3542 2b0a BF000000 		movl	$_ZStL8__ioinit, %edi
 3542      00
 3543 2b0f E8000000 		call	_ZNSt8ios_base4InitC1Ev
 3543      00
 3544 2b14 BA000000 		movl	$__dso_handle, %edx
 3544      00
 3545 2b19 BE000000 		movl	$_ZStL8__ioinit, %esi
 3545      00
 3546 2b1e BF000000 		movl	$_ZNSt8ios_base4InitD1Ev, %edi
 3546      00
 3547 2b23 E8000000 		call	__cxa_atexit
 3547      00
 3548              	.L250:
 3549              		.loc 1 464 0
 3550 2b28 90       		nop
 3551 2b29 C9       		leave
 3552              		.cfi_def_cfa 7, 8
 3553 2b2a C3       		ret
 3554              		.cfi_endproc
 3555              	.LFE7105:
 3558              	_GLOBAL__sub_I__ZN4MeshC2E15domain_geometry16global_variables:
 3559              	.LFB7106:
 3560              		.loc 1 464 0
 3561              		.cfi_startproc
 3562 2b2b 55       		pushq	%rbp
 3563              		.cfi_def_cfa_offset 16
 3564              		.cfi_offset 6, -16
 3565 2b2c 4889E5   		movq	%rsp, %rbp
 3566              		.cfi_def_cfa_register 6
 3567              		.loc 1 464 0
 3568 2b2f BEFFFF00 		movl	$65535, %esi
 3568      00
 3569 2b34 BF010000 		movl	$1, %edi
 3569      00
GAS LISTING /tmp/ccSpSEFs.s 			page 179


 3570 2b39 E8AFFFFF 		call	_Z41__static_initialization_and_destruction_0ii
 3570      FF
 3571 2b3e 5D       		popq	%rbp
 3572              		.cfi_def_cfa 7, 8
 3573 2b3f C3       		ret
 3574              		.cfi_endproc
 3575              	.LFE7106:
 3577              		.section	.init_array,"aw"
 3578              		.align 8
 3579 0000 00000000 		.quad	_GLOBAL__sub_I__ZN4MeshC2E15domain_geometry16global_variables
 3579      00000000 
 3580              		.section	.rodata
 3581 000d 000000   		.align 8
 3582              	.LC0:
 3583 0010 00000000 		.long	0
 3584 0014 00000040 		.long	1073741824
 3585              		.align 8
 3586              	.LC4:
 3587 0018 00000000 		.long	0
 3588 001c 0000F03F 		.long	1072693248
 3589              		.align 8
 3590              	.LC5:
 3591 0020 00000000 		.long	0
 3592 0024 0000F0BF 		.long	-1074790400
 3593              		.align 8
 3594              	.LC6:
 3595 0028 00000000 		.long	0
 3596 002c 0000E03F 		.long	1071644672
 3597              		.align 16
 3598              	.LC7:
 3599 0030 00000000 		.long	0
 3600 0034 00000080 		.long	-2147483648
 3601 0038 00000000 		.long	0
 3602 003c 00000000 		.long	0
 3603              		.text
 3604              	.Letext0:
 3605              		.file 5 "/usr/include/c++/5/bits/stringfwd.h"
 3606              		.file 6 "/usr/include/c++/5/type_traits"
 3607              		.file 7 "/usr/include/c++/5/cwchar"
 3608              		.file 8 "/usr/include/c++/5/bits/char_traits.h"
 3609              		.file 9 "/usr/include/x86_64-linux-gnu/c++/5/bits/c++config.h"
 3610              		.file 10 "/usr/include/c++/5/cstdint"
 3611              		.file 11 "/usr/include/c++/5/bits/exception_ptr.h"
 3612              		.file 12 "/usr/include/c++/5/bits/stl_pair.h"
 3613              		.file 13 "/usr/include/c++/5/new"
 3614              		.file 14 "/usr/include/c++/5/bits/allocator.h"
 3615              		.file 15 "/usr/include/c++/5/clocale"
 3616              		.file 16 "/usr/include/c++/5/cstdlib"
 3617              		.file 17 "/usr/include/c++/5/cstdio"
 3618              		.file 18 "/usr/include/c++/5/bits/alloc_traits.h"
 3619              		.file 19 "/usr/include/c++/5/initializer_list"
 3620              		.file 20 "/usr/include/c++/5/bits/algorithmfwd.h"
 3621              		.file 21 "/usr/include/c++/5/cmath"
 3622              		.file 22 "/usr/include/c++/5/debug/debug.h"
 3623              		.file 23 "/usr/include/c++/5/bits/uniform_int_dist.h"
 3624              		.file 24 "/usr/include/c++/5/bits/random.h"
 3625              		.file 25 "/usr/include/c++/5/bits/stl_algo.h"
GAS LISTING /tmp/ccSpSEFs.s 			page 180


 3626              		.file 26 "/usr/include/c++/5/system_error"
 3627              		.file 27 "/usr/include/c++/5/bits/ios_base.h"
 3628              		.file 28 "/usr/include/c++/5/cwctype"
 3629              		.file 29 "/usr/include/c++/5/bits/stl_iterator_base_types.h"
 3630              		.file 30 "/usr/include/c++/5/iosfwd"
 3631              		.file 31 "/usr/include/c++/5/bits/predefined_ops.h"
 3632              		.file 32 "/usr/include/c++/5/ext/new_allocator.h"
 3633              		.file 33 "/usr/include/c++/5/ext/numeric_traits.h"
 3634              		.file 34 "/usr/include/c++/5/ext/alloc_traits.h"
 3635              		.file 35 "/usr/include/c++/5/bits/stl_iterator.h"
 3636              		.file 36 "/usr/include/stdio.h"
 3637              		.file 37 "/usr/include/libio.h"
 3638              		.file 38 "<built-in>"
 3639              		.file 39 "/usr/lib/gcc/x86_64-linux-gnu/5/include/stddef.h"
 3640              		.file 40 "/usr/include/wchar.h"
 3641              		.file 41 "/usr/include/time.h"
 3642              		.file 42 "/usr/include/stdint.h"
 3643              		.file 43 "/usr/include/locale.h"
 3644              		.file 44 "/usr/include/x86_64-linux-gnu/bits/types.h"
 3645              		.file 45 "/usr/include/x86_64-linux-gnu/c++/5/bits/atomic_word.h"
 3646              		.file 46 "/usr/include/stdlib.h"
 3647              		.file 47 "/usr/include/_G_config.h"
 3648              		.file 48 "/usr/include/x86_64-linux-gnu/bits/mathdef.h"
 3649              		.file 49 "/usr/include/wctype.h"
 3650              		.file 50 "include/Mesh.h"
GAS LISTING /tmp/ccSpSEFs.s 			page 181


DEFINED SYMBOLS
                            *ABS*:0000000000000000 Mesh.cpp
     /tmp/ccSpSEFs.s:7      .rodata:0000000000000000 _ZStL19piecewise_construct
                             .bss:0000000000000000 _ZStL8__ioinit
     /tmp/ccSpSEFs.s:19     .text:0000000000000000 _ZN4MeshC2E15domain_geometry16global_variables
     /tmp/ccSpSEFs.s:3501   .rodata._ZTV4Mesh:0000000000000000 _ZTV4Mesh
     /tmp/ccSpSEFs.s:2047   .text:00000000000019aa _ZN4Mesh20create_standard_meshEv
     /tmp/ccSpSEFs.s:2630   .text:0000000000002156 _ZN4Mesh18create_cosine_meshEdd
     /tmp/ccSpSEFs.s:3373   .text._ZStplIcSt11char_traitsIcESaIcEENSt7__cxx1112basic_stringIT_T0_T1_EERKS8_PKS5_:0000000000000000 _ZStplIcSt11char_traitsIcESaIcEENSt7__cxx1112basic_stringIT_T0_T1_EERKS8_PKS5_
     /tmp/ccSpSEFs.s:19     .text:0000000000000000 _ZN4MeshC1E15domain_geometry16global_variables
     /tmp/ccSpSEFs.s:1464   .text:0000000000001262 _ZN4MeshD2Ev
     /tmp/ccSpSEFs.s:1464   .text:0000000000001262 _ZN4MeshD1Ev
     /tmp/ccSpSEFs.s:2020   .text:0000000000001984 _ZN4MeshD0Ev
     /tmp/ccSpSEFs.s:3463   .text._ZSt3minIdERKT_S2_S2_:0000000000000000 _ZSt3minIdERKT_S2_S2_
     /tmp/ccSpSEFs.s:3259   .text:00000000000029cc _ZN4Mesh10get_node_xEi
     /tmp/ccSpSEFs.s:3291   .text:00000000000029fc _ZN4Mesh25create_coarse_mesh_domainEv
     /tmp/ccSpSEFs.s:3511   .rodata._ZTI4Mesh:0000000000000000 _ZTI4Mesh
     /tmp/ccSpSEFs.s:3518   .rodata._ZTS4Mesh:0000000000000000 _ZTS4Mesh
     /tmp/ccSpSEFs.s:3522   .text:0000000000002aed _Z41__static_initialization_and_destruction_0ii
     /tmp/ccSpSEFs.s:3558   .text:0000000000002b2b _GLOBAL__sub_I__ZN4MeshC2E15domain_geometry16global_variables

UNDEFINED SYMBOLS
__gxx_personality_v0
ceil
_Znam
__cxa_throw_bad_array_new_length
exit
_ZNSt14basic_ofstreamIcSt11char_traitsIcEEC1Ev
_ZNSt7__cxx1112basic_stringIcSt11char_traitsIcESaIcEEC1Ev
_ZNSt7__cxx1112basic_stringIcSt11char_traitsIcESaIcEEaSEOS4_
_ZNSt7__cxx1112basic_stringIcSt11char_traitsIcESaIcEED1Ev
_ZNKSt7__cxx1112basic_stringIcSt11char_traitsIcESaIcEE5c_strEv
_ZNSt14basic_ofstreamIcSt11char_traitsIcEE4openEPKcSt13_Ios_Openmode
_ZNSolsEi
_ZStlsISt11char_traitsIcEERSt13basic_ostreamIcT_ES5_PKc
_ZNSolsEd
_ZSt4endlIcSt11char_traitsIcEERSt13basic_ostreamIT_T0_ES6_
_ZNSolsEPFRSoS_E
_ZNSt14basic_ofstreamIcSt11char_traitsIcEE5closeEv
_ZNSt14basic_ofstreamIcSt11char_traitsIcEED1Ev
_Unwind_Resume
__stack_chk_fail
_ZdaPv
_ZdlPv
cos
_ZN15domain_geometryC1Ev
_ZNSt7__cxx1112basic_stringIcSt11char_traitsIcESaIcEEC1ERKS4_
_ZNSt7__cxx1112basic_stringIcSt11char_traitsIcESaIcEE6appendEPKc
_ZTVN10__cxxabiv117__class_type_infoE
_ZNSt8ios_base4InitC1Ev
__dso_handle
_ZNSt8ios_base4InitD1Ev
__cxa_atexit
