GAS LISTING /tmp/cc7pRhJa.s 			page 1


   1              		.file	"preprocessor.cpp"
   2              		.text
   3              	.Ltext0:
   4              		.section	.rodata
   7              	_ZStL19piecewise_construct:
   8 0000 00       		.zero	1
   9 0001 000000   		.align 4
  12              	_ZL20TIXML2_MAJOR_VERSION:
  13 0004 03000000 		.long	3
  14              		.align 4
  17              	_ZL20TIXML2_MINOR_VERSION:
  18 0008 00000000 		.zero	4
  19              		.align 4
  22              	_ZL20TIXML2_PATCH_VERSION:
  23 000c 00000000 		.zero	4
  24              		.section	.text._ZN8tinyxml27XMLNode10FirstChildEv,"axG",@progbits,_ZN8tinyxml27XMLNode10FirstChild
  25              		.align 2
  26              		.weak	_ZN8tinyxml27XMLNode10FirstChildEv
  28              	_ZN8tinyxml27XMLNode10FirstChildEv:
  29              	.LFB950:
  30              		.file 1 "include/tinyxml2.h"
   1:include/tinyxml2.h **** /*
   2:include/tinyxml2.h **** Original code by Lee Thomason (www.grinninglizard.com)
   3:include/tinyxml2.h **** 
   4:include/tinyxml2.h **** This software is provided 'as-is', without any express or implied
   5:include/tinyxml2.h **** warranty. In no event will the authors be held liable for any
   6:include/tinyxml2.h **** damages arising from the use of this software.
   7:include/tinyxml2.h **** 
   8:include/tinyxml2.h **** Permission is granted to anyone to use this software for any
   9:include/tinyxml2.h **** purpose, including commercial applications, and to alter it and
  10:include/tinyxml2.h **** redistribute it freely, subject to the following restrictions:
  11:include/tinyxml2.h **** 
  12:include/tinyxml2.h **** 1. The origin of this software must not be misrepresented; you must
  13:include/tinyxml2.h **** not claim that you wrote the original software. If you use this
  14:include/tinyxml2.h **** software in a product, an acknowledgment in the product documentation
  15:include/tinyxml2.h **** would be appreciated but is not required.
  16:include/tinyxml2.h **** 
  17:include/tinyxml2.h **** 2. Altered source versions must be plainly marked as such, and
  18:include/tinyxml2.h **** must not be misrepresented as being the original software.
  19:include/tinyxml2.h **** 
  20:include/tinyxml2.h **** 3. This notice may not be removed or altered from any source
  21:include/tinyxml2.h **** distribution.
  22:include/tinyxml2.h **** */
  23:include/tinyxml2.h **** 
  24:include/tinyxml2.h **** #ifndef TINYXML2_INCLUDED
  25:include/tinyxml2.h **** #define TINYXML2_INCLUDED
  26:include/tinyxml2.h **** 
  27:include/tinyxml2.h **** #if defined(ANDROID_NDK) || defined(__BORLANDC__) || defined(__QNXNTO__)
  28:include/tinyxml2.h **** #   include <ctype.h>
  29:include/tinyxml2.h **** #   include <limits.h>
  30:include/tinyxml2.h **** #   include <stdio.h>
  31:include/tinyxml2.h **** #   include <stdlib.h>
  32:include/tinyxml2.h **** #   include <string.h>
  33:include/tinyxml2.h **** #else
  34:include/tinyxml2.h **** #   include <cctype>
  35:include/tinyxml2.h **** #   include <climits>
  36:include/tinyxml2.h **** #   include <cstdio>
GAS LISTING /tmp/cc7pRhJa.s 			page 2


  37:include/tinyxml2.h **** #   include <cstdlib>
  38:include/tinyxml2.h **** #   include <cstring>
  39:include/tinyxml2.h **** #endif
  40:include/tinyxml2.h **** 
  41:include/tinyxml2.h **** /*
  42:include/tinyxml2.h ****    TODO: intern strings instead of allocation.
  43:include/tinyxml2.h **** */
  44:include/tinyxml2.h **** /*
  45:include/tinyxml2.h **** 	gcc:
  46:include/tinyxml2.h ****         g++ -Wall -DDEBUG tinyxml2.cpp xmltest.cpp -o gccxmltest.exe
  47:include/tinyxml2.h **** 
  48:include/tinyxml2.h ****     Formatting, Artistic Style:
  49:include/tinyxml2.h ****         AStyle.exe --style=1tbs --indent-switches --break-closing-brackets --indent-preprocessor ti
  50:include/tinyxml2.h **** */
  51:include/tinyxml2.h **** 
  52:include/tinyxml2.h **** #if defined( _DEBUG ) || defined( DEBUG ) || defined (__DEBUG__)
  53:include/tinyxml2.h **** #   ifndef DEBUG
  54:include/tinyxml2.h **** #       define DEBUG
  55:include/tinyxml2.h **** #   endif
  56:include/tinyxml2.h **** #endif
  57:include/tinyxml2.h **** 
  58:include/tinyxml2.h **** #ifdef _MSC_VER
  59:include/tinyxml2.h **** #   pragma warning(push)
  60:include/tinyxml2.h **** #   pragma warning(disable: 4251)
  61:include/tinyxml2.h **** #endif
  62:include/tinyxml2.h **** 
  63:include/tinyxml2.h **** #ifdef _WIN32
  64:include/tinyxml2.h **** #   ifdef TINYXML2_EXPORT
  65:include/tinyxml2.h **** #       define TINYXML2_LIB __declspec(dllexport)
  66:include/tinyxml2.h **** #   elif defined(TINYXML2_IMPORT)
  67:include/tinyxml2.h **** #       define TINYXML2_LIB __declspec(dllimport)
  68:include/tinyxml2.h **** #   else
  69:include/tinyxml2.h **** #       define TINYXML2_LIB
  70:include/tinyxml2.h **** #   endif
  71:include/tinyxml2.h **** #else
  72:include/tinyxml2.h **** #   define TINYXML2_LIB
  73:include/tinyxml2.h **** #endif
  74:include/tinyxml2.h **** 
  75:include/tinyxml2.h **** 
  76:include/tinyxml2.h **** #if defined(DEBUG)
  77:include/tinyxml2.h **** #   if defined(_MSC_VER)
  78:include/tinyxml2.h **** #       // "(void)0," is for suppressing C4127 warning in "assert(false)", "assert(true)" and the l
  79:include/tinyxml2.h **** #       define TIXMLASSERT( x )           if ( !((void)0,(x))) { __debugbreak(); }
  80:include/tinyxml2.h **** #   elif defined (ANDROID_NDK)
  81:include/tinyxml2.h **** #       include <android/log.h>
  82:include/tinyxml2.h **** #       define TIXMLASSERT( x )           if ( !(x)) { __android_log_assert( "assert", "grinliz", "
  83:include/tinyxml2.h **** #   else
  84:include/tinyxml2.h **** #       include <assert.h>
  85:include/tinyxml2.h **** #       define TIXMLASSERT                assert
  86:include/tinyxml2.h **** #   endif
  87:include/tinyxml2.h **** #else
  88:include/tinyxml2.h **** #   define TIXMLASSERT( x )               {}
  89:include/tinyxml2.h **** #endif
  90:include/tinyxml2.h **** 
  91:include/tinyxml2.h **** 
  92:include/tinyxml2.h **** /* Versioning, past 1.0.14:
  93:include/tinyxml2.h **** 	http://semver.org/
GAS LISTING /tmp/cc7pRhJa.s 			page 3


  94:include/tinyxml2.h **** */
  95:include/tinyxml2.h **** static const int TIXML2_MAJOR_VERSION = 3;
  96:include/tinyxml2.h **** static const int TIXML2_MINOR_VERSION = 0;
  97:include/tinyxml2.h **** static const int TIXML2_PATCH_VERSION = 0;
  98:include/tinyxml2.h **** 
  99:include/tinyxml2.h **** namespace tinyxml2
 100:include/tinyxml2.h **** {
 101:include/tinyxml2.h **** class XMLDocument;
 102:include/tinyxml2.h **** class XMLElement;
 103:include/tinyxml2.h **** class XMLAttribute;
 104:include/tinyxml2.h **** class XMLComment;
 105:include/tinyxml2.h **** class XMLText;
 106:include/tinyxml2.h **** class XMLDeclaration;
 107:include/tinyxml2.h **** class XMLUnknown;
 108:include/tinyxml2.h **** class XMLPrinter;
 109:include/tinyxml2.h **** 
 110:include/tinyxml2.h **** /*
 111:include/tinyxml2.h **** 	A class that wraps strings. Normally stores the start and end
 112:include/tinyxml2.h **** 	pointers into the XML file itself, and will apply normalization
 113:include/tinyxml2.h **** 	and entity translation if actually read. Can also store (and memory
 114:include/tinyxml2.h **** 	manage) a traditional char[]
 115:include/tinyxml2.h **** */
 116:include/tinyxml2.h **** class StrPair
 117:include/tinyxml2.h **** {
 118:include/tinyxml2.h **** public:
 119:include/tinyxml2.h ****     enum {
 120:include/tinyxml2.h ****         NEEDS_ENTITY_PROCESSING			= 0x01,
 121:include/tinyxml2.h ****         NEEDS_NEWLINE_NORMALIZATION		= 0x02,
 122:include/tinyxml2.h ****         NEEDS_WHITESPACE_COLLAPSING     = 0x04,
 123:include/tinyxml2.h **** 
 124:include/tinyxml2.h ****         TEXT_ELEMENT		            	= NEEDS_ENTITY_PROCESSING | NEEDS_NEWLINE_NORMALIZATION,
 125:include/tinyxml2.h ****         TEXT_ELEMENT_LEAVE_ENTITIES		= NEEDS_NEWLINE_NORMALIZATION,
 126:include/tinyxml2.h ****         ATTRIBUTE_NAME		            	= 0,
 127:include/tinyxml2.h ****         ATTRIBUTE_VALUE		            	= NEEDS_ENTITY_PROCESSING | NEEDS_NEWLINE_NORMALIZATION,
 128:include/tinyxml2.h ****         ATTRIBUTE_VALUE_LEAVE_ENTITIES  	= NEEDS_NEWLINE_NORMALIZATION,
 129:include/tinyxml2.h ****         COMMENT				        = NEEDS_NEWLINE_NORMALIZATION
 130:include/tinyxml2.h ****     };
 131:include/tinyxml2.h **** 
 132:include/tinyxml2.h ****     StrPair() : _flags( 0 ), _start( 0 ), _end( 0 ) {}
 133:include/tinyxml2.h ****     ~StrPair();
 134:include/tinyxml2.h **** 
 135:include/tinyxml2.h ****     void Set( char* start, char* end, int flags ) {
 136:include/tinyxml2.h ****         Reset();
 137:include/tinyxml2.h ****         _start  = start;
 138:include/tinyxml2.h ****         _end    = end;
 139:include/tinyxml2.h ****         _flags  = flags | NEEDS_FLUSH;
 140:include/tinyxml2.h ****     }
 141:include/tinyxml2.h **** 
 142:include/tinyxml2.h ****     const char* GetStr();
 143:include/tinyxml2.h **** 
 144:include/tinyxml2.h ****     bool Empty() const {
 145:include/tinyxml2.h ****         return _start == _end;
 146:include/tinyxml2.h ****     }
 147:include/tinyxml2.h **** 
 148:include/tinyxml2.h ****     void SetInternedStr( const char* str ) {
 149:include/tinyxml2.h ****         Reset();
 150:include/tinyxml2.h ****         _start = const_cast<char*>(str);
GAS LISTING /tmp/cc7pRhJa.s 			page 4


 151:include/tinyxml2.h ****     }
 152:include/tinyxml2.h **** 
 153:include/tinyxml2.h ****     void SetStr( const char* str, int flags=0 );
 154:include/tinyxml2.h **** 
 155:include/tinyxml2.h ****     char* ParseText( char* in, const char* endTag, int strFlags );
 156:include/tinyxml2.h ****     char* ParseName( char* in );
 157:include/tinyxml2.h **** 
 158:include/tinyxml2.h ****     void TransferTo( StrPair* other );
 159:include/tinyxml2.h **** 
 160:include/tinyxml2.h **** private:
 161:include/tinyxml2.h ****     void Reset();
 162:include/tinyxml2.h ****     void CollapseWhitespace();
 163:include/tinyxml2.h **** 
 164:include/tinyxml2.h ****     enum {
 165:include/tinyxml2.h ****         NEEDS_FLUSH = 0x100,
 166:include/tinyxml2.h ****         NEEDS_DELETE = 0x200
 167:include/tinyxml2.h ****     };
 168:include/tinyxml2.h **** 
 169:include/tinyxml2.h ****     int     _flags;
 170:include/tinyxml2.h ****     char*   _start;
 171:include/tinyxml2.h ****     char*   _end;
 172:include/tinyxml2.h **** 
 173:include/tinyxml2.h ****     StrPair( const StrPair& other );	// not supported
 174:include/tinyxml2.h ****     void operator=( StrPair& other );	// not supported, use TransferTo()
 175:include/tinyxml2.h **** };
 176:include/tinyxml2.h **** 
 177:include/tinyxml2.h **** 
 178:include/tinyxml2.h **** /*
 179:include/tinyxml2.h **** 	A dynamic array of Plain Old Data. Doesn't support constructors, etc.
 180:include/tinyxml2.h **** 	Has a small initial memory pool, so that low or no usage will not
 181:include/tinyxml2.h **** 	cause a call to new/delete
 182:include/tinyxml2.h **** */
 183:include/tinyxml2.h **** template <class T, int INITIAL_SIZE>
 184:include/tinyxml2.h **** class DynArray
 185:include/tinyxml2.h **** {
 186:include/tinyxml2.h **** public:
 187:include/tinyxml2.h ****     DynArray() {
 188:include/tinyxml2.h ****         _mem = _pool;
 189:include/tinyxml2.h ****         _allocated = INITIAL_SIZE;
 190:include/tinyxml2.h ****         _size = 0;
 191:include/tinyxml2.h ****     }
 192:include/tinyxml2.h **** 
 193:include/tinyxml2.h ****     ~DynArray() {
 194:include/tinyxml2.h ****         if ( _mem != _pool ) {
 195:include/tinyxml2.h ****             delete [] _mem;
 196:include/tinyxml2.h ****         }
 197:include/tinyxml2.h ****     }
 198:include/tinyxml2.h **** 
 199:include/tinyxml2.h ****     void Clear() {
 200:include/tinyxml2.h ****         _size = 0;
 201:include/tinyxml2.h ****     }
 202:include/tinyxml2.h **** 
 203:include/tinyxml2.h ****     void Push( T t ) {
 204:include/tinyxml2.h ****         TIXMLASSERT( _size < INT_MAX );
 205:include/tinyxml2.h ****         EnsureCapacity( _size+1 );
 206:include/tinyxml2.h ****         _mem[_size++] = t;
 207:include/tinyxml2.h ****     }
GAS LISTING /tmp/cc7pRhJa.s 			page 5


 208:include/tinyxml2.h **** 
 209:include/tinyxml2.h ****     T* PushArr( int count ) {
 210:include/tinyxml2.h ****         TIXMLASSERT( count >= 0 );
 211:include/tinyxml2.h ****         TIXMLASSERT( _size <= INT_MAX - count );
 212:include/tinyxml2.h ****         EnsureCapacity( _size+count );
 213:include/tinyxml2.h ****         T* ret = &_mem[_size];
 214:include/tinyxml2.h ****         _size += count;
 215:include/tinyxml2.h ****         return ret;
 216:include/tinyxml2.h ****     }
 217:include/tinyxml2.h **** 
 218:include/tinyxml2.h ****     T Pop() {
 219:include/tinyxml2.h ****         TIXMLASSERT( _size > 0 );
 220:include/tinyxml2.h ****         return _mem[--_size];
 221:include/tinyxml2.h ****     }
 222:include/tinyxml2.h **** 
 223:include/tinyxml2.h ****     void PopArr( int count ) {
 224:include/tinyxml2.h ****         TIXMLASSERT( _size >= count );
 225:include/tinyxml2.h ****         _size -= count;
 226:include/tinyxml2.h ****     }
 227:include/tinyxml2.h **** 
 228:include/tinyxml2.h ****     bool Empty() const					{
 229:include/tinyxml2.h ****         return _size == 0;
 230:include/tinyxml2.h ****     }
 231:include/tinyxml2.h **** 
 232:include/tinyxml2.h ****     T& operator[](int i)				{
 233:include/tinyxml2.h ****         TIXMLASSERT( i>= 0 && i < _size );
 234:include/tinyxml2.h ****         return _mem[i];
 235:include/tinyxml2.h ****     }
 236:include/tinyxml2.h **** 
 237:include/tinyxml2.h ****     const T& operator[](int i) const	{
 238:include/tinyxml2.h ****         TIXMLASSERT( i>= 0 && i < _size );
 239:include/tinyxml2.h ****         return _mem[i];
 240:include/tinyxml2.h ****     }
 241:include/tinyxml2.h **** 
 242:include/tinyxml2.h ****     const T& PeekTop() const            {
 243:include/tinyxml2.h ****         TIXMLASSERT( _size > 0 );
 244:include/tinyxml2.h ****         return _mem[ _size - 1];
 245:include/tinyxml2.h ****     }
 246:include/tinyxml2.h **** 
 247:include/tinyxml2.h ****     int Size() const					{
 248:include/tinyxml2.h ****         TIXMLASSERT( _size >= 0 );
 249:include/tinyxml2.h ****         return _size;
 250:include/tinyxml2.h ****     }
 251:include/tinyxml2.h **** 
 252:include/tinyxml2.h ****     int Capacity() const				{
 253:include/tinyxml2.h ****         TIXMLASSERT( _allocated >= INITIAL_SIZE );
 254:include/tinyxml2.h ****         return _allocated;
 255:include/tinyxml2.h ****     }
 256:include/tinyxml2.h **** 
 257:include/tinyxml2.h ****     const T* Mem() const				{
 258:include/tinyxml2.h ****         TIXMLASSERT( _mem );
 259:include/tinyxml2.h ****         return _mem;
 260:include/tinyxml2.h ****     }
 261:include/tinyxml2.h **** 
 262:include/tinyxml2.h ****     T* Mem()							{
 263:include/tinyxml2.h ****         TIXMLASSERT( _mem );
 264:include/tinyxml2.h ****         return _mem;
GAS LISTING /tmp/cc7pRhJa.s 			page 6


 265:include/tinyxml2.h ****     }
 266:include/tinyxml2.h **** 
 267:include/tinyxml2.h **** private:
 268:include/tinyxml2.h ****     DynArray( const DynArray& ); // not supported
 269:include/tinyxml2.h ****     void operator=( const DynArray& ); // not supported
 270:include/tinyxml2.h **** 
 271:include/tinyxml2.h ****     void EnsureCapacity( int cap ) {
 272:include/tinyxml2.h ****         TIXMLASSERT( cap > 0 );
 273:include/tinyxml2.h ****         if ( cap > _allocated ) {
 274:include/tinyxml2.h ****             TIXMLASSERT( cap <= INT_MAX / 2 );
 275:include/tinyxml2.h ****             int newAllocated = cap * 2;
 276:include/tinyxml2.h ****             T* newMem = new T[newAllocated];
 277:include/tinyxml2.h ****             memcpy( newMem, _mem, sizeof(T)*_size );	// warning: not using constructors, only works
 278:include/tinyxml2.h ****             if ( _mem != _pool ) {
 279:include/tinyxml2.h ****                 delete [] _mem;
 280:include/tinyxml2.h ****             }
 281:include/tinyxml2.h ****             _mem = newMem;
 282:include/tinyxml2.h ****             _allocated = newAllocated;
 283:include/tinyxml2.h ****         }
 284:include/tinyxml2.h ****     }
 285:include/tinyxml2.h **** 
 286:include/tinyxml2.h ****     T*  _mem;
 287:include/tinyxml2.h ****     T   _pool[INITIAL_SIZE];
 288:include/tinyxml2.h ****     int _allocated;		// objects allocated
 289:include/tinyxml2.h ****     int _size;			// number objects in use
 290:include/tinyxml2.h **** };
 291:include/tinyxml2.h **** 
 292:include/tinyxml2.h **** 
 293:include/tinyxml2.h **** /*
 294:include/tinyxml2.h **** 	Parent virtual class of a pool for fast allocation
 295:include/tinyxml2.h **** 	and deallocation of objects.
 296:include/tinyxml2.h **** */
 297:include/tinyxml2.h **** class MemPool
 298:include/tinyxml2.h **** {
 299:include/tinyxml2.h **** public:
 300:include/tinyxml2.h ****     MemPool() {}
 301:include/tinyxml2.h ****     virtual ~MemPool() {}
 302:include/tinyxml2.h **** 
 303:include/tinyxml2.h ****     virtual int ItemSize() const = 0;
 304:include/tinyxml2.h ****     virtual void* Alloc() = 0;
 305:include/tinyxml2.h ****     virtual void Free( void* ) = 0;
 306:include/tinyxml2.h ****     virtual void SetTracked() = 0;
 307:include/tinyxml2.h ****     virtual void Clear() = 0;
 308:include/tinyxml2.h **** };
 309:include/tinyxml2.h **** 
 310:include/tinyxml2.h **** 
 311:include/tinyxml2.h **** /*
 312:include/tinyxml2.h **** 	Template child class to create pools of the correct type.
 313:include/tinyxml2.h **** */
 314:include/tinyxml2.h **** template< int SIZE >
 315:include/tinyxml2.h **** class MemPoolT : public MemPool
 316:include/tinyxml2.h **** {
 317:include/tinyxml2.h **** public:
 318:include/tinyxml2.h ****     MemPoolT() : _root(0), _currentAllocs(0), _nAllocs(0), _maxAllocs(0), _nUntracked(0)	{}
 319:include/tinyxml2.h ****     ~MemPoolT() {
 320:include/tinyxml2.h ****         Clear();
 321:include/tinyxml2.h ****     }
GAS LISTING /tmp/cc7pRhJa.s 			page 7


 322:include/tinyxml2.h ****     
 323:include/tinyxml2.h ****     void Clear() {
 324:include/tinyxml2.h ****         // Delete the blocks.
 325:include/tinyxml2.h ****         while( !_blockPtrs.Empty()) {
 326:include/tinyxml2.h ****             Block* b  = _blockPtrs.Pop();
 327:include/tinyxml2.h ****             delete b;
 328:include/tinyxml2.h ****         }
 329:include/tinyxml2.h ****         _root = 0;
 330:include/tinyxml2.h ****         _currentAllocs = 0;
 331:include/tinyxml2.h ****         _nAllocs = 0;
 332:include/tinyxml2.h ****         _maxAllocs = 0;
 333:include/tinyxml2.h ****         _nUntracked = 0;
 334:include/tinyxml2.h ****     }
 335:include/tinyxml2.h **** 
 336:include/tinyxml2.h ****     virtual int ItemSize() const	{
 337:include/tinyxml2.h ****         return SIZE;
 338:include/tinyxml2.h ****     }
 339:include/tinyxml2.h ****     int CurrentAllocs() const		{
 340:include/tinyxml2.h ****         return _currentAllocs;
 341:include/tinyxml2.h ****     }
 342:include/tinyxml2.h **** 
 343:include/tinyxml2.h ****     virtual void* Alloc() {
 344:include/tinyxml2.h ****         if ( !_root ) {
 345:include/tinyxml2.h ****             // Need a new block.
 346:include/tinyxml2.h ****             Block* block = new Block();
 347:include/tinyxml2.h ****             _blockPtrs.Push( block );
 348:include/tinyxml2.h **** 
 349:include/tinyxml2.h ****             for( int i=0; i<COUNT-1; ++i ) {
 350:include/tinyxml2.h ****                 block->chunk[i].next = &block->chunk[i+1];
 351:include/tinyxml2.h ****             }
 352:include/tinyxml2.h ****             block->chunk[COUNT-1].next = 0;
 353:include/tinyxml2.h ****             _root = block->chunk;
 354:include/tinyxml2.h ****         }
 355:include/tinyxml2.h ****         void* result = _root;
 356:include/tinyxml2.h ****         _root = _root->next;
 357:include/tinyxml2.h **** 
 358:include/tinyxml2.h ****         ++_currentAllocs;
 359:include/tinyxml2.h ****         if ( _currentAllocs > _maxAllocs ) {
 360:include/tinyxml2.h ****             _maxAllocs = _currentAllocs;
 361:include/tinyxml2.h ****         }
 362:include/tinyxml2.h ****         _nAllocs++;
 363:include/tinyxml2.h ****         _nUntracked++;
 364:include/tinyxml2.h ****         return result;
 365:include/tinyxml2.h ****     }
 366:include/tinyxml2.h ****     
 367:include/tinyxml2.h ****     virtual void Free( void* mem ) {
 368:include/tinyxml2.h ****         if ( !mem ) {
 369:include/tinyxml2.h ****             return;
 370:include/tinyxml2.h ****         }
 371:include/tinyxml2.h ****         --_currentAllocs;
 372:include/tinyxml2.h ****         Chunk* chunk = static_cast<Chunk*>( mem );
 373:include/tinyxml2.h **** #ifdef DEBUG
 374:include/tinyxml2.h ****         memset( chunk, 0xfe, sizeof(Chunk) );
 375:include/tinyxml2.h **** #endif
 376:include/tinyxml2.h ****         chunk->next = _root;
 377:include/tinyxml2.h ****         _root = chunk;
 378:include/tinyxml2.h ****     }
GAS LISTING /tmp/cc7pRhJa.s 			page 8


 379:include/tinyxml2.h ****     void Trace( const char* name ) {
 380:include/tinyxml2.h ****         printf( "Mempool %s watermark=%d [%dk] current=%d size=%d nAlloc=%d blocks=%d\n",
 381:include/tinyxml2.h ****                 name, _maxAllocs, _maxAllocs*SIZE/1024, _currentAllocs, SIZE, _nAllocs, _blockPtrs.
 382:include/tinyxml2.h ****     }
 383:include/tinyxml2.h **** 
 384:include/tinyxml2.h ****     void SetTracked() {
 385:include/tinyxml2.h ****         _nUntracked--;
 386:include/tinyxml2.h ****     }
 387:include/tinyxml2.h **** 
 388:include/tinyxml2.h ****     int Untracked() const {
 389:include/tinyxml2.h ****         return _nUntracked;
 390:include/tinyxml2.h ****     }
 391:include/tinyxml2.h **** 
 392:include/tinyxml2.h **** 	// This number is perf sensitive. 4k seems like a good tradeoff on my machine.
 393:include/tinyxml2.h **** 	// The test file is large, 170k.
 394:include/tinyxml2.h **** 	// Release:		VS2010 gcc(no opt)
 395:include/tinyxml2.h **** 	//		1k:		4000
 396:include/tinyxml2.h **** 	//		2k:		4000
 397:include/tinyxml2.h **** 	//		4k:		3900	21000
 398:include/tinyxml2.h **** 	//		16k:	5200
 399:include/tinyxml2.h **** 	//		32k:	4300
 400:include/tinyxml2.h **** 	//		64k:	4000	21000
 401:include/tinyxml2.h ****     enum { COUNT = (4*1024)/SIZE }; // Some compilers do not accept to use COUNT in private part if
 402:include/tinyxml2.h **** 
 403:include/tinyxml2.h **** private:
 404:include/tinyxml2.h ****     MemPoolT( const MemPoolT& ); // not supported
 405:include/tinyxml2.h ****     void operator=( const MemPoolT& ); // not supported
 406:include/tinyxml2.h **** 
 407:include/tinyxml2.h ****     union Chunk {
 408:include/tinyxml2.h ****         Chunk*  next;
 409:include/tinyxml2.h ****         char    mem[SIZE];
 410:include/tinyxml2.h ****     };
 411:include/tinyxml2.h ****     struct Block {
 412:include/tinyxml2.h ****         Chunk chunk[COUNT];
 413:include/tinyxml2.h ****     };
 414:include/tinyxml2.h ****     DynArray< Block*, 10 > _blockPtrs;
 415:include/tinyxml2.h ****     Chunk* _root;
 416:include/tinyxml2.h **** 
 417:include/tinyxml2.h ****     int _currentAllocs;
 418:include/tinyxml2.h ****     int _nAllocs;
 419:include/tinyxml2.h ****     int _maxAllocs;
 420:include/tinyxml2.h ****     int _nUntracked;
 421:include/tinyxml2.h **** };
 422:include/tinyxml2.h **** 
 423:include/tinyxml2.h **** 
 424:include/tinyxml2.h **** 
 425:include/tinyxml2.h **** /**
 426:include/tinyxml2.h **** 	Implements the interface to the "Visitor pattern" (see the Accept() method.)
 427:include/tinyxml2.h **** 	If you call the Accept() method, it requires being passed a XMLVisitor
 428:include/tinyxml2.h **** 	class to handle callbacks. For nodes that contain other nodes (Document, Element)
 429:include/tinyxml2.h **** 	you will get called with a VisitEnter/VisitExit pair. Nodes that are always leafs
 430:include/tinyxml2.h **** 	are simply called with Visit().
 431:include/tinyxml2.h **** 
 432:include/tinyxml2.h **** 	If you return 'true' from a Visit method, recursive parsing will continue. If you return
 433:include/tinyxml2.h **** 	false, <b>no children of this node or its siblings</b> will be visited.
 434:include/tinyxml2.h **** 
 435:include/tinyxml2.h **** 	All flavors of Visit methods have a default implementation that returns 'true' (continue
GAS LISTING /tmp/cc7pRhJa.s 			page 9


 436:include/tinyxml2.h **** 	visiting). You need to only override methods that are interesting to you.
 437:include/tinyxml2.h **** 
 438:include/tinyxml2.h **** 	Generally Accept() is called on the XMLDocument, although all nodes support visiting.
 439:include/tinyxml2.h **** 
 440:include/tinyxml2.h **** 	You should never change the document from a callback.
 441:include/tinyxml2.h **** 
 442:include/tinyxml2.h **** 	@sa XMLNode::Accept()
 443:include/tinyxml2.h **** */
 444:include/tinyxml2.h **** class TINYXML2_LIB XMLVisitor
 445:include/tinyxml2.h **** {
 446:include/tinyxml2.h **** public:
 447:include/tinyxml2.h ****     virtual ~XMLVisitor() {}
 448:include/tinyxml2.h **** 
 449:include/tinyxml2.h ****     /// Visit a document.
 450:include/tinyxml2.h ****     virtual bool VisitEnter( const XMLDocument& /*doc*/ )			{
 451:include/tinyxml2.h ****         return true;
 452:include/tinyxml2.h ****     }
 453:include/tinyxml2.h ****     /// Visit a document.
 454:include/tinyxml2.h ****     virtual bool VisitExit( const XMLDocument& /*doc*/ )			{
 455:include/tinyxml2.h ****         return true;
 456:include/tinyxml2.h ****     }
 457:include/tinyxml2.h **** 
 458:include/tinyxml2.h ****     /// Visit an element.
 459:include/tinyxml2.h ****     virtual bool VisitEnter( const XMLElement& /*element*/, const XMLAttribute* /*firstAttribute*/ 
 460:include/tinyxml2.h ****         return true;
 461:include/tinyxml2.h ****     }
 462:include/tinyxml2.h ****     /// Visit an element.
 463:include/tinyxml2.h ****     virtual bool VisitExit( const XMLElement& /*element*/ )			{
 464:include/tinyxml2.h ****         return true;
 465:include/tinyxml2.h ****     }
 466:include/tinyxml2.h **** 
 467:include/tinyxml2.h ****     /// Visit a declaration.
 468:include/tinyxml2.h ****     virtual bool Visit( const XMLDeclaration& /*declaration*/ )		{
 469:include/tinyxml2.h ****         return true;
 470:include/tinyxml2.h ****     }
 471:include/tinyxml2.h ****     /// Visit a text node.
 472:include/tinyxml2.h ****     virtual bool Visit( const XMLText& /*text*/ )					{
 473:include/tinyxml2.h ****         return true;
 474:include/tinyxml2.h ****     }
 475:include/tinyxml2.h ****     /// Visit a comment node.
 476:include/tinyxml2.h ****     virtual bool Visit( const XMLComment& /*comment*/ )				{
 477:include/tinyxml2.h ****         return true;
 478:include/tinyxml2.h ****     }
 479:include/tinyxml2.h ****     /// Visit an unknown node.
 480:include/tinyxml2.h ****     virtual bool Visit( const XMLUnknown& /*unknown*/ )				{
 481:include/tinyxml2.h ****         return true;
 482:include/tinyxml2.h ****     }
 483:include/tinyxml2.h **** };
 484:include/tinyxml2.h **** 
 485:include/tinyxml2.h **** // WARNING: must match XMLDocument::_errorNames[]
 486:include/tinyxml2.h **** enum XMLError {
 487:include/tinyxml2.h ****     XML_SUCCESS = 0,
 488:include/tinyxml2.h ****     XML_NO_ERROR = 0,
 489:include/tinyxml2.h ****     XML_NO_ATTRIBUTE,
 490:include/tinyxml2.h ****     XML_WRONG_ATTRIBUTE_TYPE,
 491:include/tinyxml2.h ****     XML_ERROR_FILE_NOT_FOUND,
 492:include/tinyxml2.h ****     XML_ERROR_FILE_COULD_NOT_BE_OPENED,
GAS LISTING /tmp/cc7pRhJa.s 			page 10


 493:include/tinyxml2.h ****     XML_ERROR_FILE_READ_ERROR,
 494:include/tinyxml2.h ****     XML_ERROR_ELEMENT_MISMATCH,
 495:include/tinyxml2.h ****     XML_ERROR_PARSING_ELEMENT,
 496:include/tinyxml2.h ****     XML_ERROR_PARSING_ATTRIBUTE,
 497:include/tinyxml2.h ****     XML_ERROR_IDENTIFYING_TAG,
 498:include/tinyxml2.h ****     XML_ERROR_PARSING_TEXT,
 499:include/tinyxml2.h ****     XML_ERROR_PARSING_CDATA,
 500:include/tinyxml2.h ****     XML_ERROR_PARSING_COMMENT,
 501:include/tinyxml2.h ****     XML_ERROR_PARSING_DECLARATION,
 502:include/tinyxml2.h ****     XML_ERROR_PARSING_UNKNOWN,
 503:include/tinyxml2.h ****     XML_ERROR_EMPTY_DOCUMENT,
 504:include/tinyxml2.h ****     XML_ERROR_MISMATCHED_ELEMENT,
 505:include/tinyxml2.h ****     XML_ERROR_PARSING,
 506:include/tinyxml2.h ****     XML_CAN_NOT_CONVERT_TEXT,
 507:include/tinyxml2.h ****     XML_NO_TEXT_NODE,
 508:include/tinyxml2.h **** 
 509:include/tinyxml2.h **** 	XML_ERROR_COUNT
 510:include/tinyxml2.h **** };
 511:include/tinyxml2.h **** 
 512:include/tinyxml2.h **** 
 513:include/tinyxml2.h **** /*
 514:include/tinyxml2.h **** 	Utility functionality.
 515:include/tinyxml2.h **** */
 516:include/tinyxml2.h **** class XMLUtil
 517:include/tinyxml2.h **** {
 518:include/tinyxml2.h **** public:
 519:include/tinyxml2.h ****     static const char* SkipWhiteSpace( const char* p )	{
 520:include/tinyxml2.h ****         TIXMLASSERT( p );
 521:include/tinyxml2.h ****         while( IsWhiteSpace(*p) ) {
 522:include/tinyxml2.h ****             ++p;
 523:include/tinyxml2.h ****         }
 524:include/tinyxml2.h ****         TIXMLASSERT( p );
 525:include/tinyxml2.h ****         return p;
 526:include/tinyxml2.h ****     }
 527:include/tinyxml2.h ****     static char* SkipWhiteSpace( char* p )				{
 528:include/tinyxml2.h ****         return const_cast<char*>( SkipWhiteSpace( const_cast<const char*>(p) ) );
 529:include/tinyxml2.h ****     }
 530:include/tinyxml2.h **** 
 531:include/tinyxml2.h ****     // Anything in the high order range of UTF-8 is assumed to not be whitespace. This isn't
 532:include/tinyxml2.h ****     // correct, but simple, and usually works.
 533:include/tinyxml2.h ****     static bool IsWhiteSpace( char p )					{
 534:include/tinyxml2.h ****         return !IsUTF8Continuation(p) && isspace( static_cast<unsigned char>(p) );
 535:include/tinyxml2.h ****     }
 536:include/tinyxml2.h ****     
 537:include/tinyxml2.h ****     inline static bool IsNameStartChar( unsigned char ch ) {
 538:include/tinyxml2.h ****         if ( ch >= 128 ) {
 539:include/tinyxml2.h ****             // This is a heuristic guess in attempt to not implement Unicode-aware isalpha()
 540:include/tinyxml2.h ****             return true;
 541:include/tinyxml2.h ****         }
 542:include/tinyxml2.h ****         if ( isalpha( ch ) ) {
 543:include/tinyxml2.h ****             return true;
 544:include/tinyxml2.h ****         }
 545:include/tinyxml2.h ****         return ch == ':' || ch == '_';
 546:include/tinyxml2.h ****     }
 547:include/tinyxml2.h ****     
 548:include/tinyxml2.h ****     inline static bool IsNameChar( unsigned char ch ) {
 549:include/tinyxml2.h ****         return IsNameStartChar( ch )
GAS LISTING /tmp/cc7pRhJa.s 			page 11


 550:include/tinyxml2.h ****                || isdigit( ch )
 551:include/tinyxml2.h ****                || ch == '.'
 552:include/tinyxml2.h ****                || ch == '-';
 553:include/tinyxml2.h ****     }
 554:include/tinyxml2.h **** 
 555:include/tinyxml2.h ****     inline static bool StringEqual( const char* p, const char* q, int nChar=INT_MAX )  {
 556:include/tinyxml2.h ****         if ( p == q ) {
 557:include/tinyxml2.h ****             return true;
 558:include/tinyxml2.h ****         }
 559:include/tinyxml2.h ****         return strncmp( p, q, nChar ) == 0;
 560:include/tinyxml2.h ****     }
 561:include/tinyxml2.h ****     
 562:include/tinyxml2.h ****     inline static bool IsUTF8Continuation( char p ) {
 563:include/tinyxml2.h ****         return ( p & 0x80 ) != 0;
 564:include/tinyxml2.h ****     }
 565:include/tinyxml2.h **** 
 566:include/tinyxml2.h ****     static const char* ReadBOM( const char* p, bool* hasBOM );
 567:include/tinyxml2.h ****     // p is the starting location,
 568:include/tinyxml2.h ****     // the UTF-8 value of the entity will be placed in value, and length filled in.
 569:include/tinyxml2.h ****     static const char* GetCharacterRef( const char* p, char* value, int* length );
 570:include/tinyxml2.h ****     static void ConvertUTF32ToUTF8( unsigned long input, char* output, int* length );
 571:include/tinyxml2.h **** 
 572:include/tinyxml2.h ****     // converts primitive types to strings
 573:include/tinyxml2.h ****     static void ToStr( int v, char* buffer, int bufferSize );
 574:include/tinyxml2.h ****     static void ToStr( unsigned v, char* buffer, int bufferSize );
 575:include/tinyxml2.h ****     static void ToStr( bool v, char* buffer, int bufferSize );
 576:include/tinyxml2.h ****     static void ToStr( float v, char* buffer, int bufferSize );
 577:include/tinyxml2.h ****     static void ToStr( double v, char* buffer, int bufferSize );
 578:include/tinyxml2.h **** 
 579:include/tinyxml2.h ****     // converts strings to primitive types
 580:include/tinyxml2.h ****     static bool	ToInt( const char* str, int* value );
 581:include/tinyxml2.h ****     static bool ToUnsigned( const char* str, unsigned* value );
 582:include/tinyxml2.h ****     static bool	ToBool( const char* str, bool* value );
 583:include/tinyxml2.h ****     static bool	ToFloat( const char* str, float* value );
 584:include/tinyxml2.h ****     static bool ToDouble( const char* str, double* value );
 585:include/tinyxml2.h **** };
 586:include/tinyxml2.h **** 
 587:include/tinyxml2.h **** 
 588:include/tinyxml2.h **** /** XMLNode is a base class for every object that is in the
 589:include/tinyxml2.h **** 	XML Document Object Model (DOM), except XMLAttributes.
 590:include/tinyxml2.h **** 	Nodes have siblings, a parent, and children which can
 591:include/tinyxml2.h **** 	be navigated. A node is always in a XMLDocument.
 592:include/tinyxml2.h **** 	The type of a XMLNode can be queried, and it can
 593:include/tinyxml2.h **** 	be cast to its more defined type.
 594:include/tinyxml2.h **** 
 595:include/tinyxml2.h **** 	A XMLDocument allocates memory for all its Nodes.
 596:include/tinyxml2.h **** 	When the XMLDocument gets deleted, all its Nodes
 597:include/tinyxml2.h **** 	will also be deleted.
 598:include/tinyxml2.h **** 
 599:include/tinyxml2.h **** 	@verbatim
 600:include/tinyxml2.h **** 	A Document can contain:	Element	(container or leaf)
 601:include/tinyxml2.h **** 							Comment (leaf)
 602:include/tinyxml2.h **** 							Unknown (leaf)
 603:include/tinyxml2.h **** 							Declaration( leaf )
 604:include/tinyxml2.h **** 
 605:include/tinyxml2.h **** 	An Element can contain:	Element (container or leaf)
 606:include/tinyxml2.h **** 							Text	(leaf)
GAS LISTING /tmp/cc7pRhJa.s 			page 12


 607:include/tinyxml2.h **** 							Attributes (not on tree)
 608:include/tinyxml2.h **** 							Comment (leaf)
 609:include/tinyxml2.h **** 							Unknown (leaf)
 610:include/tinyxml2.h **** 
 611:include/tinyxml2.h **** 	@endverbatim
 612:include/tinyxml2.h **** */
 613:include/tinyxml2.h **** class TINYXML2_LIB XMLNode
 614:include/tinyxml2.h **** {
 615:include/tinyxml2.h ****     friend class XMLDocument;
 616:include/tinyxml2.h ****     friend class XMLElement;
 617:include/tinyxml2.h **** public:
 618:include/tinyxml2.h **** 
 619:include/tinyxml2.h ****     /// Get the XMLDocument that owns this XMLNode.
 620:include/tinyxml2.h ****     const XMLDocument* GetDocument() const	{
 621:include/tinyxml2.h ****         TIXMLASSERT( _document );
 622:include/tinyxml2.h ****         return _document;
 623:include/tinyxml2.h ****     }
 624:include/tinyxml2.h ****     /// Get the XMLDocument that owns this XMLNode.
 625:include/tinyxml2.h ****     XMLDocument* GetDocument()				{
 626:include/tinyxml2.h ****         TIXMLASSERT( _document );
 627:include/tinyxml2.h ****         return _document;
 628:include/tinyxml2.h ****     }
 629:include/tinyxml2.h **** 
 630:include/tinyxml2.h ****     /// Safely cast to an Element, or null.
 631:include/tinyxml2.h ****     virtual XMLElement*		ToElement()		{
 632:include/tinyxml2.h ****         return 0;
 633:include/tinyxml2.h ****     }
 634:include/tinyxml2.h ****     /// Safely cast to Text, or null.
 635:include/tinyxml2.h ****     virtual XMLText*		ToText()		{
 636:include/tinyxml2.h ****         return 0;
 637:include/tinyxml2.h ****     }
 638:include/tinyxml2.h ****     /// Safely cast to a Comment, or null.
 639:include/tinyxml2.h ****     virtual XMLComment*		ToComment()		{
 640:include/tinyxml2.h ****         return 0;
 641:include/tinyxml2.h ****     }
 642:include/tinyxml2.h ****     /// Safely cast to a Document, or null.
 643:include/tinyxml2.h ****     virtual XMLDocument*	ToDocument()	{
 644:include/tinyxml2.h ****         return 0;
 645:include/tinyxml2.h ****     }
 646:include/tinyxml2.h ****     /// Safely cast to a Declaration, or null.
 647:include/tinyxml2.h ****     virtual XMLDeclaration*	ToDeclaration()	{
 648:include/tinyxml2.h ****         return 0;
 649:include/tinyxml2.h ****     }
 650:include/tinyxml2.h ****     /// Safely cast to an Unknown, or null.
 651:include/tinyxml2.h ****     virtual XMLUnknown*		ToUnknown()		{
 652:include/tinyxml2.h ****         return 0;
 653:include/tinyxml2.h ****     }
 654:include/tinyxml2.h **** 
 655:include/tinyxml2.h ****     virtual const XMLElement*		ToElement() const		{
 656:include/tinyxml2.h ****         return 0;
 657:include/tinyxml2.h ****     }
 658:include/tinyxml2.h ****     virtual const XMLText*			ToText() const			{
 659:include/tinyxml2.h ****         return 0;
 660:include/tinyxml2.h ****     }
 661:include/tinyxml2.h ****     virtual const XMLComment*		ToComment() const		{
 662:include/tinyxml2.h ****         return 0;
 663:include/tinyxml2.h ****     }
GAS LISTING /tmp/cc7pRhJa.s 			page 13


 664:include/tinyxml2.h ****     virtual const XMLDocument*		ToDocument() const		{
 665:include/tinyxml2.h ****         return 0;
 666:include/tinyxml2.h ****     }
 667:include/tinyxml2.h ****     virtual const XMLDeclaration*	ToDeclaration() const	{
 668:include/tinyxml2.h ****         return 0;
 669:include/tinyxml2.h ****     }
 670:include/tinyxml2.h ****     virtual const XMLUnknown*		ToUnknown() const		{
 671:include/tinyxml2.h ****         return 0;
 672:include/tinyxml2.h ****     }
 673:include/tinyxml2.h **** 
 674:include/tinyxml2.h ****     /** The meaning of 'value' changes for the specific type.
 675:include/tinyxml2.h ****     	@verbatim
 676:include/tinyxml2.h ****     	Document:	empty (NULL is returned, not an empty string)
 677:include/tinyxml2.h ****     	Element:	name of the element
 678:include/tinyxml2.h ****     	Comment:	the comment text
 679:include/tinyxml2.h ****     	Unknown:	the tag contents
 680:include/tinyxml2.h ****     	Text:		the text string
 681:include/tinyxml2.h ****     	@endverbatim
 682:include/tinyxml2.h ****     */
 683:include/tinyxml2.h ****     const char* Value() const;
 684:include/tinyxml2.h **** 
 685:include/tinyxml2.h ****     /** Set the Value of an XML node.
 686:include/tinyxml2.h ****     	@sa Value()
 687:include/tinyxml2.h ****     */
 688:include/tinyxml2.h ****     void SetValue( const char* val, bool staticMem=false );
 689:include/tinyxml2.h **** 
 690:include/tinyxml2.h ****     /// Get the parent of this node on the DOM.
 691:include/tinyxml2.h ****     const XMLNode*	Parent() const			{
 692:include/tinyxml2.h ****         return _parent;
 693:include/tinyxml2.h ****     }
 694:include/tinyxml2.h **** 
 695:include/tinyxml2.h ****     XMLNode* Parent()						{
 696:include/tinyxml2.h ****         return _parent;
 697:include/tinyxml2.h ****     }
 698:include/tinyxml2.h **** 
 699:include/tinyxml2.h ****     /// Returns true if this node has no children.
 700:include/tinyxml2.h ****     bool NoChildren() const					{
 701:include/tinyxml2.h ****         return !_firstChild;
 702:include/tinyxml2.h ****     }
 703:include/tinyxml2.h **** 
 704:include/tinyxml2.h ****     /// Get the first child node, or null if none exists.
 705:include/tinyxml2.h ****     const XMLNode*  FirstChild() const		{
 706:include/tinyxml2.h ****         return _firstChild;
 707:include/tinyxml2.h ****     }
 708:include/tinyxml2.h **** 
 709:include/tinyxml2.h ****     XMLNode*		FirstChild()			{
  31              		.loc 1 709 0
  32              		.cfi_startproc
  33 0000 55       		pushq	%rbp
  34              		.cfi_def_cfa_offset 16
  35              		.cfi_offset 6, -16
  36 0001 4889E5   		movq	%rsp, %rbp
  37              		.cfi_def_cfa_register 6
  38 0004 48897DF8 		movq	%rdi, -8(%rbp)
 710:include/tinyxml2.h ****         return _firstChild;
  39              		.loc 1 710 0
  40 0008 488B45F8 		movq	-8(%rbp), %rax
GAS LISTING /tmp/cc7pRhJa.s 			page 14


  41 000c 488B4030 		movq	48(%rax), %rax
 711:include/tinyxml2.h ****     }
  42              		.loc 1 711 0
  43 0010 5D       		popq	%rbp
  44              		.cfi_def_cfa 7, 8
  45 0011 C3       		ret
  46              		.cfi_endproc
  47              	.LFE950:
  49              		.section	.text._ZN8tinyxml27XMLNode17FirstChildElementEPKc,"axG",@progbits,_ZN8tinyxml27XMLNode17F
  50              		.align 2
  51              		.weak	_ZN8tinyxml27XMLNode17FirstChildElementEPKc
  53              	_ZN8tinyxml27XMLNode17FirstChildElementEPKc:
  54              	.LFB951:
 712:include/tinyxml2.h **** 
 713:include/tinyxml2.h ****     /** Get the first child element, or optionally the first child
 714:include/tinyxml2.h ****         element with the specified name.
 715:include/tinyxml2.h ****     */
 716:include/tinyxml2.h ****     const XMLElement* FirstChildElement( const char* name = 0 ) const;
 717:include/tinyxml2.h **** 
 718:include/tinyxml2.h ****     XMLElement* FirstChildElement( const char* name = 0 )	{
  55              		.loc 1 718 0
  56              		.cfi_startproc
  57 0000 55       		pushq	%rbp
  58              		.cfi_def_cfa_offset 16
  59              		.cfi_offset 6, -16
  60 0001 4889E5   		movq	%rsp, %rbp
  61              		.cfi_def_cfa_register 6
  62 0004 4883EC10 		subq	$16, %rsp
  63 0008 48897DF8 		movq	%rdi, -8(%rbp)
  64 000c 488975F0 		movq	%rsi, -16(%rbp)
 719:include/tinyxml2.h ****         return const_cast<XMLElement*>(const_cast<const XMLNode*>(this)->FirstChildElement( name ))
  65              		.loc 1 719 0
  66 0010 488B55F0 		movq	-16(%rbp), %rdx
  67 0014 488B45F8 		movq	-8(%rbp), %rax
  68 0018 4889D6   		movq	%rdx, %rsi
  69 001b 4889C7   		movq	%rax, %rdi
  70 001e E8000000 		call	_ZNK8tinyxml27XMLNode17FirstChildElementEPKc
  70      00
 720:include/tinyxml2.h ****     }
  71              		.loc 1 720 0
  72 0023 C9       		leave
  73              		.cfi_def_cfa 7, 8
  74 0024 C3       		ret
  75              		.cfi_endproc
  76              	.LFE951:
  78              		.text
  79              		.align 2
  80              		.globl	_ZN12preprocessorC2Ev
  82              	_ZN12preprocessorC2Ev:
  83              	.LFB1773:
  84              		.file 2 "/home/brendan/Dropbox/PhD/Code/LBM/2D LBFS/src/preprocessor.cpp"
   1:/home/brendan/Dropbox/PhD/Code/LBM/2D LBFS/src/preprocessor.cpp **** #include "preprocessor.h"
   2:/home/brendan/Dropbox/PhD/Code/LBM/2D LBFS/src/preprocessor.cpp **** #include "global_variables.h"
   3:/home/brendan/Dropbox/PhD/Code/LBM/2D LBFS/src/preprocessor.cpp **** #include <fstream>
   4:/home/brendan/Dropbox/PhD/Code/LBM/2D LBFS/src/preprocessor.cpp **** #include "tinyxml2.h"
   5:/home/brendan/Dropbox/PhD/Code/LBM/2D LBFS/src/preprocessor.cpp **** #include <sstream>
   6:/home/brendan/Dropbox/PhD/Code/LBM/2D LBFS/src/preprocessor.cpp **** #include "initial_conditions.h"
GAS LISTING /tmp/cc7pRhJa.s 			page 15


   7:/home/brendan/Dropbox/PhD/Code/LBM/2D LBFS/src/preprocessor.cpp **** #include "quad_bcs_plus.h"
   8:/home/brendan/Dropbox/PhD/Code/LBM/2D LBFS/src/preprocessor.cpp **** 
   9:/home/brendan/Dropbox/PhD/Code/LBM/2D LBFS/src/preprocessor.cpp **** using namespace tinyxml2;
  10:/home/brendan/Dropbox/PhD/Code/LBM/2D LBFS/src/preprocessor.cpp **** 
  11:/home/brendan/Dropbox/PhD/Code/LBM/2D LBFS/src/preprocessor.cpp **** preprocessor::preprocessor()
  85              		.loc 2 11 0
  86              		.cfi_startproc
  87 0000 55       		pushq	%rbp
  88              		.cfi_def_cfa_offset 16
  89              		.cfi_offset 6, -16
  90 0001 4889E5   		movq	%rsp, %rbp
  91              		.cfi_def_cfa_register 6
  92 0004 48897DF8 		movq	%rdi, -8(%rbp)
  93              	.LBB2:
  94              		.loc 2 11 0
  95 0008 BA000000 		movl	$_ZTV12preprocessor+16, %edx
  95      00
  96 000d 488B45F8 		movq	-8(%rbp), %rax
  97 0011 488910   		movq	%rdx, (%rax)
  98              	.LBE2:
  12:/home/brendan/Dropbox/PhD/Code/LBM/2D LBFS/src/preprocessor.cpp **** {
  13:/home/brendan/Dropbox/PhD/Code/LBM/2D LBFS/src/preprocessor.cpp ****     //ctor
  14:/home/brendan/Dropbox/PhD/Code/LBM/2D LBFS/src/preprocessor.cpp **** 
  15:/home/brendan/Dropbox/PhD/Code/LBM/2D LBFS/src/preprocessor.cpp **** }
  99              		.loc 2 15 0
 100 0014 90       		nop
 101 0015 5D       		popq	%rbp
 102              		.cfi_def_cfa 7, 8
 103 0016 C3       		ret
 104              		.cfi_endproc
 105              	.LFE1773:
 107              		.globl	_ZN12preprocessorC1Ev
 108              		.set	_ZN12preprocessorC1Ev,_ZN12preprocessorC2Ev
 109 0017 90       		.align 2
 110              		.globl	_ZN12preprocessorD2Ev
 112              	_ZN12preprocessorD2Ev:
 113              	.LFB1776:
  16:/home/brendan/Dropbox/PhD/Code/LBM/2D LBFS/src/preprocessor.cpp **** 
  17:/home/brendan/Dropbox/PhD/Code/LBM/2D LBFS/src/preprocessor.cpp **** preprocessor::~preprocessor()
 114              		.loc 2 17 0
 115              		.cfi_startproc
 116 0018 55       		pushq	%rbp
 117              		.cfi_def_cfa_offset 16
 118              		.cfi_offset 6, -16
 119 0019 4889E5   		movq	%rsp, %rbp
 120              		.cfi_def_cfa_register 6
 121 001c 4883EC10 		subq	$16, %rsp
 122 0020 48897DF8 		movq	%rdi, -8(%rbp)
 123              	.LBB3:
 124              		.loc 2 17 0
 125 0024 BA000000 		movl	$_ZTV12preprocessor+16, %edx
 125      00
 126 0029 488B45F8 		movq	-8(%rbp), %rax
 127 002d 488910   		movq	%rdx, (%rax)
 128              	.LBE3:
  18:/home/brendan/Dropbox/PhD/Code/LBM/2D LBFS/src/preprocessor.cpp **** {
  19:/home/brendan/Dropbox/PhD/Code/LBM/2D LBFS/src/preprocessor.cpp ****     //dtor
GAS LISTING /tmp/cc7pRhJa.s 			page 16


  20:/home/brendan/Dropbox/PhD/Code/LBM/2D LBFS/src/preprocessor.cpp **** }
 129              		.loc 2 20 0
 130 0030 B8000000 		movl	$0, %eax
 130      00
 131 0035 85C0     		testl	%eax, %eax
 132 0037 740C     		je	.L6
 133              		.loc 2 20 0 is_stmt 0 discriminator 1
 134 0039 488B45F8 		movq	-8(%rbp), %rax
 135 003d 4889C7   		movq	%rax, %rdi
 136 0040 E8000000 		call	_ZdlPv
 136      00
 137              	.L6:
 138              		.loc 2 20 0
 139 0045 C9       		leave
 140              		.cfi_def_cfa 7, 8
 141 0046 C3       		ret
 142              		.cfi_endproc
 143              	.LFE1776:
 145              		.globl	_ZN12preprocessorD1Ev
 146              		.set	_ZN12preprocessorD1Ev,_ZN12preprocessorD2Ev
 147 0047 90       		.align 2
 148              		.globl	_ZN12preprocessorD0Ev
 150              	_ZN12preprocessorD0Ev:
 151              	.LFB1778:
  17:/home/brendan/Dropbox/PhD/Code/LBM/2D LBFS/src/preprocessor.cpp **** {
 152              		.loc 2 17 0 is_stmt 1
 153              		.cfi_startproc
 154 0048 55       		pushq	%rbp
 155              		.cfi_def_cfa_offset 16
 156              		.cfi_offset 6, -16
 157 0049 4889E5   		movq	%rsp, %rbp
 158              		.cfi_def_cfa_register 6
 159 004c 4883EC10 		subq	$16, %rsp
 160 0050 48897DF8 		movq	%rdi, -8(%rbp)
 161              		.loc 2 20 0
 162 0054 488B45F8 		movq	-8(%rbp), %rax
 163 0058 4889C7   		movq	%rax, %rdi
 164 005b E8000000 		call	_ZN12preprocessorD1Ev
 164      00
 165 0060 488B45F8 		movq	-8(%rbp), %rax
 166 0064 4889C7   		movq	%rax, %rdi
 167 0067 E8000000 		call	_ZdlPv
 167      00
 168 006c C9       		leave
 169              		.cfi_def_cfa 7, 8
 170 006d C3       		ret
 171              		.cfi_endproc
 172              	.LFE1778:
 174              		.section	.text._ZN15domain_geometryC2ERKS_,"axG",@progbits,_ZN15domain_geometryC5ERKS_,comdat
 175              		.align 2
 176              		.weak	_ZN15domain_geometryC2ERKS_
 178              	_ZN15domain_geometryC2ERKS_:
 179              	.LFB1781:
 180              		.file 3 "include/domain_geometry.h"
   1:include/domain_geometry.h **** #ifndef DOMAIN_GEOMETRY_H
   2:include/domain_geometry.h **** #define DOMAIN_GEOMETRY_H
   3:include/domain_geometry.h **** 
GAS LISTING /tmp/cc7pRhJa.s 			page 17


   4:include/domain_geometry.h **** 
   5:include/domain_geometry.h **** class domain_geometry
 181              		.loc 3 5 0
 182              		.cfi_startproc
 183 0000 55       		pushq	%rbp
 184              		.cfi_def_cfa_offset 16
 185              		.cfi_offset 6, -16
 186 0001 4889E5   		movq	%rsp, %rbp
 187              		.cfi_def_cfa_register 6
 188 0004 48897DF8 		movq	%rdi, -8(%rbp)
 189 0008 488975F0 		movq	%rsi, -16(%rbp)
 190              	.LBB4:
 191              		.loc 3 5 0
 192 000c BA000000 		movl	$_ZTV15domain_geometry+16, %edx
 192      00
 193 0011 488B45F8 		movq	-8(%rbp), %rax
 194 0015 488910   		movq	%rdx, (%rax)
 195 0018 488B45F0 		movq	-16(%rbp), %rax
 196 001c F20F1040 		movsd	8(%rax), %xmm0
 196      08
 197 0021 488B45F8 		movq	-8(%rbp), %rax
 198 0025 F20F1140 		movsd	%xmm0, 8(%rax)
 198      08
 199 002a 488B45F0 		movq	-16(%rbp), %rax
 200 002e F20F1040 		movsd	16(%rax), %xmm0
 200      10
 201 0033 488B45F8 		movq	-8(%rbp), %rax
 202 0037 F20F1140 		movsd	%xmm0, 16(%rax)
 202      10
 203 003c 488B45F0 		movq	-16(%rbp), %rax
 204 0040 F20F1040 		movsd	24(%rax), %xmm0
 204      18
 205 0045 488B45F8 		movq	-8(%rbp), %rax
 206 0049 F20F1140 		movsd	%xmm0, 24(%rax)
 206      18
 207 004e 488B45F0 		movq	-16(%rbp), %rax
 208 0052 F20F1040 		movsd	32(%rax), %xmm0
 208      20
 209 0057 488B45F8 		movq	-8(%rbp), %rax
 210 005b F20F1140 		movsd	%xmm0, 32(%rax)
 210      20
 211 0060 488B45F0 		movq	-16(%rbp), %rax
 212 0064 F20F1040 		movsd	40(%rax), %xmm0
 212      28
 213 0069 488B45F8 		movq	-8(%rbp), %rax
 214 006d F20F1140 		movsd	%xmm0, 40(%rax)
 214      28
 215 0072 488B45F0 		movq	-16(%rbp), %rax
 216 0076 F20F1040 		movsd	48(%rax), %xmm0
 216      30
 217 007b 488B45F8 		movq	-8(%rbp), %rax
 218 007f F20F1140 		movsd	%xmm0, 48(%rax)
 218      30
 219              	.LBE4:
 220 0084 90       		nop
 221 0085 5D       		popq	%rbp
 222              		.cfi_def_cfa 7, 8
GAS LISTING /tmp/cc7pRhJa.s 			page 18


 223 0086 C3       		ret
 224              		.cfi_endproc
 225              	.LFE1781:
 227              		.weak	_ZN15domain_geometryC1ERKS_
 228              		.set	_ZN15domain_geometryC1ERKS_,_ZN15domain_geometryC2ERKS_
 229              		.text
 230              		.align 2
 231              		.globl	_ZN12preprocessor28initialise_program_variablesEPcR16global_variablesR15domain_geometryR18i
 233              	_ZN12preprocessor28initialise_program_variablesEPcR16global_variablesR15domain_geometryR18initial_c
 234              	.LFB1779:
  21:/home/brendan/Dropbox/PhD/Code/LBM/2D LBFS/src/preprocessor.cpp **** 
  22:/home/brendan/Dropbox/PhD/Code/LBM/2D LBFS/src/preprocessor.cpp **** void preprocessor::initialise_program_variables(char* xmltest, global_variables &globals, domain_ge
  23:/home/brendan/Dropbox/PhD/Code/LBM/2D LBFS/src/preprocessor.cpp ****                                                 initial_conditions &initial_conds, quad_bcs_plus &b
 235              		.loc 2 23 0
 236              		.cfi_startproc
 237              		.cfi_personality 0x3,__gxx_personality_v0
 238              		.cfi_lsda 0x3,.LLSDA1779
 239 006e 55       		pushq	%rbp
 240              		.cfi_def_cfa_offset 16
 241              		.cfi_offset 6, -16
 242 006f 4889E5   		movq	%rsp, %rbp
 243              		.cfi_def_cfa_register 6
 244 0072 53       		pushq	%rbx
 245 0073 4881EC18 		subq	$792, %rsp
 245      030000
 246              		.cfi_offset 3, -24
 247 007a 4889BD08 		movq	%rdi, -760(%rbp)
 247      FDFFFF
 248 0081 4889B500 		movq	%rsi, -768(%rbp)
 248      FDFFFF
 249 0088 488995F8 		movq	%rdx, -776(%rbp)
 249      FCFFFF
 250 008f 48898DF0 		movq	%rcx, -784(%rbp)
 250      FCFFFF
 251 0096 4C8985E8 		movq	%r8, -792(%rbp)
 251      FCFFFF
 252 009d 4C898DE0 		movq	%r9, -800(%rbp)
 252      FCFFFF
 253              		.loc 2 23 0
 254 00a4 64488B04 		movq	%fs:40, %rax
 254      25280000 
 254      00
 255 00ad 488945E8 		movq	%rax, -24(%rbp)
 256 00b1 31C0     		xorl	%eax, %eax
  24:/home/brendan/Dropbox/PhD/Code/LBM/2D LBFS/src/preprocessor.cpp **** 
  25:/home/brendan/Dropbox/PhD/Code/LBM/2D LBFS/src/preprocessor.cpp ****     XMLDocument xmlDoc;
 257              		.loc 2 25 0
 258 00b3 488D8560 		leaq	-672(%rbp), %rax
 258      FDFFFF
 259 00ba BA000000 		movl	$0, %edx
 259      00
 260 00bf BE010000 		movl	$1, %esi
 260      00
 261 00c4 4889C7   		movq	%rax, %rdi
 262              	.LEHB0:
 263 00c7 E8000000 		call	_ZN8tinyxml211XMLDocumentC1EbNS_10WhitespaceE
 263      00
GAS LISTING /tmp/cc7pRhJa.s 			page 19


 264              	.LEHE0:
  26:/home/brendan/Dropbox/PhD/Code/LBM/2D LBFS/src/preprocessor.cpp **** 
  27:/home/brendan/Dropbox/PhD/Code/LBM/2D LBFS/src/preprocessor.cpp ****     XMLError eResult = xmlDoc.LoadFile(xmltest);
 265              		.loc 2 27 0
 266 00cc 488B9500 		movq	-768(%rbp), %rdx
 266      FDFFFF
 267 00d3 488D8560 		leaq	-672(%rbp), %rax
 267      FDFFFF
 268 00da 4889D6   		movq	%rdx, %rsi
 269 00dd 4889C7   		movq	%rax, %rdi
 270              	.LEHB1:
 271 00e0 E8000000 		call	_ZN8tinyxml211XMLDocument8LoadFileEPKc
 271      00
 272 00e5 89851CFD 		movl	%eax, -740(%rbp)
 272      FFFF
  28:/home/brendan/Dropbox/PhD/Code/LBM/2D LBFS/src/preprocessor.cpp **** 
  29:/home/brendan/Dropbox/PhD/Code/LBM/2D LBFS/src/preprocessor.cpp **** 
  30:/home/brendan/Dropbox/PhD/Code/LBM/2D LBFS/src/preprocessor.cpp ****     parse_global_variables(xmlDoc,  globals);
 273              		.loc 2 30 0
 274 00eb 488B95F8 		movq	-776(%rbp), %rdx
 274      FCFFFF
 275 00f2 488D8D60 		leaq	-672(%rbp), %rcx
 275      FDFFFF
 276 00f9 488B8508 		movq	-760(%rbp), %rax
 276      FDFFFF
 277 0100 4889CE   		movq	%rcx, %rsi
 278 0103 4889C7   		movq	%rax, %rdi
 279 0106 E8000000 		call	_ZN12preprocessor22parse_global_variablesERN8tinyxml211XMLDocumentER16global_variables
 279      00
  31:/home/brendan/Dropbox/PhD/Code/LBM/2D LBFS/src/preprocessor.cpp ****     parse_geometry_variables(xmlDoc,  geometry);
 280              		.loc 2 31 0
 281 010b 488B95F0 		movq	-784(%rbp), %rdx
 281      FCFFFF
 282 0112 488D8D60 		leaq	-672(%rbp), %rcx
 282      FDFFFF
 283 0119 488B8508 		movq	-760(%rbp), %rax
 283      FDFFFF
 284 0120 4889CE   		movq	%rcx, %rsi
 285 0123 4889C7   		movq	%rax, %rdi
 286 0126 E8000000 		call	_ZN12preprocessor24parse_geometry_variablesERN8tinyxml211XMLDocumentER15domain_geometry
 286      00
  32:/home/brendan/Dropbox/PhD/Code/LBM/2D LBFS/src/preprocessor.cpp ****     parse_initial_conditions(xmlDoc, initial_conds);
 287              		.loc 2 32 0
 288 012b 488B95E8 		movq	-792(%rbp), %rdx
 288      FCFFFF
 289 0132 488D8D60 		leaq	-672(%rbp), %rcx
 289      FDFFFF
 290 0139 488B8508 		movq	-760(%rbp), %rax
 290      FDFFFF
 291 0140 4889CE   		movq	%rcx, %rsi
 292 0143 4889C7   		movq	%rax, %rdi
 293 0146 E8000000 		call	_ZN12preprocessor24parse_initial_conditionsERN8tinyxml211XMLDocumentER18initial_conditions
 293      00
  33:/home/brendan/Dropbox/PhD/Code/LBM/2D LBFS/src/preprocessor.cpp ****     parse_boundary_conditions(xmlDoc, bcs);
 294              		.loc 2 33 0
 295 014b 488B95E0 		movq	-800(%rbp), %rdx
 295      FCFFFF
GAS LISTING /tmp/cc7pRhJa.s 			page 20


 296 0152 488D8D60 		leaq	-672(%rbp), %rcx
 296      FDFFFF
 297 0159 488B8508 		movq	-760(%rbp), %rax
 297      FDFFFF
 298 0160 4889CE   		movq	%rcx, %rsi
 299 0163 4889C7   		movq	%rax, %rdi
 300 0166 E8000000 		call	_ZN12preprocessor25parse_boundary_conditionsERN8tinyxml211XMLDocumentER13quad_bcs_plus
 300      00
 301              	.LEHE1:
  34:/home/brendan/Dropbox/PhD/Code/LBM/2D LBFS/src/preprocessor.cpp **** 
  35:/home/brendan/Dropbox/PhD/Code/LBM/2D LBFS/src/preprocessor.cpp ****     mach_number_factor(globals,bcs,initial_conds,geometry);
 302              		.loc 2 35 0
 303 016b 488BBDF0 		movq	-784(%rbp), %rdi
 303      FCFFFF
 304 0172 488B8DE8 		movq	-792(%rbp), %rcx
 304      FCFFFF
 305 0179 488B95E0 		movq	-800(%rbp), %rdx
 305      FCFFFF
 306 0180 488BB5F8 		movq	-776(%rbp), %rsi
 306      FCFFFF
 307 0187 488B8508 		movq	-760(%rbp), %rax
 307      FDFFFF
 308 018e 4989F8   		movq	%rdi, %r8
 309 0191 4889C7   		movq	%rax, %rdi
 310 0194 E8000000 		call	_ZN12preprocessor18mach_number_factorER16global_variablesR13quad_bcs_plusR18initial_condition
 310      00
  36:/home/brendan/Dropbox/PhD/Code/LBM/2D LBFS/src/preprocessor.cpp **** 
  37:/home/brendan/Dropbox/PhD/Code/LBM/2D LBFS/src/preprocessor.cpp ****     globals.initialise(geometry);
 311              		.loc 2 37 0
 312 0199 488B95F0 		movq	-784(%rbp), %rdx
 312      FCFFFF
 313 01a0 488D8520 		leaq	-736(%rbp), %rax
 313      FDFFFF
 314 01a7 4889D6   		movq	%rdx, %rsi
 315 01aa 4889C7   		movq	%rax, %rdi
 316 01ad E8000000 		call	_ZN15domain_geometryC1ERKS_
 316      00
 317 01b2 488D9520 		leaq	-736(%rbp), %rdx
 317      FDFFFF
 318 01b9 488B85F8 		movq	-776(%rbp), %rax
 318      FCFFFF
 319 01c0 4889D6   		movq	%rdx, %rsi
 320 01c3 4889C7   		movq	%rax, %rdi
 321              	.LEHB2:
 322 01c6 E8000000 		call	_ZN16global_variables10initialiseE15domain_geometry
 322      00
 323              	.LEHE2:
 324              		.loc 2 37 0 is_stmt 0 discriminator 2
 325 01cb 488D8520 		leaq	-736(%rbp), %rax
 325      FDFFFF
 326 01d2 4889C7   		movq	%rax, %rdi
 327 01d5 E8000000 		call	_ZN15domain_geometryD1Ev
 327      00
  25:/home/brendan/Dropbox/PhD/Code/LBM/2D LBFS/src/preprocessor.cpp **** 
 328              		.loc 2 25 0 is_stmt 1 discriminator 2
 329 01da 488D8560 		leaq	-672(%rbp), %rax
 329      FDFFFF
GAS LISTING /tmp/cc7pRhJa.s 			page 21


 330 01e1 4889C7   		movq	%rax, %rdi
 331 01e4 E8000000 		call	_ZN8tinyxml211XMLDocumentD1Ev
 331      00
  38:/home/brendan/Dropbox/PhD/Code/LBM/2D LBFS/src/preprocessor.cpp **** 
  39:/home/brendan/Dropbox/PhD/Code/LBM/2D LBFS/src/preprocessor.cpp **** 
  40:/home/brendan/Dropbox/PhD/Code/LBM/2D LBFS/src/preprocessor.cpp **** }
 332              		.loc 2 40 0 discriminator 2
 333 01e9 90       		nop
 334 01ea 488B45E8 		movq	-24(%rbp), %rax
 335 01ee 64483304 		xorq	%fs:40, %rax
 335      25280000 
 335      00
 336 01f7 7438     		je	.L13
 337 01f9 EB31     		jmp	.L16
 338              	.L15:
 339 01fb 4889C3   		movq	%rax, %rbx
  37:/home/brendan/Dropbox/PhD/Code/LBM/2D LBFS/src/preprocessor.cpp **** 
 340              		.loc 2 37 0
 341 01fe 488D8520 		leaq	-736(%rbp), %rax
 341      FDFFFF
 342 0205 4889C7   		movq	%rax, %rdi
 343 0208 E8000000 		call	_ZN15domain_geometryD1Ev
 343      00
 344 020d EB03     		jmp	.L12
 345              	.L14:
 346 020f 4889C3   		movq	%rax, %rbx
 347              	.L12:
  25:/home/brendan/Dropbox/PhD/Code/LBM/2D LBFS/src/preprocessor.cpp **** 
 348              		.loc 2 25 0
 349 0212 488D8560 		leaq	-672(%rbp), %rax
 349      FDFFFF
 350 0219 4889C7   		movq	%rax, %rdi
 351 021c E8000000 		call	_ZN8tinyxml211XMLDocumentD1Ev
 351      00
 352 0221 4889D8   		movq	%rbx, %rax
 353 0224 4889C7   		movq	%rax, %rdi
 354              	.LEHB3:
 355 0227 E8000000 		call	_Unwind_Resume
 355      00
 356              	.LEHE3:
 357              	.L16:
 358              		.loc 2 40 0
 359 022c E8000000 		call	__stack_chk_fail
 359      00
 360              	.L13:
 361 0231 4881C418 		addq	$792, %rsp
 361      030000
 362 0238 5B       		popq	%rbx
 363 0239 5D       		popq	%rbp
 364              		.cfi_def_cfa 7, 8
 365 023a C3       		ret
 366              		.cfi_endproc
 367              	.LFE1779:
 368              		.globl	__gxx_personality_v0
 369              		.section	.gcc_except_table,"a",@progbits
 370              	.LLSDA1779:
 371 0000 FF       		.byte	0xff
GAS LISTING /tmp/cc7pRhJa.s 			page 22


 372 0001 FF       		.byte	0xff
 373 0002 01       		.byte	0x1
 374 0003 15       		.uleb128 .LLSDACSE1779-.LLSDACSB1779
 375              	.LLSDACSB1779:
 376 0004 59       		.uleb128 .LEHB0-.LFB1779
 377 0005 05       		.uleb128 .LEHE0-.LEHB0
 378 0006 00       		.uleb128 0
 379 0007 00       		.uleb128 0
 380 0008 72       		.uleb128 .LEHB1-.LFB1779
 381 0009 8B01     		.uleb128 .LEHE1-.LEHB1
 382 000b A103     		.uleb128 .L14-.LFB1779
 383 000d 00       		.uleb128 0
 384 000e D802     		.uleb128 .LEHB2-.LFB1779
 385 0010 05       		.uleb128 .LEHE2-.LEHB2
 386 0011 8D03     		.uleb128 .L15-.LFB1779
 387 0013 00       		.uleb128 0
 388 0014 B903     		.uleb128 .LEHB3-.LFB1779
 389 0016 05       		.uleb128 .LEHE3-.LEHB3
 390 0017 00       		.uleb128 0
 391 0018 00       		.uleb128 0
 392              	.LLSDACSE1779:
 393              		.text
 395 023b 90       		.align 2
 396              		.globl	_ZN12preprocessor18mach_number_factorER16global_variablesR13quad_bcs_plusR18initial_conditi
 398              	_ZN12preprocessor18mach_number_factorER16global_variablesR13quad_bcs_plusR18initial_conditionsR15do
 399              	.LFB1783:
  41:/home/brendan/Dropbox/PhD/Code/LBM/2D LBFS/src/preprocessor.cpp **** void preprocessor::mach_number_factor( global_variables &globals,quad_bcs_plus &bcs,
  42:/home/brendan/Dropbox/PhD/Code/LBM/2D LBFS/src/preprocessor.cpp ****         initial_conditions &initials,domain_geometry &geometry ){
 400              		.loc 2 42 0
 401              		.cfi_startproc
 402 023c 55       		pushq	%rbp
 403              		.cfi_def_cfa_offset 16
 404              		.cfi_offset 6, -16
 405 023d 4889E5   		movq	%rsp, %rbp
 406              		.cfi_def_cfa_register 6
 407 0240 48897DE8 		movq	%rdi, -24(%rbp)
 408 0244 488975E0 		movq	%rsi, -32(%rbp)
 409 0248 488955D8 		movq	%rdx, -40(%rbp)
 410 024c 48894DD0 		movq	%rcx, -48(%rbp)
 411 0250 4C8945C8 		movq	%r8, -56(%rbp)
  43:/home/brendan/Dropbox/PhD/Code/LBM/2D LBFS/src/preprocessor.cpp **** 
  44:/home/brendan/Dropbox/PhD/Code/LBM/2D LBFS/src/preprocessor.cpp **** 
  45:/home/brendan/Dropbox/PhD/Code/LBM/2D LBFS/src/preprocessor.cpp ****     double factor = globals.mach_number / sqrt(3) ;
 412              		.loc 2 45 0
 413 0254 488B45E0 		movq	-32(%rbp), %rax
 414 0258 F20F1040 		movsd	80(%rax), %xmm0
 414      50
 415 025d F20F100D 		movsd	.LC0(%rip), %xmm1
 415      00000000 
 416 0265 F20F5EC1 		divsd	%xmm1, %xmm0
 417 0269 F20F1145 		movsd	%xmm0, -8(%rbp)
 417      F8
  46:/home/brendan/Dropbox/PhD/Code/LBM/2D LBFS/src/preprocessor.cpp **** 
  47:/home/brendan/Dropbox/PhD/Code/LBM/2D LBFS/src/preprocessor.cpp ****     bcs.e_u = bcs.e_u * factor;
 418              		.loc 2 47 0
 419 026e 488B45D8 		movq	-40(%rbp), %rax
 420 0272 F20F1040 		movsd	80(%rax), %xmm0
GAS LISTING /tmp/cc7pRhJa.s 			page 23


 420      50
 421 0277 F20F5945 		mulsd	-8(%rbp), %xmm0
 421      F8
 422 027c 488B45D8 		movq	-40(%rbp), %rax
 423 0280 F20F1140 		movsd	%xmm0, 80(%rax)
 423      50
  48:/home/brendan/Dropbox/PhD/Code/LBM/2D LBFS/src/preprocessor.cpp ****     bcs.w_u = bcs.w_u * factor;
 424              		.loc 2 48 0
 425 0285 488B45D8 		movq	-40(%rbp), %rax
 426 0289 F20F1040 		movsd	16(%rax), %xmm0
 426      10
 427 028e F20F5945 		mulsd	-8(%rbp), %xmm0
 427      F8
 428 0293 488B45D8 		movq	-40(%rbp), %rax
 429 0297 F20F1140 		movsd	%xmm0, 16(%rax)
 429      10
  49:/home/brendan/Dropbox/PhD/Code/LBM/2D LBFS/src/preprocessor.cpp ****     bcs.n_u = bcs.n_u * factor;
 430              		.loc 2 49 0
 431 029c 488B45D8 		movq	-40(%rbp), %rax
 432 02a0 F20F1040 		movsd	112(%rax), %xmm0
 432      70
 433 02a5 F20F5945 		mulsd	-8(%rbp), %xmm0
 433      F8
 434 02aa 488B45D8 		movq	-40(%rbp), %rax
 435 02ae F20F1140 		movsd	%xmm0, 112(%rax)
 435      70
  50:/home/brendan/Dropbox/PhD/Code/LBM/2D LBFS/src/preprocessor.cpp ****     bcs.s_u = bcs.s_u *factor;
 436              		.loc 2 50 0
 437 02b3 488B45D8 		movq	-40(%rbp), %rax
 438 02b7 F20F1040 		movsd	48(%rax), %xmm0
 438      30
 439 02bc F20F5945 		mulsd	-8(%rbp), %xmm0
 439      F8
 440 02c1 488B45D8 		movq	-40(%rbp), %rax
 441 02c5 F20F1140 		movsd	%xmm0, 48(%rax)
 441      30
  51:/home/brendan/Dropbox/PhD/Code/LBM/2D LBFS/src/preprocessor.cpp **** 
  52:/home/brendan/Dropbox/PhD/Code/LBM/2D LBFS/src/preprocessor.cpp ****     bcs.e_v = bcs.e_v * factor;
 442              		.loc 2 52 0
 443 02ca 488B45D8 		movq	-40(%rbp), %rax
 444 02ce F20F1040 		movsd	88(%rax), %xmm0
 444      58
 445 02d3 F20F5945 		mulsd	-8(%rbp), %xmm0
 445      F8
 446 02d8 488B45D8 		movq	-40(%rbp), %rax
 447 02dc F20F1140 		movsd	%xmm0, 88(%rax)
 447      58
  53:/home/brendan/Dropbox/PhD/Code/LBM/2D LBFS/src/preprocessor.cpp ****     bcs.w_v = bcs.w_v * factor;
 448              		.loc 2 53 0
 449 02e1 488B45D8 		movq	-40(%rbp), %rax
 450 02e5 F20F1040 		movsd	24(%rax), %xmm0
 450      18
 451 02ea F20F5945 		mulsd	-8(%rbp), %xmm0
 451      F8
 452 02ef 488B45D8 		movq	-40(%rbp), %rax
 453 02f3 F20F1140 		movsd	%xmm0, 24(%rax)
 453      18
GAS LISTING /tmp/cc7pRhJa.s 			page 24


  54:/home/brendan/Dropbox/PhD/Code/LBM/2D LBFS/src/preprocessor.cpp ****     bcs.n_v = bcs.n_v * factor;
 454              		.loc 2 54 0
 455 02f8 488B45D8 		movq	-40(%rbp), %rax
 456 02fc F20F1040 		movsd	120(%rax), %xmm0
 456      78
 457 0301 F20F5945 		mulsd	-8(%rbp), %xmm0
 457      F8
 458 0306 488B45D8 		movq	-40(%rbp), %rax
 459 030a F20F1140 		movsd	%xmm0, 120(%rax)
 459      78
  55:/home/brendan/Dropbox/PhD/Code/LBM/2D LBFS/src/preprocessor.cpp ****     bcs.s_v = bcs.s_v *factor;
 460              		.loc 2 55 0
 461 030f 488B45D8 		movq	-40(%rbp), %rax
 462 0313 F20F1040 		movsd	56(%rax), %xmm0
 462      38
 463 0318 F20F5945 		mulsd	-8(%rbp), %xmm0
 463      F8
 464 031d 488B45D8 		movq	-40(%rbp), %rax
 465 0321 F20F1140 		movsd	%xmm0, 56(%rax)
 465      38
  56:/home/brendan/Dropbox/PhD/Code/LBM/2D LBFS/src/preprocessor.cpp **** 
  57:/home/brendan/Dropbox/PhD/Code/LBM/2D LBFS/src/preprocessor.cpp ****     initials.vel_gradient.x = initials.vel_gradient.x * factor ;
 466              		.loc 2 57 0
 467 0326 488B45D0 		movq	-48(%rbp), %rax
 468 032a F20F1080 		movsd	152(%rax), %xmm0
 468      98000000 
 469 0332 F20F5945 		mulsd	-8(%rbp), %xmm0
 469      F8
 470 0337 488B45D0 		movq	-48(%rbp), %rax
 471 033b F20F1180 		movsd	%xmm0, 152(%rax)
 471      98000000 
  58:/home/brendan/Dropbox/PhD/Code/LBM/2D LBFS/src/preprocessor.cpp ****     initials.vel_gradient.y = initials.vel_gradient.y * factor;
 472              		.loc 2 58 0
 473 0343 488B45D0 		movq	-48(%rbp), %rax
 474 0347 F20F1080 		movsd	160(%rax), %xmm0
 474      A0000000 
 475 034f F20F5945 		mulsd	-8(%rbp), %xmm0
 475      F8
 476 0354 488B45D0 		movq	-48(%rbp), %rax
 477 0358 F20F1180 		movsd	%xmm0, 160(%rax)
 477      A0000000 
  59:/home/brendan/Dropbox/PhD/Code/LBM/2D LBFS/src/preprocessor.cpp ****     initials.vel_gradient.z = initials.vel_gradient.z * factor;
 478              		.loc 2 59 0
 479 0360 488B45D0 		movq	-48(%rbp), %rax
 480 0364 F20F1080 		movsd	168(%rax), %xmm0
 480      A8000000 
 481 036c F20F5945 		mulsd	-8(%rbp), %xmm0
 481      F8
 482 0371 488B45D0 		movq	-48(%rbp), %rax
 483 0375 F20F1180 		movsd	%xmm0, 168(%rax)
 483      A8000000 
  60:/home/brendan/Dropbox/PhD/Code/LBM/2D LBFS/src/preprocessor.cpp ****     initials.vel_origin_mag.x = initials.vel_origin_mag.x * factor;
 484              		.loc 2 60 0
 485 037d 488B45D0 		movq	-48(%rbp), %rax
 486 0381 F20F1080 		movsd	184(%rax), %xmm0
 486      B8000000 
 487 0389 F20F5945 		mulsd	-8(%rbp), %xmm0
GAS LISTING /tmp/cc7pRhJa.s 			page 25


 487      F8
 488 038e 488B45D0 		movq	-48(%rbp), %rax
 489 0392 F20F1180 		movsd	%xmm0, 184(%rax)
 489      B8000000 
  61:/home/brendan/Dropbox/PhD/Code/LBM/2D LBFS/src/preprocessor.cpp ****     initials.vel_origin_mag.y = initials.vel_origin_mag.y * factor;
 490              		.loc 2 61 0
 491 039a 488B45D0 		movq	-48(%rbp), %rax
 492 039e F20F1080 		movsd	192(%rax), %xmm0
 492      C0000000 
 493 03a6 F20F5945 		mulsd	-8(%rbp), %xmm0
 493      F8
 494 03ab 488B45D0 		movq	-48(%rbp), %rax
 495 03af F20F1180 		movsd	%xmm0, 192(%rax)
 495      C0000000 
  62:/home/brendan/Dropbox/PhD/Code/LBM/2D LBFS/src/preprocessor.cpp ****     initials.vel_origin_mag.z = initials.vel_origin_mag.z * factor;
 496              		.loc 2 62 0
 497 03b7 488B45D0 		movq	-48(%rbp), %rax
 498 03bb F20F1080 		movsd	200(%rax), %xmm0
 498      C8000000 
 499 03c3 F20F5945 		mulsd	-8(%rbp), %xmm0
 499      F8
 500 03c8 488B45D0 		movq	-48(%rbp), %rax
 501 03cc F20F1180 		movsd	%xmm0, 200(%rax)
 501      C8000000 
  63:/home/brendan/Dropbox/PhD/Code/LBM/2D LBFS/src/preprocessor.cpp **** 
  64:/home/brendan/Dropbox/PhD/Code/LBM/2D LBFS/src/preprocessor.cpp ****     initials.velocity.x = initials.velocity.x * factor;
 502              		.loc 2 64 0
 503 03d4 488B45D0 		movq	-48(%rbp), %rax
 504 03d8 F20F1040 		movsd	120(%rax), %xmm0
 504      78
 505 03dd F20F5945 		mulsd	-8(%rbp), %xmm0
 505      F8
 506 03e2 488B45D0 		movq	-48(%rbp), %rax
 507 03e6 F20F1140 		movsd	%xmm0, 120(%rax)
 507      78
  65:/home/brendan/Dropbox/PhD/Code/LBM/2D LBFS/src/preprocessor.cpp ****     initials.velocity.y = initials.velocity.y * factor;
 508              		.loc 2 65 0
 509 03eb 488B45D0 		movq	-48(%rbp), %rax
 510 03ef F20F1080 		movsd	128(%rax), %xmm0
 510      80000000 
 511 03f7 F20F5945 		mulsd	-8(%rbp), %xmm0
 511      F8
 512 03fc 488B45D0 		movq	-48(%rbp), %rax
 513 0400 F20F1180 		movsd	%xmm0, 128(%rax)
 513      80000000 
  66:/home/brendan/Dropbox/PhD/Code/LBM/2D LBFS/src/preprocessor.cpp ****     initials.velocity.z = initials.velocity.z * factor;
 514              		.loc 2 66 0
 515 0408 488B45D0 		movq	-48(%rbp), %rax
 516 040c F20F1080 		movsd	136(%rax), %xmm0
 516      88000000 
 517 0414 F20F5945 		mulsd	-8(%rbp), %xmm0
 517      F8
 518 0419 488B45D0 		movq	-48(%rbp), %rax
 519 041d F20F1180 		movsd	%xmm0, 136(%rax)
 519      88000000 
  67:/home/brendan/Dropbox/PhD/Code/LBM/2D LBFS/src/preprocessor.cpp **** 
  68:/home/brendan/Dropbox/PhD/Code/LBM/2D LBFS/src/preprocessor.cpp **** }
GAS LISTING /tmp/cc7pRhJa.s 			page 26


 520              		.loc 2 68 0
 521 0425 90       		nop
 522 0426 5D       		popq	%rbp
 523              		.cfi_def_cfa 7, 8
 524 0427 C3       		ret
 525              		.cfi_endproc
 526              	.LFE1783:
 528              		.section	.rodata
 529              	.LC1:
 530 0010 626F756E 		.string	"boundary_conditions"
 530      64617279 
 530      5F636F6E 
 530      64697469 
 530      6F6E7300 
 531              	.LC2:
 532 0024 72686F00 		.string	"rho"
 533              	.LC3:
 534 0028 77657374 		.string	"west"
 534      00
 535              	.LC4:
 536 002d 7500     		.string	"u"
 537              	.LC5:
 538 002f 7600     		.string	"v"
 539              	.LC6:
 540 0031 76656C5F 		.string	"vel_type"
 540      74797065 
 540      00
 541              	.LC7:
 542 003a 64697269 		.string	"dirichlet"
 542      63686C65 
 542      7400
 543              	.LC8:
 544 0044 6E65756D 		.string	"neumann"
 544      616E6E00 
 545              	.LC9:
 546 004c 70657269 		.string	"periodic"
 546      6F646963 
 546      00
 547              	.LC10:
 548 0055 70617261 		.string	"parabolic-N"
 548      626F6C69 
 548      632D4E00 
 549              	.LC11:
 550 0061 70617261 		.string	"parabolic-W"
 550      626F6C69 
 550      632D5700 
 551              	.LC12:
 552 006d 72686F5F 		.string	"rho_type"
 552      74797065 
 552      00
 553              	.LC13:
 554 0076 65617374 		.string	"east"
 554      00
 555              	.LC14:
 556 007b 6E6F7274 		.string	"north"
 556      6800
 557              	.LC15:
GAS LISTING /tmp/cc7pRhJa.s 			page 27


 558 0081 736F7574 		.string	"south"
 558      6800
 559              		.text
 560              		.align 2
 561              		.globl	_ZN12preprocessor25parse_boundary_conditionsERN8tinyxml211XMLDocumentER13quad_bcs_plus
 563              	_ZN12preprocessor25parse_boundary_conditionsERN8tinyxml211XMLDocumentER13quad_bcs_plus:
 564              	.LFB1784:
  69:/home/brendan/Dropbox/PhD/Code/LBM/2D LBFS/src/preprocessor.cpp **** void preprocessor::parse_boundary_conditions(XMLDocument &xmlDoc, quad_bcs_plus &bcs){
 565              		.loc 2 69 0
 566              		.cfi_startproc
 567              		.cfi_personality 0x3,__gxx_personality_v0
 568              		.cfi_lsda 0x3,.LLSDA1784
 569 0428 55       		pushq	%rbp
 570              		.cfi_def_cfa_offset 16
 571              		.cfi_offset 6, -16
 572 0429 4889E5   		movq	%rsp, %rbp
 573              		.cfi_def_cfa_register 6
 574 042c 53       		pushq	%rbx
 575 042d 4883EC68 		subq	$104, %rsp
 576              		.cfi_offset 3, -24
 577 0431 48897DA8 		movq	%rdi, -88(%rbp)
 578 0435 488975A0 		movq	%rsi, -96(%rbp)
 579 0439 48895598 		movq	%rdx, -104(%rbp)
 580              		.loc 2 69 0
 581 043d 64488B04 		movq	%fs:40, %rax
 581      25280000 
 581      00
 582 0446 488945E8 		movq	%rax, -24(%rbp)
 583 044a 31C0     		xorl	%eax, %eax
  70:/home/brendan/Dropbox/PhD/Code/LBM/2D LBFS/src/preprocessor.cpp **** 
  71:/home/brendan/Dropbox/PhD/Code/LBM/2D LBFS/src/preprocessor.cpp ****     const char* parent = "boundary_conditions";
 584              		.loc 2 71 0
 585 044c 48C745B8 		movq	$.LC1, -72(%rbp)
 585      00000000 
  72:/home/brendan/Dropbox/PhD/Code/LBM/2D LBFS/src/preprocessor.cpp **** 
  73:/home/brendan/Dropbox/PhD/Code/LBM/2D LBFS/src/preprocessor.cpp **** 
  74:/home/brendan/Dropbox/PhD/Code/LBM/2D LBFS/src/preprocessor.cpp **** 
  75:/home/brendan/Dropbox/PhD/Code/LBM/2D LBFS/src/preprocessor.cpp ****     /// WEST BCS
  76:/home/brendan/Dropbox/PhD/Code/LBM/2D LBFS/src/preprocessor.cpp ****     bcs.w_rho = get_xml_double(parent,"west","rho",xmlDoc);
 586              		.loc 2 76 0
 587 0454 488B55A0 		movq	-96(%rbp), %rdx
 588 0458 488B75B8 		movq	-72(%rbp), %rsi
 589 045c 488B45A8 		movq	-88(%rbp), %rax
 590 0460 4989D0   		movq	%rdx, %r8
 591 0463 B9000000 		movl	$.LC2, %ecx
 591      00
 592 0468 BA000000 		movl	$.LC3, %edx
 592      00
 593 046d 4889C7   		movq	%rax, %rdi
 594              	.LEHB4:
 595 0470 E8000000 		call	_ZN12preprocessor14get_xml_doubleEPKcS1_S1_RN8tinyxml211XMLDocumentE
 595      00
 596 0475 66480F7E 		movq	%xmm0, %rdx
 596      C2
 597 047a 488B4598 		movq	-104(%rbp), %rax
 598 047e 48895008 		movq	%rdx, 8(%rax)
  77:/home/brendan/Dropbox/PhD/Code/LBM/2D LBFS/src/preprocessor.cpp ****     bcs.w_u = get_xml_double(parent,"west","u",xmlDoc);
GAS LISTING /tmp/cc7pRhJa.s 			page 28


 599              		.loc 2 77 0
 600 0482 488B55A0 		movq	-96(%rbp), %rdx
 601 0486 488B75B8 		movq	-72(%rbp), %rsi
 602 048a 488B45A8 		movq	-88(%rbp), %rax
 603 048e 4989D0   		movq	%rdx, %r8
 604 0491 B9000000 		movl	$.LC4, %ecx
 604      00
 605 0496 BA000000 		movl	$.LC3, %edx
 605      00
 606 049b 4889C7   		movq	%rax, %rdi
 607 049e E8000000 		call	_ZN12preprocessor14get_xml_doubleEPKcS1_S1_RN8tinyxml211XMLDocumentE
 607      00
 608 04a3 66480F7E 		movq	%xmm0, %rdx
 608      C2
 609 04a8 488B4598 		movq	-104(%rbp), %rax
 610 04ac 48895010 		movq	%rdx, 16(%rax)
  78:/home/brendan/Dropbox/PhD/Code/LBM/2D LBFS/src/preprocessor.cpp ****     bcs.w_v = get_xml_double(parent,"west","v",xmlDoc);
 611              		.loc 2 78 0
 612 04b0 488B55A0 		movq	-96(%rbp), %rdx
 613 04b4 488B75B8 		movq	-72(%rbp), %rsi
 614 04b8 488B45A8 		movq	-88(%rbp), %rax
 615 04bc 4989D0   		movq	%rdx, %r8
 616 04bf B9000000 		movl	$.LC5, %ecx
 616      00
 617 04c4 BA000000 		movl	$.LC3, %edx
 617      00
 618 04c9 4889C7   		movq	%rax, %rdi
 619 04cc E8000000 		call	_ZN12preprocessor14get_xml_doubleEPKcS1_S1_RN8tinyxml211XMLDocumentE
 619      00
 620              	.LEHE4:
 621 04d1 66480F7E 		movq	%xmm0, %rdx
 621      C2
 622 04d6 488B4598 		movq	-104(%rbp), %rax
 623 04da 48895018 		movq	%rdx, 24(%rax)
  79:/home/brendan/Dropbox/PhD/Code/LBM/2D LBFS/src/preprocessor.cpp ****     std::string temp;
 624              		.loc 2 79 0
 625 04de 488D45C0 		leaq	-64(%rbp), %rax
 626 04e2 4889C7   		movq	%rax, %rdi
 627 04e5 E8000000 		call	_ZNSt7__cxx1112basic_stringIcSt11char_traitsIcESaIcEEC1Ev
 627      00
  80:/home/brendan/Dropbox/PhD/Code/LBM/2D LBFS/src/preprocessor.cpp **** 
  81:/home/brendan/Dropbox/PhD/Code/LBM/2D LBFS/src/preprocessor.cpp ****     temp = get_xml_text(parent,"west","vel_type",xmlDoc);
 628              		.loc 2 81 0
 629 04ea 488B55A0 		movq	-96(%rbp), %rdx
 630 04ee 488B75B8 		movq	-72(%rbp), %rsi
 631 04f2 488B45A8 		movq	-88(%rbp), %rax
 632 04f6 4989D0   		movq	%rdx, %r8
 633 04f9 B9000000 		movl	$.LC6, %ecx
 633      00
 634 04fe BA000000 		movl	$.LC3, %edx
 634      00
 635 0503 4889C7   		movq	%rax, %rdi
 636              	.LEHB5:
 637 0506 E8000000 		call	_ZN12preprocessor12get_xml_textEPKcS1_S1_RN8tinyxml211XMLDocumentE
 637      00
 638 050b 4889C2   		movq	%rax, %rdx
 639 050e 488D45C0 		leaq	-64(%rbp), %rax
GAS LISTING /tmp/cc7pRhJa.s 			page 29


 640 0512 4889D6   		movq	%rdx, %rsi
 641 0515 4889C7   		movq	%rax, %rdi
 642 0518 E8000000 		call	_ZNSt7__cxx1112basic_stringIcSt11char_traitsIcESaIcEEaSEPKc
 642      00
  82:/home/brendan/Dropbox/PhD/Code/LBM/2D LBFS/src/preprocessor.cpp ****     if (temp.compare("dirichlet") == 0){
 643              		.loc 2 82 0
 644 051d 488D45C0 		leaq	-64(%rbp), %rax
 645 0521 BE000000 		movl	$.LC7, %esi
 645      00
 646 0526 4889C7   		movq	%rax, %rdi
 647 0529 E8000000 		call	_ZNKSt7__cxx1112basic_stringIcSt11char_traitsIcESaIcEE7compareEPKc
 647      00
 648 052e 85C0     		testl	%eax, %eax
 649 0530 0F94C0   		sete	%al
 650 0533 84C0     		testb	%al, %al
 651 0535 7413     		je	.L19
  83:/home/brendan/Dropbox/PhD/Code/LBM/2D LBFS/src/preprocessor.cpp ****         bcs.w_type_vel = 1;
 652              		.loc 2 83 0
 653 0537 488B4598 		movq	-104(%rbp), %rax
 654 053b C7809800 		movl	$1, 152(%rax)
 654      00000100 
 654      0000
 655 0545 E9A60000 		jmp	.L20
 655      00
 656              	.L19:
  84:/home/brendan/Dropbox/PhD/Code/LBM/2D LBFS/src/preprocessor.cpp ****     }else if ( temp.compare("neumann") == 0){
 657              		.loc 2 84 0
 658 054a 488D45C0 		leaq	-64(%rbp), %rax
 659 054e BE000000 		movl	$.LC8, %esi
 659      00
 660 0553 4889C7   		movq	%rax, %rdi
 661 0556 E8000000 		call	_ZNKSt7__cxx1112basic_stringIcSt11char_traitsIcESaIcEE7compareEPKc
 661      00
 662 055b 85C0     		testl	%eax, %eax
 663 055d 0F94C0   		sete	%al
 664 0560 84C0     		testb	%al, %al
 665 0562 7410     		je	.L21
  85:/home/brendan/Dropbox/PhD/Code/LBM/2D LBFS/src/preprocessor.cpp ****         bcs.w_type_vel = 2;
 666              		.loc 2 85 0
 667 0564 488B4598 		movq	-104(%rbp), %rax
 668 0568 C7809800 		movl	$2, 152(%rax)
 668      00000200 
 668      0000
 669 0572 EB7C     		jmp	.L20
 670              	.L21:
  86:/home/brendan/Dropbox/PhD/Code/LBM/2D LBFS/src/preprocessor.cpp ****     }else if ( temp.compare("periodic") == 0){
 671              		.loc 2 86 0
 672 0574 488D45C0 		leaq	-64(%rbp), %rax
 673 0578 BE000000 		movl	$.LC9, %esi
 673      00
 674 057d 4889C7   		movq	%rax, %rdi
 675 0580 E8000000 		call	_ZNKSt7__cxx1112basic_stringIcSt11char_traitsIcESaIcEE7compareEPKc
 675      00
 676 0585 85C0     		testl	%eax, %eax
 677 0587 0F94C0   		sete	%al
 678 058a 84C0     		testb	%al, %al
 679 058c 7410     		je	.L22
GAS LISTING /tmp/cc7pRhJa.s 			page 30


  87:/home/brendan/Dropbox/PhD/Code/LBM/2D LBFS/src/preprocessor.cpp ****         bcs.w_type_vel = 3;
 680              		.loc 2 87 0
 681 058e 488B4598 		movq	-104(%rbp), %rax
 682 0592 C7809800 		movl	$3, 152(%rax)
 682      00000300 
 682      0000
 683 059c EB52     		jmp	.L20
 684              	.L22:
  88:/home/brendan/Dropbox/PhD/Code/LBM/2D LBFS/src/preprocessor.cpp ****     }else if ( temp.compare("parabolic-N") == 0){
 685              		.loc 2 88 0
 686 059e 488D45C0 		leaq	-64(%rbp), %rax
 687 05a2 BE000000 		movl	$.LC10, %esi
 687      00
 688 05a7 4889C7   		movq	%rax, %rdi
 689 05aa E8000000 		call	_ZNKSt7__cxx1112basic_stringIcSt11char_traitsIcESaIcEE7compareEPKc
 689      00
 690 05af 85C0     		testl	%eax, %eax
 691 05b1 0F94C0   		sete	%al
 692 05b4 84C0     		testb	%al, %al
 693 05b6 7410     		je	.L23
  89:/home/brendan/Dropbox/PhD/Code/LBM/2D LBFS/src/preprocessor.cpp ****         bcs.w_type_vel = 4;
 694              		.loc 2 89 0
 695 05b8 488B4598 		movq	-104(%rbp), %rax
 696 05bc C7809800 		movl	$4, 152(%rax)
 696      00000400 
 696      0000
 697 05c6 EB28     		jmp	.L20
 698              	.L23:
  90:/home/brendan/Dropbox/PhD/Code/LBM/2D LBFS/src/preprocessor.cpp ****     }else if ( temp.compare("parabolic-W") == 0){
 699              		.loc 2 90 0
 700 05c8 488D45C0 		leaq	-64(%rbp), %rax
 701 05cc BE000000 		movl	$.LC11, %esi
 701      00
 702 05d1 4889C7   		movq	%rax, %rdi
 703 05d4 E8000000 		call	_ZNKSt7__cxx1112basic_stringIcSt11char_traitsIcESaIcEE7compareEPKc
 703      00
 704 05d9 85C0     		testl	%eax, %eax
 705 05db 0F94C0   		sete	%al
 706 05de 84C0     		testb	%al, %al
 707 05e0 740E     		je	.L20
  91:/home/brendan/Dropbox/PhD/Code/LBM/2D LBFS/src/preprocessor.cpp ****         bcs.w_type_vel = 5;
 708              		.loc 2 91 0
 709 05e2 488B4598 		movq	-104(%rbp), %rax
 710 05e6 C7809800 		movl	$5, 152(%rax)
 710      00000500 
 710      0000
 711              	.L20:
  92:/home/brendan/Dropbox/PhD/Code/LBM/2D LBFS/src/preprocessor.cpp ****     }
  93:/home/brendan/Dropbox/PhD/Code/LBM/2D LBFS/src/preprocessor.cpp **** 
  94:/home/brendan/Dropbox/PhD/Code/LBM/2D LBFS/src/preprocessor.cpp **** 
  95:/home/brendan/Dropbox/PhD/Code/LBM/2D LBFS/src/preprocessor.cpp **** 
  96:/home/brendan/Dropbox/PhD/Code/LBM/2D LBFS/src/preprocessor.cpp ****     temp = get_xml_text(parent,"west","rho_type",xmlDoc);
 712              		.loc 2 96 0
 713 05f0 488B55A0 		movq	-96(%rbp), %rdx
 714 05f4 488B75B8 		movq	-72(%rbp), %rsi
 715 05f8 488B45A8 		movq	-88(%rbp), %rax
 716 05fc 4989D0   		movq	%rdx, %r8
GAS LISTING /tmp/cc7pRhJa.s 			page 31


 717 05ff B9000000 		movl	$.LC12, %ecx
 717      00
 718 0604 BA000000 		movl	$.LC3, %edx
 718      00
 719 0609 4889C7   		movq	%rax, %rdi
 720 060c E8000000 		call	_ZN12preprocessor12get_xml_textEPKcS1_S1_RN8tinyxml211XMLDocumentE
 720      00
 721 0611 4889C2   		movq	%rax, %rdx
 722 0614 488D45C0 		leaq	-64(%rbp), %rax
 723 0618 4889D6   		movq	%rdx, %rsi
 724 061b 4889C7   		movq	%rax, %rdi
 725 061e E8000000 		call	_ZNSt7__cxx1112basic_stringIcSt11char_traitsIcESaIcEEaSEPKc
 725      00
  97:/home/brendan/Dropbox/PhD/Code/LBM/2D LBFS/src/preprocessor.cpp ****     if (temp.compare("dirichlet") == 0){
 726              		.loc 2 97 0
 727 0623 488D45C0 		leaq	-64(%rbp), %rax
 728 0627 BE000000 		movl	$.LC7, %esi
 728      00
 729 062c 4889C7   		movq	%rax, %rdi
 730 062f E8000000 		call	_ZNKSt7__cxx1112basic_stringIcSt11char_traitsIcESaIcEE7compareEPKc
 730      00
 731 0634 85C0     		testl	%eax, %eax
 732 0636 0F94C0   		sete	%al
 733 0639 84C0     		testb	%al, %al
 734 063b 7410     		je	.L24
  98:/home/brendan/Dropbox/PhD/Code/LBM/2D LBFS/src/preprocessor.cpp ****         bcs.w_type_rho = 1;
 735              		.loc 2 98 0
 736 063d 488B4598 		movq	-104(%rbp), %rax
 737 0641 C7808800 		movl	$1, 136(%rax)
 737      00000100 
 737      0000
 738 064b EB52     		jmp	.L25
 739              	.L24:
  99:/home/brendan/Dropbox/PhD/Code/LBM/2D LBFS/src/preprocessor.cpp ****     }else if ( temp.compare("neumann") == 0){
 740              		.loc 2 99 0
 741 064d 488D45C0 		leaq	-64(%rbp), %rax
 742 0651 BE000000 		movl	$.LC8, %esi
 742      00
 743 0656 4889C7   		movq	%rax, %rdi
 744 0659 E8000000 		call	_ZNKSt7__cxx1112basic_stringIcSt11char_traitsIcESaIcEE7compareEPKc
 744      00
 745 065e 85C0     		testl	%eax, %eax
 746 0660 0F94C0   		sete	%al
 747 0663 84C0     		testb	%al, %al
 748 0665 7410     		je	.L26
 100:/home/brendan/Dropbox/PhD/Code/LBM/2D LBFS/src/preprocessor.cpp ****         bcs.w_type_rho = 2;
 749              		.loc 2 100 0
 750 0667 488B4598 		movq	-104(%rbp), %rax
 751 066b C7808800 		movl	$2, 136(%rax)
 751      00000200 
 751      0000
 752 0675 EB28     		jmp	.L25
 753              	.L26:
 101:/home/brendan/Dropbox/PhD/Code/LBM/2D LBFS/src/preprocessor.cpp ****     }else if ( temp.compare("periodic") == 0){
 754              		.loc 2 101 0
 755 0677 488D45C0 		leaq	-64(%rbp), %rax
 756 067b BE000000 		movl	$.LC9, %esi
GAS LISTING /tmp/cc7pRhJa.s 			page 32


 756      00
 757 0680 4889C7   		movq	%rax, %rdi
 758 0683 E8000000 		call	_ZNKSt7__cxx1112basic_stringIcSt11char_traitsIcESaIcEE7compareEPKc
 758      00
 759 0688 85C0     		testl	%eax, %eax
 760 068a 0F94C0   		sete	%al
 761 068d 84C0     		testb	%al, %al
 762 068f 740E     		je	.L25
 102:/home/brendan/Dropbox/PhD/Code/LBM/2D LBFS/src/preprocessor.cpp ****         bcs.w_type_rho = 3;
 763              		.loc 2 102 0
 764 0691 488B4598 		movq	-104(%rbp), %rax
 765 0695 C7808800 		movl	$3, 136(%rax)
 765      00000300 
 765      0000
 766              	.L25:
 103:/home/brendan/Dropbox/PhD/Code/LBM/2D LBFS/src/preprocessor.cpp ****     }
 104:/home/brendan/Dropbox/PhD/Code/LBM/2D LBFS/src/preprocessor.cpp **** 
 105:/home/brendan/Dropbox/PhD/Code/LBM/2D LBFS/src/preprocessor.cpp ****     /// east BCS
 106:/home/brendan/Dropbox/PhD/Code/LBM/2D LBFS/src/preprocessor.cpp ****     bcs.e_rho = get_xml_double(parent,"east","rho",xmlDoc);
 767              		.loc 2 106 0
 768 069f 488B55A0 		movq	-96(%rbp), %rdx
 769 06a3 488B75B8 		movq	-72(%rbp), %rsi
 770 06a7 488B45A8 		movq	-88(%rbp), %rax
 771 06ab 4989D0   		movq	%rdx, %r8
 772 06ae B9000000 		movl	$.LC2, %ecx
 772      00
 773 06b3 BA000000 		movl	$.LC13, %edx
 773      00
 774 06b8 4889C7   		movq	%rax, %rdi
 775 06bb E8000000 		call	_ZN12preprocessor14get_xml_doubleEPKcS1_S1_RN8tinyxml211XMLDocumentE
 775      00
 776 06c0 66480F7E 		movq	%xmm0, %rdx
 776      C2
 777 06c5 488B4598 		movq	-104(%rbp), %rax
 778 06c9 48895048 		movq	%rdx, 72(%rax)
 107:/home/brendan/Dropbox/PhD/Code/LBM/2D LBFS/src/preprocessor.cpp ****     bcs.e_u = get_xml_double(parent,"east","u",xmlDoc);
 779              		.loc 2 107 0
 780 06cd 488B55A0 		movq	-96(%rbp), %rdx
 781 06d1 488B75B8 		movq	-72(%rbp), %rsi
 782 06d5 488B45A8 		movq	-88(%rbp), %rax
 783 06d9 4989D0   		movq	%rdx, %r8
 784 06dc B9000000 		movl	$.LC4, %ecx
 784      00
 785 06e1 BA000000 		movl	$.LC13, %edx
 785      00
 786 06e6 4889C7   		movq	%rax, %rdi
 787 06e9 E8000000 		call	_ZN12preprocessor14get_xml_doubleEPKcS1_S1_RN8tinyxml211XMLDocumentE
 787      00
 788              		.loc 2 107 0 is_stmt 0 discriminator 1
 789 06ee 66480F7E 		movq	%xmm0, %rdx
 789      C2
 790 06f3 488B4598 		movq	-104(%rbp), %rax
 791 06f7 48895050 		movq	%rdx, 80(%rax)
 108:/home/brendan/Dropbox/PhD/Code/LBM/2D LBFS/src/preprocessor.cpp ****     bcs.e_v = get_xml_double(parent,"east","v",xmlDoc);
 792              		.loc 2 108 0 is_stmt 1 discriminator 1
 793 06fb 488B55A0 		movq	-96(%rbp), %rdx
 794 06ff 488B75B8 		movq	-72(%rbp), %rsi
GAS LISTING /tmp/cc7pRhJa.s 			page 33


 795 0703 488B45A8 		movq	-88(%rbp), %rax
 796 0707 4989D0   		movq	%rdx, %r8
 797 070a B9000000 		movl	$.LC5, %ecx
 797      00
 798 070f BA000000 		movl	$.LC13, %edx
 798      00
 799 0714 4889C7   		movq	%rax, %rdi
 800 0717 E8000000 		call	_ZN12preprocessor14get_xml_doubleEPKcS1_S1_RN8tinyxml211XMLDocumentE
 800      00
 801 071c 66480F7E 		movq	%xmm0, %rdx
 801      C2
 802 0721 488B4598 		movq	-104(%rbp), %rax
 803 0725 48895058 		movq	%rdx, 88(%rax)
 109:/home/brendan/Dropbox/PhD/Code/LBM/2D LBFS/src/preprocessor.cpp **** 
 110:/home/brendan/Dropbox/PhD/Code/LBM/2D LBFS/src/preprocessor.cpp **** 
 111:/home/brendan/Dropbox/PhD/Code/LBM/2D LBFS/src/preprocessor.cpp ****     temp = get_xml_text(parent,"east","vel_type",xmlDoc);
 804              		.loc 2 111 0 discriminator 1
 805 0729 488B55A0 		movq	-96(%rbp), %rdx
 806 072d 488B75B8 		movq	-72(%rbp), %rsi
 807 0731 488B45A8 		movq	-88(%rbp), %rax
 808 0735 4989D0   		movq	%rdx, %r8
 809 0738 B9000000 		movl	$.LC6, %ecx
 809      00
 810 073d BA000000 		movl	$.LC13, %edx
 810      00
 811 0742 4889C7   		movq	%rax, %rdi
 812 0745 E8000000 		call	_ZN12preprocessor12get_xml_textEPKcS1_S1_RN8tinyxml211XMLDocumentE
 812      00
 813 074a 4889C2   		movq	%rax, %rdx
 814 074d 488D45C0 		leaq	-64(%rbp), %rax
 815 0751 4889D6   		movq	%rdx, %rsi
 816 0754 4889C7   		movq	%rax, %rdi
 817 0757 E8000000 		call	_ZNSt7__cxx1112basic_stringIcSt11char_traitsIcESaIcEEaSEPKc
 817      00
 112:/home/brendan/Dropbox/PhD/Code/LBM/2D LBFS/src/preprocessor.cpp ****     if (temp.compare("dirichlet") == 0){
 818              		.loc 2 112 0
 819 075c 488D45C0 		leaq	-64(%rbp), %rax
 820 0760 BE000000 		movl	$.LC7, %esi
 820      00
 821 0765 4889C7   		movq	%rax, %rdi
 822 0768 E8000000 		call	_ZNKSt7__cxx1112basic_stringIcSt11char_traitsIcESaIcEE7compareEPKc
 822      00
 823 076d 85C0     		testl	%eax, %eax
 824 076f 0F94C0   		sete	%al
 825 0772 84C0     		testb	%al, %al
 826 0774 7413     		je	.L27
 113:/home/brendan/Dropbox/PhD/Code/LBM/2D LBFS/src/preprocessor.cpp ****         bcs.e_type_vel = 1;
 827              		.loc 2 113 0
 828 0776 488B4598 		movq	-104(%rbp), %rax
 829 077a C780A000 		movl	$1, 160(%rax)
 829      00000100 
 829      0000
 830 0784 E9A60000 		jmp	.L28
 830      00
 831              	.L27:
 114:/home/brendan/Dropbox/PhD/Code/LBM/2D LBFS/src/preprocessor.cpp ****     }else if ( temp.compare("neumann") == 0){
 832              		.loc 2 114 0
GAS LISTING /tmp/cc7pRhJa.s 			page 34


 833 0789 488D45C0 		leaq	-64(%rbp), %rax
 834 078d BE000000 		movl	$.LC8, %esi
 834      00
 835 0792 4889C7   		movq	%rax, %rdi
 836 0795 E8000000 		call	_ZNKSt7__cxx1112basic_stringIcSt11char_traitsIcESaIcEE7compareEPKc
 836      00
 837 079a 85C0     		testl	%eax, %eax
 838 079c 0F94C0   		sete	%al
 839 079f 84C0     		testb	%al, %al
 840 07a1 7410     		je	.L29
 115:/home/brendan/Dropbox/PhD/Code/LBM/2D LBFS/src/preprocessor.cpp ****         bcs.e_type_vel = 2;
 841              		.loc 2 115 0
 842 07a3 488B4598 		movq	-104(%rbp), %rax
 843 07a7 C780A000 		movl	$2, 160(%rax)
 843      00000200 
 843      0000
 844 07b1 EB7C     		jmp	.L28
 845              	.L29:
 116:/home/brendan/Dropbox/PhD/Code/LBM/2D LBFS/src/preprocessor.cpp ****     }else if ( temp.compare("periodic") == 0){
 846              		.loc 2 116 0
 847 07b3 488D45C0 		leaq	-64(%rbp), %rax
 848 07b7 BE000000 		movl	$.LC9, %esi
 848      00
 849 07bc 4889C7   		movq	%rax, %rdi
 850 07bf E8000000 		call	_ZNKSt7__cxx1112basic_stringIcSt11char_traitsIcESaIcEE7compareEPKc
 850      00
 851 07c4 85C0     		testl	%eax, %eax
 852 07c6 0F94C0   		sete	%al
 853 07c9 84C0     		testb	%al, %al
 854 07cb 7410     		je	.L30
 117:/home/brendan/Dropbox/PhD/Code/LBM/2D LBFS/src/preprocessor.cpp ****         bcs.e_type_vel = 3;
 855              		.loc 2 117 0
 856 07cd 488B4598 		movq	-104(%rbp), %rax
 857 07d1 C780A000 		movl	$3, 160(%rax)
 857      00000300 
 857      0000
 858 07db EB52     		jmp	.L28
 859              	.L30:
 118:/home/brendan/Dropbox/PhD/Code/LBM/2D LBFS/src/preprocessor.cpp ****     }else if ( temp.compare("parabolic-N") == 0){
 860              		.loc 2 118 0
 861 07dd 488D45C0 		leaq	-64(%rbp), %rax
 862 07e1 BE000000 		movl	$.LC10, %esi
 862      00
 863 07e6 4889C7   		movq	%rax, %rdi
 864 07e9 E8000000 		call	_ZNKSt7__cxx1112basic_stringIcSt11char_traitsIcESaIcEE7compareEPKc
 864      00
 865 07ee 85C0     		testl	%eax, %eax
 866 07f0 0F94C0   		sete	%al
 867 07f3 84C0     		testb	%al, %al
 868 07f5 7410     		je	.L31
 119:/home/brendan/Dropbox/PhD/Code/LBM/2D LBFS/src/preprocessor.cpp ****         bcs.w_type_vel = 4;
 869              		.loc 2 119 0
 870 07f7 488B4598 		movq	-104(%rbp), %rax
 871 07fb C7809800 		movl	$4, 152(%rax)
 871      00000400 
 871      0000
 872 0805 EB28     		jmp	.L28
GAS LISTING /tmp/cc7pRhJa.s 			page 35


 873              	.L31:
 120:/home/brendan/Dropbox/PhD/Code/LBM/2D LBFS/src/preprocessor.cpp ****     }else if ( temp.compare("parabolic-W") == 0){
 874              		.loc 2 120 0
 875 0807 488D45C0 		leaq	-64(%rbp), %rax
 876 080b BE000000 		movl	$.LC11, %esi
 876      00
 877 0810 4889C7   		movq	%rax, %rdi
 878 0813 E8000000 		call	_ZNKSt7__cxx1112basic_stringIcSt11char_traitsIcESaIcEE7compareEPKc
 878      00
 879 0818 85C0     		testl	%eax, %eax
 880 081a 0F94C0   		sete	%al
 881 081d 84C0     		testb	%al, %al
 882 081f 740E     		je	.L28
 121:/home/brendan/Dropbox/PhD/Code/LBM/2D LBFS/src/preprocessor.cpp ****         bcs.w_type_vel = 5;
 883              		.loc 2 121 0
 884 0821 488B4598 		movq	-104(%rbp), %rax
 885 0825 C7809800 		movl	$5, 152(%rax)
 885      00000500 
 885      0000
 886              	.L28:
 122:/home/brendan/Dropbox/PhD/Code/LBM/2D LBFS/src/preprocessor.cpp ****     }
 123:/home/brendan/Dropbox/PhD/Code/LBM/2D LBFS/src/preprocessor.cpp **** 
 124:/home/brendan/Dropbox/PhD/Code/LBM/2D LBFS/src/preprocessor.cpp **** 
 125:/home/brendan/Dropbox/PhD/Code/LBM/2D LBFS/src/preprocessor.cpp **** 
 126:/home/brendan/Dropbox/PhD/Code/LBM/2D LBFS/src/preprocessor.cpp ****     temp = get_xml_text(parent,"east","rho_type",xmlDoc);
 887              		.loc 2 126 0
 888 082f 488B55A0 		movq	-96(%rbp), %rdx
 889 0833 488B75B8 		movq	-72(%rbp), %rsi
 890 0837 488B45A8 		movq	-88(%rbp), %rax
 891 083b 4989D0   		movq	%rdx, %r8
 892 083e B9000000 		movl	$.LC12, %ecx
 892      00
 893 0843 BA000000 		movl	$.LC13, %edx
 893      00
 894 0848 4889C7   		movq	%rax, %rdi
 895 084b E8000000 		call	_ZN12preprocessor12get_xml_textEPKcS1_S1_RN8tinyxml211XMLDocumentE
 895      00
 896 0850 4889C2   		movq	%rax, %rdx
 897 0853 488D45C0 		leaq	-64(%rbp), %rax
 898 0857 4889D6   		movq	%rdx, %rsi
 899 085a 4889C7   		movq	%rax, %rdi
 900 085d E8000000 		call	_ZNSt7__cxx1112basic_stringIcSt11char_traitsIcESaIcEEaSEPKc
 900      00
 127:/home/brendan/Dropbox/PhD/Code/LBM/2D LBFS/src/preprocessor.cpp ****     if (temp.compare("dirichlet") == 0){
 901              		.loc 2 127 0
 902 0862 488D45C0 		leaq	-64(%rbp), %rax
 903 0866 BE000000 		movl	$.LC7, %esi
 903      00
 904 086b 4889C7   		movq	%rax, %rdi
 905 086e E8000000 		call	_ZNKSt7__cxx1112basic_stringIcSt11char_traitsIcESaIcEE7compareEPKc
 905      00
 906 0873 85C0     		testl	%eax, %eax
 907 0875 0F94C0   		sete	%al
 908 0878 84C0     		testb	%al, %al
 909 087a 7410     		je	.L32
 128:/home/brendan/Dropbox/PhD/Code/LBM/2D LBFS/src/preprocessor.cpp ****         bcs.e_type_rho = 1;
 910              		.loc 2 128 0
GAS LISTING /tmp/cc7pRhJa.s 			page 36


 911 087c 488B4598 		movq	-104(%rbp), %rax
 912 0880 C7809000 		movl	$1, 144(%rax)
 912      00000100 
 912      0000
 913 088a EB52     		jmp	.L33
 914              	.L32:
 129:/home/brendan/Dropbox/PhD/Code/LBM/2D LBFS/src/preprocessor.cpp ****     }else if ( temp.compare("neumann") == 0){
 915              		.loc 2 129 0
 916 088c 488D45C0 		leaq	-64(%rbp), %rax
 917 0890 BE000000 		movl	$.LC8, %esi
 917      00
 918 0895 4889C7   		movq	%rax, %rdi
 919 0898 E8000000 		call	_ZNKSt7__cxx1112basic_stringIcSt11char_traitsIcESaIcEE7compareEPKc
 919      00
 920 089d 85C0     		testl	%eax, %eax
 921 089f 0F94C0   		sete	%al
 922 08a2 84C0     		testb	%al, %al
 923 08a4 7410     		je	.L34
 130:/home/brendan/Dropbox/PhD/Code/LBM/2D LBFS/src/preprocessor.cpp ****         bcs.e_type_rho = 2;
 924              		.loc 2 130 0
 925 08a6 488B4598 		movq	-104(%rbp), %rax
 926 08aa C7809000 		movl	$2, 144(%rax)
 926      00000200 
 926      0000
 927 08b4 EB28     		jmp	.L33
 928              	.L34:
 131:/home/brendan/Dropbox/PhD/Code/LBM/2D LBFS/src/preprocessor.cpp ****     }else if ( temp.compare("periodic") == 0){
 929              		.loc 2 131 0
 930 08b6 488D45C0 		leaq	-64(%rbp), %rax
 931 08ba BE000000 		movl	$.LC9, %esi
 931      00
 932 08bf 4889C7   		movq	%rax, %rdi
 933 08c2 E8000000 		call	_ZNKSt7__cxx1112basic_stringIcSt11char_traitsIcESaIcEE7compareEPKc
 933      00
 934 08c7 85C0     		testl	%eax, %eax
 935 08c9 0F94C0   		sete	%al
 936 08cc 84C0     		testb	%al, %al
 937 08ce 740E     		je	.L33
 132:/home/brendan/Dropbox/PhD/Code/LBM/2D LBFS/src/preprocessor.cpp ****         bcs.e_type_rho = 3;
 938              		.loc 2 132 0
 939 08d0 488B4598 		movq	-104(%rbp), %rax
 940 08d4 C7809000 		movl	$3, 144(%rax)
 940      00000300 
 940      0000
 941              	.L33:
 133:/home/brendan/Dropbox/PhD/Code/LBM/2D LBFS/src/preprocessor.cpp ****     }
 134:/home/brendan/Dropbox/PhD/Code/LBM/2D LBFS/src/preprocessor.cpp **** 
 135:/home/brendan/Dropbox/PhD/Code/LBM/2D LBFS/src/preprocessor.cpp ****     /// north BCS
 136:/home/brendan/Dropbox/PhD/Code/LBM/2D LBFS/src/preprocessor.cpp ****     bcs.n_rho = get_xml_double(parent,"north","rho",xmlDoc);
 942              		.loc 2 136 0
 943 08de 488B55A0 		movq	-96(%rbp), %rdx
 944 08e2 488B75B8 		movq	-72(%rbp), %rsi
 945 08e6 488B45A8 		movq	-88(%rbp), %rax
 946 08ea 4989D0   		movq	%rdx, %r8
 947 08ed B9000000 		movl	$.LC2, %ecx
 947      00
 948 08f2 BA000000 		movl	$.LC14, %edx
GAS LISTING /tmp/cc7pRhJa.s 			page 37


 948      00
 949 08f7 4889C7   		movq	%rax, %rdi
 950 08fa E8000000 		call	_ZN12preprocessor14get_xml_doubleEPKcS1_S1_RN8tinyxml211XMLDocumentE
 950      00
 951 08ff 66480F7E 		movq	%xmm0, %rdx
 951      C2
 952 0904 488B4598 		movq	-104(%rbp), %rax
 953 0908 48895068 		movq	%rdx, 104(%rax)
 137:/home/brendan/Dropbox/PhD/Code/LBM/2D LBFS/src/preprocessor.cpp ****     bcs.n_u = get_xml_double(parent,"north","u",xmlDoc);
 954              		.loc 2 137 0
 955 090c 488B55A0 		movq	-96(%rbp), %rdx
 956 0910 488B75B8 		movq	-72(%rbp), %rsi
 957 0914 488B45A8 		movq	-88(%rbp), %rax
 958 0918 4989D0   		movq	%rdx, %r8
 959 091b B9000000 		movl	$.LC4, %ecx
 959      00
 960 0920 BA000000 		movl	$.LC14, %edx
 960      00
 961 0925 4889C7   		movq	%rax, %rdi
 962 0928 E8000000 		call	_ZN12preprocessor14get_xml_doubleEPKcS1_S1_RN8tinyxml211XMLDocumentE
 962      00
 963              		.loc 2 137 0 is_stmt 0 discriminator 1
 964 092d 66480F7E 		movq	%xmm0, %rdx
 964      C2
 965 0932 488B4598 		movq	-104(%rbp), %rax
 966 0936 48895070 		movq	%rdx, 112(%rax)
 138:/home/brendan/Dropbox/PhD/Code/LBM/2D LBFS/src/preprocessor.cpp ****     bcs.n_v = get_xml_double(parent,"north","v",xmlDoc);
 967              		.loc 2 138 0 is_stmt 1 discriminator 1
 968 093a 488B55A0 		movq	-96(%rbp), %rdx
 969 093e 488B75B8 		movq	-72(%rbp), %rsi
 970 0942 488B45A8 		movq	-88(%rbp), %rax
 971 0946 4989D0   		movq	%rdx, %r8
 972 0949 B9000000 		movl	$.LC5, %ecx
 972      00
 973 094e BA000000 		movl	$.LC14, %edx
 973      00
 974 0953 4889C7   		movq	%rax, %rdi
 975 0956 E8000000 		call	_ZN12preprocessor14get_xml_doubleEPKcS1_S1_RN8tinyxml211XMLDocumentE
 975      00
 976 095b 66480F7E 		movq	%xmm0, %rdx
 976      C2
 977 0960 488B4598 		movq	-104(%rbp), %rax
 978 0964 48895078 		movq	%rdx, 120(%rax)
 139:/home/brendan/Dropbox/PhD/Code/LBM/2D LBFS/src/preprocessor.cpp **** 
 140:/home/brendan/Dropbox/PhD/Code/LBM/2D LBFS/src/preprocessor.cpp **** 
 141:/home/brendan/Dropbox/PhD/Code/LBM/2D LBFS/src/preprocessor.cpp ****     temp = get_xml_text(parent,"north","vel_type",xmlDoc);
 979              		.loc 2 141 0 discriminator 1
 980 0968 488B55A0 		movq	-96(%rbp), %rdx
 981 096c 488B75B8 		movq	-72(%rbp), %rsi
 982 0970 488B45A8 		movq	-88(%rbp), %rax
 983 0974 4989D0   		movq	%rdx, %r8
 984 0977 B9000000 		movl	$.LC6, %ecx
 984      00
 985 097c BA000000 		movl	$.LC14, %edx
 985      00
 986 0981 4889C7   		movq	%rax, %rdi
 987 0984 E8000000 		call	_ZN12preprocessor12get_xml_textEPKcS1_S1_RN8tinyxml211XMLDocumentE
GAS LISTING /tmp/cc7pRhJa.s 			page 38


 987      00
 988 0989 4889C2   		movq	%rax, %rdx
 989 098c 488D45C0 		leaq	-64(%rbp), %rax
 990 0990 4889D6   		movq	%rdx, %rsi
 991 0993 4889C7   		movq	%rax, %rdi
 992 0996 E8000000 		call	_ZNSt7__cxx1112basic_stringIcSt11char_traitsIcESaIcEEaSEPKc
 992      00
 142:/home/brendan/Dropbox/PhD/Code/LBM/2D LBFS/src/preprocessor.cpp ****     if (temp.compare("dirichlet") == 0){
 993              		.loc 2 142 0
 994 099b 488D45C0 		leaq	-64(%rbp), %rax
 995 099f BE000000 		movl	$.LC7, %esi
 995      00
 996 09a4 4889C7   		movq	%rax, %rdi
 997 09a7 E8000000 		call	_ZNKSt7__cxx1112basic_stringIcSt11char_traitsIcESaIcEE7compareEPKc
 997      00
 998 09ac 85C0     		testl	%eax, %eax
 999 09ae 0F94C0   		sete	%al
 1000 09b1 84C0     		testb	%al, %al
 1001 09b3 7413     		je	.L35
 143:/home/brendan/Dropbox/PhD/Code/LBM/2D LBFS/src/preprocessor.cpp ****         bcs.n_type_vel = 1;
 1002              		.loc 2 143 0
 1003 09b5 488B4598 		movq	-104(%rbp), %rax
 1004 09b9 C780A400 		movl	$1, 164(%rax)
 1004      00000100 
 1004      0000
 1005 09c3 E9A60000 		jmp	.L36
 1005      00
 1006              	.L35:
 144:/home/brendan/Dropbox/PhD/Code/LBM/2D LBFS/src/preprocessor.cpp ****     }else if ( temp.compare("neumann") == 0){
 1007              		.loc 2 144 0
 1008 09c8 488D45C0 		leaq	-64(%rbp), %rax
 1009 09cc BE000000 		movl	$.LC8, %esi
 1009      00
 1010 09d1 4889C7   		movq	%rax, %rdi
 1011 09d4 E8000000 		call	_ZNKSt7__cxx1112basic_stringIcSt11char_traitsIcESaIcEE7compareEPKc
 1011      00
 1012 09d9 85C0     		testl	%eax, %eax
 1013 09db 0F94C0   		sete	%al
 1014 09de 84C0     		testb	%al, %al
 1015 09e0 7410     		je	.L37
 145:/home/brendan/Dropbox/PhD/Code/LBM/2D LBFS/src/preprocessor.cpp ****         bcs.n_type_vel = 2;
 1016              		.loc 2 145 0
 1017 09e2 488B4598 		movq	-104(%rbp), %rax
 1018 09e6 C780A400 		movl	$2, 164(%rax)
 1018      00000200 
 1018      0000
 1019 09f0 EB7C     		jmp	.L36
 1020              	.L37:
 146:/home/brendan/Dropbox/PhD/Code/LBM/2D LBFS/src/preprocessor.cpp ****     }else if ( temp.compare("periodic") == 0){
 1021              		.loc 2 146 0
 1022 09f2 488D45C0 		leaq	-64(%rbp), %rax
 1023 09f6 BE000000 		movl	$.LC9, %esi
 1023      00
 1024 09fb 4889C7   		movq	%rax, %rdi
 1025 09fe E8000000 		call	_ZNKSt7__cxx1112basic_stringIcSt11char_traitsIcESaIcEE7compareEPKc
 1025      00
 1026 0a03 85C0     		testl	%eax, %eax
GAS LISTING /tmp/cc7pRhJa.s 			page 39


 1027 0a05 0F94C0   		sete	%al
 1028 0a08 84C0     		testb	%al, %al
 1029 0a0a 7410     		je	.L38
 147:/home/brendan/Dropbox/PhD/Code/LBM/2D LBFS/src/preprocessor.cpp ****         bcs.n_type_vel = 3;
 1030              		.loc 2 147 0
 1031 0a0c 488B4598 		movq	-104(%rbp), %rax
 1032 0a10 C780A400 		movl	$3, 164(%rax)
 1032      00000300 
 1032      0000
 1033 0a1a EB52     		jmp	.L36
 1034              	.L38:
 148:/home/brendan/Dropbox/PhD/Code/LBM/2D LBFS/src/preprocessor.cpp ****     }else if ( temp.compare("parabolic-N") == 0){
 1035              		.loc 2 148 0
 1036 0a1c 488D45C0 		leaq	-64(%rbp), %rax
 1037 0a20 BE000000 		movl	$.LC10, %esi
 1037      00
 1038 0a25 4889C7   		movq	%rax, %rdi
 1039 0a28 E8000000 		call	_ZNKSt7__cxx1112basic_stringIcSt11char_traitsIcESaIcEE7compareEPKc
 1039      00
 1040 0a2d 85C0     		testl	%eax, %eax
 1041 0a2f 0F94C0   		sete	%al
 1042 0a32 84C0     		testb	%al, %al
 1043 0a34 7410     		je	.L39
 149:/home/brendan/Dropbox/PhD/Code/LBM/2D LBFS/src/preprocessor.cpp ****         bcs.w_type_vel = 4;
 1044              		.loc 2 149 0
 1045 0a36 488B4598 		movq	-104(%rbp), %rax
 1046 0a3a C7809800 		movl	$4, 152(%rax)
 1046      00000400 
 1046      0000
 1047 0a44 EB28     		jmp	.L36
 1048              	.L39:
 150:/home/brendan/Dropbox/PhD/Code/LBM/2D LBFS/src/preprocessor.cpp ****     }else if ( temp.compare("parabolic-W") == 0){
 1049              		.loc 2 150 0
 1050 0a46 488D45C0 		leaq	-64(%rbp), %rax
 1051 0a4a BE000000 		movl	$.LC11, %esi
 1051      00
 1052 0a4f 4889C7   		movq	%rax, %rdi
 1053 0a52 E8000000 		call	_ZNKSt7__cxx1112basic_stringIcSt11char_traitsIcESaIcEE7compareEPKc
 1053      00
 1054 0a57 85C0     		testl	%eax, %eax
 1055 0a59 0F94C0   		sete	%al
 1056 0a5c 84C0     		testb	%al, %al
 1057 0a5e 740E     		je	.L36
 151:/home/brendan/Dropbox/PhD/Code/LBM/2D LBFS/src/preprocessor.cpp ****         bcs.w_type_vel = 5;
 1058              		.loc 2 151 0
 1059 0a60 488B4598 		movq	-104(%rbp), %rax
 1060 0a64 C7809800 		movl	$5, 152(%rax)
 1060      00000500 
 1060      0000
 1061              	.L36:
 152:/home/brendan/Dropbox/PhD/Code/LBM/2D LBFS/src/preprocessor.cpp ****     }
 153:/home/brendan/Dropbox/PhD/Code/LBM/2D LBFS/src/preprocessor.cpp **** 
 154:/home/brendan/Dropbox/PhD/Code/LBM/2D LBFS/src/preprocessor.cpp **** 
 155:/home/brendan/Dropbox/PhD/Code/LBM/2D LBFS/src/preprocessor.cpp **** 
 156:/home/brendan/Dropbox/PhD/Code/LBM/2D LBFS/src/preprocessor.cpp ****     temp = get_xml_text(parent,"north","rho_type",xmlDoc);
 1062              		.loc 2 156 0
 1063 0a6e 488B55A0 		movq	-96(%rbp), %rdx
GAS LISTING /tmp/cc7pRhJa.s 			page 40


 1064 0a72 488B75B8 		movq	-72(%rbp), %rsi
 1065 0a76 488B45A8 		movq	-88(%rbp), %rax
 1066 0a7a 4989D0   		movq	%rdx, %r8
 1067 0a7d B9000000 		movl	$.LC12, %ecx
 1067      00
 1068 0a82 BA000000 		movl	$.LC14, %edx
 1068      00
 1069 0a87 4889C7   		movq	%rax, %rdi
 1070 0a8a E8000000 		call	_ZN12preprocessor12get_xml_textEPKcS1_S1_RN8tinyxml211XMLDocumentE
 1070      00
 1071 0a8f 4889C2   		movq	%rax, %rdx
 1072 0a92 488D45C0 		leaq	-64(%rbp), %rax
 1073 0a96 4889D6   		movq	%rdx, %rsi
 1074 0a99 4889C7   		movq	%rax, %rdi
 1075 0a9c E8000000 		call	_ZNSt7__cxx1112basic_stringIcSt11char_traitsIcESaIcEEaSEPKc
 1075      00
 157:/home/brendan/Dropbox/PhD/Code/LBM/2D LBFS/src/preprocessor.cpp ****     if (temp.compare("dirichlet") == 0){
 1076              		.loc 2 157 0
 1077 0aa1 488D45C0 		leaq	-64(%rbp), %rax
 1078 0aa5 BE000000 		movl	$.LC7, %esi
 1078      00
 1079 0aaa 4889C7   		movq	%rax, %rdi
 1080 0aad E8000000 		call	_ZNKSt7__cxx1112basic_stringIcSt11char_traitsIcESaIcEE7compareEPKc
 1080      00
 1081 0ab2 85C0     		testl	%eax, %eax
 1082 0ab4 0F94C0   		sete	%al
 1083 0ab7 84C0     		testb	%al, %al
 1084 0ab9 7410     		je	.L40
 158:/home/brendan/Dropbox/PhD/Code/LBM/2D LBFS/src/preprocessor.cpp ****         bcs.n_type_rho = 1;
 1085              		.loc 2 158 0
 1086 0abb 488B4598 		movq	-104(%rbp), %rax
 1087 0abf C7809400 		movl	$1, 148(%rax)
 1087      00000100 
 1087      0000
 1088 0ac9 EB52     		jmp	.L41
 1089              	.L40:
 159:/home/brendan/Dropbox/PhD/Code/LBM/2D LBFS/src/preprocessor.cpp ****     }else if ( temp.compare("neumann") == 0){
 1090              		.loc 2 159 0
 1091 0acb 488D45C0 		leaq	-64(%rbp), %rax
 1092 0acf BE000000 		movl	$.LC8, %esi
 1092      00
 1093 0ad4 4889C7   		movq	%rax, %rdi
 1094 0ad7 E8000000 		call	_ZNKSt7__cxx1112basic_stringIcSt11char_traitsIcESaIcEE7compareEPKc
 1094      00
 1095 0adc 85C0     		testl	%eax, %eax
 1096 0ade 0F94C0   		sete	%al
 1097 0ae1 84C0     		testb	%al, %al
 1098 0ae3 7410     		je	.L42
 160:/home/brendan/Dropbox/PhD/Code/LBM/2D LBFS/src/preprocessor.cpp ****         bcs.n_type_rho = 2;
 1099              		.loc 2 160 0
 1100 0ae5 488B4598 		movq	-104(%rbp), %rax
 1101 0ae9 C7809400 		movl	$2, 148(%rax)
 1101      00000200 
 1101      0000
 1102 0af3 EB28     		jmp	.L41
 1103              	.L42:
 161:/home/brendan/Dropbox/PhD/Code/LBM/2D LBFS/src/preprocessor.cpp ****     }else if ( temp.compare("periodic") == 0){
GAS LISTING /tmp/cc7pRhJa.s 			page 41


 1104              		.loc 2 161 0
 1105 0af5 488D45C0 		leaq	-64(%rbp), %rax
 1106 0af9 BE000000 		movl	$.LC9, %esi
 1106      00
 1107 0afe 4889C7   		movq	%rax, %rdi
 1108 0b01 E8000000 		call	_ZNKSt7__cxx1112basic_stringIcSt11char_traitsIcESaIcEE7compareEPKc
 1108      00
 1109 0b06 85C0     		testl	%eax, %eax
 1110 0b08 0F94C0   		sete	%al
 1111 0b0b 84C0     		testb	%al, %al
 1112 0b0d 740E     		je	.L41
 162:/home/brendan/Dropbox/PhD/Code/LBM/2D LBFS/src/preprocessor.cpp ****         bcs.n_type_rho = 3;
 1113              		.loc 2 162 0
 1114 0b0f 488B4598 		movq	-104(%rbp), %rax
 1115 0b13 C7809400 		movl	$3, 148(%rax)
 1115      00000300 
 1115      0000
 1116              	.L41:
 163:/home/brendan/Dropbox/PhD/Code/LBM/2D LBFS/src/preprocessor.cpp ****     }
 164:/home/brendan/Dropbox/PhD/Code/LBM/2D LBFS/src/preprocessor.cpp **** 
 165:/home/brendan/Dropbox/PhD/Code/LBM/2D LBFS/src/preprocessor.cpp ****     /// south BCS
 166:/home/brendan/Dropbox/PhD/Code/LBM/2D LBFS/src/preprocessor.cpp ****     bcs.s_rho = get_xml_double(parent,"south","rho",xmlDoc);
 1117              		.loc 2 166 0
 1118 0b1d 488B55A0 		movq	-96(%rbp), %rdx
 1119 0b21 488B75B8 		movq	-72(%rbp), %rsi
 1120 0b25 488B45A8 		movq	-88(%rbp), %rax
 1121 0b29 4989D0   		movq	%rdx, %r8
 1122 0b2c B9000000 		movl	$.LC2, %ecx
 1122      00
 1123 0b31 BA000000 		movl	$.LC15, %edx
 1123      00
 1124 0b36 4889C7   		movq	%rax, %rdi
 1125 0b39 E8000000 		call	_ZN12preprocessor14get_xml_doubleEPKcS1_S1_RN8tinyxml211XMLDocumentE
 1125      00
 1126 0b3e 66480F7E 		movq	%xmm0, %rdx
 1126      C2
 1127 0b43 488B4598 		movq	-104(%rbp), %rax
 1128 0b47 48895028 		movq	%rdx, 40(%rax)
 167:/home/brendan/Dropbox/PhD/Code/LBM/2D LBFS/src/preprocessor.cpp ****     bcs.s_u = get_xml_double(parent,"south","u",xmlDoc);
 1129              		.loc 2 167 0
 1130 0b4b 488B55A0 		movq	-96(%rbp), %rdx
 1131 0b4f 488B75B8 		movq	-72(%rbp), %rsi
 1132 0b53 488B45A8 		movq	-88(%rbp), %rax
 1133 0b57 4989D0   		movq	%rdx, %r8
 1134 0b5a B9000000 		movl	$.LC4, %ecx
 1134      00
 1135 0b5f BA000000 		movl	$.LC15, %edx
 1135      00
 1136 0b64 4889C7   		movq	%rax, %rdi
 1137 0b67 E8000000 		call	_ZN12preprocessor14get_xml_doubleEPKcS1_S1_RN8tinyxml211XMLDocumentE
 1137      00
 1138              		.loc 2 167 0 is_stmt 0 discriminator 1
 1139 0b6c 66480F7E 		movq	%xmm0, %rdx
 1139      C2
 1140 0b71 488B4598 		movq	-104(%rbp), %rax
 1141 0b75 48895030 		movq	%rdx, 48(%rax)
 168:/home/brendan/Dropbox/PhD/Code/LBM/2D LBFS/src/preprocessor.cpp ****     bcs.s_v = get_xml_double(parent,"south","v",xmlDoc);
GAS LISTING /tmp/cc7pRhJa.s 			page 42


 1142              		.loc 2 168 0 is_stmt 1 discriminator 1
 1143 0b79 488B55A0 		movq	-96(%rbp), %rdx
 1144 0b7d 488B75B8 		movq	-72(%rbp), %rsi
 1145 0b81 488B45A8 		movq	-88(%rbp), %rax
 1146 0b85 4989D0   		movq	%rdx, %r8
 1147 0b88 B9000000 		movl	$.LC5, %ecx
 1147      00
 1148 0b8d BA000000 		movl	$.LC15, %edx
 1148      00
 1149 0b92 4889C7   		movq	%rax, %rdi
 1150 0b95 E8000000 		call	_ZN12preprocessor14get_xml_doubleEPKcS1_S1_RN8tinyxml211XMLDocumentE
 1150      00
 1151 0b9a 66480F7E 		movq	%xmm0, %rdx
 1151      C2
 1152 0b9f 488B4598 		movq	-104(%rbp), %rax
 1153 0ba3 48895038 		movq	%rdx, 56(%rax)
 169:/home/brendan/Dropbox/PhD/Code/LBM/2D LBFS/src/preprocessor.cpp **** 
 170:/home/brendan/Dropbox/PhD/Code/LBM/2D LBFS/src/preprocessor.cpp **** 
 171:/home/brendan/Dropbox/PhD/Code/LBM/2D LBFS/src/preprocessor.cpp ****     temp = get_xml_text(parent,"south","vel_type",xmlDoc);
 1154              		.loc 2 171 0 discriminator 1
 1155 0ba7 488B55A0 		movq	-96(%rbp), %rdx
 1156 0bab 488B75B8 		movq	-72(%rbp), %rsi
 1157 0baf 488B45A8 		movq	-88(%rbp), %rax
 1158 0bb3 4989D0   		movq	%rdx, %r8
 1159 0bb6 B9000000 		movl	$.LC6, %ecx
 1159      00
 1160 0bbb BA000000 		movl	$.LC15, %edx
 1160      00
 1161 0bc0 4889C7   		movq	%rax, %rdi
 1162 0bc3 E8000000 		call	_ZN12preprocessor12get_xml_textEPKcS1_S1_RN8tinyxml211XMLDocumentE
 1162      00
 1163 0bc8 4889C2   		movq	%rax, %rdx
 1164 0bcb 488D45C0 		leaq	-64(%rbp), %rax
 1165 0bcf 4889D6   		movq	%rdx, %rsi
 1166 0bd2 4889C7   		movq	%rax, %rdi
 1167 0bd5 E8000000 		call	_ZNSt7__cxx1112basic_stringIcSt11char_traitsIcESaIcEEaSEPKc
 1167      00
 172:/home/brendan/Dropbox/PhD/Code/LBM/2D LBFS/src/preprocessor.cpp ****     if (temp.compare("dirichlet") == 0){
 1168              		.loc 2 172 0
 1169 0bda 488D45C0 		leaq	-64(%rbp), %rax
 1170 0bde BE000000 		movl	$.LC7, %esi
 1170      00
 1171 0be3 4889C7   		movq	%rax, %rdi
 1172 0be6 E8000000 		call	_ZNKSt7__cxx1112basic_stringIcSt11char_traitsIcESaIcEE7compareEPKc
 1172      00
 1173 0beb 85C0     		testl	%eax, %eax
 1174 0bed 0F94C0   		sete	%al
 1175 0bf0 84C0     		testb	%al, %al
 1176 0bf2 7413     		je	.L43
 173:/home/brendan/Dropbox/PhD/Code/LBM/2D LBFS/src/preprocessor.cpp ****         bcs.s_type_vel = 1;
 1177              		.loc 2 173 0
 1178 0bf4 488B4598 		movq	-104(%rbp), %rax
 1179 0bf8 C7809C00 		movl	$1, 156(%rax)
 1179      00000100 
 1179      0000
 1180 0c02 E9A60000 		jmp	.L44
 1180      00
GAS LISTING /tmp/cc7pRhJa.s 			page 43


 1181              	.L43:
 174:/home/brendan/Dropbox/PhD/Code/LBM/2D LBFS/src/preprocessor.cpp ****     }else if ( temp.compare("neumann") == 0){
 1182              		.loc 2 174 0
 1183 0c07 488D45C0 		leaq	-64(%rbp), %rax
 1184 0c0b BE000000 		movl	$.LC8, %esi
 1184      00
 1185 0c10 4889C7   		movq	%rax, %rdi
 1186 0c13 E8000000 		call	_ZNKSt7__cxx1112basic_stringIcSt11char_traitsIcESaIcEE7compareEPKc
 1186      00
 1187 0c18 85C0     		testl	%eax, %eax
 1188 0c1a 0F94C0   		sete	%al
 1189 0c1d 84C0     		testb	%al, %al
 1190 0c1f 7410     		je	.L45
 175:/home/brendan/Dropbox/PhD/Code/LBM/2D LBFS/src/preprocessor.cpp ****         bcs.s_type_vel = 2;
 1191              		.loc 2 175 0
 1192 0c21 488B4598 		movq	-104(%rbp), %rax
 1193 0c25 C7809C00 		movl	$2, 156(%rax)
 1193      00000200 
 1193      0000
 1194 0c2f EB7C     		jmp	.L44
 1195              	.L45:
 176:/home/brendan/Dropbox/PhD/Code/LBM/2D LBFS/src/preprocessor.cpp ****     }else if ( temp.compare("periodic") == 0){
 1196              		.loc 2 176 0
 1197 0c31 488D45C0 		leaq	-64(%rbp), %rax
 1198 0c35 BE000000 		movl	$.LC9, %esi
 1198      00
 1199 0c3a 4889C7   		movq	%rax, %rdi
 1200 0c3d E8000000 		call	_ZNKSt7__cxx1112basic_stringIcSt11char_traitsIcESaIcEE7compareEPKc
 1200      00
 1201 0c42 85C0     		testl	%eax, %eax
 1202 0c44 0F94C0   		sete	%al
 1203 0c47 84C0     		testb	%al, %al
 1204 0c49 7410     		je	.L46
 177:/home/brendan/Dropbox/PhD/Code/LBM/2D LBFS/src/preprocessor.cpp ****         bcs.s_type_vel = 3;
 1205              		.loc 2 177 0
 1206 0c4b 488B4598 		movq	-104(%rbp), %rax
 1207 0c4f C7809C00 		movl	$3, 156(%rax)
 1207      00000300 
 1207      0000
 1208 0c59 EB52     		jmp	.L44
 1209              	.L46:
 178:/home/brendan/Dropbox/PhD/Code/LBM/2D LBFS/src/preprocessor.cpp ****     }else if ( temp.compare("parabolic-N") == 0){
 1210              		.loc 2 178 0
 1211 0c5b 488D45C0 		leaq	-64(%rbp), %rax
 1212 0c5f BE000000 		movl	$.LC10, %esi
 1212      00
 1213 0c64 4889C7   		movq	%rax, %rdi
 1214 0c67 E8000000 		call	_ZNKSt7__cxx1112basic_stringIcSt11char_traitsIcESaIcEE7compareEPKc
 1214      00
 1215 0c6c 85C0     		testl	%eax, %eax
 1216 0c6e 0F94C0   		sete	%al
 1217 0c71 84C0     		testb	%al, %al
 1218 0c73 7410     		je	.L47
 179:/home/brendan/Dropbox/PhD/Code/LBM/2D LBFS/src/preprocessor.cpp ****         bcs.w_type_vel = 4;
 1219              		.loc 2 179 0
 1220 0c75 488B4598 		movq	-104(%rbp), %rax
 1221 0c79 C7809800 		movl	$4, 152(%rax)
GAS LISTING /tmp/cc7pRhJa.s 			page 44


 1221      00000400 
 1221      0000
 1222 0c83 EB28     		jmp	.L44
 1223              	.L47:
 180:/home/brendan/Dropbox/PhD/Code/LBM/2D LBFS/src/preprocessor.cpp ****     }else if ( temp.compare("parabolic-W") == 0){
 1224              		.loc 2 180 0
 1225 0c85 488D45C0 		leaq	-64(%rbp), %rax
 1226 0c89 BE000000 		movl	$.LC11, %esi
 1226      00
 1227 0c8e 4889C7   		movq	%rax, %rdi
 1228 0c91 E8000000 		call	_ZNKSt7__cxx1112basic_stringIcSt11char_traitsIcESaIcEE7compareEPKc
 1228      00
 1229 0c96 85C0     		testl	%eax, %eax
 1230 0c98 0F94C0   		sete	%al
 1231 0c9b 84C0     		testb	%al, %al
 1232 0c9d 740E     		je	.L44
 181:/home/brendan/Dropbox/PhD/Code/LBM/2D LBFS/src/preprocessor.cpp ****         bcs.w_type_vel = 5;
 1233              		.loc 2 181 0
 1234 0c9f 488B4598 		movq	-104(%rbp), %rax
 1235 0ca3 C7809800 		movl	$5, 152(%rax)
 1235      00000500 
 1235      0000
 1236              	.L44:
 182:/home/brendan/Dropbox/PhD/Code/LBM/2D LBFS/src/preprocessor.cpp ****     }
 183:/home/brendan/Dropbox/PhD/Code/LBM/2D LBFS/src/preprocessor.cpp **** 
 184:/home/brendan/Dropbox/PhD/Code/LBM/2D LBFS/src/preprocessor.cpp **** 
 185:/home/brendan/Dropbox/PhD/Code/LBM/2D LBFS/src/preprocessor.cpp **** 
 186:/home/brendan/Dropbox/PhD/Code/LBM/2D LBFS/src/preprocessor.cpp ****     temp = get_xml_text(parent,"south","rho_type",xmlDoc);
 1237              		.loc 2 186 0
 1238 0cad 488B55A0 		movq	-96(%rbp), %rdx
 1239 0cb1 488B75B8 		movq	-72(%rbp), %rsi
 1240 0cb5 488B45A8 		movq	-88(%rbp), %rax
 1241 0cb9 4989D0   		movq	%rdx, %r8
 1242 0cbc B9000000 		movl	$.LC12, %ecx
 1242      00
 1243 0cc1 BA000000 		movl	$.LC15, %edx
 1243      00
 1244 0cc6 4889C7   		movq	%rax, %rdi
 1245 0cc9 E8000000 		call	_ZN12preprocessor12get_xml_textEPKcS1_S1_RN8tinyxml211XMLDocumentE
 1245      00
 1246 0cce 4889C2   		movq	%rax, %rdx
 1247 0cd1 488D45C0 		leaq	-64(%rbp), %rax
 1248 0cd5 4889D6   		movq	%rdx, %rsi
 1249 0cd8 4889C7   		movq	%rax, %rdi
 1250 0cdb E8000000 		call	_ZNSt7__cxx1112basic_stringIcSt11char_traitsIcESaIcEEaSEPKc
 1250      00
 187:/home/brendan/Dropbox/PhD/Code/LBM/2D LBFS/src/preprocessor.cpp ****     if (temp.compare("dirichlet") == 0){
 1251              		.loc 2 187 0
 1252 0ce0 488D45C0 		leaq	-64(%rbp), %rax
 1253 0ce4 BE000000 		movl	$.LC7, %esi
 1253      00
 1254 0ce9 4889C7   		movq	%rax, %rdi
 1255 0cec E8000000 		call	_ZNKSt7__cxx1112basic_stringIcSt11char_traitsIcESaIcEE7compareEPKc
 1255      00
 1256 0cf1 85C0     		testl	%eax, %eax
 1257 0cf3 0F94C0   		sete	%al
 1258 0cf6 84C0     		testb	%al, %al
GAS LISTING /tmp/cc7pRhJa.s 			page 45


 1259 0cf8 7410     		je	.L48
 188:/home/brendan/Dropbox/PhD/Code/LBM/2D LBFS/src/preprocessor.cpp ****         bcs.s_type_rho = 1;
 1260              		.loc 2 188 0
 1261 0cfa 488B4598 		movq	-104(%rbp), %rax
 1262 0cfe C7808C00 		movl	$1, 140(%rax)
 1262      00000100 
 1262      0000
 1263 0d08 EB52     		jmp	.L49
 1264              	.L48:
 189:/home/brendan/Dropbox/PhD/Code/LBM/2D LBFS/src/preprocessor.cpp ****     }else if ( temp.compare("neumann") == 0){
 1265              		.loc 2 189 0
 1266 0d0a 488D45C0 		leaq	-64(%rbp), %rax
 1267 0d0e BE000000 		movl	$.LC8, %esi
 1267      00
 1268 0d13 4889C7   		movq	%rax, %rdi
 1269 0d16 E8000000 		call	_ZNKSt7__cxx1112basic_stringIcSt11char_traitsIcESaIcEE7compareEPKc
 1269      00
 1270 0d1b 85C0     		testl	%eax, %eax
 1271 0d1d 0F94C0   		sete	%al
 1272 0d20 84C0     		testb	%al, %al
 1273 0d22 7410     		je	.L50
 190:/home/brendan/Dropbox/PhD/Code/LBM/2D LBFS/src/preprocessor.cpp ****         bcs.s_type_rho = 2;
 1274              		.loc 2 190 0
 1275 0d24 488B4598 		movq	-104(%rbp), %rax
 1276 0d28 C7808C00 		movl	$2, 140(%rax)
 1276      00000200 
 1276      0000
 1277 0d32 EB28     		jmp	.L49
 1278              	.L50:
 191:/home/brendan/Dropbox/PhD/Code/LBM/2D LBFS/src/preprocessor.cpp ****     }else if ( temp.compare("periodic") == 0){
 1279              		.loc 2 191 0
 1280 0d34 488D45C0 		leaq	-64(%rbp), %rax
 1281 0d38 BE000000 		movl	$.LC9, %esi
 1281      00
 1282 0d3d 4889C7   		movq	%rax, %rdi
 1283 0d40 E8000000 		call	_ZNKSt7__cxx1112basic_stringIcSt11char_traitsIcESaIcEE7compareEPKc
 1283      00
 1284              	.LEHE5:
 1285 0d45 85C0     		testl	%eax, %eax
 1286 0d47 0F94C0   		sete	%al
 1287 0d4a 84C0     		testb	%al, %al
 1288 0d4c 740E     		je	.L49
 192:/home/brendan/Dropbox/PhD/Code/LBM/2D LBFS/src/preprocessor.cpp ****         bcs.s_type_rho = 3;
 1289              		.loc 2 192 0
 1290 0d4e 488B4598 		movq	-104(%rbp), %rax
 1291 0d52 C7808C00 		movl	$3, 140(%rax)
 1291      00000300 
 1291      0000
 1292              	.L49:
  79:/home/brendan/Dropbox/PhD/Code/LBM/2D LBFS/src/preprocessor.cpp **** 
 1293              		.loc 2 79 0
 1294 0d5c 488D45C0 		leaq	-64(%rbp), %rax
 1295 0d60 4889C7   		movq	%rax, %rdi
 1296 0d63 E8000000 		call	_ZNSt7__cxx1112basic_stringIcSt11char_traitsIcESaIcEED1Ev
 1296      00
 193:/home/brendan/Dropbox/PhD/Code/LBM/2D LBFS/src/preprocessor.cpp ****     }
 194:/home/brendan/Dropbox/PhD/Code/LBM/2D LBFS/src/preprocessor.cpp **** 
GAS LISTING /tmp/cc7pRhJa.s 			page 46


 195:/home/brendan/Dropbox/PhD/Code/LBM/2D LBFS/src/preprocessor.cpp ****     // add in w velocity  afterwards for 3d
 196:/home/brendan/Dropbox/PhD/Code/LBM/2D LBFS/src/preprocessor.cpp **** }
 1297              		.loc 2 196 0
 1298 0d68 90       		nop
 1299 0d69 488B45E8 		movq	-24(%rbp), %rax
 1300 0d6d 64483304 		xorq	%fs:40, %rax
 1300      25280000 
 1300      00
 1301 0d76 7421     		je	.L52
 1302 0d78 EB1A     		jmp	.L54
 1303              	.L53:
 1304 0d7a 4889C3   		movq	%rax, %rbx
  79:/home/brendan/Dropbox/PhD/Code/LBM/2D LBFS/src/preprocessor.cpp **** 
 1305              		.loc 2 79 0
 1306 0d7d 488D45C0 		leaq	-64(%rbp), %rax
 1307 0d81 4889C7   		movq	%rax, %rdi
 1308 0d84 E8000000 		call	_ZNSt7__cxx1112basic_stringIcSt11char_traitsIcESaIcEED1Ev
 1308      00
 1309 0d89 4889D8   		movq	%rbx, %rax
 1310 0d8c 4889C7   		movq	%rax, %rdi
 1311              	.LEHB6:
 1312 0d8f E8000000 		call	_Unwind_Resume
 1312      00
 1313              	.LEHE6:
 1314              	.L54:
 1315              		.loc 2 196 0
 1316 0d94 E8000000 		call	__stack_chk_fail
 1316      00
 1317              	.L52:
 1318 0d99 4883C468 		addq	$104, %rsp
 1319 0d9d 5B       		popq	%rbx
 1320 0d9e 5D       		popq	%rbp
 1321              		.cfi_def_cfa 7, 8
 1322 0d9f C3       		ret
 1323              		.cfi_endproc
 1324              	.LFE1784:
 1325              		.section	.gcc_except_table
 1326              	.LLSDA1784:
 1327 0019 FF       		.byte	0xff
 1328 001a FF       		.byte	0xff
 1329 001b 01       		.byte	0x1
 1330 001c 10       		.uleb128 .LLSDACSE1784-.LLSDACSB1784
 1331              	.LLSDACSB1784:
 1332 001d 48       		.uleb128 .LEHB4-.LFB1784
 1333 001e 61       		.uleb128 .LEHE4-.LEHB4
 1334 001f 00       		.uleb128 0
 1335 0020 00       		.uleb128 0
 1336 0021 DE01     		.uleb128 .LEHB5-.LFB1784
 1337 0023 BF10     		.uleb128 .LEHE5-.LEHB5
 1338 0025 D212     		.uleb128 .L53-.LFB1784
 1339 0027 00       		.uleb128 0
 1340 0028 E712     		.uleb128 .LEHB6-.LFB1784
 1341 002a 05       		.uleb128 .LEHE6-.LEHB6
 1342 002b 00       		.uleb128 0
 1343 002c 00       		.uleb128 0
 1344              	.LLSDACSE1784:
 1345              		.text
GAS LISTING /tmp/cc7pRhJa.s 			page 47


 1347              		.section	.rodata
 1348              	.LC16:
 1349 0087 696E6974 		.string	"initial_conditions"
 1349      69616C5F 
 1349      636F6E64 
 1349      6974696F 
 1349      6E7300
 1350              	.LC17:
 1351 009a 61766572 		.string	"average_rho"
 1351      6167655F 
 1351      72686F00 
 1352              	.LC18:
 1353 00a6 7800     		.string	"x"
 1354              	.LC19:
 1355 00a8 67726164 		.string	"gradient"
 1355      69656E74 
 1355      00
 1356              	.LC20:
 1357 00b1 7900     		.string	"y"
 1358              	.LC21:
 1359 00b3 7A00     		.string	"z"
 1360              	.LC22:
 1361 00b5 6F726967 		.string	"origin_magnitude"
 1361      696E5F6D 
 1361      61676E69 
 1361      74756465 
 1361      00
 1362              	.LC23:
 1363 00c6 6F726967 		.string	"origin_location"
 1363      696E5F6C 
 1363      6F636174 
 1363      696F6E00 
 1364              	.LC24:
 1365 00d6 76656C00 		.string	"vel"
 1366              	.LC25:
 1367 00da 7700     		.string	"w"
 1368              		.text
 1369              		.align 2
 1370              		.globl	_ZN12preprocessor24parse_initial_conditionsERN8tinyxml211XMLDocumentER18initial_conditions
 1372              	_ZN12preprocessor24parse_initial_conditionsERN8tinyxml211XMLDocumentER18initial_conditions:
 1373              	.LFB1785:
 197:/home/brendan/Dropbox/PhD/Code/LBM/2D LBFS/src/preprocessor.cpp **** 
 198:/home/brendan/Dropbox/PhD/Code/LBM/2D LBFS/src/preprocessor.cpp **** 
 199:/home/brendan/Dropbox/PhD/Code/LBM/2D LBFS/src/preprocessor.cpp **** 
 200:/home/brendan/Dropbox/PhD/Code/LBM/2D LBFS/src/preprocessor.cpp **** void preprocessor::parse_initial_conditions(XMLDocument &xmlDoc, initial_conditions &initials){
 1374              		.loc 2 200 0
 1375              		.cfi_startproc
 1376 0da0 55       		pushq	%rbp
 1377              		.cfi_def_cfa_offset 16
 1378              		.cfi_offset 6, -16
 1379 0da1 4889E5   		movq	%rsp, %rbp
 1380              		.cfi_def_cfa_register 6
 1381 0da4 4883EC30 		subq	$48, %rsp
 1382 0da8 48897DE8 		movq	%rdi, -24(%rbp)
 1383 0dac 488975E0 		movq	%rsi, -32(%rbp)
 1384 0db0 488955D8 		movq	%rdx, -40(%rbp)
 201:/home/brendan/Dropbox/PhD/Code/LBM/2D LBFS/src/preprocessor.cpp **** 
GAS LISTING /tmp/cc7pRhJa.s 			page 48


 202:/home/brendan/Dropbox/PhD/Code/LBM/2D LBFS/src/preprocessor.cpp ****     const char* parent = "initial_conditions";
 1385              		.loc 2 202 0
 1386 0db4 48C745F8 		movq	$.LC16, -8(%rbp)
 1386      00000000 
 203:/home/brendan/Dropbox/PhD/Code/LBM/2D LBFS/src/preprocessor.cpp ****     initials.average_rho = get_xml_double(parent, "average_rho", xmlDoc);
 1387              		.loc 2 203 0
 1388 0dbc 488B55E0 		movq	-32(%rbp), %rdx
 1389 0dc0 488B75F8 		movq	-8(%rbp), %rsi
 1390 0dc4 488B45E8 		movq	-24(%rbp), %rax
 1391 0dc8 4889D1   		movq	%rdx, %rcx
 1392 0dcb BA000000 		movl	$.LC17, %edx
 1392      00
 1393 0dd0 4889C7   		movq	%rax, %rdi
 1394 0dd3 E8000000 		call	_ZN12preprocessor14get_xml_doubleEPKcS1_RN8tinyxml211XMLDocumentE
 1394      00
 1395 0dd8 66480F7E 		movq	%xmm0, %rdx
 1395      C2
 1396 0ddd 488B45D8 		movq	-40(%rbp), %rax
 1397 0de1 48895068 		movq	%rdx, 104(%rax)
 204:/home/brendan/Dropbox/PhD/Code/LBM/2D LBFS/src/preprocessor.cpp ****     initials.rho_gradient.x = get_xml_double(parent,"rho","gradient","x",xmlDoc);
 1398              		.loc 2 204 0
 1399 0de5 488B55E0 		movq	-32(%rbp), %rdx
 1400 0de9 488B75F8 		movq	-8(%rbp), %rsi
 1401 0ded 488B45E8 		movq	-24(%rbp), %rax
 1402 0df1 4989D1   		movq	%rdx, %r9
 1403 0df4 41B80000 		movl	$.LC18, %r8d
 1403      0000
 1404 0dfa B9000000 		movl	$.LC19, %ecx
 1404      00
 1405 0dff BA000000 		movl	$.LC2, %edx
 1405      00
 1406 0e04 4889C7   		movq	%rax, %rdi
 1407 0e07 E8000000 		call	_ZN12preprocessor14get_xml_doubleEPKcS1_S1_S1_RN8tinyxml211XMLDocumentE
 1407      00
 1408 0e0c 66480F7E 		movq	%xmm0, %rdx
 1408      C2
 1409 0e11 488B45D8 		movq	-40(%rbp), %rax
 1410 0e15 48895010 		movq	%rdx, 16(%rax)
 205:/home/brendan/Dropbox/PhD/Code/LBM/2D LBFS/src/preprocessor.cpp ****     initials.rho_gradient.y = get_xml_double(parent,"rho","gradient","y",xmlDoc);
 1411              		.loc 2 205 0
 1412 0e19 488B55E0 		movq	-32(%rbp), %rdx
 1413 0e1d 488B75F8 		movq	-8(%rbp), %rsi
 1414 0e21 488B45E8 		movq	-24(%rbp), %rax
 1415 0e25 4989D1   		movq	%rdx, %r9
 1416 0e28 41B80000 		movl	$.LC20, %r8d
 1416      0000
 1417 0e2e B9000000 		movl	$.LC19, %ecx
 1417      00
 1418 0e33 BA000000 		movl	$.LC2, %edx
 1418      00
 1419 0e38 4889C7   		movq	%rax, %rdi
 1420 0e3b E8000000 		call	_ZN12preprocessor14get_xml_doubleEPKcS1_S1_S1_RN8tinyxml211XMLDocumentE
 1420      00
 1421 0e40 66480F7E 		movq	%xmm0, %rdx
 1421      C2
 1422 0e45 488B45D8 		movq	-40(%rbp), %rax
 1423 0e49 48895018 		movq	%rdx, 24(%rax)
GAS LISTING /tmp/cc7pRhJa.s 			page 49


 206:/home/brendan/Dropbox/PhD/Code/LBM/2D LBFS/src/preprocessor.cpp ****     initials.rho_gradient.z = get_xml_double(parent,"rho","gradient","z",xmlDoc);
 1424              		.loc 2 206 0
 1425 0e4d 488B55E0 		movq	-32(%rbp), %rdx
 1426 0e51 488B75F8 		movq	-8(%rbp), %rsi
 1427 0e55 488B45E8 		movq	-24(%rbp), %rax
 1428 0e59 4989D1   		movq	%rdx, %r9
 1429 0e5c 41B80000 		movl	$.LC21, %r8d
 1429      0000
 1430 0e62 B9000000 		movl	$.LC19, %ecx
 1430      00
 1431 0e67 BA000000 		movl	$.LC2, %edx
 1431      00
 1432 0e6c 4889C7   		movq	%rax, %rdi
 1433 0e6f E8000000 		call	_ZN12preprocessor14get_xml_doubleEPKcS1_S1_S1_RN8tinyxml211XMLDocumentE
 1433      00
 1434 0e74 66480F7E 		movq	%xmm0, %rdx
 1434      C2
 1435 0e79 488B45D8 		movq	-40(%rbp), %rax
 1436 0e7d 48895020 		movq	%rdx, 32(%rax)
 207:/home/brendan/Dropbox/PhD/Code/LBM/2D LBFS/src/preprocessor.cpp ****     initials.rho_origin_mag.x = get_xml_double(parent,"rho","origin_magnitude","x",xmlDoc);
 1437              		.loc 2 207 0
 1438 0e81 488B55E0 		movq	-32(%rbp), %rdx
 1439 0e85 488B75F8 		movq	-8(%rbp), %rsi
 1440 0e89 488B45E8 		movq	-24(%rbp), %rax
 1441 0e8d 4989D1   		movq	%rdx, %r9
 1442 0e90 41B80000 		movl	$.LC18, %r8d
 1442      0000
 1443 0e96 B9000000 		movl	$.LC22, %ecx
 1443      00
 1444 0e9b BA000000 		movl	$.LC2, %edx
 1444      00
 1445 0ea0 4889C7   		movq	%rax, %rdi
 1446 0ea3 E8000000 		call	_ZN12preprocessor14get_xml_doubleEPKcS1_S1_S1_RN8tinyxml211XMLDocumentE
 1446      00
 1447 0ea8 66480F7E 		movq	%xmm0, %rdx
 1447      C2
 1448 0ead 488B45D8 		movq	-40(%rbp), %rax
 1449 0eb1 48895030 		movq	%rdx, 48(%rax)
 208:/home/brendan/Dropbox/PhD/Code/LBM/2D LBFS/src/preprocessor.cpp ****     initials.rho_origin_mag.y = get_xml_double(parent,"rho","origin_magnitude","y",xmlDoc);
 1450              		.loc 2 208 0
 1451 0eb5 488B55E0 		movq	-32(%rbp), %rdx
 1452 0eb9 488B75F8 		movq	-8(%rbp), %rsi
 1453 0ebd 488B45E8 		movq	-24(%rbp), %rax
 1454 0ec1 4989D1   		movq	%rdx, %r9
 1455 0ec4 41B80000 		movl	$.LC20, %r8d
 1455      0000
 1456 0eca B9000000 		movl	$.LC22, %ecx
 1456      00
 1457 0ecf BA000000 		movl	$.LC2, %edx
 1457      00
 1458 0ed4 4889C7   		movq	%rax, %rdi
 1459 0ed7 E8000000 		call	_ZN12preprocessor14get_xml_doubleEPKcS1_S1_S1_RN8tinyxml211XMLDocumentE
 1459      00
 1460 0edc 66480F7E 		movq	%xmm0, %rdx
 1460      C2
 1461 0ee1 488B45D8 		movq	-40(%rbp), %rax
 1462 0ee5 48895038 		movq	%rdx, 56(%rax)
GAS LISTING /tmp/cc7pRhJa.s 			page 50


 209:/home/brendan/Dropbox/PhD/Code/LBM/2D LBFS/src/preprocessor.cpp ****     initials.rho_origin_mag.z = get_xml_double(parent,"rho","origin_magnitude","z",xmlDoc);
 1463              		.loc 2 209 0
 1464 0ee9 488B55E0 		movq	-32(%rbp), %rdx
 1465 0eed 488B75F8 		movq	-8(%rbp), %rsi
 1466 0ef1 488B45E8 		movq	-24(%rbp), %rax
 1467 0ef5 4989D1   		movq	%rdx, %r9
 1468 0ef8 41B80000 		movl	$.LC21, %r8d
 1468      0000
 1469 0efe B9000000 		movl	$.LC22, %ecx
 1469      00
 1470 0f03 BA000000 		movl	$.LC2, %edx
 1470      00
 1471 0f08 4889C7   		movq	%rax, %rdi
 1472 0f0b E8000000 		call	_ZN12preprocessor14get_xml_doubleEPKcS1_S1_S1_RN8tinyxml211XMLDocumentE
 1472      00
 1473 0f10 66480F7E 		movq	%xmm0, %rdx
 1473      C2
 1474 0f15 488B45D8 		movq	-40(%rbp), %rax
 1475 0f19 48895040 		movq	%rdx, 64(%rax)
 210:/home/brendan/Dropbox/PhD/Code/LBM/2D LBFS/src/preprocessor.cpp ****     initials.origin_loc.x = get_xml_double(parent,"origin_location","x",xmlDoc);
 1476              		.loc 2 210 0
 1477 0f1d 488B55E0 		movq	-32(%rbp), %rdx
 1478 0f21 488B75F8 		movq	-8(%rbp), %rsi
 1479 0f25 488B45E8 		movq	-24(%rbp), %rax
 1480 0f29 4989D0   		movq	%rdx, %r8
 1481 0f2c B9000000 		movl	$.LC18, %ecx
 1481      00
 1482 0f31 BA000000 		movl	$.LC23, %edx
 1482      00
 1483 0f36 4889C7   		movq	%rax, %rdi
 1484 0f39 E8000000 		call	_ZN12preprocessor14get_xml_doubleEPKcS1_S1_RN8tinyxml211XMLDocumentE
 1484      00
 1485 0f3e 66480F7E 		movq	%xmm0, %rdx
 1485      C2
 1486 0f43 488B45D8 		movq	-40(%rbp), %rax
 1487 0f47 48895050 		movq	%rdx, 80(%rax)
 211:/home/brendan/Dropbox/PhD/Code/LBM/2D LBFS/src/preprocessor.cpp ****     initials.origin_loc.y = get_xml_double(parent,"origin_location","y",xmlDoc);
 1488              		.loc 2 211 0
 1489 0f4b 488B55E0 		movq	-32(%rbp), %rdx
 1490 0f4f 488B75F8 		movq	-8(%rbp), %rsi
 1491 0f53 488B45E8 		movq	-24(%rbp), %rax
 1492 0f57 4989D0   		movq	%rdx, %r8
 1493 0f5a B9000000 		movl	$.LC20, %ecx
 1493      00
 1494 0f5f BA000000 		movl	$.LC23, %edx
 1494      00
 1495 0f64 4889C7   		movq	%rax, %rdi
 1496 0f67 E8000000 		call	_ZN12preprocessor14get_xml_doubleEPKcS1_S1_RN8tinyxml211XMLDocumentE
 1496      00
 1497 0f6c 66480F7E 		movq	%xmm0, %rdx
 1497      C2
 1498 0f71 488B45D8 		movq	-40(%rbp), %rax
 1499 0f75 48895058 		movq	%rdx, 88(%rax)
 212:/home/brendan/Dropbox/PhD/Code/LBM/2D LBFS/src/preprocessor.cpp ****     initials.origin_loc.z = get_xml_double(parent,"origin_location","z",xmlDoc);
 1500              		.loc 2 212 0
 1501 0f79 488B55E0 		movq	-32(%rbp), %rdx
 1502 0f7d 488B75F8 		movq	-8(%rbp), %rsi
GAS LISTING /tmp/cc7pRhJa.s 			page 51


 1503 0f81 488B45E8 		movq	-24(%rbp), %rax
 1504 0f85 4989D0   		movq	%rdx, %r8
 1505 0f88 B9000000 		movl	$.LC21, %ecx
 1505      00
 1506 0f8d BA000000 		movl	$.LC23, %edx
 1506      00
 1507 0f92 4889C7   		movq	%rax, %rdi
 1508 0f95 E8000000 		call	_ZN12preprocessor14get_xml_doubleEPKcS1_S1_RN8tinyxml211XMLDocumentE
 1508      00
 1509 0f9a 66480F7E 		movq	%xmm0, %rdx
 1509      C2
 1510 0f9f 488B45D8 		movq	-40(%rbp), %rax
 1511 0fa3 48895060 		movq	%rdx, 96(%rax)
 213:/home/brendan/Dropbox/PhD/Code/LBM/2D LBFS/src/preprocessor.cpp ****     initials.vel_gradient.x = get_xml_double(parent,"vel","gradient","x",xmlDoc);
 1512              		.loc 2 213 0
 1513 0fa7 488B55E0 		movq	-32(%rbp), %rdx
 1514 0fab 488B75F8 		movq	-8(%rbp), %rsi
 1515 0faf 488B45E8 		movq	-24(%rbp), %rax
 1516 0fb3 4989D1   		movq	%rdx, %r9
 1517 0fb6 41B80000 		movl	$.LC18, %r8d
 1517      0000
 1518 0fbc B9000000 		movl	$.LC19, %ecx
 1518      00
 1519 0fc1 BA000000 		movl	$.LC24, %edx
 1519      00
 1520 0fc6 4889C7   		movq	%rax, %rdi
 1521 0fc9 E8000000 		call	_ZN12preprocessor14get_xml_doubleEPKcS1_S1_S1_RN8tinyxml211XMLDocumentE
 1521      00
 1522 0fce 66480F7E 		movq	%xmm0, %rdx
 1522      C2
 1523 0fd3 488B45D8 		movq	-40(%rbp), %rax
 1524 0fd7 48899098 		movq	%rdx, 152(%rax)
 1524      000000
 214:/home/brendan/Dropbox/PhD/Code/LBM/2D LBFS/src/preprocessor.cpp ****     initials.vel_gradient.y = get_xml_double(parent,"vel","gradient","y",xmlDoc);
 1525              		.loc 2 214 0
 1526 0fde 488B55E0 		movq	-32(%rbp), %rdx
 1527 0fe2 488B75F8 		movq	-8(%rbp), %rsi
 1528 0fe6 488B45E8 		movq	-24(%rbp), %rax
 1529 0fea 4989D1   		movq	%rdx, %r9
 1530 0fed 41B80000 		movl	$.LC20, %r8d
 1530      0000
 1531 0ff3 B9000000 		movl	$.LC19, %ecx
 1531      00
 1532 0ff8 BA000000 		movl	$.LC24, %edx
 1532      00
 1533 0ffd 4889C7   		movq	%rax, %rdi
 1534 1000 E8000000 		call	_ZN12preprocessor14get_xml_doubleEPKcS1_S1_S1_RN8tinyxml211XMLDocumentE
 1534      00
 1535 1005 66480F7E 		movq	%xmm0, %rdx
 1535      C2
 1536 100a 488B45D8 		movq	-40(%rbp), %rax
 1537 100e 488990A0 		movq	%rdx, 160(%rax)
 1537      000000
 215:/home/brendan/Dropbox/PhD/Code/LBM/2D LBFS/src/preprocessor.cpp ****     initials.vel_gradient.z = get_xml_double(parent,"vel","gradient","z",xmlDoc);
 1538              		.loc 2 215 0
 1539 1015 488B55E0 		movq	-32(%rbp), %rdx
 1540 1019 488B75F8 		movq	-8(%rbp), %rsi
GAS LISTING /tmp/cc7pRhJa.s 			page 52


 1541 101d 488B45E8 		movq	-24(%rbp), %rax
 1542 1021 4989D1   		movq	%rdx, %r9
 1543 1024 41B80000 		movl	$.LC21, %r8d
 1543      0000
 1544 102a B9000000 		movl	$.LC19, %ecx
 1544      00
 1545 102f BA000000 		movl	$.LC24, %edx
 1545      00
 1546 1034 4889C7   		movq	%rax, %rdi
 1547 1037 E8000000 		call	_ZN12preprocessor14get_xml_doubleEPKcS1_S1_S1_RN8tinyxml211XMLDocumentE
 1547      00
 1548 103c 66480F7E 		movq	%xmm0, %rdx
 1548      C2
 1549 1041 488B45D8 		movq	-40(%rbp), %rax
 1550 1045 488990A8 		movq	%rdx, 168(%rax)
 1550      000000
 216:/home/brendan/Dropbox/PhD/Code/LBM/2D LBFS/src/preprocessor.cpp ****     initials.vel_origin_mag.x = get_xml_double(parent,"vel","origin_magnitude","x",xmlDoc);
 1551              		.loc 2 216 0
 1552 104c 488B55E0 		movq	-32(%rbp), %rdx
 1553 1050 488B75F8 		movq	-8(%rbp), %rsi
 1554 1054 488B45E8 		movq	-24(%rbp), %rax
 1555 1058 4989D1   		movq	%rdx, %r9
 1556 105b 41B80000 		movl	$.LC18, %r8d
 1556      0000
 1557 1061 B9000000 		movl	$.LC22, %ecx
 1557      00
 1558 1066 BA000000 		movl	$.LC24, %edx
 1558      00
 1559 106b 4889C7   		movq	%rax, %rdi
 1560 106e E8000000 		call	_ZN12preprocessor14get_xml_doubleEPKcS1_S1_S1_RN8tinyxml211XMLDocumentE
 1560      00
 1561 1073 66480F7E 		movq	%xmm0, %rdx
 1561      C2
 1562 1078 488B45D8 		movq	-40(%rbp), %rax
 1563 107c 488990B8 		movq	%rdx, 184(%rax)
 1563      000000
 217:/home/brendan/Dropbox/PhD/Code/LBM/2D LBFS/src/preprocessor.cpp ****     initials.vel_origin_mag.y = get_xml_double(parent,"vel","origin_magnitude","y",xmlDoc);
 1564              		.loc 2 217 0
 1565 1083 488B55E0 		movq	-32(%rbp), %rdx
 1566 1087 488B75F8 		movq	-8(%rbp), %rsi
 1567 108b 488B45E8 		movq	-24(%rbp), %rax
 1568 108f 4989D1   		movq	%rdx, %r9
 1569 1092 41B80000 		movl	$.LC20, %r8d
 1569      0000
 1570 1098 B9000000 		movl	$.LC22, %ecx
 1570      00
 1571 109d BA000000 		movl	$.LC24, %edx
 1571      00
 1572 10a2 4889C7   		movq	%rax, %rdi
 1573 10a5 E8000000 		call	_ZN12preprocessor14get_xml_doubleEPKcS1_S1_S1_RN8tinyxml211XMLDocumentE
 1573      00
 1574 10aa 66480F7E 		movq	%xmm0, %rdx
 1574      C2
 1575 10af 488B45D8 		movq	-40(%rbp), %rax
 1576 10b3 488990C0 		movq	%rdx, 192(%rax)
 1576      000000
 218:/home/brendan/Dropbox/PhD/Code/LBM/2D LBFS/src/preprocessor.cpp ****     initials.vel_origin_mag.z = get_xml_double(parent,"vel","origin_magnitude","z",xmlDoc);
GAS LISTING /tmp/cc7pRhJa.s 			page 53


 1577              		.loc 2 218 0
 1578 10ba 488B55E0 		movq	-32(%rbp), %rdx
 1579 10be 488B75F8 		movq	-8(%rbp), %rsi
 1580 10c2 488B45E8 		movq	-24(%rbp), %rax
 1581 10c6 4989D1   		movq	%rdx, %r9
 1582 10c9 41B80000 		movl	$.LC21, %r8d
 1582      0000
 1583 10cf B9000000 		movl	$.LC22, %ecx
 1583      00
 1584 10d4 BA000000 		movl	$.LC24, %edx
 1584      00
 1585 10d9 4889C7   		movq	%rax, %rdi
 1586 10dc E8000000 		call	_ZN12preprocessor14get_xml_doubleEPKcS1_S1_S1_RN8tinyxml211XMLDocumentE
 1586      00
 1587 10e1 66480F7E 		movq	%xmm0, %rdx
 1587      C2
 1588 10e6 488B45D8 		movq	-40(%rbp), %rax
 1589 10ea 488990C8 		movq	%rdx, 200(%rax)
 1589      000000
 219:/home/brendan/Dropbox/PhD/Code/LBM/2D LBFS/src/preprocessor.cpp **** 
 220:/home/brendan/Dropbox/PhD/Code/LBM/2D LBFS/src/preprocessor.cpp ****     initials.velocity.x = get_xml_double(parent, "u", xmlDoc);
 1590              		.loc 2 220 0
 1591 10f1 488B55E0 		movq	-32(%rbp), %rdx
 1592 10f5 488B75F8 		movq	-8(%rbp), %rsi
 1593 10f9 488B45E8 		movq	-24(%rbp), %rax
 1594 10fd 4889D1   		movq	%rdx, %rcx
 1595 1100 BA000000 		movl	$.LC4, %edx
 1595      00
 1596 1105 4889C7   		movq	%rax, %rdi
 1597 1108 E8000000 		call	_ZN12preprocessor14get_xml_doubleEPKcS1_RN8tinyxml211XMLDocumentE
 1597      00
 1598 110d 66480F7E 		movq	%xmm0, %rdx
 1598      C2
 1599 1112 488B45D8 		movq	-40(%rbp), %rax
 1600 1116 48895078 		movq	%rdx, 120(%rax)
 221:/home/brendan/Dropbox/PhD/Code/LBM/2D LBFS/src/preprocessor.cpp ****     initials.velocity.y = get_xml_double(parent, "v", xmlDoc);
 1601              		.loc 2 221 0
 1602 111a 488B55E0 		movq	-32(%rbp), %rdx
 1603 111e 488B75F8 		movq	-8(%rbp), %rsi
 1604 1122 488B45E8 		movq	-24(%rbp), %rax
 1605 1126 4889D1   		movq	%rdx, %rcx
 1606 1129 BA000000 		movl	$.LC5, %edx
 1606      00
 1607 112e 4889C7   		movq	%rax, %rdi
 1608 1131 E8000000 		call	_ZN12preprocessor14get_xml_doubleEPKcS1_RN8tinyxml211XMLDocumentE
 1608      00
 1609 1136 66480F7E 		movq	%xmm0, %rdx
 1609      C2
 1610 113b 488B45D8 		movq	-40(%rbp), %rax
 1611 113f 48899080 		movq	%rdx, 128(%rax)
 1611      000000
 222:/home/brendan/Dropbox/PhD/Code/LBM/2D LBFS/src/preprocessor.cpp ****     initials.velocity.z = get_xml_double(parent, "w", xmlDoc);
 1612              		.loc 2 222 0
 1613 1146 488B55E0 		movq	-32(%rbp), %rdx
 1614 114a 488B75F8 		movq	-8(%rbp), %rsi
 1615 114e 488B45E8 		movq	-24(%rbp), %rax
 1616 1152 4889D1   		movq	%rdx, %rcx
GAS LISTING /tmp/cc7pRhJa.s 			page 54


 1617 1155 BA000000 		movl	$.LC25, %edx
 1617      00
 1618 115a 4889C7   		movq	%rax, %rdi
 1619 115d E8000000 		call	_ZN12preprocessor14get_xml_doubleEPKcS1_RN8tinyxml211XMLDocumentE
 1619      00
 1620 1162 66480F7E 		movq	%xmm0, %rdx
 1620      C2
 1621 1167 488B45D8 		movq	-40(%rbp), %rax
 1622 116b 48899088 		movq	%rdx, 136(%rax)
 1622      000000
 223:/home/brendan/Dropbox/PhD/Code/LBM/2D LBFS/src/preprocessor.cpp **** 
 224:/home/brendan/Dropbox/PhD/Code/LBM/2D LBFS/src/preprocessor.cpp **** }
 1623              		.loc 2 224 0
 1624 1172 90       		nop
 1625 1173 C9       		leave
 1626              		.cfi_def_cfa 7, 8
 1627 1174 C3       		ret
 1628              		.cfi_endproc
 1629              	.LFE1785:
 1631              		.section	.rodata
 1632              	.LC26:
 1633 00dc 67656F6D 		.string	"geometry"
 1633      65747279 
 1633      00
 1634              	.LC27:
 1635 00e5 647800   		.string	"dx"
 1636              	.LC28:
 1637 00e8 647900   		.string	"dy"
 1638              	.LC29:
 1639 00eb 73747265 		.string	"streaming_dt"
 1639      616D696E 
 1639      675F6474 
 1639      00
 1640              		.text
 1641 1175 90       		.align 2
 1642              		.globl	_ZN12preprocessor24parse_geometry_variablesERN8tinyxml211XMLDocumentER15domain_geometry
 1644              	_ZN12preprocessor24parse_geometry_variablesERN8tinyxml211XMLDocumentER15domain_geometry:
 1645              	.LFB1786:
 225:/home/brendan/Dropbox/PhD/Code/LBM/2D LBFS/src/preprocessor.cpp **** void preprocessor::parse_geometry_variables(XMLDocument &xmlDoc, domain_geometry &geometry){
 1646              		.loc 2 225 0
 1647              		.cfi_startproc
 1648 1176 55       		pushq	%rbp
 1649              		.cfi_def_cfa_offset 16
 1650              		.cfi_offset 6, -16
 1651 1177 4889E5   		movq	%rsp, %rbp
 1652              		.cfi_def_cfa_register 6
 1653 117a 4883EC30 		subq	$48, %rsp
 1654 117e 48897DE8 		movq	%rdi, -24(%rbp)
 1655 1182 488975E0 		movq	%rsi, -32(%rbp)
 1656 1186 488955D8 		movq	%rdx, -40(%rbp)
 226:/home/brendan/Dropbox/PhD/Code/LBM/2D LBFS/src/preprocessor.cpp **** 
 227:/home/brendan/Dropbox/PhD/Code/LBM/2D LBFS/src/preprocessor.cpp ****     const char* parent = "geometry";
 1657              		.loc 2 227 0
 1658 118a 48C745F8 		movq	$.LC26, -8(%rbp)
 1658      00000000 
 228:/home/brendan/Dropbox/PhD/Code/LBM/2D LBFS/src/preprocessor.cpp ****     geometry.X = get_xml_double(parent, "x", xmlDoc);
 1659              		.loc 2 228 0
GAS LISTING /tmp/cc7pRhJa.s 			page 55


 1660 1192 488B55E0 		movq	-32(%rbp), %rdx
 1661 1196 488B75F8 		movq	-8(%rbp), %rsi
 1662 119a 488B45E8 		movq	-24(%rbp), %rax
 1663 119e 4889D1   		movq	%rdx, %rcx
 1664 11a1 BA000000 		movl	$.LC18, %edx
 1664      00
 1665 11a6 4889C7   		movq	%rax, %rdi
 1666 11a9 E8000000 		call	_ZN12preprocessor14get_xml_doubleEPKcS1_RN8tinyxml211XMLDocumentE
 1666      00
 1667 11ae 66480F7E 		movq	%xmm0, %rdx
 1667      C2
 1668 11b3 488B45D8 		movq	-40(%rbp), %rax
 1669 11b7 48895008 		movq	%rdx, 8(%rax)
 229:/home/brendan/Dropbox/PhD/Code/LBM/2D LBFS/src/preprocessor.cpp ****     geometry.Y= get_xml_double(parent, "y",xmlDoc);
 1670              		.loc 2 229 0
 1671 11bb 488B55E0 		movq	-32(%rbp), %rdx
 1672 11bf 488B75F8 		movq	-8(%rbp), %rsi
 1673 11c3 488B45E8 		movq	-24(%rbp), %rax
 1674 11c7 4889D1   		movq	%rdx, %rcx
 1675 11ca BA000000 		movl	$.LC20, %edx
 1675      00
 1676 11cf 4889C7   		movq	%rax, %rdi
 1677 11d2 E8000000 		call	_ZN12preprocessor14get_xml_doubleEPKcS1_RN8tinyxml211XMLDocumentE
 1677      00
 1678 11d7 66480F7E 		movq	%xmm0, %rdx
 1678      C2
 1679 11dc 488B45D8 		movq	-40(%rbp), %rax
 1680 11e0 48895010 		movq	%rdx, 16(%rax)
 230:/home/brendan/Dropbox/PhD/Code/LBM/2D LBFS/src/preprocessor.cpp ****     geometry.dx = get_xml_double(parent, "dx", xmlDoc);
 1681              		.loc 2 230 0
 1682 11e4 488B55E0 		movq	-32(%rbp), %rdx
 1683 11e8 488B75F8 		movq	-8(%rbp), %rsi
 1684 11ec 488B45E8 		movq	-24(%rbp), %rax
 1685 11f0 4889D1   		movq	%rdx, %rcx
 1686 11f3 BA000000 		movl	$.LC27, %edx
 1686      00
 1687 11f8 4889C7   		movq	%rax, %rdi
 1688 11fb E8000000 		call	_ZN12preprocessor14get_xml_doubleEPKcS1_RN8tinyxml211XMLDocumentE
 1688      00
 1689 1200 66480F7E 		movq	%xmm0, %rdx
 1689      C2
 1690 1205 488B45D8 		movq	-40(%rbp), %rax
 1691 1209 48895018 		movq	%rdx, 24(%rax)
 231:/home/brendan/Dropbox/PhD/Code/LBM/2D LBFS/src/preprocessor.cpp ****     geometry.dy = get_xml_double(parent, "dy", xmlDoc);
 1692              		.loc 2 231 0
 1693 120d 488B55E0 		movq	-32(%rbp), %rdx
 1694 1211 488B75F8 		movq	-8(%rbp), %rsi
 1695 1215 488B45E8 		movq	-24(%rbp), %rax
 1696 1219 4889D1   		movq	%rdx, %rcx
 1697 121c BA000000 		movl	$.LC28, %edx
 1697      00
 1698 1221 4889C7   		movq	%rax, %rdi
 1699 1224 E8000000 		call	_ZN12preprocessor14get_xml_doubleEPKcS1_RN8tinyxml211XMLDocumentE
 1699      00
 1700 1229 66480F7E 		movq	%xmm0, %rdx
 1700      C2
 1701 122e 488B45D8 		movq	-40(%rbp), %rax
GAS LISTING /tmp/cc7pRhJa.s 			page 56


 1702 1232 48895020 		movq	%rdx, 32(%rax)
 232:/home/brendan/Dropbox/PhD/Code/LBM/2D LBFS/src/preprocessor.cpp ****     geometry.dt= get_xml_double(parent, "streaming_dt", xmlDoc);
 1703              		.loc 2 232 0
 1704 1236 488B55E0 		movq	-32(%rbp), %rdx
 1705 123a 488B75F8 		movq	-8(%rbp), %rsi
 1706 123e 488B45E8 		movq	-24(%rbp), %rax
 1707 1242 4889D1   		movq	%rdx, %rcx
 1708 1245 BA000000 		movl	$.LC29, %edx
 1708      00
 1709 124a 4889C7   		movq	%rax, %rdi
 1710 124d E8000000 		call	_ZN12preprocessor14get_xml_doubleEPKcS1_RN8tinyxml211XMLDocumentE
 1710      00
 1711 1252 66480F7E 		movq	%xmm0, %rdx
 1711      C2
 1712 1257 488B45D8 		movq	-40(%rbp), %rax
 1713 125b 48895028 		movq	%rdx, 40(%rax)
 233:/home/brendan/Dropbox/PhD/Code/LBM/2D LBFS/src/preprocessor.cpp **** 
 234:/home/brendan/Dropbox/PhD/Code/LBM/2D LBFS/src/preprocessor.cpp ****     geometry.initialise();
 1714              		.loc 2 234 0
 1715 125f 488B45D8 		movq	-40(%rbp), %rax
 1716 1263 4889C7   		movq	%rax, %rdi
 1717 1266 E8000000 		call	_ZN15domain_geometry10initialiseEv
 1717      00
 235:/home/brendan/Dropbox/PhD/Code/LBM/2D LBFS/src/preprocessor.cpp **** 
 236:/home/brendan/Dropbox/PhD/Code/LBM/2D LBFS/src/preprocessor.cpp **** }
 1718              		.loc 2 236 0
 1719 126b 90       		nop
 1720 126c C9       		leave
 1721              		.cfi_def_cfa 7, 8
 1722 126d C3       		ret
 1723              		.cfi_endproc
 1724              	.LFE1786:
 1726              		.section	.rodata
 1727              	.LC30:
 1728 00f8 676C6F62 		.string	"global_variables"
 1728      616C5F76 
 1728      61726961 
 1728      626C6573 
 1728      00
 1729              	.LC31:
 1730 0109 746F6C65 		.string	"tolerance"
 1730      72616E63 
 1730      6500
 1731              	.LC32:
 1732 0113 7072655F 		.string	"pre_condition_gamma"
 1732      636F6E64 
 1732      6974696F 
 1732      6E5F6761 
 1732      6D6D6100 
 1733              	.LC33:
 1734 0127 73696D75 		.string	"simulation_length"
 1734      6C617469 
 1734      6F6E5F6C 
 1734      656E6774 
 1734      6800
 1735              	.LC34:
 1736 0139 74696D65 		.string	"time_marching_step"
GAS LISTING /tmp/cc7pRhJa.s 			page 57


 1736      5F6D6172 
 1736      6368696E 
 1736      675F7374 
 1736      657000
 1737              	.LC35:
 1738 014c 7265796E 		.string	"reynolds_no"
 1738      6F6C6473 
 1738      5F6E6F00 
 1739              	.LC36:
 1740 0158 6D616368 		.string	"mach_no"
 1740      5F6E6F00 
 1741              	.LC37:
 1742 0160 73696D75 		.string	"simulation_name"
 1742      6C617469 
 1742      6F6E5F6E 
 1742      616D6500 
 1743              	.LC38:
 1744 0170 6F757470 		.string	"output_directory"
 1744      75745F64 
 1744      69726563 
 1744      746F7279 
 1744      00
 1745              	.LC39:
 1746 0181 6D61785F 		.string	"max_multi_grid_levels"
 1746      6D756C74 
 1746      695F6772 
 1746      69645F6C 
 1746      6576656C 
 1747              	.LC40:
 1748 0197 464D475F 		.string	"FMG_levels"
 1748      6C657665 
 1748      6C7300
 1749              	.LC41:
 1750 01a2 464D475F 		.string	"FMG_tolerance"
 1750      746F6C65 
 1750      72616E63 
 1750      6500
 1751              	.LC42:
 1752 01b0 64697373 		.string	"dissipation_kappa_2"
 1752      69706174 
 1752      696F6E5F 
 1752      6B617070 
 1752      615F3200 
 1753              	.LC43:
 1754 01c4 64697373 		.string	"dissipation_kappa_4"
 1754      69706174 
 1754      696F6E5F 
 1754      6B617070 
 1754      615F3400 
 1755              	.LC44:
 1756 01d8 6D617274 		.string	"martinelli_exponent"
 1756      696E656C 
 1756      6C695F65 
 1756      78706F6E 
 1756      656E7400 
 1757              	.LC45:
 1758 01ec 74657374 		.string	"testcase"
GAS LISTING /tmp/cc7pRhJa.s 			page 58


 1758      63617365 
 1758      00
 1759              	.LC46:
 1760 01f5 6D657368 		.string	"mesh_type"
 1760      5F747970 
 1760      6500
 1761              		.text
 1762              		.align 2
 1763              		.globl	_ZN12preprocessor22parse_global_variablesERN8tinyxml211XMLDocumentER16global_variables
 1765              	_ZN12preprocessor22parse_global_variablesERN8tinyxml211XMLDocumentER16global_variables:
 1766              	.LFB1787:
 237:/home/brendan/Dropbox/PhD/Code/LBM/2D LBFS/src/preprocessor.cpp **** void preprocessor::parse_global_variables(XMLDocument &xmlDoc, global_variables &globals){
 1767              		.loc 2 237 0
 1768              		.cfi_startproc
 1769 126e 55       		pushq	%rbp
 1770              		.cfi_def_cfa_offset 16
 1771              		.cfi_offset 6, -16
 1772 126f 4889E5   		movq	%rsp, %rbp
 1773              		.cfi_def_cfa_register 6
 1774 1272 4883EC30 		subq	$48, %rsp
 1775 1276 48897DE8 		movq	%rdi, -24(%rbp)
 1776 127a 488975E0 		movq	%rsi, -32(%rbp)
 1777 127e 488955D8 		movq	%rdx, -40(%rbp)
 238:/home/brendan/Dropbox/PhD/Code/LBM/2D LBFS/src/preprocessor.cpp **** 
 239:/home/brendan/Dropbox/PhD/Code/LBM/2D LBFS/src/preprocessor.cpp ****     const char* parent = "global_variables";
 1778              		.loc 2 239 0
 1779 1282 48C745F8 		movq	$.LC30, -8(%rbp)
 1779      00000000 
 240:/home/brendan/Dropbox/PhD/Code/LBM/2D LBFS/src/preprocessor.cpp ****     globals.tolerance = get_xml_double(parent, "tolerance", xmlDoc);
 1780              		.loc 2 240 0
 1781 128a 488B55E0 		movq	-32(%rbp), %rdx
 1782 128e 488B75F8 		movq	-8(%rbp), %rsi
 1783 1292 488B45E8 		movq	-24(%rbp), %rax
 1784 1296 4889D1   		movq	%rdx, %rcx
 1785 1299 BA000000 		movl	$.LC31, %edx
 1785      00
 1786 129e 4889C7   		movq	%rax, %rdi
 1787 12a1 E8000000 		call	_ZN12preprocessor14get_xml_doubleEPKcS1_RN8tinyxml211XMLDocumentE
 1787      00
 1788 12a6 66480F7E 		movq	%xmm0, %rdx
 1788      C2
 1789 12ab 488B45D8 		movq	-40(%rbp), %rax
 1790 12af 48895028 		movq	%rdx, 40(%rax)
 241:/home/brendan/Dropbox/PhD/Code/LBM/2D LBFS/src/preprocessor.cpp ****     globals.pre_conditioned_gamma = get_xml_double(parent, "pre_condition_gamma",xmlDoc);
 1791              		.loc 2 241 0
 1792 12b3 488B55E0 		movq	-32(%rbp), %rdx
 1793 12b7 488B75F8 		movq	-8(%rbp), %rsi
 1794 12bb 488B45E8 		movq	-24(%rbp), %rax
 1795 12bf 4889D1   		movq	%rdx, %rcx
 1796 12c2 BA000000 		movl	$.LC32, %edx
 1796      00
 1797 12c7 4889C7   		movq	%rax, %rdi
 1798 12ca E8000000 		call	_ZN12preprocessor14get_xml_doubleEPKcS1_RN8tinyxml211XMLDocumentE
 1798      00
 1799 12cf 66480F7E 		movq	%xmm0, %rdx
 1799      C2
 1800 12d4 488B45D8 		movq	-40(%rbp), %rax
GAS LISTING /tmp/cc7pRhJa.s 			page 59


 1801 12d8 48895030 		movq	%rdx, 48(%rax)
 242:/home/brendan/Dropbox/PhD/Code/LBM/2D LBFS/src/preprocessor.cpp ****     globals.simulation_length = get_xml_double(parent, "simulation_length", xmlDoc);
 1802              		.loc 2 242 0
 1803 12dc 488B55E0 		movq	-32(%rbp), %rdx
 1804 12e0 488B75F8 		movq	-8(%rbp), %rsi
 1805 12e4 488B45E8 		movq	-24(%rbp), %rax
 1806 12e8 4889D1   		movq	%rdx, %rcx
 1807 12eb BA000000 		movl	$.LC33, %edx
 1807      00
 1808 12f0 4889C7   		movq	%rax, %rdi
 1809 12f3 E8000000 		call	_ZN12preprocessor14get_xml_doubleEPKcS1_RN8tinyxml211XMLDocumentE
 1809      00
 1810 12f8 66480F7E 		movq	%xmm0, %rdx
 1810      C2
 1811 12fd 488B45D8 		movq	-40(%rbp), %rax
 1812 1301 48895038 		movq	%rdx, 56(%rax)
 243:/home/brendan/Dropbox/PhD/Code/LBM/2D LBFS/src/preprocessor.cpp ****     globals.time_marching_step = get_xml_double(parent, "time_marching_step", xmlDoc);
 1813              		.loc 2 243 0
 1814 1305 488B55E0 		movq	-32(%rbp), %rdx
 1815 1309 488B75F8 		movq	-8(%rbp), %rsi
 1816 130d 488B45E8 		movq	-24(%rbp), %rax
 1817 1311 4889D1   		movq	%rdx, %rcx
 1818 1314 BA000000 		movl	$.LC34, %edx
 1818      00
 1819 1319 4889C7   		movq	%rax, %rdi
 1820 131c E8000000 		call	_ZN12preprocessor14get_xml_doubleEPKcS1_RN8tinyxml211XMLDocumentE
 1820      00
 1821 1321 66480F7E 		movq	%xmm0, %rdx
 1821      C2
 1822 1326 488B45D8 		movq	-40(%rbp), %rax
 1823 132a 48895040 		movq	%rdx, 64(%rax)
 244:/home/brendan/Dropbox/PhD/Code/LBM/2D LBFS/src/preprocessor.cpp ****     globals.reynolds_number = get_xml_double(parent, "reynolds_no", xmlDoc);
 1824              		.loc 2 244 0
 1825 132e 488B55E0 		movq	-32(%rbp), %rdx
 1826 1332 488B75F8 		movq	-8(%rbp), %rsi
 1827 1336 488B45E8 		movq	-24(%rbp), %rax
 1828 133a 4889D1   		movq	%rdx, %rcx
 1829 133d BA000000 		movl	$.LC35, %edx
 1829      00
 1830 1342 4889C7   		movq	%rax, %rdi
 1831 1345 E8000000 		call	_ZN12preprocessor14get_xml_doubleEPKcS1_RN8tinyxml211XMLDocumentE
 1831      00
 1832 134a 66480F7E 		movq	%xmm0, %rdx
 1832      C2
 1833 134f 488B45D8 		movq	-40(%rbp), %rax
 1834 1353 48895048 		movq	%rdx, 72(%rax)
 245:/home/brendan/Dropbox/PhD/Code/LBM/2D LBFS/src/preprocessor.cpp ****     globals.mach_number = get_xml_double(parent, "mach_no", xmlDoc);
 1835              		.loc 2 245 0
 1836 1357 488B55E0 		movq	-32(%rbp), %rdx
 1837 135b 488B75F8 		movq	-8(%rbp), %rsi
 1838 135f 488B45E8 		movq	-24(%rbp), %rax
 1839 1363 4889D1   		movq	%rdx, %rcx
 1840 1366 BA000000 		movl	$.LC36, %edx
 1840      00
 1841 136b 4889C7   		movq	%rax, %rdi
 1842 136e E8000000 		call	_ZN12preprocessor14get_xml_doubleEPKcS1_RN8tinyxml211XMLDocumentE
 1842      00
GAS LISTING /tmp/cc7pRhJa.s 			page 60


 1843 1373 66480F7E 		movq	%xmm0, %rdx
 1843      C2
 1844 1378 488B45D8 		movq	-40(%rbp), %rax
 1845 137c 48895050 		movq	%rdx, 80(%rax)
 246:/home/brendan/Dropbox/PhD/Code/LBM/2D LBFS/src/preprocessor.cpp ****     globals.simulation_name = get_xml_text(parent,"simulation_name",xmlDoc);
 1846              		.loc 2 246 0
 1847 1380 488B55E0 		movq	-32(%rbp), %rdx
 1848 1384 488B75F8 		movq	-8(%rbp), %rsi
 1849 1388 488B45E8 		movq	-24(%rbp), %rax
 1850 138c 4889D1   		movq	%rdx, %rcx
 1851 138f BA000000 		movl	$.LC37, %edx
 1851      00
 1852 1394 4889C7   		movq	%rax, %rdi
 1853 1397 E8000000 		call	_ZN12preprocessor12get_xml_textEPKcS1_RN8tinyxml211XMLDocumentE
 1853      00
 1854 139c 4889C2   		movq	%rax, %rdx
 1855 139f 488B45D8 		movq	-40(%rbp), %rax
 1856 13a3 4805B800 		addq	$184, %rax
 1856      0000
 1857 13a9 4889D6   		movq	%rdx, %rsi
 1858 13ac 4889C7   		movq	%rax, %rdi
 1859 13af E8000000 		call	_ZNSt7__cxx1112basic_stringIcSt11char_traitsIcESaIcEEaSEPKc
 1859      00
 247:/home/brendan/Dropbox/PhD/Code/LBM/2D LBFS/src/preprocessor.cpp ****     globals.output_file_dir = get_xml_text(parent, "output_directory", xmlDoc);
 1860              		.loc 2 247 0
 1861 13b4 488B55E0 		movq	-32(%rbp), %rdx
 1862 13b8 488B75F8 		movq	-8(%rbp), %rsi
 1863 13bc 488B45E8 		movq	-24(%rbp), %rax
 1864 13c0 4889D1   		movq	%rdx, %rcx
 1865 13c3 BA000000 		movl	$.LC38, %edx
 1865      00
 1866 13c8 4889C7   		movq	%rax, %rdi
 1867 13cb E8000000 		call	_ZN12preprocessor12get_xml_textEPKcS1_RN8tinyxml211XMLDocumentE
 1867      00
 1868 13d0 4889C2   		movq	%rax, %rdx
 1869 13d3 488B45D8 		movq	-40(%rbp), %rax
 1870 13d7 48059800 		addq	$152, %rax
 1870      0000
 1871 13dd 4889D6   		movq	%rdx, %rsi
 1872 13e0 4889C7   		movq	%rax, %rdi
 1873 13e3 E8000000 		call	_ZNSt7__cxx1112basic_stringIcSt11char_traitsIcESaIcEEaSEPKc
 1873      00
 248:/home/brendan/Dropbox/PhD/Code/LBM/2D LBFS/src/preprocessor.cpp ****     globals.max_mg_levels = get_xml_double(parent,"max_multi_grid_levels",xmlDoc);
 1874              		.loc 2 248 0
 1875 13e8 488B55E0 		movq	-32(%rbp), %rdx
 1876 13ec 488B75F8 		movq	-8(%rbp), %rsi
 1877 13f0 488B45E8 		movq	-24(%rbp), %rax
 1878 13f4 4889D1   		movq	%rdx, %rcx
 1879 13f7 BA000000 		movl	$.LC39, %edx
 1879      00
 1880 13fc 4889C7   		movq	%rax, %rdi
 1881 13ff E8000000 		call	_ZN12preprocessor14get_xml_doubleEPKcS1_RN8tinyxml211XMLDocumentE
 1881      00
 1882 1404 F20F2CD0 		cvttsd2si	%xmm0, %edx
 1883 1408 488B45D8 		movq	-40(%rbp), %rax
 1884 140c 89908000 		movl	%edx, 128(%rax)
 1884      0000
GAS LISTING /tmp/cc7pRhJa.s 			page 61


 249:/home/brendan/Dropbox/PhD/Code/LBM/2D LBFS/src/preprocessor.cpp ****     globals.fmg_levels =  get_xml_double(parent,"FMG_levels",xmlDoc);
 1885              		.loc 2 249 0
 1886 1412 488B55E0 		movq	-32(%rbp), %rdx
 1887 1416 488B75F8 		movq	-8(%rbp), %rsi
 1888 141a 488B45E8 		movq	-24(%rbp), %rax
 1889 141e 4889D1   		movq	%rdx, %rcx
 1890 1421 BA000000 		movl	$.LC40, %edx
 1890      00
 1891 1426 4889C7   		movq	%rax, %rdi
 1892 1429 E8000000 		call	_ZN12preprocessor14get_xml_doubleEPKcS1_RN8tinyxml211XMLDocumentE
 1892      00
 1893 142e F20F2CD0 		cvttsd2si	%xmm0, %edx
 1894 1432 488B45D8 		movq	-40(%rbp), %rax
 1895 1436 89908400 		movl	%edx, 132(%rax)
 1895      0000
 250:/home/brendan/Dropbox/PhD/Code/LBM/2D LBFS/src/preprocessor.cpp ****     globals.fmg_tolerance = get_xml_double(parent,"FMG_tolerance",xmlDoc);
 1896              		.loc 2 250 0
 1897 143c 488B55E0 		movq	-32(%rbp), %rdx
 1898 1440 488B75F8 		movq	-8(%rbp), %rsi
 1899 1444 488B45E8 		movq	-24(%rbp), %rax
 1900 1448 4889D1   		movq	%rdx, %rcx
 1901 144b BA000000 		movl	$.LC41, %edx
 1901      00
 1902 1450 4889C7   		movq	%rax, %rdi
 1903 1453 E8000000 		call	_ZN12preprocessor14get_xml_doubleEPKcS1_RN8tinyxml211XMLDocumentE
 1903      00
 1904 1458 66480F7E 		movq	%xmm0, %rdx
 1904      C2
 1905 145d 488B45D8 		movq	-40(%rbp), %rax
 1906 1461 48899090 		movq	%rdx, 144(%rax)
 1906      000000
 251:/home/brendan/Dropbox/PhD/Code/LBM/2D LBFS/src/preprocessor.cpp ****     globals.arti_disp_kappa_2 = get_xml_double(parent,"dissipation_kappa_2",xmlDoc);
 1907              		.loc 2 251 0
 1908 1468 488B55E0 		movq	-32(%rbp), %rdx
 1909 146c 488B75F8 		movq	-8(%rbp), %rsi
 1910 1470 488B45E8 		movq	-24(%rbp), %rax
 1911 1474 4889D1   		movq	%rdx, %rcx
 1912 1477 BA000000 		movl	$.LC42, %edx
 1912      00
 1913 147c 4889C7   		movq	%rax, %rdi
 1914 147f E8000000 		call	_ZN12preprocessor14get_xml_doubleEPKcS1_RN8tinyxml211XMLDocumentE
 1914      00
 1915 1484 66480F7E 		movq	%xmm0, %rdx
 1915      C2
 1916 1489 488B45D8 		movq	-40(%rbp), %rax
 1917 148d 48895068 		movq	%rdx, 104(%rax)
 252:/home/brendan/Dropbox/PhD/Code/LBM/2D LBFS/src/preprocessor.cpp ****     globals.arti_disp_kappa_4 = get_xml_double(parent,"dissipation_kappa_4",xmlDoc);
 1918              		.loc 2 252 0
 1919 1491 488B55E0 		movq	-32(%rbp), %rdx
 1920 1495 488B75F8 		movq	-8(%rbp), %rsi
 1921 1499 488B45E8 		movq	-24(%rbp), %rax
 1922 149d 4889D1   		movq	%rdx, %rcx
 1923 14a0 BA000000 		movl	$.LC43, %edx
 1923      00
 1924 14a5 4889C7   		movq	%rax, %rdi
 1925 14a8 E8000000 		call	_ZN12preprocessor14get_xml_doubleEPKcS1_RN8tinyxml211XMLDocumentE
 1925      00
GAS LISTING /tmp/cc7pRhJa.s 			page 62


 1926 14ad 66480F7E 		movq	%xmm0, %rdx
 1926      C2
 1927 14b2 488B45D8 		movq	-40(%rbp), %rax
 1928 14b6 48895070 		movq	%rdx, 112(%rax)
 253:/home/brendan/Dropbox/PhD/Code/LBM/2D LBFS/src/preprocessor.cpp ****     globals.martinelli = get_xml_double(parent,"martinelli_exponent",xmlDoc);
 1929              		.loc 2 253 0
 1930 14ba 488B55E0 		movq	-32(%rbp), %rdx
 1931 14be 488B75F8 		movq	-8(%rbp), %rsi
 1932 14c2 488B45E8 		movq	-24(%rbp), %rax
 1933 14c6 4889D1   		movq	%rdx, %rcx
 1934 14c9 BA000000 		movl	$.LC44, %edx
 1934      00
 1935 14ce 4889C7   		movq	%rax, %rdi
 1936 14d1 E8000000 		call	_ZN12preprocessor14get_xml_doubleEPKcS1_RN8tinyxml211XMLDocumentE
 1936      00
 1937 14d6 66480F7E 		movq	%xmm0, %rdx
 1937      C2
 1938 14db 488B45D8 		movq	-40(%rbp), %rax
 1939 14df 48895078 		movq	%rdx, 120(%rax)
 254:/home/brendan/Dropbox/PhD/Code/LBM/2D LBFS/src/preprocessor.cpp ****     globals.testcase= get_xml_double(parent, "testcase", xmlDoc);
 1940              		.loc 2 254 0
 1941 14e3 488B55E0 		movq	-32(%rbp), %rdx
 1942 14e7 488B75F8 		movq	-8(%rbp), %rsi
 1943 14eb 488B45E8 		movq	-24(%rbp), %rax
 1944 14ef 4889D1   		movq	%rdx, %rcx
 1945 14f2 BA000000 		movl	$.LC45, %edx
 1945      00
 1946 14f7 4889C7   		movq	%rax, %rdi
 1947 14fa E8000000 		call	_ZN12preprocessor14get_xml_doubleEPKcS1_RN8tinyxml211XMLDocumentE
 1947      00
 1948 14ff F20F2CD0 		cvttsd2si	%xmm0, %edx
 1949 1503 488B45D8 		movq	-40(%rbp), %rax
 1950 1507 89908800 		movl	%edx, 136(%rax)
 1950      0000
 255:/home/brendan/Dropbox/PhD/Code/LBM/2D LBFS/src/preprocessor.cpp ****     globals.mesh_type= get_xml_double(parent, "mesh_type", xmlDoc);
 1951              		.loc 2 255 0
 1952 150d 488B55E0 		movq	-32(%rbp), %rdx
 1953 1511 488B75F8 		movq	-8(%rbp), %rsi
 1954 1515 488B45E8 		movq	-24(%rbp), %rax
 1955 1519 4889D1   		movq	%rdx, %rcx
 1956 151c BA000000 		movl	$.LC46, %edx
 1956      00
 1957 1521 4889C7   		movq	%rax, %rdi
 1958 1524 E8000000 		call	_ZN12preprocessor14get_xml_doubleEPKcS1_RN8tinyxml211XMLDocumentE
 1958      00
 1959 1529 F20F2CD0 		cvttsd2si	%xmm0, %edx
 1960 152d 488B45D8 		movq	-40(%rbp), %rax
 1961 1531 89908C00 		movl	%edx, 140(%rax)
 1961      0000
 256:/home/brendan/Dropbox/PhD/Code/LBM/2D LBFS/src/preprocessor.cpp **** 
 257:/home/brendan/Dropbox/PhD/Code/LBM/2D LBFS/src/preprocessor.cpp **** }
 1962              		.loc 2 257 0
 1963 1537 90       		nop
 1964 1538 C9       		leave
 1965              		.cfi_def_cfa 7, 8
 1966 1539 C3       		ret
 1967              		.cfi_endproc
GAS LISTING /tmp/cc7pRhJa.s 			page 63


 1968              	.LFE1787:
 1970              		.align 2
 1971              		.globl	_ZN12preprocessor14get_xml_doubleEPKcS1_RN8tinyxml211XMLDocumentE
 1973              	_ZN12preprocessor14get_xml_doubleEPKcS1_RN8tinyxml211XMLDocumentE:
 1974              	.LFB1788:
 258:/home/brendan/Dropbox/PhD/Code/LBM/2D LBFS/src/preprocessor.cpp **** 
 259:/home/brendan/Dropbox/PhD/Code/LBM/2D LBFS/src/preprocessor.cpp **** double preprocessor::get_xml_double(const char* parent, const char* child, XMLDocument &doc){
 1975              		.loc 2 259 0
 1976              		.cfi_startproc
 1977 153a 55       		pushq	%rbp
 1978              		.cfi_def_cfa_offset 16
 1979              		.cfi_offset 6, -16
 1980 153b 4889E5   		movq	%rsp, %rbp
 1981              		.cfi_def_cfa_register 6
 1982 153e 4883EC50 		subq	$80, %rsp
 1983 1542 48897DC8 		movq	%rdi, -56(%rbp)
 1984 1546 488975C0 		movq	%rsi, -64(%rbp)
 1985 154a 488955B8 		movq	%rdx, -72(%rbp)
 1986 154e 48894DB0 		movq	%rcx, -80(%rbp)
 1987              		.loc 2 259 0
 1988 1552 64488B04 		movq	%fs:40, %rax
 1988      25280000 
 1988      00
 1989 155b 488945F8 		movq	%rax, -8(%rbp)
 1990 155f 31C0     		xorl	%eax, %eax
 260:/home/brendan/Dropbox/PhD/Code/LBM/2D LBFS/src/preprocessor.cpp **** 
 261:/home/brendan/Dropbox/PhD/Code/LBM/2D LBFS/src/preprocessor.cpp ****     XMLError eResult;
 262:/home/brendan/Dropbox/PhD/Code/LBM/2D LBFS/src/preprocessor.cpp ****     XMLNode * pRoot = doc.FirstChild();
 1991              		.loc 2 262 0
 1992 1561 488B45B0 		movq	-80(%rbp), %rax
 1993 1565 4889C7   		movq	%rax, %rdi
 1994 1568 E8000000 		call	_ZN8tinyxml27XMLNode10FirstChildEv
 1994      00
 1995 156d 488945E0 		movq	%rax, -32(%rbp)
 263:/home/brendan/Dropbox/PhD/Code/LBM/2D LBFS/src/preprocessor.cpp **** 
 264:/home/brendan/Dropbox/PhD/Code/LBM/2D LBFS/src/preprocessor.cpp ****     if (pRoot == nullptr) {
 1996              		.loc 2 264 0
 1997 1571 48837DE0 		cmpq	$0, -32(%rbp)
 1997      00
 1998 1576 7507     		jne	.L59
 265:/home/brendan/Dropbox/PhD/Code/LBM/2D LBFS/src/preprocessor.cpp **** 
 266:/home/brendan/Dropbox/PhD/Code/LBM/2D LBFS/src/preprocessor.cpp ****         eResult = XML_ERROR_FILE_READ_ERROR;
 1999              		.loc 2 266 0
 2000 1578 C745D405 		movl	$5, -44(%rbp)
 2000      000000
 2001              	.L59:
 267:/home/brendan/Dropbox/PhD/Code/LBM/2D LBFS/src/preprocessor.cpp ****     }
 268:/home/brendan/Dropbox/PhD/Code/LBM/2D LBFS/src/preprocessor.cpp **** 
 269:/home/brendan/Dropbox/PhD/Code/LBM/2D LBFS/src/preprocessor.cpp ****     XMLElement * parent_element = pRoot->FirstChildElement(parent);
 2002              		.loc 2 269 0
 2003 157f 488B55C0 		movq	-64(%rbp), %rdx
 2004 1583 488B45E0 		movq	-32(%rbp), %rax
 2005 1587 4889D6   		movq	%rdx, %rsi
 2006 158a 4889C7   		movq	%rax, %rdi
 2007 158d E8000000 		call	_ZN8tinyxml27XMLNode17FirstChildElementEPKc
 2007      00
 2008 1592 488945E8 		movq	%rax, -24(%rbp)
GAS LISTING /tmp/cc7pRhJa.s 			page 64


 270:/home/brendan/Dropbox/PhD/Code/LBM/2D LBFS/src/preprocessor.cpp ****     if (parent_element == nullptr) eResult =  XML_ERROR_PARSING_ELEMENT;
 2009              		.loc 2 270 0
 2010 1596 48837DE8 		cmpq	$0, -24(%rbp)
 2010      00
 2011 159b 7507     		jne	.L60
 2012              		.loc 2 270 0 is_stmt 0 discriminator 1
 2013 159d C745D407 		movl	$7, -44(%rbp)
 2013      000000
 2014              	.L60:
 271:/home/brendan/Dropbox/PhD/Code/LBM/2D LBFS/src/preprocessor.cpp ****     XMLElement* child_element = parent_element -> FirstChildElement( child );
 2015              		.loc 2 271 0 is_stmt 1
 2016 15a4 488B45E8 		movq	-24(%rbp), %rax
 2017 15a8 488B55B8 		movq	-72(%rbp), %rdx
 2018 15ac 4889D6   		movq	%rdx, %rsi
 2019 15af 4889C7   		movq	%rax, %rdi
 2020 15b2 E8000000 		call	_ZN8tinyxml27XMLNode17FirstChildElementEPKc
 2020      00
 2021 15b7 488945F0 		movq	%rax, -16(%rbp)
 272:/home/brendan/Dropbox/PhD/Code/LBM/2D LBFS/src/preprocessor.cpp ****     if (child_element == nullptr) eResult =  XML_ERROR_PARSING_ELEMENT;
 2022              		.loc 2 272 0
 2023 15bb 48837DF0 		cmpq	$0, -16(%rbp)
 2023      00
 2024 15c0 7507     		jne	.L61
 2025              		.loc 2 272 0 is_stmt 0 discriminator 1
 2026 15c2 C745D407 		movl	$7, -44(%rbp)
 2026      000000
 2027              	.L61:
 273:/home/brendan/Dropbox/PhD/Code/LBM/2D LBFS/src/preprocessor.cpp **** 
 274:/home/brendan/Dropbox/PhD/Code/LBM/2D LBFS/src/preprocessor.cpp ****     double output;
 275:/home/brendan/Dropbox/PhD/Code/LBM/2D LBFS/src/preprocessor.cpp **** 
 276:/home/brendan/Dropbox/PhD/Code/LBM/2D LBFS/src/preprocessor.cpp ****     eResult = child_element->QueryDoubleText(&output);
 2028              		.loc 2 276 0 is_stmt 1
 2029 15c9 488D55D8 		leaq	-40(%rbp), %rdx
 2030 15cd 488B45F0 		movq	-16(%rbp), %rax
 2031 15d1 4889D6   		movq	%rdx, %rsi
 2032 15d4 4889C7   		movq	%rax, %rdi
 2033 15d7 E8000000 		call	_ZNK8tinyxml210XMLElement15QueryDoubleTextEPd
 2033      00
 2034 15dc 8945D4   		movl	%eax, -44(%rbp)
 277:/home/brendan/Dropbox/PhD/Code/LBM/2D LBFS/src/preprocessor.cpp **** 
 278:/home/brendan/Dropbox/PhD/Code/LBM/2D LBFS/src/preprocessor.cpp ****     return output;
 2035              		.loc 2 278 0
 2036 15df F20F1045 		movsd	-40(%rbp), %xmm0
 2036      D8
 279:/home/brendan/Dropbox/PhD/Code/LBM/2D LBFS/src/preprocessor.cpp **** }
 2037              		.loc 2 279 0
 2038 15e4 488B45F8 		movq	-8(%rbp), %rax
 2039 15e8 64483304 		xorq	%fs:40, %rax
 2039      25280000 
 2039      00
 2040 15f1 7405     		je	.L63
 2041 15f3 E8000000 		call	__stack_chk_fail
 2041      00
 2042              	.L63:
 2043 15f8 C9       		leave
 2044              		.cfi_def_cfa 7, 8
 2045 15f9 C3       		ret
GAS LISTING /tmp/cc7pRhJa.s 			page 65


 2046              		.cfi_endproc
 2047              	.LFE1788:
 2049              		.align 2
 2050              		.globl	_ZN12preprocessor14get_xml_doubleEPKcS1_S1_S1_RN8tinyxml211XMLDocumentE
 2052              	_ZN12preprocessor14get_xml_doubleEPKcS1_S1_S1_RN8tinyxml211XMLDocumentE:
 2053              	.LFB1789:
 280:/home/brendan/Dropbox/PhD/Code/LBM/2D LBFS/src/preprocessor.cpp **** double preprocessor::get_xml_double(const char* parent, const char* child, const char* child2,
 281:/home/brendan/Dropbox/PhD/Code/LBM/2D LBFS/src/preprocessor.cpp ****                                     const char* child3, XMLDocument &doc){
 2054              		.loc 2 281 0
 2055              		.cfi_startproc
 2056 15fa 55       		pushq	%rbp
 2057              		.cfi_def_cfa_offset 16
 2058              		.cfi_offset 6, -16
 2059 15fb 4889E5   		movq	%rsp, %rbp
 2060              		.cfi_def_cfa_register 6
 2061 15fe 4883EC70 		subq	$112, %rsp
 2062 1602 48897DB8 		movq	%rdi, -72(%rbp)
 2063 1606 488975B0 		movq	%rsi, -80(%rbp)
 2064 160a 488955A8 		movq	%rdx, -88(%rbp)
 2065 160e 48894DA0 		movq	%rcx, -96(%rbp)
 2066 1612 4C894598 		movq	%r8, -104(%rbp)
 2067 1616 4C894D90 		movq	%r9, -112(%rbp)
 2068              		.loc 2 281 0
 2069 161a 64488B04 		movq	%fs:40, %rax
 2069      25280000 
 2069      00
 2070 1623 488945F8 		movq	%rax, -8(%rbp)
 2071 1627 31C0     		xorl	%eax, %eax
 282:/home/brendan/Dropbox/PhD/Code/LBM/2D LBFS/src/preprocessor.cpp **** 
 283:/home/brendan/Dropbox/PhD/Code/LBM/2D LBFS/src/preprocessor.cpp ****     XMLError eResult;
 284:/home/brendan/Dropbox/PhD/Code/LBM/2D LBFS/src/preprocessor.cpp ****     XMLNode * pRoot = doc.FirstChild();
 2072              		.loc 2 284 0
 2073 1629 488B4590 		movq	-112(%rbp), %rax
 2074 162d 4889C7   		movq	%rax, %rdi
 2075 1630 E8000000 		call	_ZN8tinyxml27XMLNode10FirstChildEv
 2075      00
 2076 1635 488945D0 		movq	%rax, -48(%rbp)
 285:/home/brendan/Dropbox/PhD/Code/LBM/2D LBFS/src/preprocessor.cpp **** 
 286:/home/brendan/Dropbox/PhD/Code/LBM/2D LBFS/src/preprocessor.cpp ****     if (pRoot == nullptr) {
 2077              		.loc 2 286 0
 2078 1639 48837DD0 		cmpq	$0, -48(%rbp)
 2078      00
 2079 163e 7507     		jne	.L65
 287:/home/brendan/Dropbox/PhD/Code/LBM/2D LBFS/src/preprocessor.cpp **** 
 288:/home/brendan/Dropbox/PhD/Code/LBM/2D LBFS/src/preprocessor.cpp ****         eResult = XML_ERROR_FILE_READ_ERROR;
 2080              		.loc 2 288 0
 2081 1640 C745C405 		movl	$5, -60(%rbp)
 2081      000000
 2082              	.L65:
 289:/home/brendan/Dropbox/PhD/Code/LBM/2D LBFS/src/preprocessor.cpp ****     }
 290:/home/brendan/Dropbox/PhD/Code/LBM/2D LBFS/src/preprocessor.cpp **** 
 291:/home/brendan/Dropbox/PhD/Code/LBM/2D LBFS/src/preprocessor.cpp ****     XMLElement * parent_element = pRoot->FirstChildElement(parent);
 2083              		.loc 2 291 0
 2084 1647 488B55B0 		movq	-80(%rbp), %rdx
 2085 164b 488B45D0 		movq	-48(%rbp), %rax
 2086 164f 4889D6   		movq	%rdx, %rsi
 2087 1652 4889C7   		movq	%rax, %rdi
GAS LISTING /tmp/cc7pRhJa.s 			page 66


 2088 1655 E8000000 		call	_ZN8tinyxml27XMLNode17FirstChildElementEPKc
 2088      00
 2089 165a 488945D8 		movq	%rax, -40(%rbp)
 292:/home/brendan/Dropbox/PhD/Code/LBM/2D LBFS/src/preprocessor.cpp ****     if (parent_element == nullptr) eResult =  XML_ERROR_PARSING_ELEMENT;
 2090              		.loc 2 292 0
 2091 165e 48837DD8 		cmpq	$0, -40(%rbp)
 2091      00
 2092 1663 7507     		jne	.L66
 2093              		.loc 2 292 0 is_stmt 0 discriminator 1
 2094 1665 C745C407 		movl	$7, -60(%rbp)
 2094      000000
 2095              	.L66:
 293:/home/brendan/Dropbox/PhD/Code/LBM/2D LBFS/src/preprocessor.cpp ****     XMLElement* child_element = parent_element -> FirstChildElement( child );
 2096              		.loc 2 293 0 is_stmt 1
 2097 166c 488B45D8 		movq	-40(%rbp), %rax
 2098 1670 488B55A8 		movq	-88(%rbp), %rdx
 2099 1674 4889D6   		movq	%rdx, %rsi
 2100 1677 4889C7   		movq	%rax, %rdi
 2101 167a E8000000 		call	_ZN8tinyxml27XMLNode17FirstChildElementEPKc
 2101      00
 2102 167f 488945E0 		movq	%rax, -32(%rbp)
 294:/home/brendan/Dropbox/PhD/Code/LBM/2D LBFS/src/preprocessor.cpp ****     if (child_element == nullptr) eResult =  XML_ERROR_PARSING_ELEMENT;
 2103              		.loc 2 294 0
 2104 1683 48837DE0 		cmpq	$0, -32(%rbp)
 2104      00
 2105 1688 7507     		jne	.L67
 2106              		.loc 2 294 0 is_stmt 0 discriminator 1
 2107 168a C745C407 		movl	$7, -60(%rbp)
 2107      000000
 2108              	.L67:
 295:/home/brendan/Dropbox/PhD/Code/LBM/2D LBFS/src/preprocessor.cpp ****     XMLElement* child2_element = child_element -> FirstChildElement( child2 );
 2109              		.loc 2 295 0 is_stmt 1
 2110 1691 488B45E0 		movq	-32(%rbp), %rax
 2111 1695 488B55A0 		movq	-96(%rbp), %rdx
 2112 1699 4889D6   		movq	%rdx, %rsi
 2113 169c 4889C7   		movq	%rax, %rdi
 2114 169f E8000000 		call	_ZN8tinyxml27XMLNode17FirstChildElementEPKc
 2114      00
 2115 16a4 488945E8 		movq	%rax, -24(%rbp)
 296:/home/brendan/Dropbox/PhD/Code/LBM/2D LBFS/src/preprocessor.cpp ****     if (child2_element == nullptr) eResult =  XML_ERROR_PARSING_ELEMENT;
 2116              		.loc 2 296 0
 2117 16a8 48837DE8 		cmpq	$0, -24(%rbp)
 2117      00
 2118 16ad 7507     		jne	.L68
 2119              		.loc 2 296 0 is_stmt 0 discriminator 1
 2120 16af C745C407 		movl	$7, -60(%rbp)
 2120      000000
 2121              	.L68:
 297:/home/brendan/Dropbox/PhD/Code/LBM/2D LBFS/src/preprocessor.cpp ****     XMLElement* child3_element = child2_element -> FirstChildElement( child3 );
 2122              		.loc 2 297 0 is_stmt 1
 2123 16b6 488B45E8 		movq	-24(%rbp), %rax
 2124 16ba 488B5598 		movq	-104(%rbp), %rdx
 2125 16be 4889D6   		movq	%rdx, %rsi
 2126 16c1 4889C7   		movq	%rax, %rdi
 2127 16c4 E8000000 		call	_ZN8tinyxml27XMLNode17FirstChildElementEPKc
 2127      00
 2128 16c9 488945F0 		movq	%rax, -16(%rbp)
GAS LISTING /tmp/cc7pRhJa.s 			page 67


 298:/home/brendan/Dropbox/PhD/Code/LBM/2D LBFS/src/preprocessor.cpp ****     if (child3_element == nullptr) eResult =  XML_ERROR_PARSING_ELEMENT;
 2129              		.loc 2 298 0
 2130 16cd 48837DF0 		cmpq	$0, -16(%rbp)
 2130      00
 2131 16d2 7507     		jne	.L69
 2132              		.loc 2 298 0 is_stmt 0 discriminator 1
 2133 16d4 C745C407 		movl	$7, -60(%rbp)
 2133      000000
 2134              	.L69:
 299:/home/brendan/Dropbox/PhD/Code/LBM/2D LBFS/src/preprocessor.cpp ****     double output;
 300:/home/brendan/Dropbox/PhD/Code/LBM/2D LBFS/src/preprocessor.cpp **** 
 301:/home/brendan/Dropbox/PhD/Code/LBM/2D LBFS/src/preprocessor.cpp ****     eResult = child3_element->QueryDoubleText(&output);
 2135              		.loc 2 301 0 is_stmt 1
 2136 16db 488D55C8 		leaq	-56(%rbp), %rdx
 2137 16df 488B45F0 		movq	-16(%rbp), %rax
 2138 16e3 4889D6   		movq	%rdx, %rsi
 2139 16e6 4889C7   		movq	%rax, %rdi
 2140 16e9 E8000000 		call	_ZNK8tinyxml210XMLElement15QueryDoubleTextEPd
 2140      00
 2141 16ee 8945C4   		movl	%eax, -60(%rbp)
 302:/home/brendan/Dropbox/PhD/Code/LBM/2D LBFS/src/preprocessor.cpp **** 
 303:/home/brendan/Dropbox/PhD/Code/LBM/2D LBFS/src/preprocessor.cpp ****     return output;
 2142              		.loc 2 303 0
 2143 16f1 F20F1045 		movsd	-56(%rbp), %xmm0
 2143      C8
 304:/home/brendan/Dropbox/PhD/Code/LBM/2D LBFS/src/preprocessor.cpp **** }
 2144              		.loc 2 304 0
 2145 16f6 488B45F8 		movq	-8(%rbp), %rax
 2146 16fa 64483304 		xorq	%fs:40, %rax
 2146      25280000 
 2146      00
 2147 1703 7405     		je	.L71
 2148 1705 E8000000 		call	__stack_chk_fail
 2148      00
 2149              	.L71:
 2150 170a C9       		leave
 2151              		.cfi_def_cfa 7, 8
 2152 170b C3       		ret
 2153              		.cfi_endproc
 2154              	.LFE1789:
 2156              		.align 2
 2157              		.globl	_ZN12preprocessor14get_xml_doubleEPKcS1_S1_RN8tinyxml211XMLDocumentE
 2159              	_ZN12preprocessor14get_xml_doubleEPKcS1_S1_RN8tinyxml211XMLDocumentE:
 2160              	.LFB1790:
 305:/home/brendan/Dropbox/PhD/Code/LBM/2D LBFS/src/preprocessor.cpp **** 
 306:/home/brendan/Dropbox/PhD/Code/LBM/2D LBFS/src/preprocessor.cpp **** double preprocessor::get_xml_double(const char* parent, const char* child, const char* child2,
 307:/home/brendan/Dropbox/PhD/Code/LBM/2D LBFS/src/preprocessor.cpp ****                                      XMLDocument &doc){
 2161              		.loc 2 307 0
 2162              		.cfi_startproc
 2163 170c 55       		pushq	%rbp
 2164              		.cfi_def_cfa_offset 16
 2165              		.cfi_offset 6, -16
 2166 170d 4889E5   		movq	%rsp, %rbp
 2167              		.cfi_def_cfa_register 6
 2168 1710 4883EC70 		subq	$112, %rsp
 2169 1714 48897DB8 		movq	%rdi, -72(%rbp)
 2170 1718 488975B0 		movq	%rsi, -80(%rbp)
GAS LISTING /tmp/cc7pRhJa.s 			page 68


 2171 171c 488955A8 		movq	%rdx, -88(%rbp)
 2172 1720 48894DA0 		movq	%rcx, -96(%rbp)
 2173 1724 4C894598 		movq	%r8, -104(%rbp)
 2174              		.loc 2 307 0
 2175 1728 64488B04 		movq	%fs:40, %rax
 2175      25280000 
 2175      00
 2176 1731 488945F8 		movq	%rax, -8(%rbp)
 2177 1735 31C0     		xorl	%eax, %eax
 308:/home/brendan/Dropbox/PhD/Code/LBM/2D LBFS/src/preprocessor.cpp **** 
 309:/home/brendan/Dropbox/PhD/Code/LBM/2D LBFS/src/preprocessor.cpp ****     XMLError eResult;
 310:/home/brendan/Dropbox/PhD/Code/LBM/2D LBFS/src/preprocessor.cpp ****     XMLNode * pRoot = doc.FirstChild();
 2178              		.loc 2 310 0
 2179 1737 488B4598 		movq	-104(%rbp), %rax
 2180 173b 4889C7   		movq	%rax, %rdi
 2181 173e E8000000 		call	_ZN8tinyxml27XMLNode10FirstChildEv
 2181      00
 2182 1743 488945D8 		movq	%rax, -40(%rbp)
 311:/home/brendan/Dropbox/PhD/Code/LBM/2D LBFS/src/preprocessor.cpp **** 
 312:/home/brendan/Dropbox/PhD/Code/LBM/2D LBFS/src/preprocessor.cpp ****     if (pRoot == nullptr) {
 2183              		.loc 2 312 0
 2184 1747 48837DD8 		cmpq	$0, -40(%rbp)
 2184      00
 2185 174c 7507     		jne	.L73
 313:/home/brendan/Dropbox/PhD/Code/LBM/2D LBFS/src/preprocessor.cpp **** 
 314:/home/brendan/Dropbox/PhD/Code/LBM/2D LBFS/src/preprocessor.cpp ****         eResult = XML_ERROR_FILE_READ_ERROR;
 2186              		.loc 2 314 0
 2187 174e C745CC05 		movl	$5, -52(%rbp)
 2187      000000
 2188              	.L73:
 315:/home/brendan/Dropbox/PhD/Code/LBM/2D LBFS/src/preprocessor.cpp ****     }
 316:/home/brendan/Dropbox/PhD/Code/LBM/2D LBFS/src/preprocessor.cpp **** 
 317:/home/brendan/Dropbox/PhD/Code/LBM/2D LBFS/src/preprocessor.cpp ****     XMLElement * parent_element = pRoot->FirstChildElement(parent);
 2189              		.loc 2 317 0
 2190 1755 488B55B0 		movq	-80(%rbp), %rdx
 2191 1759 488B45D8 		movq	-40(%rbp), %rax
 2192 175d 4889D6   		movq	%rdx, %rsi
 2193 1760 4889C7   		movq	%rax, %rdi
 2194 1763 E8000000 		call	_ZN8tinyxml27XMLNode17FirstChildElementEPKc
 2194      00
 2195 1768 488945E0 		movq	%rax, -32(%rbp)
 318:/home/brendan/Dropbox/PhD/Code/LBM/2D LBFS/src/preprocessor.cpp ****     if (parent_element == nullptr) eResult =  XML_ERROR_PARSING_ELEMENT;
 2196              		.loc 2 318 0
 2197 176c 48837DE0 		cmpq	$0, -32(%rbp)
 2197      00
 2198 1771 7507     		jne	.L74
 2199              		.loc 2 318 0 is_stmt 0 discriminator 1
 2200 1773 C745CC07 		movl	$7, -52(%rbp)
 2200      000000
 2201              	.L74:
 319:/home/brendan/Dropbox/PhD/Code/LBM/2D LBFS/src/preprocessor.cpp ****     XMLElement* child_element = parent_element -> FirstChildElement( child );
 2202              		.loc 2 319 0 is_stmt 1
 2203 177a 488B45E0 		movq	-32(%rbp), %rax
 2204 177e 488B55A8 		movq	-88(%rbp), %rdx
 2205 1782 4889D6   		movq	%rdx, %rsi
 2206 1785 4889C7   		movq	%rax, %rdi
 2207 1788 E8000000 		call	_ZN8tinyxml27XMLNode17FirstChildElementEPKc
GAS LISTING /tmp/cc7pRhJa.s 			page 69


 2207      00
 2208 178d 488945E8 		movq	%rax, -24(%rbp)
 320:/home/brendan/Dropbox/PhD/Code/LBM/2D LBFS/src/preprocessor.cpp ****     if (child_element == nullptr) eResult =  XML_ERROR_PARSING_ELEMENT;
 2209              		.loc 2 320 0
 2210 1791 48837DE8 		cmpq	$0, -24(%rbp)
 2210      00
 2211 1796 7507     		jne	.L75
 2212              		.loc 2 320 0 is_stmt 0 discriminator 1
 2213 1798 C745CC07 		movl	$7, -52(%rbp)
 2213      000000
 2214              	.L75:
 321:/home/brendan/Dropbox/PhD/Code/LBM/2D LBFS/src/preprocessor.cpp ****     XMLElement* child2_element = child_element -> FirstChildElement( child2 );
 2215              		.loc 2 321 0 is_stmt 1
 2216 179f 488B45E8 		movq	-24(%rbp), %rax
 2217 17a3 488B55A0 		movq	-96(%rbp), %rdx
 2218 17a7 4889D6   		movq	%rdx, %rsi
 2219 17aa 4889C7   		movq	%rax, %rdi
 2220 17ad E8000000 		call	_ZN8tinyxml27XMLNode17FirstChildElementEPKc
 2220      00
 2221 17b2 488945F0 		movq	%rax, -16(%rbp)
 322:/home/brendan/Dropbox/PhD/Code/LBM/2D LBFS/src/preprocessor.cpp ****     if (child2_element == nullptr) eResult =  XML_ERROR_PARSING_ELEMENT;
 2222              		.loc 2 322 0
 2223 17b6 48837DF0 		cmpq	$0, -16(%rbp)
 2223      00
 2224 17bb 7507     		jne	.L76
 2225              		.loc 2 322 0 is_stmt 0 discriminator 1
 2226 17bd C745CC07 		movl	$7, -52(%rbp)
 2226      000000
 2227              	.L76:
 323:/home/brendan/Dropbox/PhD/Code/LBM/2D LBFS/src/preprocessor.cpp **** 
 324:/home/brendan/Dropbox/PhD/Code/LBM/2D LBFS/src/preprocessor.cpp ****     double output;
 325:/home/brendan/Dropbox/PhD/Code/LBM/2D LBFS/src/preprocessor.cpp **** 
 326:/home/brendan/Dropbox/PhD/Code/LBM/2D LBFS/src/preprocessor.cpp ****     eResult = child2_element->QueryDoubleText(&output);
 2228              		.loc 2 326 0 is_stmt 1
 2229 17c4 488D55D0 		leaq	-48(%rbp), %rdx
 2230 17c8 488B45F0 		movq	-16(%rbp), %rax
 2231 17cc 4889D6   		movq	%rdx, %rsi
 2232 17cf 4889C7   		movq	%rax, %rdi
 2233 17d2 E8000000 		call	_ZNK8tinyxml210XMLElement15QueryDoubleTextEPd
 2233      00
 2234 17d7 8945CC   		movl	%eax, -52(%rbp)
 327:/home/brendan/Dropbox/PhD/Code/LBM/2D LBFS/src/preprocessor.cpp **** 
 328:/home/brendan/Dropbox/PhD/Code/LBM/2D LBFS/src/preprocessor.cpp ****     return output;
 2235              		.loc 2 328 0
 2236 17da F20F1045 		movsd	-48(%rbp), %xmm0
 2236      D0
 329:/home/brendan/Dropbox/PhD/Code/LBM/2D LBFS/src/preprocessor.cpp **** }
 2237              		.loc 2 329 0
 2238 17df 488B45F8 		movq	-8(%rbp), %rax
 2239 17e3 64483304 		xorq	%fs:40, %rax
 2239      25280000 
 2239      00
 2240 17ec 7405     		je	.L78
 2241 17ee E8000000 		call	__stack_chk_fail
 2241      00
 2242              	.L78:
 2243 17f3 C9       		leave
GAS LISTING /tmp/cc7pRhJa.s 			page 70


 2244              		.cfi_def_cfa 7, 8
 2245 17f4 C3       		ret
 2246              		.cfi_endproc
 2247              	.LFE1790:
 2249 17f5 90       		.align 2
 2250              		.globl	_ZN12preprocessor12get_xml_textEPKcS1_RN8tinyxml211XMLDocumentE
 2252              	_ZN12preprocessor12get_xml_textEPKcS1_RN8tinyxml211XMLDocumentE:
 2253              	.LFB1791:
 330:/home/brendan/Dropbox/PhD/Code/LBM/2D LBFS/src/preprocessor.cpp **** const char * preprocessor::get_xml_text(const char* parent, const char* child,XMLDocument &doc){
 2254              		.loc 2 330 0
 2255              		.cfi_startproc
 2256 17f6 55       		pushq	%rbp
 2257              		.cfi_def_cfa_offset 16
 2258              		.cfi_offset 6, -16
 2259 17f7 4889E5   		movq	%rsp, %rbp
 2260              		.cfi_def_cfa_register 6
 2261 17fa 4883EC50 		subq	$80, %rsp
 2262 17fe 48897DC8 		movq	%rdi, -56(%rbp)
 2263 1802 488975C0 		movq	%rsi, -64(%rbp)
 2264 1806 488955B8 		movq	%rdx, -72(%rbp)
 2265 180a 48894DB0 		movq	%rcx, -80(%rbp)
 331:/home/brendan/Dropbox/PhD/Code/LBM/2D LBFS/src/preprocessor.cpp **** 
 332:/home/brendan/Dropbox/PhD/Code/LBM/2D LBFS/src/preprocessor.cpp ****     XMLError eResult;
 333:/home/brendan/Dropbox/PhD/Code/LBM/2D LBFS/src/preprocessor.cpp ****     XMLNode * pRoot = doc.FirstChild();
 2266              		.loc 2 333 0
 2267 180e 488B45B0 		movq	-80(%rbp), %rax
 2268 1812 4889C7   		movq	%rax, %rdi
 2269 1815 E8000000 		call	_ZN8tinyxml27XMLNode10FirstChildEv
 2269      00
 2270 181a 488945E0 		movq	%rax, -32(%rbp)
 334:/home/brendan/Dropbox/PhD/Code/LBM/2D LBFS/src/preprocessor.cpp **** 
 335:/home/brendan/Dropbox/PhD/Code/LBM/2D LBFS/src/preprocessor.cpp ****     if (pRoot == nullptr) {
 2271              		.loc 2 335 0
 2272 181e 48837DE0 		cmpq	$0, -32(%rbp)
 2272      00
 2273 1823 7507     		jne	.L80
 336:/home/brendan/Dropbox/PhD/Code/LBM/2D LBFS/src/preprocessor.cpp **** 
 337:/home/brendan/Dropbox/PhD/Code/LBM/2D LBFS/src/preprocessor.cpp ****         eResult = XML_ERROR_FILE_READ_ERROR;
 2274              		.loc 2 337 0
 2275 1825 C745DC05 		movl	$5, -36(%rbp)
 2275      000000
 2276              	.L80:
 338:/home/brendan/Dropbox/PhD/Code/LBM/2D LBFS/src/preprocessor.cpp ****     }
 339:/home/brendan/Dropbox/PhD/Code/LBM/2D LBFS/src/preprocessor.cpp **** 
 340:/home/brendan/Dropbox/PhD/Code/LBM/2D LBFS/src/preprocessor.cpp **** 
 341:/home/brendan/Dropbox/PhD/Code/LBM/2D LBFS/src/preprocessor.cpp ****     XMLElement * parent_element = pRoot->FirstChildElement(parent);
 2277              		.loc 2 341 0
 2278 182c 488B55C0 		movq	-64(%rbp), %rdx
 2279 1830 488B45E0 		movq	-32(%rbp), %rax
 2280 1834 4889D6   		movq	%rdx, %rsi
 2281 1837 4889C7   		movq	%rax, %rdi
 2282 183a E8000000 		call	_ZN8tinyxml27XMLNode17FirstChildElementEPKc
 2282      00
 2283 183f 488945E8 		movq	%rax, -24(%rbp)
 342:/home/brendan/Dropbox/PhD/Code/LBM/2D LBFS/src/preprocessor.cpp ****     if (parent_element == nullptr) eResult =  XML_ERROR_PARSING_ELEMENT;
 2284              		.loc 2 342 0
 2285 1843 48837DE8 		cmpq	$0, -24(%rbp)
GAS LISTING /tmp/cc7pRhJa.s 			page 71


 2285      00
 2286 1848 7507     		jne	.L81
 2287              		.loc 2 342 0 is_stmt 0 discriminator 1
 2288 184a C745DC07 		movl	$7, -36(%rbp)
 2288      000000
 2289              	.L81:
 343:/home/brendan/Dropbox/PhD/Code/LBM/2D LBFS/src/preprocessor.cpp ****     XMLElement* child_element = parent_element -> FirstChildElement( child );
 2290              		.loc 2 343 0 is_stmt 1
 2291 1851 488B45E8 		movq	-24(%rbp), %rax
 2292 1855 488B55B8 		movq	-72(%rbp), %rdx
 2293 1859 4889D6   		movq	%rdx, %rsi
 2294 185c 4889C7   		movq	%rax, %rdi
 2295 185f E8000000 		call	_ZN8tinyxml27XMLNode17FirstChildElementEPKc
 2295      00
 2296 1864 488945F0 		movq	%rax, -16(%rbp)
 344:/home/brendan/Dropbox/PhD/Code/LBM/2D LBFS/src/preprocessor.cpp ****     if (child_element == nullptr) eResult =  XML_ERROR_PARSING_ELEMENT;
 2297              		.loc 2 344 0
 2298 1868 48837DF0 		cmpq	$0, -16(%rbp)
 2298      00
 2299 186d 7507     		jne	.L82
 2300              		.loc 2 344 0 is_stmt 0 discriminator 1
 2301 186f C745DC07 		movl	$7, -36(%rbp)
 2301      000000
 2302              	.L82:
 345:/home/brendan/Dropbox/PhD/Code/LBM/2D LBFS/src/preprocessor.cpp **** 
 346:/home/brendan/Dropbox/PhD/Code/LBM/2D LBFS/src/preprocessor.cpp ****     const char * output;
 347:/home/brendan/Dropbox/PhD/Code/LBM/2D LBFS/src/preprocessor.cpp **** 
 348:/home/brendan/Dropbox/PhD/Code/LBM/2D LBFS/src/preprocessor.cpp ****     output = child_element->GetText();
 2303              		.loc 2 348 0 is_stmt 1
 2304 1876 488B45F0 		movq	-16(%rbp), %rax
 2305 187a 4889C7   		movq	%rax, %rdi
 2306 187d E8000000 		call	_ZNK8tinyxml210XMLElement7GetTextEv
 2306      00
 2307 1882 488945F8 		movq	%rax, -8(%rbp)
 349:/home/brendan/Dropbox/PhD/Code/LBM/2D LBFS/src/preprocessor.cpp **** 
 350:/home/brendan/Dropbox/PhD/Code/LBM/2D LBFS/src/preprocessor.cpp ****     return output;
 2308              		.loc 2 350 0
 2309 1886 488B45F8 		movq	-8(%rbp), %rax
 351:/home/brendan/Dropbox/PhD/Code/LBM/2D LBFS/src/preprocessor.cpp **** }
 2310              		.loc 2 351 0
 2311 188a C9       		leave
 2312              		.cfi_def_cfa 7, 8
 2313 188b C3       		ret
 2314              		.cfi_endproc
 2315              	.LFE1791:
 2317              		.align 2
 2318              		.globl	_ZN12preprocessor12get_xml_textEPKcS1_S1_RN8tinyxml211XMLDocumentE
 2320              	_ZN12preprocessor12get_xml_textEPKcS1_S1_RN8tinyxml211XMLDocumentE:
 2321              	.LFB1792:
 352:/home/brendan/Dropbox/PhD/Code/LBM/2D LBFS/src/preprocessor.cpp **** const char * preprocessor::get_xml_text(const char* parent, const char* child, const char* child2
 353:/home/brendan/Dropbox/PhD/Code/LBM/2D LBFS/src/preprocessor.cpp ****                                         , XMLDocument &doc){
 2322              		.loc 2 353 0
 2323              		.cfi_startproc
 2324 188c 55       		pushq	%rbp
 2325              		.cfi_def_cfa_offset 16
 2326              		.cfi_offset 6, -16
 2327 188d 4889E5   		movq	%rsp, %rbp
GAS LISTING /tmp/cc7pRhJa.s 			page 72


 2328              		.cfi_def_cfa_register 6
 2329 1890 4883EC60 		subq	$96, %rsp
 2330 1894 48897DC8 		movq	%rdi, -56(%rbp)
 2331 1898 488975C0 		movq	%rsi, -64(%rbp)
 2332 189c 488955B8 		movq	%rdx, -72(%rbp)
 2333 18a0 48894DB0 		movq	%rcx, -80(%rbp)
 2334 18a4 4C8945A8 		movq	%r8, -88(%rbp)
 354:/home/brendan/Dropbox/PhD/Code/LBM/2D LBFS/src/preprocessor.cpp **** 
 355:/home/brendan/Dropbox/PhD/Code/LBM/2D LBFS/src/preprocessor.cpp ****     XMLError eResult;
 356:/home/brendan/Dropbox/PhD/Code/LBM/2D LBFS/src/preprocessor.cpp ****     XMLNode * pRoot = doc.FirstChild();
 2335              		.loc 2 356 0
 2336 18a8 488B45A8 		movq	-88(%rbp), %rax
 2337 18ac 4889C7   		movq	%rax, %rdi
 2338 18af E8000000 		call	_ZN8tinyxml27XMLNode10FirstChildEv
 2338      00
 2339 18b4 488945D8 		movq	%rax, -40(%rbp)
 357:/home/brendan/Dropbox/PhD/Code/LBM/2D LBFS/src/preprocessor.cpp **** 
 358:/home/brendan/Dropbox/PhD/Code/LBM/2D LBFS/src/preprocessor.cpp ****     if (pRoot == nullptr) {
 2340              		.loc 2 358 0
 2341 18b8 48837DD8 		cmpq	$0, -40(%rbp)
 2341      00
 2342 18bd 7507     		jne	.L85
 359:/home/brendan/Dropbox/PhD/Code/LBM/2D LBFS/src/preprocessor.cpp **** 
 360:/home/brendan/Dropbox/PhD/Code/LBM/2D LBFS/src/preprocessor.cpp ****         eResult = XML_ERROR_FILE_READ_ERROR;
 2343              		.loc 2 360 0
 2344 18bf C745D405 		movl	$5, -44(%rbp)
 2344      000000
 2345              	.L85:
 361:/home/brendan/Dropbox/PhD/Code/LBM/2D LBFS/src/preprocessor.cpp ****     }
 362:/home/brendan/Dropbox/PhD/Code/LBM/2D LBFS/src/preprocessor.cpp **** 
 363:/home/brendan/Dropbox/PhD/Code/LBM/2D LBFS/src/preprocessor.cpp **** 
 364:/home/brendan/Dropbox/PhD/Code/LBM/2D LBFS/src/preprocessor.cpp ****     XMLElement * parent_element = pRoot->FirstChildElement(parent);
 2346              		.loc 2 364 0
 2347 18c6 488B55C0 		movq	-64(%rbp), %rdx
 2348 18ca 488B45D8 		movq	-40(%rbp), %rax
 2349 18ce 4889D6   		movq	%rdx, %rsi
 2350 18d1 4889C7   		movq	%rax, %rdi
 2351 18d4 E8000000 		call	_ZN8tinyxml27XMLNode17FirstChildElementEPKc
 2351      00
 2352 18d9 488945E0 		movq	%rax, -32(%rbp)
 365:/home/brendan/Dropbox/PhD/Code/LBM/2D LBFS/src/preprocessor.cpp ****     if (parent_element == nullptr) eResult =  XML_ERROR_PARSING_ELEMENT;
 2353              		.loc 2 365 0
 2354 18dd 48837DE0 		cmpq	$0, -32(%rbp)
 2354      00
 2355 18e2 7507     		jne	.L86
 2356              		.loc 2 365 0 is_stmt 0 discriminator 1
 2357 18e4 C745D407 		movl	$7, -44(%rbp)
 2357      000000
 2358              	.L86:
 366:/home/brendan/Dropbox/PhD/Code/LBM/2D LBFS/src/preprocessor.cpp ****     XMLElement* child_element = parent_element -> FirstChildElement( child );
 2359              		.loc 2 366 0 is_stmt 1
 2360 18eb 488B45E0 		movq	-32(%rbp), %rax
 2361 18ef 488B55B8 		movq	-72(%rbp), %rdx
 2362 18f3 4889D6   		movq	%rdx, %rsi
 2363 18f6 4889C7   		movq	%rax, %rdi
 2364 18f9 E8000000 		call	_ZN8tinyxml27XMLNode17FirstChildElementEPKc
 2364      00
GAS LISTING /tmp/cc7pRhJa.s 			page 73


 2365 18fe 488945E8 		movq	%rax, -24(%rbp)
 367:/home/brendan/Dropbox/PhD/Code/LBM/2D LBFS/src/preprocessor.cpp ****     if (child_element == nullptr) eResult =  XML_ERROR_PARSING_ELEMENT;
 2366              		.loc 2 367 0
 2367 1902 48837DE8 		cmpq	$0, -24(%rbp)
 2367      00
 2368 1907 7507     		jne	.L87
 2369              		.loc 2 367 0 is_stmt 0 discriminator 1
 2370 1909 C745D407 		movl	$7, -44(%rbp)
 2370      000000
 2371              	.L87:
 368:/home/brendan/Dropbox/PhD/Code/LBM/2D LBFS/src/preprocessor.cpp ****     XMLElement* child2_element = child_element -> FirstChildElement( child2 );
 2372              		.loc 2 368 0 is_stmt 1
 2373 1910 488B45E8 		movq	-24(%rbp), %rax
 2374 1914 488B55B0 		movq	-80(%rbp), %rdx
 2375 1918 4889D6   		movq	%rdx, %rsi
 2376 191b 4889C7   		movq	%rax, %rdi
 2377 191e E8000000 		call	_ZN8tinyxml27XMLNode17FirstChildElementEPKc
 2377      00
 2378 1923 488945F0 		movq	%rax, -16(%rbp)
 369:/home/brendan/Dropbox/PhD/Code/LBM/2D LBFS/src/preprocessor.cpp ****     if (child2_element == nullptr) eResult =  XML_ERROR_PARSING_ELEMENT;
 2379              		.loc 2 369 0
 2380 1927 48837DF0 		cmpq	$0, -16(%rbp)
 2380      00
 2381 192c 7507     		jne	.L88
 2382              		.loc 2 369 0 is_stmt 0 discriminator 1
 2383 192e C745D407 		movl	$7, -44(%rbp)
 2383      000000
 2384              	.L88:
 370:/home/brendan/Dropbox/PhD/Code/LBM/2D LBFS/src/preprocessor.cpp **** 
 371:/home/brendan/Dropbox/PhD/Code/LBM/2D LBFS/src/preprocessor.cpp ****     const char * output;
 372:/home/brendan/Dropbox/PhD/Code/LBM/2D LBFS/src/preprocessor.cpp **** 
 373:/home/brendan/Dropbox/PhD/Code/LBM/2D LBFS/src/preprocessor.cpp ****     output = child2_element->GetText();
 2385              		.loc 2 373 0 is_stmt 1
 2386 1935 488B45F0 		movq	-16(%rbp), %rax
 2387 1939 4889C7   		movq	%rax, %rdi
 2388 193c E8000000 		call	_ZNK8tinyxml210XMLElement7GetTextEv
 2388      00
 2389 1941 488945F8 		movq	%rax, -8(%rbp)
 374:/home/brendan/Dropbox/PhD/Code/LBM/2D LBFS/src/preprocessor.cpp **** 
 375:/home/brendan/Dropbox/PhD/Code/LBM/2D LBFS/src/preprocessor.cpp ****     return output;
 2390              		.loc 2 375 0
 2391 1945 488B45F8 		movq	-8(%rbp), %rax
 376:/home/brendan/Dropbox/PhD/Code/LBM/2D LBFS/src/preprocessor.cpp **** }
 2392              		.loc 2 376 0
 2393 1949 C9       		leave
 2394              		.cfi_def_cfa 7, 8
 2395 194a C3       		ret
 2396              		.cfi_endproc
 2397              	.LFE1792:
 2399              		.weak	_ZTV12preprocessor
 2400              		.section	.rodata._ZTV12preprocessor,"aG",@progbits,_ZTV12preprocessor,comdat
 2401              		.align 8
 2404              	_ZTV12preprocessor:
 2405 0000 00000000 		.quad	0
 2405      00000000 
 2406 0008 00000000 		.quad	_ZTI12preprocessor
 2406      00000000 
GAS LISTING /tmp/cc7pRhJa.s 			page 74


 2407 0010 00000000 		.quad	_ZN12preprocessorD1Ev
 2407      00000000 
 2408 0018 00000000 		.quad	_ZN12preprocessorD0Ev
 2408      00000000 
 2409              		.weak	_ZTI12preprocessor
 2410              		.section	.rodata._ZTI12preprocessor,"aG",@progbits,_ZTI12preprocessor,comdat
 2411              		.align 8
 2414              	_ZTI12preprocessor:
 2415 0000 00000000 		.quad	_ZTVN10__cxxabiv117__class_type_infoE+16
 2415      00000000 
 2416 0008 00000000 		.quad	_ZTS12preprocessor
 2416      00000000 
 2417              		.weak	_ZTS12preprocessor
 2418              		.section	.rodata._ZTS12preprocessor,"aG",@progbits,_ZTS12preprocessor,comdat
 2419              		.align 8
 2422              	_ZTS12preprocessor:
 2423 0000 31327072 		.string	"12preprocessor"
 2423      6570726F 
 2423      63657373 
 2423      6F7200
 2424              		.section	.rodata
 2425 01ff 00       		.align 8
 2426              	.LC0:
 2427 0200 AA4C58E8 		.long	3898100906
 2428 0204 7AB6FB3F 		.long	1073460858
 2429              		.text
 2430              	.Letext0:
 2431              		.file 4 "/usr/include/c++/5/bits/basic_string.h"
 2432              		.file 5 "/usr/include/c++/5/bits/stringfwd.h"
 2433              		.file 6 "/usr/include/c++/5/type_traits"
 2434              		.file 7 "/usr/include/c++/5/cwchar"
 2435              		.file 8 "/usr/include/c++/5/bits/char_traits.h"
 2436              		.file 9 "/usr/include/x86_64-linux-gnu/c++/5/bits/c++config.h"
 2437              		.file 10 "/usr/include/c++/5/cstdint"
 2438              		.file 11 "/usr/include/c++/5/bits/exception_ptr.h"
 2439              		.file 12 "/usr/include/c++/5/bits/allocator.h"
 2440              		.file 13 "/usr/include/c++/5/clocale"
 2441              		.file 14 "/usr/include/c++/5/cstdlib"
 2442              		.file 15 "/usr/include/c++/5/cstdio"
 2443              		.file 16 "/usr/include/c++/5/bits/alloc_traits.h"
 2444              		.file 17 "/usr/include/c++/5/initializer_list"
 2445              		.file 18 "/usr/include/c++/5/cstring"
 2446              		.file 19 "/usr/include/c++/5/system_error"
 2447              		.file 20 "/usr/include/c++/5/cwctype"
 2448              		.file 21 "/usr/include/c++/5/bits/stl_iterator_base_types.h"
 2449              		.file 22 "/usr/include/c++/5/debug/debug.h"
 2450              		.file 23 "/usr/include/c++/5/bits/predefined_ops.h"
 2451              		.file 24 "/usr/include/c++/5/ext/new_allocator.h"
 2452              		.file 25 "/usr/include/c++/5/ext/numeric_traits.h"
 2453              		.file 26 "/usr/include/c++/5/ext/alloc_traits.h"
 2454              		.file 27 "/usr/include/c++/5/bits/stl_iterator.h"
 2455              		.file 28 "/usr/include/stdio.h"
 2456              		.file 29 "/usr/include/libio.h"
 2457              		.file 30 "<built-in>"
 2458              		.file 31 "/usr/lib/gcc/x86_64-linux-gnu/5/include/stddef.h"
 2459              		.file 32 "/usr/include/wchar.h"
 2460              		.file 33 "/usr/include/time.h"
GAS LISTING /tmp/cc7pRhJa.s 			page 75


 2461              		.file 34 "/usr/include/stdint.h"
 2462              		.file 35 "/usr/include/locale.h"
 2463              		.file 36 "/usr/include/x86_64-linux-gnu/bits/types.h"
 2464              		.file 37 "/usr/include/stdlib.h"
 2465              		.file 38 "/usr/include/_G_config.h"
 2466              		.file 39 "/usr/include/string.h"
 2467              		.file 40 "include/preprocessor.h"
 2468              		.file 41 "/usr/include/wctype.h"
 2469              		.file 42 "/usr/include/c++/5/bits/stl_pair.h"
GAS LISTING /tmp/cc7pRhJa.s 			page 76


DEFINED SYMBOLS
                            *ABS*:0000000000000000 preprocessor.cpp
     /tmp/cc7pRhJa.s:7      .rodata:0000000000000000 _ZStL19piecewise_construct
     /tmp/cc7pRhJa.s:12     .rodata:0000000000000004 _ZL20TIXML2_MAJOR_VERSION
     /tmp/cc7pRhJa.s:17     .rodata:0000000000000008 _ZL20TIXML2_MINOR_VERSION
     /tmp/cc7pRhJa.s:22     .rodata:000000000000000c _ZL20TIXML2_PATCH_VERSION
     /tmp/cc7pRhJa.s:28     .text._ZN8tinyxml27XMLNode10FirstChildEv:0000000000000000 _ZN8tinyxml27XMLNode10FirstChildEv
     /tmp/cc7pRhJa.s:53     .text._ZN8tinyxml27XMLNode17FirstChildElementEPKc:0000000000000000 _ZN8tinyxml27XMLNode17FirstChildElementEPKc
     /tmp/cc7pRhJa.s:82     .text:0000000000000000 _ZN12preprocessorC2Ev
     /tmp/cc7pRhJa.s:2404   .rodata._ZTV12preprocessor:0000000000000000 _ZTV12preprocessor
     /tmp/cc7pRhJa.s:82     .text:0000000000000000 _ZN12preprocessorC1Ev
     /tmp/cc7pRhJa.s:112    .text:0000000000000018 _ZN12preprocessorD2Ev
     /tmp/cc7pRhJa.s:112    .text:0000000000000018 _ZN12preprocessorD1Ev
     /tmp/cc7pRhJa.s:150    .text:0000000000000048 _ZN12preprocessorD0Ev
     /tmp/cc7pRhJa.s:178    .text._ZN15domain_geometryC2ERKS_:0000000000000000 _ZN15domain_geometryC2ERKS_
     /tmp/cc7pRhJa.s:178    .text._ZN15domain_geometryC2ERKS_:0000000000000000 _ZN15domain_geometryC1ERKS_
     /tmp/cc7pRhJa.s:233    .text:000000000000006e _ZN12preprocessor28initialise_program_variablesEPcR16global_variablesR15domain_geometryR18initial_conditionsR13quad_bcs_plus
     /tmp/cc7pRhJa.s:1765   .text:000000000000126e _ZN12preprocessor22parse_global_variablesERN8tinyxml211XMLDocumentER16global_variables
     /tmp/cc7pRhJa.s:1644   .text:0000000000001176 _ZN12preprocessor24parse_geometry_variablesERN8tinyxml211XMLDocumentER15domain_geometry
     /tmp/cc7pRhJa.s:1372   .text:0000000000000da0 _ZN12preprocessor24parse_initial_conditionsERN8tinyxml211XMLDocumentER18initial_conditions
     /tmp/cc7pRhJa.s:563    .text:0000000000000428 _ZN12preprocessor25parse_boundary_conditionsERN8tinyxml211XMLDocumentER13quad_bcs_plus
     /tmp/cc7pRhJa.s:398    .text:000000000000023c _ZN12preprocessor18mach_number_factorER16global_variablesR13quad_bcs_plusR18initial_conditionsR15domain_geometry
     /tmp/cc7pRhJa.s:2159   .text:000000000000170c _ZN12preprocessor14get_xml_doubleEPKcS1_S1_RN8tinyxml211XMLDocumentE
     /tmp/cc7pRhJa.s:2320   .text:000000000000188c _ZN12preprocessor12get_xml_textEPKcS1_S1_RN8tinyxml211XMLDocumentE
     /tmp/cc7pRhJa.s:1973   .text:000000000000153a _ZN12preprocessor14get_xml_doubleEPKcS1_RN8tinyxml211XMLDocumentE
     /tmp/cc7pRhJa.s:2052   .text:00000000000015fa _ZN12preprocessor14get_xml_doubleEPKcS1_S1_S1_RN8tinyxml211XMLDocumentE
     /tmp/cc7pRhJa.s:2252   .text:00000000000017f6 _ZN12preprocessor12get_xml_textEPKcS1_RN8tinyxml211XMLDocumentE
     /tmp/cc7pRhJa.s:2414   .rodata._ZTI12preprocessor:0000000000000000 _ZTI12preprocessor
     /tmp/cc7pRhJa.s:2422   .rodata._ZTS12preprocessor:0000000000000000 _ZTS12preprocessor
                           .group:0000000000000000 _ZN15domain_geometryC5ERKS_

UNDEFINED SYMBOLS
_ZNK8tinyxml27XMLNode17FirstChildElementEPKc
_ZdlPv
_ZTV15domain_geometry
__gxx_personality_v0
_ZN8tinyxml211XMLDocumentC1EbNS_10WhitespaceE
_ZN8tinyxml211XMLDocument8LoadFileEPKc
_ZN16global_variables10initialiseE15domain_geometry
_ZN15domain_geometryD1Ev
_ZN8tinyxml211XMLDocumentD1Ev
_Unwind_Resume
__stack_chk_fail
_ZNSt7__cxx1112basic_stringIcSt11char_traitsIcESaIcEEC1Ev
_ZNSt7__cxx1112basic_stringIcSt11char_traitsIcESaIcEEaSEPKc
_ZNKSt7__cxx1112basic_stringIcSt11char_traitsIcESaIcEE7compareEPKc
_ZNSt7__cxx1112basic_stringIcSt11char_traitsIcESaIcEED1Ev
_ZN15domain_geometry10initialiseEv
_ZNK8tinyxml210XMLElement15QueryDoubleTextEPd
_ZNK8tinyxml210XMLElement7GetTextEv
_ZTVN10__cxxabiv117__class_type_infoE
