GAS LISTING /tmp/ccGYUW7A.s 			page 1


   1              		.file	"program.cpp"
   2              		.text
   3              	.Ltext0:
   4              		.section	.rodata
   7              	_ZStL19piecewise_construct:
   8 0000 00       		.zero	1
   9              		.section	.text._ZN4Mesh9get_num_xEv,"axG",@progbits,_ZN4Mesh9get_num_xEv,comdat
  10              		.align 2
  11              		.weak	_ZN4Mesh9get_num_xEv
  13              	_ZN4Mesh9get_num_xEv:
  14              	.LFB874:
  15              		.file 1 "include/Mesh.h"
   1:include/Mesh.h **** #ifndef Mesh_H
   2:include/Mesh.h **** #define Mesh_H
   3:include/Mesh.h **** 
   4:include/Mesh.h **** #include "domain_geometry.h"
   5:include/Mesh.h **** #include "global_variables.h"
   6:include/Mesh.h **** class Mesh
   7:include/Mesh.h **** {
   8:include/Mesh.h ****     public:
   9:include/Mesh.h ****         Mesh(domain_geometry domain, global_variables globals);
  10:include/Mesh.h ****         virtual ~Mesh();
  11:include/Mesh.h ****         double get_node_x(int node_num);
  12:include/Mesh.h ****         int get_num_x() { return num_x_cells; };
  16              		.loc 1 12 0
  17              		.cfi_startproc
  18 0000 55       		pushq	%rbp
  19              		.cfi_def_cfa_offset 16
  20              		.cfi_offset 6, -16
  21 0001 4889E5   		movq	%rsp, %rbp
  22              		.cfi_def_cfa_register 6
  23 0004 48897DF8 		movq	%rdi, -8(%rbp)
  24              		.loc 1 12 0
  25 0008 488B45F8 		movq	-8(%rbp), %rax
  26 000c 8B4008   		movl	8(%rax), %eax
  27 000f 5D       		popq	%rbp
  28              		.cfi_def_cfa 7, 8
  29 0010 C3       		ret
  30              		.cfi_endproc
  31              	.LFE874:
  33              		.section	.text._ZN4Mesh9get_num_yEv,"axG",@progbits,_ZN4Mesh9get_num_yEv,comdat
  34              		.align 2
  35              		.weak	_ZN4Mesh9get_num_yEv
  37              	_ZN4Mesh9get_num_yEv:
  38              	.LFB875:
  13:include/Mesh.h ****         int get_num_y () { return num_y_cells; };
  39              		.loc 1 13 0
  40              		.cfi_startproc
  41 0000 55       		pushq	%rbp
  42              		.cfi_def_cfa_offset 16
  43              		.cfi_offset 6, -16
  44 0001 4889E5   		movq	%rsp, %rbp
  45              		.cfi_def_cfa_register 6
  46 0004 48897DF8 		movq	%rdi, -8(%rbp)
  47              		.loc 1 13 0
  48 0008 488B45F8 		movq	-8(%rbp), %rax
  49 000c 8B400C   		movl	12(%rax), %eax
GAS LISTING /tmp/ccGYUW7A.s 			page 2


  50 000f 5D       		popq	%rbp
  51              		.cfi_def_cfa 7, 8
  52 0010 C3       		ret
  53              		.cfi_endproc
  54              	.LFE875:
  56              		.section	.text._ZN4Mesh15get_total_cellsEv,"axG",@progbits,_ZN4Mesh15get_total_cellsEv,comdat
  57              		.align 2
  58              		.weak	_ZN4Mesh15get_total_cellsEv
  60              	_ZN4Mesh15get_total_cellsEv:
  61              	.LFB876:
  14:include/Mesh.h ****         int get_total_cells () { return total_cells; };
  62              		.loc 1 14 0
  63              		.cfi_startproc
  64 0000 55       		pushq	%rbp
  65              		.cfi_def_cfa_offset 16
  66              		.cfi_offset 6, -16
  67 0001 4889E5   		movq	%rsp, %rbp
  68              		.cfi_def_cfa_register 6
  69 0004 48897DF8 		movq	%rdi, -8(%rbp)
  70              		.loc 1 14 0
  71 0008 488B45F8 		movq	-8(%rbp), %rax
  72 000c 8B4010   		movl	16(%rax), %eax
  73 000f 5D       		popq	%rbp
  74              		.cfi_def_cfa 7, 8
  75 0010 C3       		ret
  76              		.cfi_endproc
  77              	.LFE876:
  79              		.section	.text._ZN10vector_varD2Ev,"axG",@progbits,_ZN10vector_varD5Ev,comdat
  80              		.align 2
  81              		.weak	_ZN10vector_varD2Ev
  83              	_ZN10vector_varD2Ev:
  84              	.LFB919:
  85              		.file 2 "include/vector_var.h"
   1:include/vector_var.h **** #ifndef VECTOR_VAR_H
   2:include/vector_var.h **** #define VECTOR_VAR_H
   3:include/vector_var.h **** 
   4:include/vector_var.h **** 
   5:include/vector_var.h **** class vector_var
   6:include/vector_var.h **** {
   7:include/vector_var.h ****     public:
   8:include/vector_var.h ****         vector_var();
   9:include/vector_var.h ****         vector_var(double _x, double _y, double _z);
  10:include/vector_var.h ****         virtual ~vector_var(){};
  86              		.loc 2 10 0
  87              		.cfi_startproc
  88 0000 55       		pushq	%rbp
  89              		.cfi_def_cfa_offset 16
  90              		.cfi_offset 6, -16
  91 0001 4889E5   		movq	%rsp, %rbp
  92              		.cfi_def_cfa_register 6
  93 0004 4883EC10 		subq	$16, %rsp
  94 0008 48897DF8 		movq	%rdi, -8(%rbp)
  95              	.LBB2:
  96              		.loc 2 10 0
  97 000c BA000000 		movl	$_ZTV10vector_var+16, %edx
  97      00
  98 0011 488B45F8 		movq	-8(%rbp), %rax
GAS LISTING /tmp/ccGYUW7A.s 			page 3


  99 0015 488910   		movq	%rdx, (%rax)
 100              	.LBE2:
 101 0018 B8000000 		movl	$0, %eax
 101      00
 102 001d 85C0     		testl	%eax, %eax
 103 001f 740C     		je	.L7
 104              		.loc 2 10 0 is_stmt 0 discriminator 2
 105 0021 488B45F8 		movq	-8(%rbp), %rax
 106 0025 4889C7   		movq	%rax, %rdi
 107 0028 E8000000 		call	_ZdlPv
 107      00
 108              	.L7:
 109              		.loc 2 10 0
 110 002d C9       		leave
 111              		.cfi_def_cfa 7, 8
 112 002e C3       		ret
 113              		.cfi_endproc
 114              	.LFE919:
 116              		.weak	_ZN10vector_varD1Ev
 117              		.set	_ZN10vector_varD1Ev,_ZN10vector_varD2Ev
 118              		.section	.text._ZN10vector_varD0Ev,"axG",@progbits,_ZN10vector_varD5Ev,comdat
 119              		.align 2
 120              		.weak	_ZN10vector_varD0Ev
 122              	_ZN10vector_varD0Ev:
 123              	.LFB921:
 124              		.loc 2 10 0 is_stmt 1
 125              		.cfi_startproc
 126 0000 55       		pushq	%rbp
 127              		.cfi_def_cfa_offset 16
 128              		.cfi_offset 6, -16
 129 0001 4889E5   		movq	%rsp, %rbp
 130              		.cfi_def_cfa_register 6
 131 0004 4883EC10 		subq	$16, %rsp
 132 0008 48897DF8 		movq	%rdi, -8(%rbp)
 133              		.loc 2 10 0
 134 000c 488B45F8 		movq	-8(%rbp), %rax
 135 0010 4889C7   		movq	%rax, %rdi
 136 0013 E8000000 		call	_ZN10vector_varD1Ev
 136      00
 137 0018 488B45F8 		movq	-8(%rbp), %rax
 138 001c 4889C7   		movq	%rax, %rdi
 139 001f E8000000 		call	_ZdlPv
 139      00
 140 0024 C9       		leave
 141              		.cfi_def_cfa 7, 8
 142 0025 C3       		ret
 143              		.cfi_endproc
 144              	.LFE921:
 146              		.section	.text._ZN8Solution15set_average_rhoEd,"axG",@progbits,_ZN8Solution15set_average_rhoEd,com
 147              		.align 2
 148              		.weak	_ZN8Solution15set_average_rhoEd
 150              	_ZN8Solution15set_average_rhoEd:
 151              	.LFB938:
 152              		.file 3 "include/Solution.h"
   1:include/Solution.h **** #include "Mesh.h"
   2:include/Solution.h **** #include "vector_var.h"
   3:include/Solution.h **** #include <string>
GAS LISTING /tmp/ccGYUW7A.s 			page 4


   4:include/Solution.h **** #include "global_variables.h"
   5:include/Solution.h **** #include "domain_geometry.h"
   6:include/Solution.h **** #include <Boundary_Conditions.h>
   7:include/Solution.h **** #include "initial_conditions.h"
   8:include/Solution.h **** #ifndef SOLUTION_H
   9:include/Solution.h **** #define SOLUTION_H
  10:include/Solution.h **** 
  11:include/Solution.h **** 
  12:include/Solution.h **** class Solution
  13:include/Solution.h **** {
  14:include/Solution.h ****     public:
  15:include/Solution.h ****         Solution(int _total_nodes);
  16:include/Solution.h ****         Solution();
  17:include/Solution.h ****         virtual ~Solution();
  18:include/Solution.h ****         double get_rho( int i) {return rho[i];};
  19:include/Solution.h ****         double get_u( int i) {return u[i];};
  20:include/Solution.h ****         double get_v( int i) {return v[i];};
  21:include/Solution.h ****         double get_w( int i) {return w[i];};
  22:include/Solution.h ****         double get_average_rho (){return average_rho;};
  23:include/Solution.h ****         double get_u_exact( int i) {return u_exact[i];};
  24:include/Solution.h ****         double get_u_error( int i) {return error[i];};
  25:include/Solution.h ****         void set_average_rho(double arg) { average_rho = arg;};
 153              		.loc 3 25 0
 154              		.cfi_startproc
 155 0000 55       		pushq	%rbp
 156              		.cfi_def_cfa_offset 16
 157              		.cfi_offset 6, -16
 158 0001 4889E5   		movq	%rsp, %rbp
 159              		.cfi_def_cfa_register 6
 160 0004 48897DF8 		movq	%rdi, -8(%rbp)
 161 0008 F20F1145 		movsd	%xmm0, -16(%rbp)
 161      F0
 162              		.loc 3 25 0
 163 000d 488B45F8 		movq	-8(%rbp), %rax
 164 0011 F20F1045 		movsd	-16(%rbp), %xmm0
 164      F0
 165 0016 F20F1140 		movsd	%xmm0, 64(%rax)
 165      40
 166 001b 90       		nop
 167 001c 5D       		popq	%rbp
 168              		.cfi_def_cfa 7, 8
 169 001d C3       		ret
 170              		.cfi_endproc
 171              	.LFE938:
 173              		.section	.rodata
 174 0001 000000   		.align 4
 177              	_ZL20TIXML2_MAJOR_VERSION:
 178 0004 03000000 		.long	3
 179              		.align 4
 182              	_ZL20TIXML2_MINOR_VERSION:
 183 0008 00000000 		.zero	4
 184              		.align 4
 187              	_ZL20TIXML2_PATCH_VERSION:
 188 000c 00000000 		.zero	4
 189              		.local	_ZStL8__ioinit
 190              		.comm	_ZStL8__ioinit,1,1
 191              		.align 4
GAS LISTING /tmp/ccGYUW7A.s 			page 5


 194              	_ZL16InvalidEnumValue:
 195 0010 FF000000 		.long	255
 196              		.align 4
 199              	_ZL14FILEFORMAT_PLT:
 200 0014 00000000 		.zero	4
 201              		.align 4
 204              	_ZL14FILEFORMAT_SZL:
 205 0018 01000000 		.long	1
 206              		.align 4
 209              	_ZL13FILETYPE_FULL:
 210 001c 00000000 		.zero	4
 211              		.align 4
 214              	_ZL13FILETYPE_GRID:
 215 0020 01000000 		.long	1
 216              		.align 4
 219              	_ZL17FILETYPE_SOLUTION:
 220 0024 02000000 		.long	2
 221              		.text
 222              		.align 2
 223              		.globl	_ZN7programC2Ev
 225              	_ZN7programC2Ev:
 226              	.LFB2171:
 227              		.file 4 "/home/brendan/Dropbox/PhD/Code/LBM/2D LBFS/src/program.cpp"
   1:/home/brendan/Dropbox/PhD/Code/LBM/2D LBFS/src/program.cpp **** #include "program.h"
   2:/home/brendan/Dropbox/PhD/Code/LBM/2D LBFS/src/program.cpp **** #include "quad_bcs.h"
   3:/home/brendan/Dropbox/PhD/Code/LBM/2D LBFS/src/program.cpp **** #include "global_variables.h"
   4:/home/brendan/Dropbox/PhD/Code/LBM/2D LBFS/src/program.cpp **** #include "preprocessor.h"
   5:/home/brendan/Dropbox/PhD/Code/LBM/2D LBFS/src/program.cpp **** #include <ctime>
   6:/home/brendan/Dropbox/PhD/Code/LBM/2D LBFS/src/program.cpp **** #include "quad_bcs_plus.h"
   7:/home/brendan/Dropbox/PhD/Code/LBM/2D LBFS/src/program.cpp **** #include "domain_geometry.h"
   8:/home/brendan/Dropbox/PhD/Code/LBM/2D LBFS/src/program.cpp **** #include "Mesh.h"
   9:/home/brendan/Dropbox/PhD/Code/LBM/2D LBFS/src/program.cpp **** #include "Boundary_Conditions.h"
  10:/home/brendan/Dropbox/PhD/Code/LBM/2D LBFS/src/program.cpp **** #include "external_forces.h"
  11:/home/brendan/Dropbox/PhD/Code/LBM/2D LBFS/src/program.cpp **** #include "Solution.h"
  12:/home/brendan/Dropbox/PhD/Code/LBM/2D LBFS/src/program.cpp **** #include "Solver.h"
  13:/home/brendan/Dropbox/PhD/Code/LBM/2D LBFS/src/program.cpp **** #include <fstream>
  14:/home/brendan/Dropbox/PhD/Code/LBM/2D LBFS/src/program.cpp **** #include <iostream>
  15:/home/brendan/Dropbox/PhD/Code/LBM/2D LBFS/src/program.cpp **** #include "postprocessor.h"
  16:/home/brendan/Dropbox/PhD/Code/LBM/2D LBFS/src/program.cpp **** #include <stdlib.h>
  17:/home/brendan/Dropbox/PhD/Code/LBM/2D LBFS/src/program.cpp **** #include <stdio.h>
  18:/home/brendan/Dropbox/PhD/Code/LBM/2D LBFS/src/program.cpp **** #include "TECIO.h"
  19:/home/brendan/Dropbox/PhD/Code/LBM/2D LBFS/src/program.cpp **** #include <sstream>
  20:/home/brendan/Dropbox/PhD/Code/LBM/2D LBFS/src/program.cpp **** #include <tecplot_output.h>
  21:/home/brendan/Dropbox/PhD/Code/LBM/2D LBFS/src/program.cpp **** 
  22:/home/brendan/Dropbox/PhD/Code/LBM/2D LBFS/src/program.cpp **** program::program()
 228              		.loc 4 22 0
 229              		.cfi_startproc
 230 0000 55       		pushq	%rbp
 231              		.cfi_def_cfa_offset 16
 232              		.cfi_offset 6, -16
 233 0001 4889E5   		movq	%rsp, %rbp
 234              		.cfi_def_cfa_register 6
 235 0004 48897DF8 		movq	%rdi, -8(%rbp)
 236              	.LBB3:
 237              		.loc 4 22 0
 238 0008 BA000000 		movl	$_ZTV7program+16, %edx
 238      00
GAS LISTING /tmp/ccGYUW7A.s 			page 6


 239 000d 488B45F8 		movq	-8(%rbp), %rax
 240 0011 488910   		movq	%rdx, (%rax)
 241              	.LBE3:
  23:/home/brendan/Dropbox/PhD/Code/LBM/2D LBFS/src/program.cpp **** {
  24:/home/brendan/Dropbox/PhD/Code/LBM/2D LBFS/src/program.cpp ****     //ctor
  25:/home/brendan/Dropbox/PhD/Code/LBM/2D LBFS/src/program.cpp **** }
 242              		.loc 4 25 0
 243 0014 90       		nop
 244 0015 5D       		popq	%rbp
 245              		.cfi_def_cfa 7, 8
 246 0016 C3       		ret
 247              		.cfi_endproc
 248              	.LFE2171:
 250              		.globl	_ZN7programC1Ev
 251              		.set	_ZN7programC1Ev,_ZN7programC2Ev
 252 0017 90       		.align 2
 253              		.globl	_ZN7programD2Ev
 255              	_ZN7programD2Ev:
 256              	.LFB2174:
  26:/home/brendan/Dropbox/PhD/Code/LBM/2D LBFS/src/program.cpp **** 
  27:/home/brendan/Dropbox/PhD/Code/LBM/2D LBFS/src/program.cpp **** program::~program()
 257              		.loc 4 27 0
 258              		.cfi_startproc
 259 0018 55       		pushq	%rbp
 260              		.cfi_def_cfa_offset 16
 261              		.cfi_offset 6, -16
 262 0019 4889E5   		movq	%rsp, %rbp
 263              		.cfi_def_cfa_register 6
 264 001c 4883EC10 		subq	$16, %rsp
 265 0020 48897DF8 		movq	%rdi, -8(%rbp)
 266              	.LBB4:
 267              		.loc 4 27 0
 268 0024 BA000000 		movl	$_ZTV7program+16, %edx
 268      00
 269 0029 488B45F8 		movq	-8(%rbp), %rax
 270 002d 488910   		movq	%rdx, (%rax)
 271              	.LBE4:
  28:/home/brendan/Dropbox/PhD/Code/LBM/2D LBFS/src/program.cpp **** {
  29:/home/brendan/Dropbox/PhD/Code/LBM/2D LBFS/src/program.cpp ****     //dtor
  30:/home/brendan/Dropbox/PhD/Code/LBM/2D LBFS/src/program.cpp **** }
 272              		.loc 4 30 0
 273 0030 B8000000 		movl	$0, %eax
 273      00
 274 0035 85C0     		testl	%eax, %eax
 275 0037 740C     		je	.L12
 276              		.loc 4 30 0 is_stmt 0 discriminator 1
 277 0039 488B45F8 		movq	-8(%rbp), %rax
 278 003d 4889C7   		movq	%rax, %rdi
 279 0040 E8000000 		call	_ZdlPv
 279      00
 280              	.L12:
 281              		.loc 4 30 0
 282 0045 C9       		leave
 283              		.cfi_def_cfa 7, 8
 284 0046 C3       		ret
 285              		.cfi_endproc
 286              	.LFE2174:
GAS LISTING /tmp/ccGYUW7A.s 			page 7


 288              		.globl	_ZN7programD1Ev
 289              		.set	_ZN7programD1Ev,_ZN7programD2Ev
 290 0047 90       		.align 2
 291              		.globl	_ZN7programD0Ev
 293              	_ZN7programD0Ev:
 294              	.LFB2176:
  27:/home/brendan/Dropbox/PhD/Code/LBM/2D LBFS/src/program.cpp **** {
 295              		.loc 4 27 0 is_stmt 1
 296              		.cfi_startproc
 297 0048 55       		pushq	%rbp
 298              		.cfi_def_cfa_offset 16
 299              		.cfi_offset 6, -16
 300 0049 4889E5   		movq	%rsp, %rbp
 301              		.cfi_def_cfa_register 6
 302 004c 4883EC10 		subq	$16, %rsp
 303 0050 48897DF8 		movq	%rdi, -8(%rbp)
 304              		.loc 4 30 0
 305 0054 488B45F8 		movq	-8(%rbp), %rax
 306 0058 4889C7   		movq	%rax, %rdi
 307 005b E8000000 		call	_ZN7programD1Ev
 307      00
 308 0060 488B45F8 		movq	-8(%rbp), %rax
 309 0064 4889C7   		movq	%rax, %rdi
 310 0067 E8000000 		call	_ZdlPv
 310      00
 311 006c C9       		leave
 312              		.cfi_def_cfa 7, 8
 313 006d C3       		ret
 314              		.cfi_endproc
 315              	.LFE2176:
 317              		.section	.text._ZN15domain_geometryC2ERKS_,"axG",@progbits,_ZN15domain_geometryC5ERKS_,comdat
 318              		.align 2
 319              		.weak	_ZN15domain_geometryC2ERKS_
 321              	_ZN15domain_geometryC2ERKS_:
 322              	.LFB2179:
 323              		.file 5 "include/domain_geometry.h"
   1:include/domain_geometry.h **** #ifndef DOMAIN_GEOMETRY_H
   2:include/domain_geometry.h **** #define DOMAIN_GEOMETRY_H
   3:include/domain_geometry.h **** 
   4:include/domain_geometry.h **** 
   5:include/domain_geometry.h **** class domain_geometry
 324              		.loc 5 5 0
 325              		.cfi_startproc
 326 0000 55       		pushq	%rbp
 327              		.cfi_def_cfa_offset 16
 328              		.cfi_offset 6, -16
 329 0001 4889E5   		movq	%rsp, %rbp
 330              		.cfi_def_cfa_register 6
 331 0004 48897DF8 		movq	%rdi, -8(%rbp)
 332 0008 488975F0 		movq	%rsi, -16(%rbp)
 333              	.LBB5:
 334              		.loc 5 5 0
 335 000c BA000000 		movl	$_ZTV15domain_geometry+16, %edx
 335      00
 336 0011 488B45F8 		movq	-8(%rbp), %rax
 337 0015 488910   		movq	%rdx, (%rax)
 338 0018 488B45F0 		movq	-16(%rbp), %rax
GAS LISTING /tmp/ccGYUW7A.s 			page 8


 339 001c F20F1040 		movsd	8(%rax), %xmm0
 339      08
 340 0021 488B45F8 		movq	-8(%rbp), %rax
 341 0025 F20F1140 		movsd	%xmm0, 8(%rax)
 341      08
 342 002a 488B45F0 		movq	-16(%rbp), %rax
 343 002e F20F1040 		movsd	16(%rax), %xmm0
 343      10
 344 0033 488B45F8 		movq	-8(%rbp), %rax
 345 0037 F20F1140 		movsd	%xmm0, 16(%rax)
 345      10
 346 003c 488B45F0 		movq	-16(%rbp), %rax
 347 0040 F20F1040 		movsd	24(%rax), %xmm0
 347      18
 348 0045 488B45F8 		movq	-8(%rbp), %rax
 349 0049 F20F1140 		movsd	%xmm0, 24(%rax)
 349      18
 350 004e 488B45F0 		movq	-16(%rbp), %rax
 351 0052 F20F1040 		movsd	32(%rax), %xmm0
 351      20
 352 0057 488B45F8 		movq	-8(%rbp), %rax
 353 005b F20F1140 		movsd	%xmm0, 32(%rax)
 353      20
 354 0060 488B45F0 		movq	-16(%rbp), %rax
 355 0064 F20F1040 		movsd	40(%rax), %xmm0
 355      28
 356 0069 488B45F8 		movq	-8(%rbp), %rax
 357 006d F20F1140 		movsd	%xmm0, 40(%rax)
 357      28
 358 0072 488B45F0 		movq	-16(%rbp), %rax
 359 0076 F20F1040 		movsd	48(%rax), %xmm0
 359      30
 360 007b 488B45F8 		movq	-8(%rbp), %rax
 361 007f F20F1140 		movsd	%xmm0, 48(%rax)
 361      30
 362              	.LBE5:
 363 0084 90       		nop
 364 0085 5D       		popq	%rbp
 365              		.cfi_def_cfa 7, 8
 366 0086 C3       		ret
 367              		.cfi_endproc
 368              	.LFE2179:
 370              		.weak	_ZN15domain_geometryC1ERKS_
 371              		.set	_ZN15domain_geometryC1ERKS_,_ZN15domain_geometryC2ERKS_
 372              		.section	.text._ZN16global_variablesC2ERKS_,"axG",@progbits,_ZN16global_variablesC5ERKS_,comdat
 373              		.align 2
 374              		.weak	_ZN16global_variablesC2ERKS_
 376              	_ZN16global_variablesC2ERKS_:
 377              	.LFB2182:
 378              		.file 6 "include/global_variables.h"
   1:include/global_variables.h **** #ifndef GLOBAL_VARIABLES_H
   2:include/global_variables.h **** #define GLOBAL_VARIABLES_H
   3:include/global_variables.h **** #include <string>
   4:include/global_variables.h **** #include "domain_geometry.h"
   5:include/global_variables.h **** #include <math.h>
   6:include/global_variables.h **** 
   7:include/global_variables.h **** class global_variables
GAS LISTING /tmp/ccGYUW7A.s 			page 9


 379              		.loc 6 7 0
 380              		.cfi_startproc
 381              		.cfi_personality 0x3,__gxx_personality_v0
 382              		.cfi_lsda 0x3,.LLSDA2182
 383 0000 55       		pushq	%rbp
 384              		.cfi_def_cfa_offset 16
 385              		.cfi_offset 6, -16
 386 0001 4889E5   		movq	%rsp, %rbp
 387              		.cfi_def_cfa_register 6
 388 0004 53       		pushq	%rbx
 389 0005 4883EC18 		subq	$24, %rsp
 390              		.cfi_offset 3, -24
 391 0009 48897DE8 		movq	%rdi, -24(%rbp)
 392 000d 488975E0 		movq	%rsi, -32(%rbp)
 393              	.LBB6:
 394              		.loc 6 7 0
 395 0011 BA000000 		movl	$_ZTV16global_variables+16, %edx
 395      00
 396 0016 488B45E8 		movq	-24(%rbp), %rax
 397 001a 488910   		movq	%rdx, (%rax)
 398 001d 488B45E0 		movq	-32(%rbp), %rax
 399 0021 8B5008   		movl	8(%rax), %edx
 400 0024 488B45E8 		movq	-24(%rbp), %rax
 401 0028 895008   		movl	%edx, 8(%rax)
 402 002b 488B45E0 		movq	-32(%rbp), %rax
 403 002f 8B500C   		movl	12(%rax), %edx
 404 0032 488B45E8 		movq	-24(%rbp), %rax
 405 0036 89500C   		movl	%edx, 12(%rax)
 406 0039 488B45E0 		movq	-32(%rbp), %rax
 407 003d 8B5010   		movl	16(%rax), %edx
 408 0040 488B45E8 		movq	-24(%rbp), %rax
 409 0044 895010   		movl	%edx, 16(%rax)
 410 0047 488B45E0 		movq	-32(%rbp), %rax
 411 004b F20F1040 		movsd	24(%rax), %xmm0
 411      18
 412 0050 488B45E8 		movq	-24(%rbp), %rax
 413 0054 F20F1140 		movsd	%xmm0, 24(%rax)
 413      18
 414 0059 488B45E0 		movq	-32(%rbp), %rax
 415 005d F20F1040 		movsd	32(%rax), %xmm0
 415      20
 416 0062 488B45E8 		movq	-24(%rbp), %rax
 417 0066 F20F1140 		movsd	%xmm0, 32(%rax)
 417      20
 418 006b 488B45E0 		movq	-32(%rbp), %rax
 419 006f F20F1040 		movsd	40(%rax), %xmm0
 419      28
 420 0074 488B45E8 		movq	-24(%rbp), %rax
 421 0078 F20F1140 		movsd	%xmm0, 40(%rax)
 421      28
 422 007d 488B45E0 		movq	-32(%rbp), %rax
 423 0081 F20F1040 		movsd	48(%rax), %xmm0
 423      30
 424 0086 488B45E8 		movq	-24(%rbp), %rax
 425 008a F20F1140 		movsd	%xmm0, 48(%rax)
 425      30
 426 008f 488B45E0 		movq	-32(%rbp), %rax
GAS LISTING /tmp/ccGYUW7A.s 			page 10


 427 0093 F20F1040 		movsd	56(%rax), %xmm0
 427      38
 428 0098 488B45E8 		movq	-24(%rbp), %rax
 429 009c F20F1140 		movsd	%xmm0, 56(%rax)
 429      38
 430 00a1 488B45E0 		movq	-32(%rbp), %rax
 431 00a5 F20F1040 		movsd	64(%rax), %xmm0
 431      40
 432 00aa 488B45E8 		movq	-24(%rbp), %rax
 433 00ae F20F1140 		movsd	%xmm0, 64(%rax)
 433      40
 434 00b3 488B45E0 		movq	-32(%rbp), %rax
 435 00b7 F20F1040 		movsd	72(%rax), %xmm0
 435      48
 436 00bc 488B45E8 		movq	-24(%rbp), %rax
 437 00c0 F20F1140 		movsd	%xmm0, 72(%rax)
 437      48
 438 00c5 488B45E0 		movq	-32(%rbp), %rax
 439 00c9 F20F1040 		movsd	80(%rax), %xmm0
 439      50
 440 00ce 488B45E8 		movq	-24(%rbp), %rax
 441 00d2 F20F1140 		movsd	%xmm0, 80(%rax)
 441      50
 442 00d7 488B45E0 		movq	-32(%rbp), %rax
 443 00db F20F1040 		movsd	88(%rax), %xmm0
 443      58
 444 00e0 488B45E8 		movq	-24(%rbp), %rax
 445 00e4 F20F1140 		movsd	%xmm0, 88(%rax)
 445      58
 446 00e9 488B45E0 		movq	-32(%rbp), %rax
 447 00ed F20F1040 		movsd	96(%rax), %xmm0
 447      60
 448 00f2 488B45E8 		movq	-24(%rbp), %rax
 449 00f6 F20F1140 		movsd	%xmm0, 96(%rax)
 449      60
 450 00fb 488B45E0 		movq	-32(%rbp), %rax
 451 00ff F20F1040 		movsd	104(%rax), %xmm0
 451      68
 452 0104 488B45E8 		movq	-24(%rbp), %rax
 453 0108 F20F1140 		movsd	%xmm0, 104(%rax)
 453      68
 454 010d 488B45E0 		movq	-32(%rbp), %rax
 455 0111 F20F1040 		movsd	112(%rax), %xmm0
 455      70
 456 0116 488B45E8 		movq	-24(%rbp), %rax
 457 011a F20F1140 		movsd	%xmm0, 112(%rax)
 457      70
 458 011f 488B45E0 		movq	-32(%rbp), %rax
 459 0123 F20F1040 		movsd	120(%rax), %xmm0
 459      78
 460 0128 488B45E8 		movq	-24(%rbp), %rax
 461 012c F20F1140 		movsd	%xmm0, 120(%rax)
 461      78
 462 0131 488B45E0 		movq	-32(%rbp), %rax
 463 0135 8B908000 		movl	128(%rax), %edx
 463      0000
 464 013b 488B45E8 		movq	-24(%rbp), %rax
GAS LISTING /tmp/ccGYUW7A.s 			page 11


 465 013f 89908000 		movl	%edx, 128(%rax)
 465      0000
 466 0145 488B45E0 		movq	-32(%rbp), %rax
 467 0149 8B908400 		movl	132(%rax), %edx
 467      0000
 468 014f 488B45E8 		movq	-24(%rbp), %rax
 469 0153 89908400 		movl	%edx, 132(%rax)
 469      0000
 470 0159 488B45E0 		movq	-32(%rbp), %rax
 471 015d 8B908800 		movl	136(%rax), %edx
 471      0000
 472 0163 488B45E8 		movq	-24(%rbp), %rax
 473 0167 89908800 		movl	%edx, 136(%rax)
 473      0000
 474 016d 488B45E0 		movq	-32(%rbp), %rax
 475 0171 8B908C00 		movl	140(%rax), %edx
 475      0000
 476 0177 488B45E8 		movq	-24(%rbp), %rax
 477 017b 89908C00 		movl	%edx, 140(%rax)
 477      0000
 478 0181 488B45E0 		movq	-32(%rbp), %rax
 479 0185 F20F1080 		movsd	144(%rax), %xmm0
 479      90000000 
 480 018d 488B45E8 		movq	-24(%rbp), %rax
 481 0191 F20F1180 		movsd	%xmm0, 144(%rax)
 481      90000000 
 482 0199 488B45E0 		movq	-32(%rbp), %rax
 483 019d 488D9098 		leaq	152(%rax), %rdx
 483      000000
 484 01a4 488B45E8 		movq	-24(%rbp), %rax
 485 01a8 48059800 		addq	$152, %rax
 485      0000
 486 01ae 4889D6   		movq	%rdx, %rsi
 487 01b1 4889C7   		movq	%rax, %rdi
 488              	.LEHB0:
 489 01b4 E8000000 		call	_ZNSt7__cxx1112basic_stringIcSt11char_traitsIcESaIcEEC1ERKS4_
 489      00
 490              	.LEHE0:
 491 01b9 488B45E0 		movq	-32(%rbp), %rax
 492 01bd 488D90B8 		leaq	184(%rax), %rdx
 492      000000
 493 01c4 488B45E8 		movq	-24(%rbp), %rax
 494 01c8 4805B800 		addq	$184, %rax
 494      0000
 495 01ce 4889D6   		movq	%rdx, %rsi
 496 01d1 4889C7   		movq	%rax, %rdi
 497              	.LEHB1:
 498 01d4 E8000000 		call	_ZNSt7__cxx1112basic_stringIcSt11char_traitsIcESaIcEEC1ERKS4_
 498      00
 499              	.LEHE1:
 500              		.loc 6 7 0 is_stmt 0 discriminator 2
 501 01d9 488B45E0 		movq	-32(%rbp), %rax
 502 01dd 488D90D8 		leaq	216(%rax), %rdx
 502      000000
 503 01e4 488B45E8 		movq	-24(%rbp), %rax
 504 01e8 4805D800 		addq	$216, %rax
 504      0000
GAS LISTING /tmp/ccGYUW7A.s 			page 12


 505 01ee 4889D6   		movq	%rdx, %rsi
 506 01f1 4889C7   		movq	%rax, %rdi
 507              	.LEHB2:
 508 01f4 E8000000 		call	_ZNSt7__cxx1112basic_stringIcSt11char_traitsIcESaIcEEC1ERKS4_
 508      00
 509              	.LEHE2:
 510              		.loc 6 7 0 discriminator 4
 511 01f9 488B45E0 		movq	-32(%rbp), %rax
 512 01fd 488D90F8 		leaq	248(%rax), %rdx
 512      000000
 513 0204 488B45E8 		movq	-24(%rbp), %rax
 514 0208 4805F800 		addq	$248, %rax
 514      0000
 515 020e 4889D6   		movq	%rdx, %rsi
 516 0211 4889C7   		movq	%rax, %rdi
 517              	.LEHB3:
 518 0214 E8000000 		call	_ZNSt7__cxx1112basic_stringIcSt11char_traitsIcESaIcEEC1ERKS4_
 518      00
 519              	.LEHE3:
 520              	.LBE6:
 521              		.loc 6 7 0
 522 0219 EB4E     		jmp	.L23
 523              	.L22:
 524 021b 4889C3   		movq	%rax, %rbx
 525              	.LBB7:
 526 021e 488B45E8 		movq	-24(%rbp), %rax
 527 0222 4805D800 		addq	$216, %rax
 527      0000
 528 0228 4889C7   		movq	%rax, %rdi
 529 022b E8000000 		call	_ZNSt7__cxx1112basic_stringIcSt11char_traitsIcESaIcEED1Ev
 529      00
 530 0230 EB03     		jmp	.L18
 531              	.L21:
 532 0232 4889C3   		movq	%rax, %rbx
 533              	.L18:
 534              		.loc 6 7 0 discriminator 3
 535 0235 488B45E8 		movq	-24(%rbp), %rax
 536 0239 4805B800 		addq	$184, %rax
 536      0000
 537 023f 4889C7   		movq	%rax, %rdi
 538 0242 E8000000 		call	_ZNSt7__cxx1112basic_stringIcSt11char_traitsIcESaIcEED1Ev
 538      00
 539 0247 EB03     		jmp	.L19
 540              	.L20:
 541 0249 4889C3   		movq	%rax, %rbx
 542              	.L19:
 543              		.loc 6 7 0 discriminator 1
 544 024c 488B45E8 		movq	-24(%rbp), %rax
 545 0250 48059800 		addq	$152, %rax
 545      0000
 546 0256 4889C7   		movq	%rax, %rdi
 547 0259 E8000000 		call	_ZNSt7__cxx1112basic_stringIcSt11char_traitsIcESaIcEED1Ev
 547      00
 548 025e 4889D8   		movq	%rbx, %rax
 549 0261 4889C7   		movq	%rax, %rdi
 550              	.LEHB4:
 551 0264 E8000000 		call	_Unwind_Resume
GAS LISTING /tmp/ccGYUW7A.s 			page 13


 551      00
 552              	.LEHE4:
 553              	.L23:
 554              	.LBE7:
 555              		.loc 6 7 0
 556 0269 4883C418 		addq	$24, %rsp
 557 026d 5B       		popq	%rbx
 558 026e 5D       		popq	%rbp
 559              		.cfi_def_cfa 7, 8
 560 026f C3       		ret
 561              		.cfi_endproc
 562              	.LFE2182:
 563              		.globl	__gxx_personality_v0
 564              		.section	.gcc_except_table._ZN16global_variablesC2ERKS_,"aG",@progbits,_ZN16global_variablesC5ERKS
 565              	.LLSDA2182:
 566 0000 FF       		.byte	0xff
 567 0001 FF       		.byte	0xff
 568 0002 01       		.byte	0x1
 569 0003 1C       		.uleb128 .LLSDACSE2182-.LLSDACSB2182
 570              	.LLSDACSB2182:
 571 0004 B403     		.uleb128 .LEHB0-.LFB2182
 572 0006 05       		.uleb128 .LEHE0-.LEHB0
 573 0007 00       		.uleb128 0
 574 0008 00       		.uleb128 0
 575 0009 D403     		.uleb128 .LEHB1-.LFB2182
 576 000b 05       		.uleb128 .LEHE1-.LEHB1
 577 000c C904     		.uleb128 .L20-.LFB2182
 578 000e 00       		.uleb128 0
 579 000f F403     		.uleb128 .LEHB2-.LFB2182
 580 0011 05       		.uleb128 .LEHE2-.LEHB2
 581 0012 B204     		.uleb128 .L21-.LFB2182
 582 0014 00       		.uleb128 0
 583 0015 9404     		.uleb128 .LEHB3-.LFB2182
 584 0017 05       		.uleb128 .LEHE3-.LEHB3
 585 0018 9B04     		.uleb128 .L22-.LFB2182
 586 001a 00       		.uleb128 0
 587 001b E404     		.uleb128 .LEHB4-.LFB2182
 588 001d 05       		.uleb128 .LEHE4-.LEHB4
 589 001e 00       		.uleb128 0
 590 001f 00       		.uleb128 0
 591              	.LLSDACSE2182:
 592              		.section	.text._ZN16global_variablesC2ERKS_,"axG",@progbits,_ZN16global_variablesC5ERKS_,comdat
 594              		.weak	_ZN16global_variablesC1ERKS_
 595              		.set	_ZN16global_variablesC1ERKS_,_ZN16global_variablesC2ERKS_
 596              		.section	.text._ZN13quad_bcs_plusC2ERKS_,"axG",@progbits,_ZN13quad_bcs_plusC5ERKS_,comdat
 597              		.align 2
 598              		.weak	_ZN13quad_bcs_plusC2ERKS_
 600              	_ZN13quad_bcs_plusC2ERKS_:
 601              	.LFB2185:
 602              		.file 7 "include/quad_bcs_plus.h"
   1:include/quad_bcs_plus.h **** #ifndef QUAD_BCS_PLUS_H
   2:include/quad_bcs_plus.h **** #define QUAD_BCS_PLUS_H
   3:include/quad_bcs_plus.h **** 
   4:include/quad_bcs_plus.h **** 
   5:include/quad_bcs_plus.h **** class quad_bcs_plus
 603              		.loc 7 5 0 is_stmt 1
 604              		.cfi_startproc
GAS LISTING /tmp/ccGYUW7A.s 			page 14


 605 0000 55       		pushq	%rbp
 606              		.cfi_def_cfa_offset 16
 607              		.cfi_offset 6, -16
 608 0001 4889E5   		movq	%rsp, %rbp
 609              		.cfi_def_cfa_register 6
 610 0004 48897DF8 		movq	%rdi, -8(%rbp)
 611 0008 488975F0 		movq	%rsi, -16(%rbp)
 612              	.LBB8:
 613              		.loc 7 5 0
 614 000c BA000000 		movl	$_ZTV13quad_bcs_plus+16, %edx
 614      00
 615 0011 488B45F8 		movq	-8(%rbp), %rax
 616 0015 488910   		movq	%rdx, (%rax)
 617 0018 488B45F0 		movq	-16(%rbp), %rax
 618 001c F20F1040 		movsd	8(%rax), %xmm0
 618      08
 619 0021 488B45F8 		movq	-8(%rbp), %rax
 620 0025 F20F1140 		movsd	%xmm0, 8(%rax)
 620      08
 621 002a 488B45F0 		movq	-16(%rbp), %rax
 622 002e F20F1040 		movsd	16(%rax), %xmm0
 622      10
 623 0033 488B45F8 		movq	-8(%rbp), %rax
 624 0037 F20F1140 		movsd	%xmm0, 16(%rax)
 624      10
 625 003c 488B45F0 		movq	-16(%rbp), %rax
 626 0040 F20F1040 		movsd	24(%rax), %xmm0
 626      18
 627 0045 488B45F8 		movq	-8(%rbp), %rax
 628 0049 F20F1140 		movsd	%xmm0, 24(%rax)
 628      18
 629 004e 488B45F0 		movq	-16(%rbp), %rax
 630 0052 F20F1040 		movsd	32(%rax), %xmm0
 630      20
 631 0057 488B45F8 		movq	-8(%rbp), %rax
 632 005b F20F1140 		movsd	%xmm0, 32(%rax)
 632      20
 633 0060 488B45F0 		movq	-16(%rbp), %rax
 634 0064 F20F1040 		movsd	40(%rax), %xmm0
 634      28
 635 0069 488B45F8 		movq	-8(%rbp), %rax
 636 006d F20F1140 		movsd	%xmm0, 40(%rax)
 636      28
 637 0072 488B45F0 		movq	-16(%rbp), %rax
 638 0076 F20F1040 		movsd	48(%rax), %xmm0
 638      30
 639 007b 488B45F8 		movq	-8(%rbp), %rax
 640 007f F20F1140 		movsd	%xmm0, 48(%rax)
 640      30
 641 0084 488B45F0 		movq	-16(%rbp), %rax
 642 0088 F20F1040 		movsd	56(%rax), %xmm0
 642      38
 643 008d 488B45F8 		movq	-8(%rbp), %rax
 644 0091 F20F1140 		movsd	%xmm0, 56(%rax)
 644      38
 645 0096 488B45F0 		movq	-16(%rbp), %rax
 646 009a F20F1040 		movsd	64(%rax), %xmm0
GAS LISTING /tmp/ccGYUW7A.s 			page 15


 646      40
 647 009f 488B45F8 		movq	-8(%rbp), %rax
 648 00a3 F20F1140 		movsd	%xmm0, 64(%rax)
 648      40
 649 00a8 488B45F0 		movq	-16(%rbp), %rax
 650 00ac F20F1040 		movsd	72(%rax), %xmm0
 650      48
 651 00b1 488B45F8 		movq	-8(%rbp), %rax
 652 00b5 F20F1140 		movsd	%xmm0, 72(%rax)
 652      48
 653 00ba 488B45F0 		movq	-16(%rbp), %rax
 654 00be F20F1040 		movsd	80(%rax), %xmm0
 654      50
 655 00c3 488B45F8 		movq	-8(%rbp), %rax
 656 00c7 F20F1140 		movsd	%xmm0, 80(%rax)
 656      50
 657 00cc 488B45F0 		movq	-16(%rbp), %rax
 658 00d0 F20F1040 		movsd	88(%rax), %xmm0
 658      58
 659 00d5 488B45F8 		movq	-8(%rbp), %rax
 660 00d9 F20F1140 		movsd	%xmm0, 88(%rax)
 660      58
 661 00de 488B45F0 		movq	-16(%rbp), %rax
 662 00e2 F20F1040 		movsd	96(%rax), %xmm0
 662      60
 663 00e7 488B45F8 		movq	-8(%rbp), %rax
 664 00eb F20F1140 		movsd	%xmm0, 96(%rax)
 664      60
 665 00f0 488B45F0 		movq	-16(%rbp), %rax
 666 00f4 F20F1040 		movsd	104(%rax), %xmm0
 666      68
 667 00f9 488B45F8 		movq	-8(%rbp), %rax
 668 00fd F20F1140 		movsd	%xmm0, 104(%rax)
 668      68
 669 0102 488B45F0 		movq	-16(%rbp), %rax
 670 0106 F20F1040 		movsd	112(%rax), %xmm0
 670      70
 671 010b 488B45F8 		movq	-8(%rbp), %rax
 672 010f F20F1140 		movsd	%xmm0, 112(%rax)
 672      70
 673 0114 488B45F0 		movq	-16(%rbp), %rax
 674 0118 F20F1040 		movsd	120(%rax), %xmm0
 674      78
 675 011d 488B45F8 		movq	-8(%rbp), %rax
 676 0121 F20F1140 		movsd	%xmm0, 120(%rax)
 676      78
 677 0126 488B45F0 		movq	-16(%rbp), %rax
 678 012a F20F1080 		movsd	128(%rax), %xmm0
 678      80000000 
 679 0132 488B45F8 		movq	-8(%rbp), %rax
 680 0136 F20F1180 		movsd	%xmm0, 128(%rax)
 680      80000000 
 681 013e 488B45F0 		movq	-16(%rbp), %rax
 682 0142 8B908800 		movl	136(%rax), %edx
 682      0000
 683 0148 488B45F8 		movq	-8(%rbp), %rax
 684 014c 89908800 		movl	%edx, 136(%rax)
GAS LISTING /tmp/ccGYUW7A.s 			page 16


 684      0000
 685 0152 488B45F0 		movq	-16(%rbp), %rax
 686 0156 8B908C00 		movl	140(%rax), %edx
 686      0000
 687 015c 488B45F8 		movq	-8(%rbp), %rax
 688 0160 89908C00 		movl	%edx, 140(%rax)
 688      0000
 689 0166 488B45F0 		movq	-16(%rbp), %rax
 690 016a 8B909000 		movl	144(%rax), %edx
 690      0000
 691 0170 488B45F8 		movq	-8(%rbp), %rax
 692 0174 89909000 		movl	%edx, 144(%rax)
 692      0000
 693 017a 488B45F0 		movq	-16(%rbp), %rax
 694 017e 8B909400 		movl	148(%rax), %edx
 694      0000
 695 0184 488B45F8 		movq	-8(%rbp), %rax
 696 0188 89909400 		movl	%edx, 148(%rax)
 696      0000
 697 018e 488B45F0 		movq	-16(%rbp), %rax
 698 0192 8B909800 		movl	152(%rax), %edx
 698      0000
 699 0198 488B45F8 		movq	-8(%rbp), %rax
 700 019c 89909800 		movl	%edx, 152(%rax)
 700      0000
 701 01a2 488B45F0 		movq	-16(%rbp), %rax
 702 01a6 8B909C00 		movl	156(%rax), %edx
 702      0000
 703 01ac 488B45F8 		movq	-8(%rbp), %rax
 704 01b0 89909C00 		movl	%edx, 156(%rax)
 704      0000
 705 01b6 488B45F0 		movq	-16(%rbp), %rax
 706 01ba 8B90A000 		movl	160(%rax), %edx
 706      0000
 707 01c0 488B45F8 		movq	-8(%rbp), %rax
 708 01c4 8990A000 		movl	%edx, 160(%rax)
 708      0000
 709 01ca 488B45F0 		movq	-16(%rbp), %rax
 710 01ce 8B90A400 		movl	164(%rax), %edx
 710      0000
 711 01d4 488B45F8 		movq	-8(%rbp), %rax
 712 01d8 8990A400 		movl	%edx, 164(%rax)
 712      0000
 713 01de 488B45F0 		movq	-16(%rbp), %rax
 714 01e2 8B90A800 		movl	168(%rax), %edx
 714      0000
 715 01e8 488B45F8 		movq	-8(%rbp), %rax
 716 01ec 8990A800 		movl	%edx, 168(%rax)
 716      0000
 717              	.LBE8:
 718 01f2 90       		nop
 719 01f3 5D       		popq	%rbp
 720              		.cfi_def_cfa 7, 8
 721 01f4 C3       		ret
 722              		.cfi_endproc
 723              	.LFE2185:
 725              		.weak	_ZN13quad_bcs_plusC1ERKS_
GAS LISTING /tmp/ccGYUW7A.s 			page 17


 726              		.set	_ZN13quad_bcs_plusC1ERKS_,_ZN13quad_bcs_plusC2ERKS_
 727              		.section	.text._ZN10vector_varC2ERKS_,"axG",@progbits,_ZN10vector_varC5ERKS_,comdat
 728              		.align 2
 729              		.weak	_ZN10vector_varC2ERKS_
 731              	_ZN10vector_varC2ERKS_:
 732              	.LFB2188:
   5:include/vector_var.h **** {
 733              		.loc 2 5 0
 734              		.cfi_startproc
 735 0000 55       		pushq	%rbp
 736              		.cfi_def_cfa_offset 16
 737              		.cfi_offset 6, -16
 738 0001 4889E5   		movq	%rsp, %rbp
 739              		.cfi_def_cfa_register 6
 740 0004 48897DF8 		movq	%rdi, -8(%rbp)
 741 0008 488975F0 		movq	%rsi, -16(%rbp)
 742              	.LBB9:
   5:include/vector_var.h **** {
 743              		.loc 2 5 0
 744 000c BA000000 		movl	$_ZTV10vector_var+16, %edx
 744      00
 745 0011 488B45F8 		movq	-8(%rbp), %rax
 746 0015 488910   		movq	%rdx, (%rax)
 747 0018 488B45F0 		movq	-16(%rbp), %rax
 748 001c F20F1040 		movsd	8(%rax), %xmm0
 748      08
 749 0021 488B45F8 		movq	-8(%rbp), %rax
 750 0025 F20F1140 		movsd	%xmm0, 8(%rax)
 750      08
 751 002a 488B45F0 		movq	-16(%rbp), %rax
 752 002e F20F1040 		movsd	16(%rax), %xmm0
 752      10
 753 0033 488B45F8 		movq	-8(%rbp), %rax
 754 0037 F20F1140 		movsd	%xmm0, 16(%rax)
 754      10
 755 003c 488B45F0 		movq	-16(%rbp), %rax
 756 0040 F20F1040 		movsd	24(%rax), %xmm0
 756      18
 757 0045 488B45F8 		movq	-8(%rbp), %rax
 758 0049 F20F1140 		movsd	%xmm0, 24(%rax)
 758      18
 759              	.LBE9:
 760 004e 90       		nop
 761 004f 5D       		popq	%rbp
 762              		.cfi_def_cfa 7, 8
 763 0050 C3       		ret
 764              		.cfi_endproc
 765              	.LFE2188:
 767              		.weak	_ZN10vector_varC1ERKS_
 768              		.set	_ZN10vector_varC1ERKS_,_ZN10vector_varC2ERKS_
 769              		.section	.rodata
 770              	.LC2:
 771 0028 43505520 		.string	"CPU Cycles:"
 771      4379636C 
 771      65733A00 
 772              		.text
 773              		.align 2
GAS LISTING /tmp/ccGYUW7A.s 			page 18


 774              		.globl	_ZN7program3runEPc
 776              	_ZN7program3runEPc:
 777              	.LFB2177:
  31:/home/brendan/Dropbox/PhD/Code/LBM/2D LBFS/src/program.cpp **** 
  32:/home/brendan/Dropbox/PhD/Code/LBM/2D LBFS/src/program.cpp **** 
  33:/home/brendan/Dropbox/PhD/Code/LBM/2D LBFS/src/program.cpp **** void program::run(char* xml_input){
 778              		.loc 4 33 0
 779              		.cfi_startproc
 780              		.cfi_personality 0x3,__gxx_personality_v0
 781              		.cfi_lsda 0x3,.LLSDA2177
 782 006e 55       		pushq	%rbp
 783              		.cfi_def_cfa_offset 16
 784              		.cfi_offset 6, -16
 785 006f 4889E5   		movq	%rsp, %rbp
 786              		.cfi_def_cfa_register 6
 787 0072 53       		pushq	%rbx
 788 0073 4881EC48 		subq	$2632, %rsp
 788      0A0000
 789              		.cfi_offset 3, -24
 790 007a 4889BDC8 		movq	%rdi, -2616(%rbp)
 790      F5FFFF
 791 0081 4889B5C0 		movq	%rsi, -2624(%rbp)
 791      F5FFFF
 792              		.loc 4 33 0
 793 0088 64488B04 		movq	%fs:40, %rax
 793      25280000 
 793      00
 794 0091 488945E8 		movq	%rax, -24(%rbp)
 795 0095 31C0     		xorl	%eax, %eax
  34:/home/brendan/Dropbox/PhD/Code/LBM/2D LBFS/src/program.cpp **** 
  35:/home/brendan/Dropbox/PhD/Code/LBM/2D LBFS/src/program.cpp **** 
  36:/home/brendan/Dropbox/PhD/Code/LBM/2D LBFS/src/program.cpp ****     quad_bcs_plus bcs;
 796              		.loc 4 36 0
 797 0097 488D8570 		leaq	-2192(%rbp), %rax
 797      F7FFFF
 798 009e 4889C7   		movq	%rax, %rdi
 799              	.LEHB5:
 800 00a1 E8000000 		call	_ZN13quad_bcs_plusC1Ev
 800      00
 801              	.LEHE5:
  37:/home/brendan/Dropbox/PhD/Code/LBM/2D LBFS/src/program.cpp ****     global_variables globals;
 802              		.loc 4 37 0
 803 00a6 488D8570 		leaq	-1168(%rbp), %rax
 803      FBFFFF
 804 00ad 4889C7   		movq	%rax, %rdi
 805              	.LEHB6:
 806 00b0 E8000000 		call	_ZN16global_variablesC1Ev
 806      00
 807              	.LEHE6:
  38:/home/brendan/Dropbox/PhD/Code/LBM/2D LBFS/src/program.cpp ****     domain_geometry domain;
 808              		.loc 4 38 0
 809 00b5 488D8590 		leaq	-2416(%rbp), %rax
 809      F6FFFF
 810 00bc 4889C7   		movq	%rax, %rdi
 811              	.LEHB7:
 812 00bf E8000000 		call	_ZN15domain_geometryC1Ev
 812      00
GAS LISTING /tmp/ccGYUW7A.s 			page 19


 813              	.LEHE7:
  39:/home/brendan/Dropbox/PhD/Code/LBM/2D LBFS/src/program.cpp ****     initial_conditions initial_conds;
 814              		.loc 4 39 0
 815 00c4 488D85D0 		leaq	-1840(%rbp), %rax
 815      F8FFFF
 816 00cb 4889C7   		movq	%rax, %rdi
 817              	.LEHB8:
 818 00ce E8000000 		call	_ZN18initial_conditionsC1Ev
 818      00
 819              	.LEHE8:
  40:/home/brendan/Dropbox/PhD/Code/LBM/2D LBFS/src/program.cpp ****     int mg =0; // first multigrid cycle
 820              		.loc 4 40 0
 821 00d3 C785DCF5 		movl	$0, -2596(%rbp)
 821      FFFF0000 
 821      0000
  41:/home/brendan/Dropbox/PhD/Code/LBM/2D LBFS/src/program.cpp ****     int fmg =0; // first full multigrid cycle
 822              		.loc 4 41 0
 823 00dd C785D8F5 		movl	$0, -2600(%rbp)
 823      FFFF0000 
 823      0000
  42:/home/brendan/Dropbox/PhD/Code/LBM/2D LBFS/src/program.cpp ****     std::clock_t start = clock();
 824              		.loc 4 42 0
 825 00e7 E8000000 		call	clock
 825      00
 826 00ec 488985E8 		movq	%rax, -2584(%rbp)
 826      F5FFFF
  43:/home/brendan/Dropbox/PhD/Code/LBM/2D LBFS/src/program.cpp ****     double duration;
  44:/home/brendan/Dropbox/PhD/Code/LBM/2D LBFS/src/program.cpp **** 
  45:/home/brendan/Dropbox/PhD/Code/LBM/2D LBFS/src/program.cpp **** 
  46:/home/brendan/Dropbox/PhD/Code/LBM/2D LBFS/src/program.cpp ****     preprocessor pre_processor;
 827              		.loc 4 46 0
 828 00f3 488D85E0 		leaq	-2592(%rbp), %rax
 828      F5FFFF
 829 00fa 4889C7   		movq	%rax, %rdi
 830              	.LEHB9:
 831 00fd E8000000 		call	_ZN12preprocessorC1Ev
 831      00
 832              	.LEHE9:
  47:/home/brendan/Dropbox/PhD/Code/LBM/2D LBFS/src/program.cpp ****     //postprocessor post_processor;
  48:/home/brendan/Dropbox/PhD/Code/LBM/2D LBFS/src/program.cpp **** 
  49:/home/brendan/Dropbox/PhD/Code/LBM/2D LBFS/src/program.cpp ****     pre_processor.initialise_program_variables(xml_input, globals, domain,initial_conds,bcs);
 833              		.loc 4 49 0
 834 0102 4C8D8570 		leaq	-2192(%rbp), %r8
 834      F7FFFF
 835 0109 488DBDD0 		leaq	-1840(%rbp), %rdi
 835      F8FFFF
 836 0110 488D8D90 		leaq	-2416(%rbp), %rcx
 836      F6FFFF
 837 0117 488D9570 		leaq	-1168(%rbp), %rdx
 837      FBFFFF
 838 011e 488BB5C0 		movq	-2624(%rbp), %rsi
 838      F5FFFF
 839 0125 488D85E0 		leaq	-2592(%rbp), %rax
 839      F5FFFF
 840 012c 4D89C1   		movq	%r8, %r9
 841 012f 4989F8   		movq	%rdi, %r8
 842 0132 4889C7   		movq	%rax, %rdi
GAS LISTING /tmp/ccGYUW7A.s 			page 20


 843              	.LEHB10:
 844 0135 E8000000 		call	_ZN12preprocessor28initialise_program_variablesEPcR16global_variablesR15domain_geometryR18ini
 844      00
  50:/home/brendan/Dropbox/PhD/Code/LBM/2D LBFS/src/program.cpp **** 
  51:/home/brendan/Dropbox/PhD/Code/LBM/2D LBFS/src/program.cpp ****     copyfile(xml_input,globals.output_file);
 845              		.loc 4 51 0
 846 013a 488D8570 		leaq	-1168(%rbp), %rax
 846      FBFFFF
 847 0141 488D90D8 		leaq	216(%rax), %rdx
 847      000000
 848 0148 488D8530 		leaq	-1232(%rbp), %rax
 848      FBFFFF
 849 014f 4889D6   		movq	%rdx, %rsi
 850 0152 4889C7   		movq	%rax, %rdi
 851 0155 E8000000 		call	_ZNSt7__cxx1112basic_stringIcSt11char_traitsIcESaIcEEC1ERKS4_
 851      00
 852              	.LEHE10:
 853              		.loc 4 51 0 is_stmt 0 discriminator 1
 854 015a 488D9530 		leaq	-1232(%rbp), %rdx
 854      FBFFFF
 855 0161 488B8DC0 		movq	-2624(%rbp), %rcx
 855      F5FFFF
 856 0168 488B85C8 		movq	-2616(%rbp), %rax
 856      F5FFFF
 857 016f 4889CE   		movq	%rcx, %rsi
 858 0172 4889C7   		movq	%rax, %rdi
 859              	.LEHB11:
 860 0175 E8000000 		call	_ZN7program8copyfileEPcNSt7__cxx1112basic_stringIcSt11char_traitsIcESaIcEEE
 860      00
 861              	.LEHE11:
 862              		.loc 4 51 0 discriminator 3
 863 017a 488D8530 		leaq	-1232(%rbp), %rax
 863      FBFFFF
 864 0181 4889C7   		movq	%rax, %rdi
 865 0184 E8000000 		call	_ZNSt7__cxx1112basic_stringIcSt11char_traitsIcESaIcEED1Ev
 865      00
  52:/home/brendan/Dropbox/PhD/Code/LBM/2D LBFS/src/program.cpp ****      // create Mesh
  53:/home/brendan/Dropbox/PhD/Code/LBM/2D LBFS/src/program.cpp ****     Mesh mesh(domain,globals);
 866              		.loc 4 53 0 is_stmt 1 discriminator 3
 867 0189 488D9570 		leaq	-1168(%rbp), %rdx
 867      FBFFFF
 868 0190 488D8590 		leaq	-880(%rbp), %rax
 868      FCFFFF
 869 0197 4889D6   		movq	%rdx, %rsi
 870 019a 4889C7   		movq	%rax, %rdi
 871              	.LEHB12:
 872 019d E8000000 		call	_ZN16global_variablesC1ERKS_
 872      00
 873              	.LEHE12:
 874              		.loc 4 53 0 is_stmt 0 discriminator 1
 875 01a2 488D9590 		leaq	-2416(%rbp), %rdx
 875      F6FFFF
 876 01a9 488D8520 		leaq	-2016(%rbp), %rax
 876      F8FFFF
 877 01b0 4889D6   		movq	%rdx, %rsi
 878 01b3 4889C7   		movq	%rax, %rdi
 879 01b6 E8000000 		call	_ZN15domain_geometryC1ERKS_
GAS LISTING /tmp/ccGYUW7A.s 			page 21


 879      00
 880 01bb 488D9590 		leaq	-880(%rbp), %rdx
 880      FCFFFF
 881 01c2 488D8D20 		leaq	-2016(%rbp), %rcx
 881      F8FFFF
 882 01c9 488D85B0 		leaq	-1616(%rbp), %rax
 882      F9FFFF
 883 01d0 4889CE   		movq	%rcx, %rsi
 884 01d3 4889C7   		movq	%rax, %rdi
 885              	.LEHB13:
 886 01d6 E8000000 		call	_ZN4MeshC1E15domain_geometry16global_variables
 886      00
 887              	.LEHE13:
 888 01db 488D8520 		leaq	-2016(%rbp), %rax
 888      F8FFFF
 889 01e2 4889C7   		movq	%rax, %rdi
 890 01e5 E8000000 		call	_ZN15domain_geometryD1Ev
 890      00
 891              		.loc 4 53 0
 892 01ea 488D8590 		leaq	-880(%rbp), %rax
 892      FCFFFF
 893 01f1 4889C7   		movq	%rax, %rdi
 894 01f4 E8000000 		call	_ZN16global_variablesD1Ev
 894      00
  54:/home/brendan/Dropbox/PhD/Code/LBM/2D LBFS/src/program.cpp **** 
  55:/home/brendan/Dropbox/PhD/Code/LBM/2D LBFS/src/program.cpp **** 
  56:/home/brendan/Dropbox/PhD/Code/LBM/2D LBFS/src/program.cpp ****     // create boundary conditions
  57:/home/brendan/Dropbox/PhD/Code/LBM/2D LBFS/src/program.cpp ****     Boundary_Conditions bc(mesh.get_num_x(), mesh.get_num_y());
 895              		.loc 4 57 0 is_stmt 1
 896 01f9 488D85B0 		leaq	-1616(%rbp), %rax
 896      F9FFFF
 897 0200 4889C7   		movq	%rax, %rdi
 898 0203 E8000000 		call	_ZN4Mesh9get_num_yEv
 898      00
 899 0208 89C3     		movl	%eax, %ebx
 900 020a 488D85B0 		leaq	-1616(%rbp), %rax
 900      F9FFFF
 901 0211 4889C7   		movq	%rax, %rdi
 902 0214 E8000000 		call	_ZN4Mesh9get_num_xEv
 902      00
 903 0219 89C1     		movl	%eax, %ecx
 904 021b 488D8520 		leaq	-2272(%rbp), %rax
 904      F7FFFF
 905 0222 89DA     		movl	%ebx, %edx
 906 0224 89CE     		movl	%ecx, %esi
 907 0226 4889C7   		movq	%rax, %rdi
 908              	.LEHB14:
 909 0229 E8000000 		call	_ZN19Boundary_ConditionsC1Eii
 909      00
 910              	.LEHE14:
  58:/home/brendan/Dropbox/PhD/Code/LBM/2D LBFS/src/program.cpp ****     bc.assign_boundary_conditions(mesh.get_num_x(), mesh.get_num_y(),bcs);
 911              		.loc 4 58 0
 912 022e 488D9570 		leaq	-2192(%rbp), %rdx
 912      F7FFFF
 913 0235 488D8520 		leaq	-2016(%rbp), %rax
 913      F8FFFF
 914 023c 4889D6   		movq	%rdx, %rsi
GAS LISTING /tmp/ccGYUW7A.s 			page 22


 915 023f 4889C7   		movq	%rax, %rdi
 916 0242 E8000000 		call	_ZN13quad_bcs_plusC1ERKS_
 916      00
 917 0247 488D85B0 		leaq	-1616(%rbp), %rax
 917      F9FFFF
 918 024e 4889C7   		movq	%rax, %rdi
 919 0251 E8000000 		call	_ZN4Mesh9get_num_yEv
 919      00
 920 0256 89C3     		movl	%eax, %ebx
 921 0258 488D85B0 		leaq	-1616(%rbp), %rax
 921      F9FFFF
 922 025f 4889C7   		movq	%rax, %rdi
 923 0262 E8000000 		call	_ZN4Mesh9get_num_xEv
 923      00
 924 0267 89C6     		movl	%eax, %esi
 925 0269 488D9520 		leaq	-2016(%rbp), %rdx
 925      F8FFFF
 926 0270 488D8520 		leaq	-2272(%rbp), %rax
 926      F7FFFF
 927 0277 4889D1   		movq	%rdx, %rcx
 928 027a 89DA     		movl	%ebx, %edx
 929 027c 4889C7   		movq	%rax, %rdi
 930              	.LEHB15:
 931 027f E8000000 		call	_ZN19Boundary_Conditions26assign_boundary_conditionsEii13quad_bcs_plus
 931      00
 932              	.LEHE15:
 933              		.loc 4 58 0 is_stmt 0 discriminator 2
 934 0284 488D8520 		leaq	-2016(%rbp), %rax
 934      F8FFFF
 935 028b 4889C7   		movq	%rax, %rdi
 936 028e E8000000 		call	_ZN13quad_bcs_plusD1Ev
 936      00
  59:/home/brendan/Dropbox/PhD/Code/LBM/2D LBFS/src/program.cpp **** 
  60:/home/brendan/Dropbox/PhD/Code/LBM/2D LBFS/src/program.cpp ****     // assign external force terms
  61:/home/brendan/Dropbox/PhD/Code/LBM/2D LBFS/src/program.cpp ****     external_forces source_term(mesh.get_total_cells());
 937              		.loc 4 61 0 is_stmt 1 discriminator 2
 938 0293 488D85B0 		leaq	-1616(%rbp), %rax
 938      F9FFFF
 939 029a 4889C7   		movq	%rax, %rdi
 940 029d E8000000 		call	_ZN4Mesh15get_total_cellsEv
 940      00
 941 02a2 89C2     		movl	%eax, %edx
 942 02a4 488D8500 		leaq	-2560(%rbp), %rax
 942      F6FFFF
 943 02ab 89D6     		movl	%edx, %esi
 944 02ad 4889C7   		movq	%rax, %rdi
 945              	.LEHB16:
 946 02b0 E8000000 		call	_ZN15external_forcesC1Ei
 946      00
 947              	.LEHE16:
  62:/home/brendan/Dropbox/PhD/Code/LBM/2D LBFS/src/program.cpp ****     source_term.set_uniform_force(initial_conds.pressure_gradient); //pressure force applied throug
 948              		.loc 4 62 0
 949 02b5 488B95A0 		movq	-1632(%rbp), %rdx
 949      F9FFFF
 950 02bc 488D8500 		leaq	-2560(%rbp), %rax
 950      F6FFFF
 951 02c3 488995B8 		movq	%rdx, -2632(%rbp)
GAS LISTING /tmp/ccGYUW7A.s 			page 23


 951      F5FFFF
 952 02ca F20F1085 		movsd	-2632(%rbp), %xmm0
 952      B8F5FFFF 
 953 02d2 4889C7   		movq	%rax, %rdi
 954              	.LEHB17:
 955 02d5 E8000000 		call	_ZN15external_forces17set_uniform_forceEd
 955      00
  63:/home/brendan/Dropbox/PhD/Code/LBM/2D LBFS/src/program.cpp **** 
  64:/home/brendan/Dropbox/PhD/Code/LBM/2D LBFS/src/program.cpp ****     //create solution
  65:/home/brendan/Dropbox/PhD/Code/LBM/2D LBFS/src/program.cpp ****     Solution soln(mesh.get_total_cells());
 956              		.loc 4 65 0
 957 02da 488D85B0 		leaq	-1616(%rbp), %rax
 957      F9FFFF
 958 02e1 4889C7   		movq	%rax, %rdi
 959 02e4 E8000000 		call	_ZN4Mesh15get_total_cellsEv
 959      00
 960 02e9 89C2     		movl	%eax, %edx
 961 02eb 488D85D0 		leaq	-2352(%rbp), %rax
 961      F6FFFF
 962 02f2 89D6     		movl	%edx, %esi
 963 02f4 4889C7   		movq	%rax, %rdi
 964 02f7 E8000000 		call	_ZN8SolutionC1Ei
 964      00
 965              	.LEHE17:
  66:/home/brendan/Dropbox/PhD/Code/LBM/2D LBFS/src/program.cpp ****     Solution residual(mesh.get_total_cells());
 966              		.loc 4 66 0
 967 02fc 488D85B0 		leaq	-1616(%rbp), %rax
 967      F9FFFF
 968 0303 4889C7   		movq	%rax, %rdi
 969 0306 E8000000 		call	_ZN4Mesh15get_total_cellsEv
 969      00
 970 030b 89C2     		movl	%eax, %edx
 971 030d 488D8520 		leaq	-2016(%rbp), %rax
 971      F8FFFF
 972 0314 89D6     		movl	%edx, %esi
 973 0316 4889C7   		movq	%rax, %rdi
 974              	.LEHB18:
 975 0319 E8000000 		call	_ZN8SolutionC1Ei
 975      00
 976              	.LEHE18:
  67:/home/brendan/Dropbox/PhD/Code/LBM/2D LBFS/src/program.cpp ****     if ( globals.fmg_levels > 0 ){
 977              		.loc 4 67 0
 978 031e 8B85F4FB 		movl	-1036(%rbp), %eax
 978      FFFF
 979 0324 85C0     		testl	%eax, %eax
 980 0326 0F8E8300 		jle	.L27
 980      0000
  68:/home/brendan/Dropbox/PhD/Code/LBM/2D LBFS/src/program.cpp **** 
  69:/home/brendan/Dropbox/PhD/Code/LBM/2D LBFS/src/program.cpp ****         fmg_cycle(fmg,soln,soln,mesh,bcs,initial_conds,globals,domain, bc);
 981              		.loc 4 69 0
 982 032c 488D9570 		leaq	-1168(%rbp), %rdx
 982      FBFFFF
 983 0333 488D85B0 		leaq	-592(%rbp), %rax
 983      FDFFFF
 984 033a 4889D6   		movq	%rdx, %rsi
 985 033d 4889C7   		movq	%rax, %rdi
 986              	.LEHB19:
GAS LISTING /tmp/ccGYUW7A.s 			page 24


 987 0340 E8000000 		call	_ZN16global_variablesC1ERKS_
 987      00
 988              	.LEHE19:
 989              		.loc 4 69 0 is_stmt 0 discriminator 1
 990 0345 4C8D8D70 		leaq	-2192(%rbp), %r9
 990      F7FFFF
 991 034c 4C8D85B0 		leaq	-1616(%rbp), %r8
 991      F9FFFF
 992 0353 488D8DD0 		leaq	-2352(%rbp), %rcx
 992      F6FFFF
 993 035a 488D95D0 		leaq	-2352(%rbp), %rdx
 993      F6FFFF
 994 0361 488DB5D8 		leaq	-2600(%rbp), %rsi
 994      F5FFFF
 995 0368 488B85C8 		movq	-2616(%rbp), %rax
 995      F5FFFF
 996 036f 488DBD20 		leaq	-2272(%rbp), %rdi
 996      F7FFFF
 997 0376 57       		pushq	%rdi
 998 0377 488DBD90 		leaq	-2416(%rbp), %rdi
 998      F6FFFF
 999 037e 57       		pushq	%rdi
 1000 037f 488DBDB0 		leaq	-592(%rbp), %rdi
 1000      FDFFFF
 1001 0386 57       		pushq	%rdi
 1002 0387 488DBDD0 		leaq	-1840(%rbp), %rdi
 1002      F8FFFF
 1003 038e 57       		pushq	%rdi
 1004 038f 4889C7   		movq	%rax, %rdi
 1005              	.LEHB20:
 1006              		.cfi_escape 0x2e,0x20
 1007 0392 E8000000 		call	_ZN7program9fmg_cycleERiR8SolutionS2_R4MeshR13quad_bcs_plusR18initial_conditions16global_vari
 1007      00
 1008              	.LEHE20:
 1009 0397 4883C420 		addq	$32, %rsp
 1010 039b 488D85B0 		leaq	-592(%rbp), %rax
 1010      FDFFFF
 1011 03a2 4889C7   		movq	%rax, %rdi
 1012 03a5 E8000000 		call	_ZN16global_variablesD1Ev
 1012      00
 1013 03aa E98F0100 		jmp	.L28
 1013      00
 1014              	.L27:
  70:/home/brendan/Dropbox/PhD/Code/LBM/2D LBFS/src/program.cpp **** 
  71:/home/brendan/Dropbox/PhD/Code/LBM/2D LBFS/src/program.cpp **** 
  72:/home/brendan/Dropbox/PhD/Code/LBM/2D LBFS/src/program.cpp **** 
  73:/home/brendan/Dropbox/PhD/Code/LBM/2D LBFS/src/program.cpp ****     }else{
  74:/home/brendan/Dropbox/PhD/Code/LBM/2D LBFS/src/program.cpp **** 
  75:/home/brendan/Dropbox/PhD/Code/LBM/2D LBFS/src/program.cpp ****         soln.assign_pressure_gradient(initial_conds.rho_gradient,initial_conds.origin_loc,
 1015              		.loc 4 75 0 is_stmt 1
 1016 03af 488D85D0 		leaq	-1840(%rbp), %rax
 1016      F8FFFF
 1017 03b6 488D5028 		leaq	40(%rax), %rdx
 1018 03ba 488D8560 		leaq	-2464(%rbp), %rax
 1018      F6FFFF
 1019 03c1 4889D6   		movq	%rdx, %rsi
 1020 03c4 4889C7   		movq	%rax, %rdi
GAS LISTING /tmp/ccGYUW7A.s 			page 25


 1021 03c7 E8000000 		call	_ZN10vector_varC1ERKS_
 1021      00
 1022 03cc 488D85D0 		leaq	-1840(%rbp), %rax
 1022      F8FFFF
 1023 03d3 488D5048 		leaq	72(%rax), %rdx
 1024 03d7 488D8540 		leaq	-2496(%rbp), %rax
 1024      F6FFFF
 1025 03de 4889D6   		movq	%rdx, %rsi
 1026 03e1 4889C7   		movq	%rax, %rdi
 1027 03e4 E8000000 		call	_ZN10vector_varC1ERKS_
 1027      00
 1028 03e9 488D85D0 		leaq	-1840(%rbp), %rax
 1028      F8FFFF
 1029 03f0 488D5008 		leaq	8(%rax), %rdx
 1030 03f4 488D8520 		leaq	-2528(%rbp), %rax
 1030      F6FFFF
 1031 03fb 4889D6   		movq	%rdx, %rsi
 1032 03fe 4889C7   		movq	%rax, %rdi
 1033 0401 E8000000 		call	_ZN10vector_varC1ERKS_
 1033      00
  76:/home/brendan/Dropbox/PhD/Code/LBM/2D LBFS/src/program.cpp ****                                 initial_conds.rho_origin_mag,mesh);
 1034              		.loc 4 76 0
 1035 0406 488DBDB0 		leaq	-1616(%rbp), %rdi
 1035      F9FFFF
 1036 040d 488D8D60 		leaq	-2464(%rbp), %rcx
 1036      F6FFFF
 1037 0414 488D9540 		leaq	-2496(%rbp), %rdx
 1037      F6FFFF
 1038 041b 488DB520 		leaq	-2528(%rbp), %rsi
 1038      F6FFFF
 1039 0422 488D85D0 		leaq	-2352(%rbp), %rax
 1039      F6FFFF
 1040 0429 4989F8   		movq	%rdi, %r8
 1041 042c 4889C7   		movq	%rax, %rdi
 1042              	.LEHB21:
 1043              		.cfi_escape 0x2e,0
 1044 042f E8000000 		call	_ZN8Solution24assign_pressure_gradientE10vector_varS0_S0_R4Mesh
 1044      00
 1045              	.LEHE21:
  75:/home/brendan/Dropbox/PhD/Code/LBM/2D LBFS/src/program.cpp ****                                 initial_conds.rho_origin_mag,mesh);
 1046              		.loc 4 75 0
 1047 0434 488D8520 		leaq	-2528(%rbp), %rax
 1047      F6FFFF
 1048 043b 4889C7   		movq	%rax, %rdi
 1049 043e E8000000 		call	_ZN10vector_varD1Ev
 1049      00
 1050 0443 488D8540 		leaq	-2496(%rbp), %rax
 1050      F6FFFF
 1051 044a 4889C7   		movq	%rax, %rdi
 1052 044d E8000000 		call	_ZN10vector_varD1Ev
 1052      00
 1053 0452 488D8560 		leaq	-2464(%rbp), %rax
 1053      F6FFFF
 1054 0459 4889C7   		movq	%rax, %rdi
 1055 045c E8000000 		call	_ZN10vector_varD1Ev
 1055      00
  77:/home/brendan/Dropbox/PhD/Code/LBM/2D LBFS/src/program.cpp ****         soln.assign_velocity_gradient(initial_conds.vel_gradient,initial_conds.origin_loc,
GAS LISTING /tmp/ccGYUW7A.s 			page 26


 1056              		.loc 4 77 0
 1057 0461 488D85D0 		leaq	-1840(%rbp), %rax
 1057      F8FFFF
 1058 0468 488D90B0 		leaq	176(%rax), %rdx
 1058      000000
 1059 046f 488D8560 		leaq	-2464(%rbp), %rax
 1059      F6FFFF
 1060 0476 4889D6   		movq	%rdx, %rsi
 1061 0479 4889C7   		movq	%rax, %rdi
 1062 047c E8000000 		call	_ZN10vector_varC1ERKS_
 1062      00
 1063 0481 488D85D0 		leaq	-1840(%rbp), %rax
 1063      F8FFFF
 1064 0488 488D5048 		leaq	72(%rax), %rdx
 1065 048c 488D8540 		leaq	-2496(%rbp), %rax
 1065      F6FFFF
 1066 0493 4889D6   		movq	%rdx, %rsi
 1067 0496 4889C7   		movq	%rax, %rdi
 1068 0499 E8000000 		call	_ZN10vector_varC1ERKS_
 1068      00
 1069 049e 488D85D0 		leaq	-1840(%rbp), %rax
 1069      F8FFFF
 1070 04a5 488D9090 		leaq	144(%rax), %rdx
 1070      000000
 1071 04ac 488D8520 		leaq	-2528(%rbp), %rax
 1071      F6FFFF
 1072 04b3 4889D6   		movq	%rdx, %rsi
 1073 04b6 4889C7   		movq	%rax, %rdi
 1074 04b9 E8000000 		call	_ZN10vector_varC1ERKS_
 1074      00
  78:/home/brendan/Dropbox/PhD/Code/LBM/2D LBFS/src/program.cpp ****                                 initial_conds.vel_origin_mag,mesh);
 1075              		.loc 4 78 0
 1076 04be 488DBDB0 		leaq	-1616(%rbp), %rdi
 1076      F9FFFF
 1077 04c5 488D8D60 		leaq	-2464(%rbp), %rcx
 1077      F6FFFF
 1078 04cc 488D9540 		leaq	-2496(%rbp), %rdx
 1078      F6FFFF
 1079 04d3 488DB520 		leaq	-2528(%rbp), %rsi
 1079      F6FFFF
 1080 04da 488D85D0 		leaq	-2352(%rbp), %rax
 1080      F6FFFF
 1081 04e1 4989F8   		movq	%rdi, %r8
 1082 04e4 4889C7   		movq	%rax, %rdi
 1083              	.LEHB22:
 1084 04e7 E8000000 		call	_ZN8Solution24assign_velocity_gradientE10vector_varS0_S0_R4Mesh
 1084      00
 1085              	.LEHE22:
  77:/home/brendan/Dropbox/PhD/Code/LBM/2D LBFS/src/program.cpp ****         soln.assign_velocity_gradient(initial_conds.vel_gradient,initial_conds.origin_loc,
 1086              		.loc 4 77 0
 1087 04ec 488D8520 		leaq	-2528(%rbp), %rax
 1087      F6FFFF
 1088 04f3 4889C7   		movq	%rax, %rdi
 1089 04f6 E8000000 		call	_ZN10vector_varD1Ev
 1089      00
 1090 04fb 488D8540 		leaq	-2496(%rbp), %rax
 1090      F6FFFF
GAS LISTING /tmp/ccGYUW7A.s 			page 27


 1091 0502 4889C7   		movq	%rax, %rdi
 1092 0505 E8000000 		call	_ZN10vector_varD1Ev
 1092      00
 1093 050a 488D8560 		leaq	-2464(%rbp), %rax
 1093      F6FFFF
 1094 0511 4889C7   		movq	%rax, %rdi
 1095 0514 E8000000 		call	_ZN10vector_varD1Ev
 1095      00
  79:/home/brendan/Dropbox/PhD/Code/LBM/2D LBFS/src/program.cpp ****         soln.set_average_rho(initial_conds.average_rho);
 1096              		.loc 4 79 0
 1097 0519 488B9538 		movq	-1736(%rbp), %rdx
 1097      F9FFFF
 1098 0520 488D85D0 		leaq	-2352(%rbp), %rax
 1098      F6FFFF
 1099 0527 488995B8 		movq	%rdx, -2632(%rbp)
 1099      F5FFFF
 1100 052e F20F1085 		movsd	-2632(%rbp), %xmm0
 1100      B8F5FFFF 
 1101 0536 4889C7   		movq	%rax, %rdi
 1102 0539 E8000000 		call	_ZN8Solution15set_average_rhoEd
 1102      00
 1103              	.L28:
  80:/home/brendan/Dropbox/PhD/Code/LBM/2D LBFS/src/program.cpp **** 
  81:/home/brendan/Dropbox/PhD/Code/LBM/2D LBFS/src/program.cpp **** 
  82:/home/brendan/Dropbox/PhD/Code/LBM/2D LBFS/src/program.cpp ****     }
  83:/home/brendan/Dropbox/PhD/Code/LBM/2D LBFS/src/program.cpp ****     // Solvec
  84:/home/brendan/Dropbox/PhD/Code/LBM/2D LBFS/src/program.cpp **** 
  85:/home/brendan/Dropbox/PhD/Code/LBM/2D LBFS/src/program.cpp ****     Solver solve;
 1104              		.loc 4 85 0
 1105 053e 488D8560 		leaq	-2464(%rbp), %rax
 1105      F6FFFF
 1106 0545 4889C7   		movq	%rax, %rdi
 1107              	.LEHB23:
 1108 0548 E8000000 		call	_ZN6SolverC1Ev
 1108      00
 1109              	.LEHE23:
  86:/home/brendan/Dropbox/PhD/Code/LBM/2D LBFS/src/program.cpp ****     tecplot_output grid(globals,mesh,soln,bc,1,0.0);
 1110              		.loc 4 86 0
 1111 054d 488DBD20 		leaq	-2272(%rbp), %rdi
 1111      F7FFFF
 1112 0554 488D8DD0 		leaq	-2352(%rbp), %rcx
 1112      F6FFFF
 1113 055b 488D95B0 		leaq	-1616(%rbp), %rdx
 1113      F9FFFF
 1114 0562 488DB570 		leaq	-1168(%rbp), %rsi
 1114      FBFFFF
 1115 0569 488D8540 		leaq	-2496(%rbp), %rax
 1115      F6FFFF
 1116 0570 660FEFC0 		pxor	%xmm0, %xmm0
 1117 0574 41B90100 		movl	$1, %r9d
 1117      0000
 1118 057a 4989F8   		movq	%rdi, %r8
 1119 057d 4889C7   		movq	%rax, %rdi
 1120              	.LEHB24:
 1121 0580 E8000000 		call	_ZN14tecplot_outputC1ER16global_variablesR4MeshR8SolutionR19Boundary_Conditionsid
 1121      00
 1122              	.LEHE24:
GAS LISTING /tmp/ccGYUW7A.s 			page 28


  87:/home/brendan/Dropbox/PhD/Code/LBM/2D LBFS/src/program.cpp **** 
  88:/home/brendan/Dropbox/PhD/Code/LBM/2D LBFS/src/program.cpp ****     solve.Uniform_Mesh_Solver_Clean(mesh,soln,bc,source_term,globals,domain,initial_conds,bcs,
  89:/home/brendan/Dropbox/PhD/Code/LBM/2D LBFS/src/program.cpp ****                               mg,residual,fmg);
 1123              		.loc 4 89 0
 1124 0585 8BBDD8F5 		movl	-2600(%rbp), %edi
 1124      FFFF
 1125 058b 4C8D8D70 		leaq	-1168(%rbp), %r9
 1125      FBFFFF
 1126 0592 4C8D8500 		leaq	-2560(%rbp), %r8
 1126      F6FFFF
 1127 0599 488D8D20 		leaq	-2272(%rbp), %rcx
 1127      F7FFFF
 1128 05a0 488D95D0 		leaq	-2352(%rbp), %rdx
 1128      F6FFFF
 1129 05a7 488DB5B0 		leaq	-1616(%rbp), %rsi
 1129      F9FFFF
 1130 05ae 488D8560 		leaq	-2464(%rbp), %rax
 1130      F6FFFF
 1131 05b5 57       		pushq	%rdi
 1132 05b6 488DBD20 		leaq	-2016(%rbp), %rdi
 1132      F8FFFF
 1133 05bd 57       		pushq	%rdi
 1134 05be 8BBDDCF5 		movl	-2596(%rbp), %edi
 1134      FFFF
 1135 05c4 57       		pushq	%rdi
 1136 05c5 488DBD70 		leaq	-2192(%rbp), %rdi
 1136      F7FFFF
 1137 05cc 57       		pushq	%rdi
 1138 05cd 488DBDD0 		leaq	-1840(%rbp), %rdi
 1138      F8FFFF
 1139 05d4 57       		pushq	%rdi
 1140 05d5 488DBD90 		leaq	-2416(%rbp), %rdi
 1140      F6FFFF
 1141 05dc 57       		pushq	%rdi
 1142 05dd 4889C7   		movq	%rax, %rdi
 1143              	.LEHB25:
 1144              		.cfi_escape 0x2e,0x30
 1145 05e0 E8000000 		call	_ZN6Solver25Uniform_Mesh_Solver_CleanER4MeshR8SolutionR19Boundary_ConditionsR15external_force
 1145      00
 1146 05e5 4883C430 		addq	$48, %rsp
  90:/home/brendan/Dropbox/PhD/Code/LBM/2D LBFS/src/program.cpp **** 
  91:/home/brendan/Dropbox/PhD/Code/LBM/2D LBFS/src/program.cpp ****     soln.post_process(globals.pre_conditioned_gamma,mesh, globals,initial_conds);
 1147              		.loc 4 91 0
 1148 05e9 488BBDA0 		movq	-1120(%rbp), %rdi
 1148      FBFFFF
 1149 05f0 488D8DD0 		leaq	-1840(%rbp), %rcx
 1149      F8FFFF
 1150 05f7 488D9570 		leaq	-1168(%rbp), %rdx
 1150      FBFFFF
 1151 05fe 488DB5B0 		leaq	-1616(%rbp), %rsi
 1151      F9FFFF
 1152 0605 488D85D0 		leaq	-2352(%rbp), %rax
 1152      F6FFFF
 1153 060c 4889BDB8 		movq	%rdi, -2632(%rbp)
 1153      F5FFFF
 1154 0613 F20F1085 		movsd	-2632(%rbp), %xmm0
 1154      B8F5FFFF 
GAS LISTING /tmp/ccGYUW7A.s 			page 29


 1155 061b 4889C7   		movq	%rax, %rdi
 1156              		.cfi_escape 0x2e,0
 1157 061e E8000000 		call	_ZN8Solution12post_processEdR4MeshR16global_variablesR18initial_conditions
 1157      00
  92:/home/brendan/Dropbox/PhD/Code/LBM/2D LBFS/src/program.cpp ****     soln.output(globals.output_file, globals, domain);
 1158              		.loc 4 92 0
 1159 0623 488D8570 		leaq	-1168(%rbp), %rax
 1159      FBFFFF
 1160 062a 488D90D8 		leaq	216(%rax), %rdx
 1160      000000
 1161 0631 488D8550 		leaq	-1200(%rbp), %rax
 1161      FBFFFF
 1162 0638 4889D6   		movq	%rdx, %rsi
 1163 063b 4889C7   		movq	%rax, %rdi
 1164 063e E8000000 		call	_ZNSt7__cxx1112basic_stringIcSt11char_traitsIcESaIcEEC1ERKS4_
 1164      00
 1165              	.LEHE25:
 1166              		.loc 4 92 0 is_stmt 0 discriminator 1
 1167 0643 488D8D90 		leaq	-2416(%rbp), %rcx
 1167      F6FFFF
 1168 064a 488D9570 		leaq	-1168(%rbp), %rdx
 1168      FBFFFF
 1169 0651 488DB550 		leaq	-1200(%rbp), %rsi
 1169      FBFFFF
 1170 0658 488D85D0 		leaq	-2352(%rbp), %rax
 1170      F6FFFF
 1171 065f 4889C7   		movq	%rax, %rdi
 1172              	.LEHB26:
 1173 0662 E8000000 		call	_ZN8Solution6outputENSt7__cxx1112basic_stringIcSt11char_traitsIcESaIcEEER16global_variablesR1
 1173      00
 1174              	.LEHE26:
 1175              		.loc 4 92 0 discriminator 3
 1176 0667 488D8550 		leaq	-1200(%rbp), %rax
 1176      FBFFFF
 1177 066e 4889C7   		movq	%rax, %rdi
 1178 0671 E8000000 		call	_ZNSt7__cxx1112basic_stringIcSt11char_traitsIcESaIcEED1Ev
 1178      00
  93:/home/brendan/Dropbox/PhD/Code/LBM/2D LBFS/src/program.cpp **** 
  94:/home/brendan/Dropbox/PhD/Code/LBM/2D LBFS/src/program.cpp ****     //post_processor.output_vtk_mesh(globals.output_file,globals,domain);
  95:/home/brendan/Dropbox/PhD/Code/LBM/2D LBFS/src/program.cpp **** 
  96:/home/brendan/Dropbox/PhD/Code/LBM/2D LBFS/src/program.cpp ****     std::clock_t end = clock();
 1179              		.loc 4 96 0 is_stmt 1 discriminator 3
 1180 0676 E8000000 		call	clock
 1180      00
 1181 067b 488985F0 		movq	%rax, -2576(%rbp)
 1181      F5FFFF
  97:/home/brendan/Dropbox/PhD/Code/LBM/2D LBFS/src/program.cpp **** 
  98:/home/brendan/Dropbox/PhD/Code/LBM/2D LBFS/src/program.cpp ****     duration = double(end-start)/ CLOCKS_PER_SEC;
 1182              		.loc 4 98 0 discriminator 3
 1183 0682 488B85F0 		movq	-2576(%rbp), %rax
 1183      F5FFFF
 1184 0689 482B85E8 		subq	-2584(%rbp), %rax
 1184      F5FFFF
 1185 0690 660FEFC0 		pxor	%xmm0, %xmm0
 1186 0694 F2480F2A 		cvtsi2sdq	%rax, %xmm0
 1186      C0
 1187 0699 F20F100D 		movsd	.LC1(%rip), %xmm1
GAS LISTING /tmp/ccGYUW7A.s 			page 30


 1187      00000000 
 1188 06a1 F20F5EC1 		divsd	%xmm1, %xmm0
 1189 06a5 F20F1185 		movsd	%xmm0, -2568(%rbp)
 1189      F8F5FFFF 
  99:/home/brendan/Dropbox/PhD/Code/LBM/2D LBFS/src/program.cpp **** 
 100:/home/brendan/Dropbox/PhD/Code/LBM/2D LBFS/src/program.cpp ****     output_globals(globals,duration);
 1190              		.loc 4 100 0 discriminator 3
 1191 06ad 488D9570 		leaq	-1168(%rbp), %rdx
 1191      FBFFFF
 1192 06b4 488D85D0 		leaq	-304(%rbp), %rax
 1192      FEFFFF
 1193 06bb 4889D6   		movq	%rdx, %rsi
 1194 06be 4889C7   		movq	%rax, %rdi
 1195              	.LEHB27:
 1196 06c1 E8000000 		call	_ZN16global_variablesC1ERKS_
 1196      00
 1197              	.LEHE27:
 1198              		.loc 4 100 0 is_stmt 0 discriminator 1
 1199 06c6 488B8DF8 		movq	-2568(%rbp), %rcx
 1199      F5FFFF
 1200 06cd 488D95D0 		leaq	-304(%rbp), %rdx
 1200      FEFFFF
 1201 06d4 488B85C8 		movq	-2616(%rbp), %rax
 1201      F5FFFF
 1202 06db 48898DB8 		movq	%rcx, -2632(%rbp)
 1202      F5FFFF
 1203 06e2 F20F1085 		movsd	-2632(%rbp), %xmm0
 1203      B8F5FFFF 
 1204 06ea 4889D6   		movq	%rdx, %rsi
 1205 06ed 4889C7   		movq	%rax, %rdi
 1206              	.LEHB28:
 1207 06f0 E8000000 		call	_ZN7program14output_globalsE16global_variablesd
 1207      00
 1208              	.LEHE28:
 1209              		.loc 4 100 0 discriminator 3
 1210 06f5 488D85D0 		leaq	-304(%rbp), %rax
 1210      FEFFFF
 1211 06fc 4889C7   		movq	%rax, %rdi
 1212 06ff E8000000 		call	_ZN16global_variablesD1Ev
 1212      00
 101:/home/brendan/Dropbox/PhD/Code/LBM/2D LBFS/src/program.cpp **** 
 102:/home/brendan/Dropbox/PhD/Code/LBM/2D LBFS/src/program.cpp ****     std::cout << duration << std::endl;
 1213              		.loc 4 102 0 is_stmt 1 discriminator 3
 1214 0704 488B85F8 		movq	-2568(%rbp), %rax
 1214      F5FFFF
 1215 070b 488985B8 		movq	%rax, -2632(%rbp)
 1215      F5FFFF
 1216 0712 F20F1085 		movsd	-2632(%rbp), %xmm0
 1216      B8F5FFFF 
 1217 071a BF000000 		movl	$_ZSt4cout, %edi
 1217      00
 1218              	.LEHB29:
 1219 071f E8000000 		call	_ZNSolsEd
 1219      00
 1220 0724 BE000000 		movl	$_ZSt4endlIcSt11char_traitsIcEERSt13basic_ostreamIT_T0_ES6_, %esi
 1220      00
 1221 0729 4889C7   		movq	%rax, %rdi
GAS LISTING /tmp/ccGYUW7A.s 			page 31


 1222 072c E8000000 		call	_ZNSolsEPFRSoS_E
 1222      00
 103:/home/brendan/Dropbox/PhD/Code/LBM/2D LBFS/src/program.cpp ****     std::cout << "CPU Cycles:" << double(end-start) << std::endl;
 1223              		.loc 4 103 0
 1224 0731 488B85F0 		movq	-2576(%rbp), %rax
 1224      F5FFFF
 1225 0738 482B85E8 		subq	-2584(%rbp), %rax
 1225      F5FFFF
 1226 073f 660FEFD2 		pxor	%xmm2, %xmm2
 1227 0743 F2480F2A 		cvtsi2sdq	%rax, %xmm2
 1227      D0
 1228 0748 F20F1195 		movsd	%xmm2, -2632(%rbp)
 1228      B8F5FFFF 
 1229 0750 BE000000 		movl	$.LC2, %esi
 1229      00
 1230 0755 BF000000 		movl	$_ZSt4cout, %edi
 1230      00
 1231 075a E8000000 		call	_ZStlsISt11char_traitsIcEERSt13basic_ostreamIcT_ES5_PKc
 1231      00
 1232 075f F20F1085 		movsd	-2632(%rbp), %xmm0
 1232      B8F5FFFF 
 1233 0767 4889C7   		movq	%rax, %rdi
 1234 076a E8000000 		call	_ZNSolsEd
 1234      00
 1235              		.loc 4 103 0 is_stmt 0 discriminator 1
 1236 076f BE000000 		movl	$_ZSt4endlIcSt11char_traitsIcEERSt13basic_ostreamIT_T0_ES6_, %esi
 1236      00
 1237 0774 4889C7   		movq	%rax, %rdi
 1238 0777 E8000000 		call	_ZNSolsEPFRSoS_E
 1238      00
 1239              	.LEHE29:
  86:/home/brendan/Dropbox/PhD/Code/LBM/2D LBFS/src/program.cpp **** 
 1240              		.loc 4 86 0 is_stmt 1
 1241 077c 488D8540 		leaq	-2496(%rbp), %rax
 1241      F6FFFF
 1242 0783 4889C7   		movq	%rax, %rdi
 1243 0786 E8000000 		call	_ZN14tecplot_outputD1Ev
 1243      00
  85:/home/brendan/Dropbox/PhD/Code/LBM/2D LBFS/src/program.cpp ****     tecplot_output grid(globals,mesh,soln,bc,1,0.0);
 1244              		.loc 4 85 0
 1245 078b 488D8560 		leaq	-2464(%rbp), %rax
 1245      F6FFFF
 1246 0792 4889C7   		movq	%rax, %rdi
 1247 0795 E8000000 		call	_ZN6SolverD1Ev
 1247      00
  66:/home/brendan/Dropbox/PhD/Code/LBM/2D LBFS/src/program.cpp ****     if ( globals.fmg_levels > 0 ){
 1248              		.loc 4 66 0
 1249 079a 488D8520 		leaq	-2016(%rbp), %rax
 1249      F8FFFF
 1250 07a1 4889C7   		movq	%rax, %rdi
 1251 07a4 E8000000 		call	_ZN8SolutionD1Ev
 1251      00
  65:/home/brendan/Dropbox/PhD/Code/LBM/2D LBFS/src/program.cpp ****     Solution residual(mesh.get_total_cells());
 1252              		.loc 4 65 0
 1253 07a9 488D85D0 		leaq	-2352(%rbp), %rax
 1253      F6FFFF
 1254 07b0 4889C7   		movq	%rax, %rdi
GAS LISTING /tmp/ccGYUW7A.s 			page 32


 1255 07b3 E8000000 		call	_ZN8SolutionD1Ev
 1255      00
  61:/home/brendan/Dropbox/PhD/Code/LBM/2D LBFS/src/program.cpp ****     source_term.set_uniform_force(initial_conds.pressure_gradient); //pressure force applied throug
 1256              		.loc 4 61 0
 1257 07b8 488D8500 		leaq	-2560(%rbp), %rax
 1257      F6FFFF
 1258 07bf 4889C7   		movq	%rax, %rdi
 1259 07c2 E8000000 		call	_ZN15external_forcesD1Ev
 1259      00
  57:/home/brendan/Dropbox/PhD/Code/LBM/2D LBFS/src/program.cpp ****     bc.assign_boundary_conditions(mesh.get_num_x(), mesh.get_num_y(),bcs);
 1260              		.loc 4 57 0
 1261 07c7 488D8520 		leaq	-2272(%rbp), %rax
 1261      F7FFFF
 1262 07ce 4889C7   		movq	%rax, %rdi
 1263 07d1 E8000000 		call	_ZN19Boundary_ConditionsD1Ev
 1263      00
  53:/home/brendan/Dropbox/PhD/Code/LBM/2D LBFS/src/program.cpp **** 
 1264              		.loc 4 53 0
 1265 07d6 488D85B0 		leaq	-1616(%rbp), %rax
 1265      F9FFFF
 1266 07dd 4889C7   		movq	%rax, %rdi
 1267 07e0 E8000000 		call	_ZN4MeshD1Ev
 1267      00
  46:/home/brendan/Dropbox/PhD/Code/LBM/2D LBFS/src/program.cpp ****     //postprocessor post_processor;
 1268              		.loc 4 46 0
 1269 07e5 488D85E0 		leaq	-2592(%rbp), %rax
 1269      F5FFFF
 1270 07ec 4889C7   		movq	%rax, %rdi
 1271 07ef E8000000 		call	_ZN12preprocessorD1Ev
 1271      00
  39:/home/brendan/Dropbox/PhD/Code/LBM/2D LBFS/src/program.cpp ****     int mg =0; // first multigrid cycle
 1272              		.loc 4 39 0
 1273 07f4 488D85D0 		leaq	-1840(%rbp), %rax
 1273      F8FFFF
 1274 07fb 4889C7   		movq	%rax, %rdi
 1275 07fe E8000000 		call	_ZN18initial_conditionsD1Ev
 1275      00
  38:/home/brendan/Dropbox/PhD/Code/LBM/2D LBFS/src/program.cpp ****     initial_conditions initial_conds;
 1276              		.loc 4 38 0
 1277 0803 488D8590 		leaq	-2416(%rbp), %rax
 1277      F6FFFF
 1278 080a 4889C7   		movq	%rax, %rdi
 1279 080d E8000000 		call	_ZN15domain_geometryD1Ev
 1279      00
  37:/home/brendan/Dropbox/PhD/Code/LBM/2D LBFS/src/program.cpp ****     domain_geometry domain;
 1280              		.loc 4 37 0
 1281 0812 488D8570 		leaq	-1168(%rbp), %rax
 1281      FBFFFF
 1282 0819 4889C7   		movq	%rax, %rdi
 1283 081c E8000000 		call	_ZN16global_variablesD1Ev
 1283      00
  36:/home/brendan/Dropbox/PhD/Code/LBM/2D LBFS/src/program.cpp ****     global_variables globals;
 1284              		.loc 4 36 0
 1285 0821 488D8570 		leaq	-2192(%rbp), %rax
 1285      F7FFFF
 1286 0828 4889C7   		movq	%rax, %rdi
 1287 082b E8000000 		call	_ZN13quad_bcs_plusD1Ev
GAS LISTING /tmp/ccGYUW7A.s 			page 33


 1287      00
 104:/home/brendan/Dropbox/PhD/Code/LBM/2D LBFS/src/program.cpp **** 
 105:/home/brendan/Dropbox/PhD/Code/LBM/2D LBFS/src/program.cpp **** 
 106:/home/brendan/Dropbox/PhD/Code/LBM/2D LBFS/src/program.cpp **** }
 1288              		.loc 4 106 0
 1289 0830 90       		nop
 1290 0831 488B45E8 		movq	-24(%rbp), %rax
 1291 0835 64483304 		xorq	%fs:40, %rax
 1291      25280000 
 1291      00
 1292 083e 0F84FD01 		je	.L49
 1292      0000
 1293 0844 E9F30100 		jmp	.L70
 1293      00
 1294              	.L55:
 1295 0849 4889C3   		movq	%rax, %rbx
  51:/home/brendan/Dropbox/PhD/Code/LBM/2D LBFS/src/program.cpp ****      // create Mesh
 1296              		.loc 4 51 0
 1297 084c 488D8530 		leaq	-1232(%rbp), %rax
 1297      FBFFFF
 1298 0853 4889C7   		movq	%rax, %rdi
 1299 0856 E8000000 		call	_ZNSt7__cxx1112basic_stringIcSt11char_traitsIcESaIcEED1Ev
 1299      00
 1300 085b E9720100 		jmp	.L30
 1300      00
 1301              	.L56:
 1302 0860 4889C3   		movq	%rax, %rbx
 1303 0863 488D8520 		leaq	-2016(%rbp), %rax
 1303      F8FFFF
 1304 086a 4889C7   		movq	%rax, %rdi
 1305 086d E8000000 		call	_ZN15domain_geometryD1Ev
 1305      00
 1306 0872 488D8590 		leaq	-880(%rbp), %rax
 1306      FCFFFF
 1307 0879 4889C7   		movq	%rax, %rdi
 1308 087c E8000000 		call	_ZN16global_variablesD1Ev
 1308      00
 1309 0881 E94C0100 		jmp	.L30
 1309      00
 1310              	.L58:
 1311 0886 4889C3   		movq	%rax, %rbx
  58:/home/brendan/Dropbox/PhD/Code/LBM/2D LBFS/src/program.cpp **** 
 1312              		.loc 4 58 0
 1313 0889 488D8520 		leaq	-2016(%rbp), %rax
 1313      F8FFFF
 1314 0890 4889C7   		movq	%rax, %rdi
 1315 0893 E8000000 		call	_ZN13quad_bcs_plusD1Ev
 1315      00
 1316 0898 E90D0100 		jmp	.L33
 1316      00
 1317              	.L63:
 1318 089d 4889C3   		movq	%rax, %rbx
  69:/home/brendan/Dropbox/PhD/Code/LBM/2D LBFS/src/program.cpp **** 
 1319              		.loc 4 69 0
 1320 08a0 488D85B0 		leaq	-592(%rbp), %rax
 1320      FDFFFF
 1321 08a7 4889C7   		movq	%rax, %rdi
GAS LISTING /tmp/ccGYUW7A.s 			page 34


 1322 08aa E8000000 		call	_ZN16global_variablesD1Ev
 1322      00
 1323 08af E9BA0000 		jmp	.L35
 1323      00
 1324              	.L64:
 1325 08b4 4889C3   		movq	%rax, %rbx
  75:/home/brendan/Dropbox/PhD/Code/LBM/2D LBFS/src/program.cpp ****                                 initial_conds.rho_origin_mag,mesh);
 1326              		.loc 4 75 0
 1327 08b7 488D8520 		leaq	-2528(%rbp), %rax
 1327      F6FFFF
 1328 08be 4889C7   		movq	%rax, %rdi
 1329 08c1 E8000000 		call	_ZN10vector_varD1Ev
 1329      00
 1330 08c6 488D8540 		leaq	-2496(%rbp), %rax
 1330      F6FFFF
 1331 08cd 4889C7   		movq	%rax, %rdi
 1332 08d0 E8000000 		call	_ZN10vector_varD1Ev
 1332      00
 1333 08d5 488D8560 		leaq	-2464(%rbp), %rax
 1333      F6FFFF
 1334 08dc 4889C7   		movq	%rax, %rdi
 1335 08df E8000000 		call	_ZN10vector_varD1Ev
 1335      00
 1336 08e4 E9850000 		jmp	.L35
 1336      00
 1337              	.L65:
 1338 08e9 4889C3   		movq	%rax, %rbx
  77:/home/brendan/Dropbox/PhD/Code/LBM/2D LBFS/src/program.cpp ****                                 initial_conds.vel_origin_mag,mesh);
 1339              		.loc 4 77 0
 1340 08ec 488D8520 		leaq	-2528(%rbp), %rax
 1340      F6FFFF
 1341 08f3 4889C7   		movq	%rax, %rdi
 1342 08f6 E8000000 		call	_ZN10vector_varD1Ev
 1342      00
 1343 08fb 488D8540 		leaq	-2496(%rbp), %rax
 1343      F6FFFF
 1344 0902 4889C7   		movq	%rax, %rdi
 1345 0905 E8000000 		call	_ZN10vector_varD1Ev
 1345      00
 1346 090a 488D8560 		leaq	-2464(%rbp), %rax
 1346      F6FFFF
 1347 0911 4889C7   		movq	%rax, %rdi
 1348 0914 E8000000 		call	_ZN10vector_varD1Ev
 1348      00
 1349 0919 EB53     		jmp	.L35
 1350              	.L68:
 1351 091b 4889C3   		movq	%rax, %rbx
  92:/home/brendan/Dropbox/PhD/Code/LBM/2D LBFS/src/program.cpp **** 
 1352              		.loc 4 92 0
 1353 091e 488D8550 		leaq	-1200(%rbp), %rax
 1353      FBFFFF
 1354 0925 4889C7   		movq	%rax, %rdi
 1355 0928 E8000000 		call	_ZNSt7__cxx1112basic_stringIcSt11char_traitsIcESaIcEED1Ev
 1355      00
 1356 092d EB17     		jmp	.L39
 1357              	.L69:
 1358 092f 4889C3   		movq	%rax, %rbx
GAS LISTING /tmp/ccGYUW7A.s 			page 35


 100:/home/brendan/Dropbox/PhD/Code/LBM/2D LBFS/src/program.cpp **** 
 1359              		.loc 4 100 0
 1360 0932 488D85D0 		leaq	-304(%rbp), %rax
 1360      FEFFFF
 1361 0939 4889C7   		movq	%rax, %rdi
 1362 093c E8000000 		call	_ZN16global_variablesD1Ev
 1362      00
 1363 0941 EB03     		jmp	.L39
 1364              	.L67:
 1365 0943 4889C3   		movq	%rax, %rbx
 1366              	.L39:
  86:/home/brendan/Dropbox/PhD/Code/LBM/2D LBFS/src/program.cpp **** 
 1367              		.loc 4 86 0
 1368 0946 488D8540 		leaq	-2496(%rbp), %rax
 1368      F6FFFF
 1369 094d 4889C7   		movq	%rax, %rdi
 1370 0950 E8000000 		call	_ZN14tecplot_outputD1Ev
 1370      00
 1371 0955 EB03     		jmp	.L41
 1372              	.L66:
 1373 0957 4889C3   		movq	%rax, %rbx
 1374              	.L41:
  85:/home/brendan/Dropbox/PhD/Code/LBM/2D LBFS/src/program.cpp ****     tecplot_output grid(globals,mesh,soln,bc,1,0.0);
 1375              		.loc 4 85 0
 1376 095a 488D8560 		leaq	-2464(%rbp), %rax
 1376      F6FFFF
 1377 0961 4889C7   		movq	%rax, %rdi
 1378 0964 E8000000 		call	_ZN6SolverD1Ev
 1378      00
 1379 0969 EB03     		jmp	.L35
 1380              	.L62:
 1381 096b 4889C3   		movq	%rax, %rbx
 1382              	.L35:
  66:/home/brendan/Dropbox/PhD/Code/LBM/2D LBFS/src/program.cpp ****     if ( globals.fmg_levels > 0 ){
 1383              		.loc 4 66 0
 1384 096e 488D8520 		leaq	-2016(%rbp), %rax
 1384      F8FFFF
 1385 0975 4889C7   		movq	%rax, %rdi
 1386 0978 E8000000 		call	_ZN8SolutionD1Ev
 1386      00
 1387 097d EB03     		jmp	.L42
 1388              	.L61:
 1389 097f 4889C3   		movq	%rax, %rbx
 1390              	.L42:
  65:/home/brendan/Dropbox/PhD/Code/LBM/2D LBFS/src/program.cpp ****     Solution residual(mesh.get_total_cells());
 1391              		.loc 4 65 0
 1392 0982 488D85D0 		leaq	-2352(%rbp), %rax
 1392      F6FFFF
 1393 0989 4889C7   		movq	%rax, %rdi
 1394 098c E8000000 		call	_ZN8SolutionD1Ev
 1394      00
 1395 0991 EB03     		jmp	.L43
 1396              	.L60:
 1397 0993 4889C3   		movq	%rax, %rbx
 1398              	.L43:
  61:/home/brendan/Dropbox/PhD/Code/LBM/2D LBFS/src/program.cpp ****     source_term.set_uniform_force(initial_conds.pressure_gradient); //pressure force applied throug
 1399              		.loc 4 61 0
GAS LISTING /tmp/ccGYUW7A.s 			page 36


 1400 0996 488D8500 		leaq	-2560(%rbp), %rax
 1400      F6FFFF
 1401 099d 4889C7   		movq	%rax, %rdi
 1402 09a0 E8000000 		call	_ZN15external_forcesD1Ev
 1402      00
 1403 09a5 EB03     		jmp	.L33
 1404              	.L59:
 1405 09a7 4889C3   		movq	%rax, %rbx
 1406              	.L33:
  57:/home/brendan/Dropbox/PhD/Code/LBM/2D LBFS/src/program.cpp ****     bc.assign_boundary_conditions(mesh.get_num_x(), mesh.get_num_y(),bcs);
 1407              		.loc 4 57 0
 1408 09aa 488D8520 		leaq	-2272(%rbp), %rax
 1408      F7FFFF
 1409 09b1 4889C7   		movq	%rax, %rdi
 1410 09b4 E8000000 		call	_ZN19Boundary_ConditionsD1Ev
 1410      00
 1411 09b9 EB03     		jmp	.L44
 1412              	.L57:
 1413 09bb 4889C3   		movq	%rax, %rbx
 1414              	.L44:
  53:/home/brendan/Dropbox/PhD/Code/LBM/2D LBFS/src/program.cpp **** 
 1415              		.loc 4 53 0
 1416 09be 488D85B0 		leaq	-1616(%rbp), %rax
 1416      F9FFFF
 1417 09c5 4889C7   		movq	%rax, %rdi
 1418 09c8 E8000000 		call	_ZN4MeshD1Ev
 1418      00
 1419 09cd EB03     		jmp	.L30
 1420              	.L54:
 1421 09cf 4889C3   		movq	%rax, %rbx
 1422              	.L30:
  46:/home/brendan/Dropbox/PhD/Code/LBM/2D LBFS/src/program.cpp ****     //postprocessor post_processor;
 1423              		.loc 4 46 0
 1424 09d2 488D85E0 		leaq	-2592(%rbp), %rax
 1424      F5FFFF
 1425 09d9 4889C7   		movq	%rax, %rdi
 1426 09dc E8000000 		call	_ZN12preprocessorD1Ev
 1426      00
 1427 09e1 EB03     		jmp	.L45
 1428              	.L53:
 1429 09e3 4889C3   		movq	%rax, %rbx
 1430              	.L45:
  39:/home/brendan/Dropbox/PhD/Code/LBM/2D LBFS/src/program.cpp ****     int mg =0; // first multigrid cycle
 1431              		.loc 4 39 0
 1432 09e6 488D85D0 		leaq	-1840(%rbp), %rax
 1432      F8FFFF
 1433 09ed 4889C7   		movq	%rax, %rdi
 1434 09f0 E8000000 		call	_ZN18initial_conditionsD1Ev
 1434      00
 1435 09f5 EB03     		jmp	.L46
 1436              	.L52:
 1437 09f7 4889C3   		movq	%rax, %rbx
 1438              	.L46:
  38:/home/brendan/Dropbox/PhD/Code/LBM/2D LBFS/src/program.cpp ****     initial_conditions initial_conds;
 1439              		.loc 4 38 0
 1440 09fa 488D8590 		leaq	-2416(%rbp), %rax
 1440      F6FFFF
GAS LISTING /tmp/ccGYUW7A.s 			page 37


 1441 0a01 4889C7   		movq	%rax, %rdi
 1442 0a04 E8000000 		call	_ZN15domain_geometryD1Ev
 1442      00
 1443 0a09 EB03     		jmp	.L47
 1444              	.L51:
 1445 0a0b 4889C3   		movq	%rax, %rbx
 1446              	.L47:
  37:/home/brendan/Dropbox/PhD/Code/LBM/2D LBFS/src/program.cpp ****     domain_geometry domain;
 1447              		.loc 4 37 0
 1448 0a0e 488D8570 		leaq	-1168(%rbp), %rax
 1448      FBFFFF
 1449 0a15 4889C7   		movq	%rax, %rdi
 1450 0a18 E8000000 		call	_ZN16global_variablesD1Ev
 1450      00
 1451 0a1d EB03     		jmp	.L48
 1452              	.L50:
 1453 0a1f 4889C3   		movq	%rax, %rbx
 1454              	.L48:
  36:/home/brendan/Dropbox/PhD/Code/LBM/2D LBFS/src/program.cpp ****     global_variables globals;
 1455              		.loc 4 36 0
 1456 0a22 488D8570 		leaq	-2192(%rbp), %rax
 1456      F7FFFF
 1457 0a29 4889C7   		movq	%rax, %rdi
 1458 0a2c E8000000 		call	_ZN13quad_bcs_plusD1Ev
 1458      00
 1459 0a31 4889D8   		movq	%rbx, %rax
 1460 0a34 4889C7   		movq	%rax, %rdi
 1461              	.LEHB30:
 1462 0a37 E8000000 		call	_Unwind_Resume
 1462      00
 1463              	.LEHE30:
 1464              	.L70:
 1465              		.loc 4 106 0
 1466 0a3c E8000000 		call	__stack_chk_fail
 1466      00
 1467              	.L49:
 1468 0a41 488B5DF8 		movq	-8(%rbp), %rbx
 1469 0a45 C9       		leave
 1470              		.cfi_def_cfa 7, 8
 1471 0a46 C3       		ret
 1472              		.cfi_endproc
 1473              	.LFE2177:
 1474              		.section	.gcc_except_table,"a",@progbits
 1475              	.LLSDA2177:
 1476 0000 FF       		.byte	0xff
 1477 0001 FF       		.byte	0xff
 1478 0002 01       		.byte	0x1
 1479 0003 9601     		.uleb128 .LLSDACSE2177-.LLSDACSB2177
 1480              	.LLSDACSB2177:
 1481 0005 33       		.uleb128 .LEHB5-.LFB2177
 1482 0006 05       		.uleb128 .LEHE5-.LEHB5
 1483 0007 00       		.uleb128 0
 1484 0008 00       		.uleb128 0
 1485 0009 42       		.uleb128 .LEHB6-.LFB2177
 1486 000a 05       		.uleb128 .LEHE6-.LEHB6
 1487 000b B113     		.uleb128 .L50-.LFB2177
 1488 000d 00       		.uleb128 0
GAS LISTING /tmp/ccGYUW7A.s 			page 38


 1489 000e 51       		.uleb128 .LEHB7-.LFB2177
 1490 000f 05       		.uleb128 .LEHE7-.LEHB7
 1491 0010 9D13     		.uleb128 .L51-.LFB2177
 1492 0012 00       		.uleb128 0
 1493 0013 60       		.uleb128 .LEHB8-.LFB2177
 1494 0014 05       		.uleb128 .LEHE8-.LEHB8
 1495 0015 8913     		.uleb128 .L52-.LFB2177
 1496 0017 00       		.uleb128 0
 1497 0018 8F01     		.uleb128 .LEHB9-.LFB2177
 1498 001a 05       		.uleb128 .LEHE9-.LEHB9
 1499 001b F512     		.uleb128 .L53-.LFB2177
 1500 001d 00       		.uleb128 0
 1501 001e C701     		.uleb128 .LEHB10-.LFB2177
 1502 0020 25       		.uleb128 .LEHE10-.LEHB10
 1503 0021 E112     		.uleb128 .L54-.LFB2177
 1504 0023 00       		.uleb128 0
 1505 0024 8702     		.uleb128 .LEHB11-.LFB2177
 1506 0026 05       		.uleb128 .LEHE11-.LEHB11
 1507 0027 DB0F     		.uleb128 .L55-.LFB2177
 1508 0029 00       		.uleb128 0
 1509 002a AF02     		.uleb128 .LEHB12-.LFB2177
 1510 002c 05       		.uleb128 .LEHE12-.LEHB12
 1511 002d E112     		.uleb128 .L54-.LFB2177
 1512 002f 00       		.uleb128 0
 1513 0030 E802     		.uleb128 .LEHB13-.LFB2177
 1514 0032 05       		.uleb128 .LEHE13-.LEHB13
 1515 0033 F20F     		.uleb128 .L56-.LFB2177
 1516 0035 00       		.uleb128 0
 1517 0036 BB03     		.uleb128 .LEHB14-.LFB2177
 1518 0038 05       		.uleb128 .LEHE14-.LEHB14
 1519 0039 CD12     		.uleb128 .L57-.LFB2177
 1520 003b 00       		.uleb128 0
 1521 003c 9104     		.uleb128 .LEHB15-.LFB2177
 1522 003e 05       		.uleb128 .LEHE15-.LEHB15
 1523 003f 9810     		.uleb128 .L58-.LFB2177
 1524 0041 00       		.uleb128 0
 1525 0042 C204     		.uleb128 .LEHB16-.LFB2177
 1526 0044 05       		.uleb128 .LEHE16-.LEHB16
 1527 0045 B912     		.uleb128 .L59-.LFB2177
 1528 0047 00       		.uleb128 0
 1529 0048 E704     		.uleb128 .LEHB17-.LFB2177
 1530 004a 27       		.uleb128 .LEHE17-.LEHB17
 1531 004b A512     		.uleb128 .L60-.LFB2177
 1532 004d 00       		.uleb128 0
 1533 004e AB05     		.uleb128 .LEHB18-.LFB2177
 1534 0050 05       		.uleb128 .LEHE18-.LEHB18
 1535 0051 9112     		.uleb128 .L61-.LFB2177
 1536 0053 00       		.uleb128 0
 1537 0054 D205     		.uleb128 .LEHB19-.LFB2177
 1538 0056 05       		.uleb128 .LEHE19-.LEHB19
 1539 0057 FD11     		.uleb128 .L62-.LFB2177
 1540 0059 00       		.uleb128 0
 1541 005a A406     		.uleb128 .LEHB20-.LFB2177
 1542 005c 05       		.uleb128 .LEHE20-.LEHB20
 1543 005d AF10     		.uleb128 .L63-.LFB2177
 1544 005f 00       		.uleb128 0
 1545 0060 C107     		.uleb128 .LEHB21-.LFB2177
GAS LISTING /tmp/ccGYUW7A.s 			page 39


 1546 0062 05       		.uleb128 .LEHE21-.LEHB21
 1547 0063 C610     		.uleb128 .L64-.LFB2177
 1548 0065 00       		.uleb128 0
 1549 0066 F908     		.uleb128 .LEHB22-.LFB2177
 1550 0068 05       		.uleb128 .LEHE22-.LEHB22
 1551 0069 FB10     		.uleb128 .L65-.LFB2177
 1552 006b 00       		.uleb128 0
 1553 006c DA09     		.uleb128 .LEHB23-.LFB2177
 1554 006e 05       		.uleb128 .LEHE23-.LEHB23
 1555 006f FD11     		.uleb128 .L62-.LFB2177
 1556 0071 00       		.uleb128 0
 1557 0072 920A     		.uleb128 .LEHB24-.LFB2177
 1558 0074 05       		.uleb128 .LEHE24-.LEHB24
 1559 0075 E911     		.uleb128 .L66-.LFB2177
 1560 0077 00       		.uleb128 0
 1561 0078 F20A     		.uleb128 .LEHB25-.LFB2177
 1562 007a 63       		.uleb128 .LEHE25-.LEHB25
 1563 007b D511     		.uleb128 .L67-.LFB2177
 1564 007d 00       		.uleb128 0
 1565 007e F40B     		.uleb128 .LEHB26-.LFB2177
 1566 0080 05       		.uleb128 .LEHE26-.LEHB26
 1567 0081 AD11     		.uleb128 .L68-.LFB2177
 1568 0083 00       		.uleb128 0
 1569 0084 D30C     		.uleb128 .LEHB27-.LFB2177
 1570 0086 05       		.uleb128 .LEHE27-.LEHB27
 1571 0087 D511     		.uleb128 .L67-.LFB2177
 1572 0089 00       		.uleb128 0
 1573 008a 820D     		.uleb128 .LEHB28-.LFB2177
 1574 008c 05       		.uleb128 .LEHE28-.LEHB28
 1575 008d C111     		.uleb128 .L69-.LFB2177
 1576 008f 00       		.uleb128 0
 1577 0090 B10D     		.uleb128 .LEHB29-.LFB2177
 1578 0092 5D       		.uleb128 .LEHE29-.LEHB29
 1579 0093 D511     		.uleb128 .L67-.LFB2177
 1580 0095 00       		.uleb128 0
 1581 0096 C913     		.uleb128 .LEHB30-.LFB2177
 1582 0098 05       		.uleb128 .LEHE30-.LEHB30
 1583 0099 00       		.uleb128 0
 1584 009a 00       		.uleb128 0
 1585              	.LLSDACSE2177:
 1586              		.text
 1588              		.section	.rodata
 1589              	.LC3:
 1590 0034 2F676C6F 		.string	"/globals.txt"
 1590      62616C73 
 1590      2E747874 
 1590      00
 1591              	.LC4:
 1592 0041 52756E74 		.string	"Runtime:"
 1592      696D653A 
 1592      00
 1593              	.LC5:
 1594 004a 7300     		.string	"s"
 1595              	.LC6:
 1596 004c 46696C65 		.string	"File:"
 1596      3A00
 1597              	.LC7:
GAS LISTING /tmp/ccGYUW7A.s 			page 40


 1598 0052 5461753A 		.string	"Tau:"
 1598      00
 1599              	.LC8:
 1600 0057 4D616368 		.string	"Mach"
 1600      00
 1601              	.LC9:
 1602 005c 5265796E 		.string	"Reynolds"
 1602      6F6C6473 
 1602      00
 1603              		.text
 1604 0a47 90       		.align 2
 1605              		.globl	_ZN7program14output_globalsE16global_variablesd
 1607              	_ZN7program14output_globalsE16global_variablesd:
 1608              	.LFB2190:
 107:/home/brendan/Dropbox/PhD/Code/LBM/2D LBFS/src/program.cpp **** //void program::output_tecplot(global_variables &globals, Mesh &Mesh, Solution &Soln,
 108:/home/brendan/Dropbox/PhD/Code/LBM/2D LBFS/src/program.cpp **** //                             Boundary_Conditions &bcs){
 109:/home/brendan/Dropbox/PhD/Code/LBM/2D LBFS/src/program.cpp **** //
 110:/home/brendan/Dropbox/PhD/Code/LBM/2D LBFS/src/program.cpp **** //    std::string output_location;
 111:/home/brendan/Dropbox/PhD/Code/LBM/2D LBFS/src/program.cpp **** //    output_location = globals.output_file + "/output.plt";
 112:/home/brendan/Dropbox/PhD/Code/LBM/2D LBFS/src/program.cpp **** //    std::string reynolds_text;
 113:/home/brendan/Dropbox/PhD/Code/LBM/2D LBFS/src/program.cpp **** //    reynolds_text = globals.reynolds_number;
 114:/home/brendan/Dropbox/PhD/Code/LBM/2D LBFS/src/program.cpp **** //    std::string zone_name;
 115:/home/brendan/Dropbox/PhD/Code/LBM/2D LBFS/src/program.cpp **** //    std::stringstream ss;
 116:/home/brendan/Dropbox/PhD/Code/LBM/2D LBFS/src/program.cpp **** //
 117:/home/brendan/Dropbox/PhD/Code/LBM/2D LBFS/src/program.cpp **** //   enum fileType_e { FULL = 0, GRID = 1, SOLUTION = 2 };
 118:/home/brendan/Dropbox/PhD/Code/LBM/2D LBFS/src/program.cpp **** //
 119:/home/brendan/Dropbox/PhD/Code/LBM/2D LBFS/src/program.cpp **** //     float *nodx, *nody, *z, *p,*u, *v,*y ,*x, *u_err, *u_exact;
 120:/home/brendan/Dropbox/PhD/Code/LBM/2D LBFS/src/program.cpp **** //    int *connectivity;
 121:/home/brendan/Dropbox/PhD/Code/LBM/2D LBFS/src/program.cpp **** //    double solTime;
 122:/home/brendan/Dropbox/PhD/Code/LBM/2D LBFS/src/program.cpp **** //    INTEGER4 debug, i, j, k, dIsDouble, vIsDouble, zoneType, strandID, parentZn, isBlock;
 123:/home/brendan/Dropbox/PhD/Code/LBM/2D LBFS/src/program.cpp **** //    INTEGER4 iCellMax, jCellMax, kCellMax, nFConns, fNMode, shrConn, fileType;
 124:/home/brendan/Dropbox/PhD/Code/LBM/2D LBFS/src/program.cpp **** //
 125:/home/brendan/Dropbox/PhD/Code/LBM/2D LBFS/src/program.cpp **** //    int valueLocation[] = {1,1,1,0,0,0,0,0,0,0};
 126:/home/brendan/Dropbox/PhD/Code/LBM/2D LBFS/src/program.cpp **** //    INTEGER4 fileFormat; // 0 == PLT, 1 == SZPLT
 127:/home/brendan/Dropbox/PhD/Code/LBM/2D LBFS/src/program.cpp **** //    fileFormat = 0;
 128:/home/brendan/Dropbox/PhD/Code/LBM/2D LBFS/src/program.cpp **** //
 129:/home/brendan/Dropbox/PhD/Code/LBM/2D LBFS/src/program.cpp **** //    INTEGER4 nNodes, nCells, nFaces, connectivityCount, index;
 130:/home/brendan/Dropbox/PhD/Code/LBM/2D LBFS/src/program.cpp **** //    int XDIM, YDIM, ZDIM; // nodes
 131:/home/brendan/Dropbox/PhD/Code/LBM/2D LBFS/src/program.cpp **** //    int t;
 132:/home/brendan/Dropbox/PhD/Code/LBM/2D LBFS/src/program.cpp **** //    XDIM = Mesh.get_num_x() +1 -2;
 133:/home/brendan/Dropbox/PhD/Code/LBM/2D LBFS/src/program.cpp **** //    YDIM = Mesh.get_num_y() +1 -2;
 134:/home/brendan/Dropbox/PhD/Code/LBM/2D LBFS/src/program.cpp **** //    ZDIM = 2;
 135:/home/brendan/Dropbox/PhD/Code/LBM/2D LBFS/src/program.cpp **** //
 136:/home/brendan/Dropbox/PhD/Code/LBM/2D LBFS/src/program.cpp **** //    debug     = 1;
 137:/home/brendan/Dropbox/PhD/Code/LBM/2D LBFS/src/program.cpp **** //    vIsDouble = 0;
 138:/home/brendan/Dropbox/PhD/Code/LBM/2D LBFS/src/program.cpp **** //    dIsDouble = 0;
 139:/home/brendan/Dropbox/PhD/Code/LBM/2D LBFS/src/program.cpp **** //    nNodes = XDIM * YDIM * ZDIM;
 140:/home/brendan/Dropbox/PhD/Code/LBM/2D LBFS/src/program.cpp **** //    nCells = (XDIM - 1) * (YDIM - 1) * (ZDIM - 1);
 141:/home/brendan/Dropbox/PhD/Code/LBM/2D LBFS/src/program.cpp **** //    nFaces = 6; /* Not used */
 142:/home/brendan/Dropbox/PhD/Code/LBM/2D LBFS/src/program.cpp **** //    zoneType  = 5;      /* Brick */
 143:/home/brendan/Dropbox/PhD/Code/LBM/2D LBFS/src/program.cpp **** //    solTime   = 360.0;
 144:/home/brendan/Dropbox/PhD/Code/LBM/2D LBFS/src/program.cpp **** //    strandID  = 0;     /* StaticZone */
 145:/home/brendan/Dropbox/PhD/Code/LBM/2D LBFS/src/program.cpp **** //    parentZn  = 0;      /* No Parent */
 146:/home/brendan/Dropbox/PhD/Code/LBM/2D LBFS/src/program.cpp **** //    isBlock   = 1;      /* Block */
 147:/home/brendan/Dropbox/PhD/Code/LBM/2D LBFS/src/program.cpp **** //    iCellMax  = 0;
 148:/home/brendan/Dropbox/PhD/Code/LBM/2D LBFS/src/program.cpp **** //    jCellMax  = 0;
 149:/home/brendan/Dropbox/PhD/Code/LBM/2D LBFS/src/program.cpp **** //    kCellMax  = 0;
GAS LISTING /tmp/ccGYUW7A.s 			page 41


 150:/home/brendan/Dropbox/PhD/Code/LBM/2D LBFS/src/program.cpp **** //    nFConns   = 0;
 151:/home/brendan/Dropbox/PhD/Code/LBM/2D LBFS/src/program.cpp **** //    fNMode    = 0;
 152:/home/brendan/Dropbox/PhD/Code/LBM/2D LBFS/src/program.cpp **** //    shrConn   = 0;
 153:/home/brendan/Dropbox/PhD/Code/LBM/2D LBFS/src/program.cpp **** //    fileType  = FULL;
 154:/home/brendan/Dropbox/PhD/Code/LBM/2D LBFS/src/program.cpp **** //    ss << nCells;
 155:/home/brendan/Dropbox/PhD/Code/LBM/2D LBFS/src/program.cpp **** //    zone_name = ss.str();
 156:/home/brendan/Dropbox/PhD/Code/LBM/2D LBFS/src/program.cpp **** //    /*
 157:/home/brendan/Dropbox/PhD/Code/LBM/2D LBFS/src/program.cpp **** //     * Open the file and write the tecplot datafile
 158:/home/brendan/Dropbox/PhD/Code/LBM/2D LBFS/src/program.cpp **** //     * header information
 159:/home/brendan/Dropbox/PhD/Code/LBM/2D LBFS/src/program.cpp **** //     */
 160:/home/brendan/Dropbox/PhD/Code/LBM/2D LBFS/src/program.cpp **** //    i = TECINI142((char*) "Couette Flow" ,
 161:/home/brendan/Dropbox/PhD/Code/LBM/2D LBFS/src/program.cpp **** //                  (char*)"nodx nody z p u v x y u_error u_exact",
 162:/home/brendan/Dropbox/PhD/Code/LBM/2D LBFS/src/program.cpp **** //                  (char*) output_location.c_str(),
 163:/home/brendan/Dropbox/PhD/Code/LBM/2D LBFS/src/program.cpp **** //                  (char*) ".",
 164:/home/brendan/Dropbox/PhD/Code/LBM/2D LBFS/src/program.cpp **** //                  &fileFormat,
 165:/home/brendan/Dropbox/PhD/Code/LBM/2D LBFS/src/program.cpp **** //                  &fileType,
 166:/home/brendan/Dropbox/PhD/Code/LBM/2D LBFS/src/program.cpp **** //                  &debug,
 167:/home/brendan/Dropbox/PhD/Code/LBM/2D LBFS/src/program.cpp **** //                  &vIsDouble);
 168:/home/brendan/Dropbox/PhD/Code/LBM/2D LBFS/src/program.cpp **** //
 169:/home/brendan/Dropbox/PhD/Code/LBM/2D LBFS/src/program.cpp **** //    i = TECAUXSTR142("Re" ,  reynolds_text.c_str());
 170:/home/brendan/Dropbox/PhD/Code/LBM/2D LBFS/src/program.cpp **** //
 171:/home/brendan/Dropbox/PhD/Code/LBM/2D LBFS/src/program.cpp **** //    nodx  = (float*)malloc(nNodes * sizeof(float));
 172:/home/brendan/Dropbox/PhD/Code/LBM/2D LBFS/src/program.cpp **** //    nody  = (float*)malloc(nNodes * sizeof(float));
 173:/home/brendan/Dropbox/PhD/Code/LBM/2D LBFS/src/program.cpp **** //    z  = (float*)malloc(nNodes * sizeof(float));
 174:/home/brendan/Dropbox/PhD/Code/LBM/2D LBFS/src/program.cpp **** //    p  = (float*)malloc(nNodes * sizeof(float));
 175:/home/brendan/Dropbox/PhD/Code/LBM/2D LBFS/src/program.cpp **** //    u = (float*)malloc(nCells * sizeof(float));
 176:/home/brendan/Dropbox/PhD/Code/LBM/2D LBFS/src/program.cpp **** //    v = (float*)malloc(nCells * sizeof(float));
 177:/home/brendan/Dropbox/PhD/Code/LBM/2D LBFS/src/program.cpp **** //    y = (float*)malloc(nCells * sizeof(float));
 178:/home/brendan/Dropbox/PhD/Code/LBM/2D LBFS/src/program.cpp **** //    x = (float*)malloc(nCells * sizeof(float));
 179:/home/brendan/Dropbox/PhD/Code/LBM/2D LBFS/src/program.cpp **** //    u_err = (float*)malloc(nCells * sizeof(float));
 180:/home/brendan/Dropbox/PhD/Code/LBM/2D LBFS/src/program.cpp **** //    u_exact = (float*)malloc(nCells * sizeof(float));
 181:/home/brendan/Dropbox/PhD/Code/LBM/2D LBFS/src/program.cpp **** //    for (k = 0; k < ZDIM; k++)
 182:/home/brendan/Dropbox/PhD/Code/LBM/2D LBFS/src/program.cpp **** //        for (j = 0; j < YDIM; j++)
 183:/home/brendan/Dropbox/PhD/Code/LBM/2D LBFS/src/program.cpp **** //            for (i = 0; i < XDIM; i++)
 184:/home/brendan/Dropbox/PhD/Code/LBM/2D LBFS/src/program.cpp **** //            {
 185:/home/brendan/Dropbox/PhD/Code/LBM/2D LBFS/src/program.cpp **** //                index = (k * YDIM + j) * XDIM + i;
 186:/home/brendan/Dropbox/PhD/Code/LBM/2D LBFS/src/program.cpp **** //                nodx[index] = (float)(i + 1);
 187:/home/brendan/Dropbox/PhD/Code/LBM/2D LBFS/src/program.cpp **** //                nody[index] = (float)(j + 1);
 188:/home/brendan/Dropbox/PhD/Code/LBM/2D LBFS/src/program.cpp **** //                z[index] = (float)(k + 1);
 189:/home/brendan/Dropbox/PhD/Code/LBM/2D LBFS/src/program.cpp **** //
 190:/home/brendan/Dropbox/PhD/Code/LBM/2D LBFS/src/program.cpp **** //            }
 191:/home/brendan/Dropbox/PhD/Code/LBM/2D LBFS/src/program.cpp **** //
 192:/home/brendan/Dropbox/PhD/Code/LBM/2D LBFS/src/program.cpp **** //    t = 0;
 193:/home/brendan/Dropbox/PhD/Code/LBM/2D LBFS/src/program.cpp **** //    for (i = 0; i < Mesh.get_total_cells(); ++i){
 194:/home/brendan/Dropbox/PhD/Code/LBM/2D LBFS/src/program.cpp **** //        if( bcs.get_bc(i) == false){
 195:/home/brendan/Dropbox/PhD/Code/LBM/2D LBFS/src/program.cpp **** //            p[t] = (float) Soln.get_rho(i);
 196:/home/brendan/Dropbox/PhD/Code/LBM/2D LBFS/src/program.cpp **** //            u[t] = (float) Soln.get_u(i)/globals.mach_number *sqrt(3);
 197:/home/brendan/Dropbox/PhD/Code/LBM/2D LBFS/src/program.cpp **** //            v[t] = (float) Soln.get_v(i)/globals.mach_number *sqrt(3);
 198:/home/brendan/Dropbox/PhD/Code/LBM/2D LBFS/src/program.cpp **** //            x[t] = (float) Mesh.get_centroid_x(i)/Mesh.get_X();
 199:/home/brendan/Dropbox/PhD/Code/LBM/2D LBFS/src/program.cpp **** //            y[t] = (float) Mesh.get_centroid_y(i)/Mesh.get_Y();
 200:/home/brendan/Dropbox/PhD/Code/LBM/2D LBFS/src/program.cpp **** //            u_err[t] = (float) Soln.get_u_error(i);
 201:/home/brendan/Dropbox/PhD/Code/LBM/2D LBFS/src/program.cpp **** //            u_exact[t] = (float) Soln.get_u_exact(i)/globals.mach_number *sqrt(3);
 202:/home/brendan/Dropbox/PhD/Code/LBM/2D LBFS/src/program.cpp **** //            t++;
 203:/home/brendan/Dropbox/PhD/Code/LBM/2D LBFS/src/program.cpp **** //        }
 204:/home/brendan/Dropbox/PhD/Code/LBM/2D LBFS/src/program.cpp **** //
 205:/home/brendan/Dropbox/PhD/Code/LBM/2D LBFS/src/program.cpp **** //    }
 206:/home/brendan/Dropbox/PhD/Code/LBM/2D LBFS/src/program.cpp **** //
GAS LISTING /tmp/ccGYUW7A.s 			page 42


 207:/home/brendan/Dropbox/PhD/Code/LBM/2D LBFS/src/program.cpp **** //    connectivityCount = 8 * nCells;
 208:/home/brendan/Dropbox/PhD/Code/LBM/2D LBFS/src/program.cpp **** //    connectivity = (INTEGER4*)malloc(connectivityCount * sizeof(INTEGER4));
 209:/home/brendan/Dropbox/PhD/Code/LBM/2D LBFS/src/program.cpp **** //    for (k = 0; k < ZDIM - 1; k++)
 210:/home/brendan/Dropbox/PhD/Code/LBM/2D LBFS/src/program.cpp **** //        for (j = 0; j < YDIM - 1; j++)
 211:/home/brendan/Dropbox/PhD/Code/LBM/2D LBFS/src/program.cpp **** //            for (i = 0; i < XDIM - 1; i++)
 212:/home/brendan/Dropbox/PhD/Code/LBM/2D LBFS/src/program.cpp **** //            {
 213:/home/brendan/Dropbox/PhD/Code/LBM/2D LBFS/src/program.cpp **** //                index = ((k * (YDIM - 1) + j) * (XDIM - 1) + i) * 8;
 214:/home/brendan/Dropbox/PhD/Code/LBM/2D LBFS/src/program.cpp **** //                connectivity[index] = (k * YDIM + j) * XDIM + i + 1;
 215:/home/brendan/Dropbox/PhD/Code/LBM/2D LBFS/src/program.cpp **** //                connectivity[index + 1] = connectivity[index] + 1;
 216:/home/brendan/Dropbox/PhD/Code/LBM/2D LBFS/src/program.cpp **** //                connectivity[index + 2] = connectivity[index] + XDIM + 1;
 217:/home/brendan/Dropbox/PhD/Code/LBM/2D LBFS/src/program.cpp **** //                connectivity[index + 3] = connectivity[index] + XDIM;
 218:/home/brendan/Dropbox/PhD/Code/LBM/2D LBFS/src/program.cpp **** //                connectivity[index + 4] = connectivity[index] + XDIM * YDIM;
 219:/home/brendan/Dropbox/PhD/Code/LBM/2D LBFS/src/program.cpp **** //                connectivity[index + 5] = connectivity[index + 1] + XDIM * YDIM;
 220:/home/brendan/Dropbox/PhD/Code/LBM/2D LBFS/src/program.cpp **** //                connectivity[index + 6] = connectivity[index + 2] + XDIM * YDIM;
 221:/home/brendan/Dropbox/PhD/Code/LBM/2D LBFS/src/program.cpp **** //                connectivity[index + 7] = connectivity[index + 3] + XDIM * YDIM;
 222:/home/brendan/Dropbox/PhD/Code/LBM/2D LBFS/src/program.cpp **** //            }
 223:/home/brendan/Dropbox/PhD/Code/LBM/2D LBFS/src/program.cpp **** //
 224:/home/brendan/Dropbox/PhD/Code/LBM/2D LBFS/src/program.cpp **** //
 225:/home/brendan/Dropbox/PhD/Code/LBM/2D LBFS/src/program.cpp **** //       /*
 226:/home/brendan/Dropbox/PhD/Code/LBM/2D LBFS/src/program.cpp **** //     * Write the zone header information.
 227:/home/brendan/Dropbox/PhD/Code/LBM/2D LBFS/src/program.cpp **** //     */
 228:/home/brendan/Dropbox/PhD/Code/LBM/2D LBFS/src/program.cpp **** //     std::cout << zone_name.c_str() << endl;
 229:/home/brendan/Dropbox/PhD/Code/LBM/2D LBFS/src/program.cpp **** //   i = TECZNE142(
 230:/home/brendan/Dropbox/PhD/Code/LBM/2D LBFS/src/program.cpp **** //                 //(char*) zone_name.c_str(),
 231:/home/brendan/Dropbox/PhD/Code/LBM/2D LBFS/src/program.cpp **** //                 zone_name.c_str(),
 232:/home/brendan/Dropbox/PhD/Code/LBM/2D LBFS/src/program.cpp **** //                  &zoneType,
 233:/home/brendan/Dropbox/PhD/Code/LBM/2D LBFS/src/program.cpp **** //                  &nNodes,
 234:/home/brendan/Dropbox/PhD/Code/LBM/2D LBFS/src/program.cpp **** //                  &nCells,
 235:/home/brendan/Dropbox/PhD/Code/LBM/2D LBFS/src/program.cpp **** //                  &nFaces,
 236:/home/brendan/Dropbox/PhD/Code/LBM/2D LBFS/src/program.cpp **** //                  &iCellMax,
 237:/home/brendan/Dropbox/PhD/Code/LBM/2D LBFS/src/program.cpp **** //                  &jCellMax,
 238:/home/brendan/Dropbox/PhD/Code/LBM/2D LBFS/src/program.cpp **** //                  &kCellMax,
 239:/home/brendan/Dropbox/PhD/Code/LBM/2D LBFS/src/program.cpp **** //                  &solTime,
 240:/home/brendan/Dropbox/PhD/Code/LBM/2D LBFS/src/program.cpp **** //                  &strandID,
 241:/home/brendan/Dropbox/PhD/Code/LBM/2D LBFS/src/program.cpp **** //                  &parentZn,
 242:/home/brendan/Dropbox/PhD/Code/LBM/2D LBFS/src/program.cpp **** //                  &isBlock,
 243:/home/brendan/Dropbox/PhD/Code/LBM/2D LBFS/src/program.cpp **** //                  &nFConns,
 244:/home/brendan/Dropbox/PhD/Code/LBM/2D LBFS/src/program.cpp **** //                  &fNMode,
 245:/home/brendan/Dropbox/PhD/Code/LBM/2D LBFS/src/program.cpp **** //                  0,              /* TotalNumFaceNodes */
 246:/home/brendan/Dropbox/PhD/Code/LBM/2D LBFS/src/program.cpp **** //                  0,              /* NumConnectedBoundaryFaces */
 247:/home/brendan/Dropbox/PhD/Code/LBM/2D LBFS/src/program.cpp **** //                  0,              /* TotalNumBoundaryConnections */
 248:/home/brendan/Dropbox/PhD/Code/LBM/2D LBFS/src/program.cpp **** //                  NULL,           /* PassiveVarList */
 249:/home/brendan/Dropbox/PhD/Code/LBM/2D LBFS/src/program.cpp **** //                  valueLocation,  /* ValueLocation = Nodal */
 250:/home/brendan/Dropbox/PhD/Code/LBM/2D LBFS/src/program.cpp **** //                  NULL,           /* SharVarFromZone */
 251:/home/brendan/Dropbox/PhD/Code/LBM/2D LBFS/src/program.cpp **** //                  &shrConn);
 252:/home/brendan/Dropbox/PhD/Code/LBM/2D LBFS/src/program.cpp **** ///*
 253:/home/brendan/Dropbox/PhD/Code/LBM/2D LBFS/src/program.cpp **** //     * Write out the field data.
 254:/home/brendan/Dropbox/PhD/Code/LBM/2D LBFS/src/program.cpp **** //     */
 255:/home/brendan/Dropbox/PhD/Code/LBM/2D LBFS/src/program.cpp **** //    i = TECDAT142(&nNodes, nodx, &dIsDouble);
 256:/home/brendan/Dropbox/PhD/Code/LBM/2D LBFS/src/program.cpp **** //    i = TECDAT142(&nNodes, nody, &dIsDouble);
 257:/home/brendan/Dropbox/PhD/Code/LBM/2D LBFS/src/program.cpp **** //    i = TECDAT142(&nNodes, z, &dIsDouble);
 258:/home/brendan/Dropbox/PhD/Code/LBM/2D LBFS/src/program.cpp **** //    i = TECDAT142(&nCells, p, &dIsDouble);
 259:/home/brendan/Dropbox/PhD/Code/LBM/2D LBFS/src/program.cpp **** //    i = TECDAT142(&nCells, u, &dIsDouble);
 260:/home/brendan/Dropbox/PhD/Code/LBM/2D LBFS/src/program.cpp **** //    i = TECDAT142(&nCells, v, &dIsDouble);
 261:/home/brendan/Dropbox/PhD/Code/LBM/2D LBFS/src/program.cpp **** //    i = TECDAT142(&nCells, x, &dIsDouble);
 262:/home/brendan/Dropbox/PhD/Code/LBM/2D LBFS/src/program.cpp **** //    i = TECDAT142(&nCells, y, &dIsDouble);
 263:/home/brendan/Dropbox/PhD/Code/LBM/2D LBFS/src/program.cpp **** //    i = TECDAT142(&nCells, u_err, &dIsDouble);
GAS LISTING /tmp/ccGYUW7A.s 			page 43


 264:/home/brendan/Dropbox/PhD/Code/LBM/2D LBFS/src/program.cpp **** //    i = TECDAT142(&nCells, u_exact, &dIsDouble);
 265:/home/brendan/Dropbox/PhD/Code/LBM/2D LBFS/src/program.cpp **** //    free(nodx);
 266:/home/brendan/Dropbox/PhD/Code/LBM/2D LBFS/src/program.cpp **** //    free(nody);
 267:/home/brendan/Dropbox/PhD/Code/LBM/2D LBFS/src/program.cpp **** //    free(z);
 268:/home/brendan/Dropbox/PhD/Code/LBM/2D LBFS/src/program.cpp **** //    free(p);
 269:/home/brendan/Dropbox/PhD/Code/LBM/2D LBFS/src/program.cpp **** //    free(u);
 270:/home/brendan/Dropbox/PhD/Code/LBM/2D LBFS/src/program.cpp **** //    free(v);
 271:/home/brendan/Dropbox/PhD/Code/LBM/2D LBFS/src/program.cpp **** //    free(x);
 272:/home/brendan/Dropbox/PhD/Code/LBM/2D LBFS/src/program.cpp **** //    free(y);
 273:/home/brendan/Dropbox/PhD/Code/LBM/2D LBFS/src/program.cpp **** //    free(u_err);
 274:/home/brendan/Dropbox/PhD/Code/LBM/2D LBFS/src/program.cpp **** //    free(u_exact);
 275:/home/brendan/Dropbox/PhD/Code/LBM/2D LBFS/src/program.cpp **** //
 276:/home/brendan/Dropbox/PhD/Code/LBM/2D LBFS/src/program.cpp **** //    i = TECNODE142(&connectivityCount, connectivity);
 277:/home/brendan/Dropbox/PhD/Code/LBM/2D LBFS/src/program.cpp **** //    free(connectivity);
 278:/home/brendan/Dropbox/PhD/Code/LBM/2D LBFS/src/program.cpp **** //
 279:/home/brendan/Dropbox/PhD/Code/LBM/2D LBFS/src/program.cpp **** //    i = TECEND142();
 280:/home/brendan/Dropbox/PhD/Code/LBM/2D LBFS/src/program.cpp **** //}
 281:/home/brendan/Dropbox/PhD/Code/LBM/2D LBFS/src/program.cpp **** void program::output_globals (global_variables globals,double duration){
 1609              		.loc 4 281 0
 1610              		.cfi_startproc
 1611              		.cfi_personality 0x3,__gxx_personality_v0
 1612              		.cfi_lsda 0x3,.LLSDA2190
 1613 0a48 55       		pushq	%rbp
 1614              		.cfi_def_cfa_offset 16
 1615              		.cfi_offset 6, -16
 1616 0a49 4889E5   		movq	%rsp, %rbp
 1617              		.cfi_def_cfa_register 6
 1618 0a4c 53       		pushq	%rbx
 1619 0a4d 4881ECE8 		subq	$744, %rsp
 1619      020000
 1620              		.cfi_offset 3, -24
 1621 0a54 4889BD28 		movq	%rdi, -728(%rbp)
 1621      FDFFFF
 1622 0a5b 4889B520 		movq	%rsi, -736(%rbp)
 1622      FDFFFF
 1623 0a62 F20F1185 		movsd	%xmm0, -744(%rbp)
 1623      18FDFFFF 
 1624              		.loc 4 281 0
 1625 0a6a 64488B04 		movq	%fs:40, %rax
 1625      25280000 
 1625      00
 1626 0a73 488945E8 		movq	%rax, -24(%rbp)
 1627 0a77 31C0     		xorl	%eax, %eax
 282:/home/brendan/Dropbox/PhD/Code/LBM/2D LBFS/src/program.cpp **** 
 283:/home/brendan/Dropbox/PhD/Code/LBM/2D LBFS/src/program.cpp ****     std::string output_location;
 1628              		.loc 4 283 0
 1629 0a79 488D8540 		leaq	-704(%rbp), %rax
 1629      FDFFFF
 1630 0a80 4889C7   		movq	%rax, %rdi
 1631 0a83 E8000000 		call	_ZNSt7__cxx1112basic_stringIcSt11char_traitsIcESaIcEEC1Ev
 1631      00
 284:/home/brendan/Dropbox/PhD/Code/LBM/2D LBFS/src/program.cpp ****     std::string filename;
 1632              		.loc 4 284 0
 1633 0a88 488D8560 		leaq	-672(%rbp), %rax
 1633      FDFFFF
 1634 0a8f 4889C7   		movq	%rax, %rdi
 1635 0a92 E8000000 		call	_ZNSt7__cxx1112basic_stringIcSt11char_traitsIcESaIcEEC1Ev
GAS LISTING /tmp/ccGYUW7A.s 			page 44


 1635      00
 285:/home/brendan/Dropbox/PhD/Code/LBM/2D LBFS/src/program.cpp ****     std::ofstream globals_txt ;
 1636              		.loc 4 285 0
 1637 0a97 488D85E0 		leaq	-544(%rbp), %rax
 1637      FDFFFF
 1638 0a9e 4889C7   		movq	%rax, %rdi
 1639              	.LEHB31:
 1640 0aa1 E8000000 		call	_ZNSt14basic_ofstreamIcSt11char_traitsIcEEC1Ev
 1640      00
 1641              	.LEHE31:
 286:/home/brendan/Dropbox/PhD/Code/LBM/2D LBFS/src/program.cpp ****     std::string globals_file;
 1642              		.loc 4 286 0
 1643 0aa6 488D8580 		leaq	-640(%rbp), %rax
 1643      FDFFFF
 1644 0aad 4889C7   		movq	%rax, %rdi
 1645 0ab0 E8000000 		call	_ZNSt7__cxx1112basic_stringIcSt11char_traitsIcESaIcEEC1Ev
 1645      00
 287:/home/brendan/Dropbox/PhD/Code/LBM/2D LBFS/src/program.cpp ****     output_location = globals.output_file;
 1646              		.loc 4 287 0
 1647 0ab5 488B8520 		movq	-736(%rbp), %rax
 1647      FDFFFF
 1648 0abc 488D90D8 		leaq	216(%rax), %rdx
 1648      000000
 1649 0ac3 488D8540 		leaq	-704(%rbp), %rax
 1649      FDFFFF
 1650 0aca 4889D6   		movq	%rdx, %rsi
 1651 0acd 4889C7   		movq	%rax, %rdi
 1652              	.LEHB32:
 1653 0ad0 E8000000 		call	_ZNSt7__cxx1112basic_stringIcSt11char_traitsIcESaIcEEaSERKS4_
 1653      00
 288:/home/brendan/Dropbox/PhD/Code/LBM/2D LBFS/src/program.cpp ****     filename = globals.simulation_name;
 1654              		.loc 4 288 0
 1655 0ad5 488B8520 		movq	-736(%rbp), %rax
 1655      FDFFFF
 1656 0adc 488D90B8 		leaq	184(%rax), %rdx
 1656      000000
 1657 0ae3 488D8560 		leaq	-672(%rbp), %rax
 1657      FDFFFF
 1658 0aea 4889D6   		movq	%rdx, %rsi
 1659 0aed 4889C7   		movq	%rax, %rdi
 1660 0af0 E8000000 		call	_ZNSt7__cxx1112basic_stringIcSt11char_traitsIcESaIcEEaSERKS4_
 1660      00
 289:/home/brendan/Dropbox/PhD/Code/LBM/2D LBFS/src/program.cpp ****     globals_file = output_location + "/globals.txt";
 1661              		.loc 4 289 0
 1662 0af5 488D85A0 		leaq	-608(%rbp), %rax
 1662      FDFFFF
 1663 0afc 488D8D40 		leaq	-704(%rbp), %rcx
 1663      FDFFFF
 1664 0b03 BA000000 		movl	$.LC3, %edx
 1664      00
 1665 0b08 4889CE   		movq	%rcx, %rsi
 1666 0b0b 4889C7   		movq	%rax, %rdi
 1667 0b0e E8000000 		call	_ZStplIcSt11char_traitsIcESaIcEENSt7__cxx1112basic_stringIT_T0_T1_EERKS8_PKS5_
 1667      00
 1668              	.LEHE32:
 1669              		.loc 4 289 0 is_stmt 0 discriminator 1
 1670 0b13 488D95A0 		leaq	-608(%rbp), %rdx
GAS LISTING /tmp/ccGYUW7A.s 			page 45


 1670      FDFFFF
 1671 0b1a 488D8580 		leaq	-640(%rbp), %rax
 1671      FDFFFF
 1672 0b21 4889D6   		movq	%rdx, %rsi
 1673 0b24 4889C7   		movq	%rax, %rdi
 1674              	.LEHB33:
 1675 0b27 E8000000 		call	_ZNSt7__cxx1112basic_stringIcSt11char_traitsIcESaIcEEaSEOS4_
 1675      00
 1676              	.LEHE33:
 1677              		.loc 4 289 0 discriminator 3
 1678 0b2c 488D85A0 		leaq	-608(%rbp), %rax
 1678      FDFFFF
 1679 0b33 4889C7   		movq	%rax, %rdi
 1680 0b36 E8000000 		call	_ZNSt7__cxx1112basic_stringIcSt11char_traitsIcESaIcEED1Ev
 1680      00
 290:/home/brendan/Dropbox/PhD/Code/LBM/2D LBFS/src/program.cpp ****     double cycles;
 291:/home/brendan/Dropbox/PhD/Code/LBM/2D LBFS/src/program.cpp **** 
 292:/home/brendan/Dropbox/PhD/Code/LBM/2D LBFS/src/program.cpp ****     cycles = duration * CLOCKS_PER_SEC;
 1681              		.loc 4 292 0 is_stmt 1 discriminator 3
 1682 0b3b F20F108D 		movsd	-744(%rbp), %xmm1
 1682      18FDFFFF 
 1683 0b43 F20F1005 		movsd	.LC1(%rip), %xmm0
 1683      00000000 
 1684 0b4b F20F59C1 		mulsd	%xmm1, %xmm0
 1685 0b4f F20F1185 		movsd	%xmm0, -712(%rbp)
 1685      38FDFFFF 
 293:/home/brendan/Dropbox/PhD/Code/LBM/2D LBFS/src/program.cpp **** /// Generic Load Case Input
 294:/home/brendan/Dropbox/PhD/Code/LBM/2D LBFS/src/program.cpp **** 
 295:/home/brendan/Dropbox/PhD/Code/LBM/2D LBFS/src/program.cpp ****     globals_txt.open(globals_file.c_str(), ios::out);
 1686              		.loc 4 295 0 discriminator 3
 1687 0b57 488D8580 		leaq	-640(%rbp), %rax
 1687      FDFFFF
 1688 0b5e 4889C7   		movq	%rax, %rdi
 1689 0b61 E8000000 		call	_ZNKSt7__cxx1112basic_stringIcSt11char_traitsIcESaIcEE5c_strEv
 1689      00
 1690 0b66 4889C1   		movq	%rax, %rcx
 1691 0b69 488D85E0 		leaq	-544(%rbp), %rax
 1691      FDFFFF
 1692 0b70 BA100000 		movl	$16, %edx
 1692      00
 1693 0b75 4889CE   		movq	%rcx, %rsi
 1694 0b78 4889C7   		movq	%rax, %rdi
 1695              	.LEHB34:
 1696 0b7b E8000000 		call	_ZNSt14basic_ofstreamIcSt11char_traitsIcEE4openEPKcSt13_Ios_Openmode
 1696      00
 296:/home/brendan/Dropbox/PhD/Code/LBM/2D LBFS/src/program.cpp **** 
 297:/home/brendan/Dropbox/PhD/Code/LBM/2D LBFS/src/program.cpp ****     globals_txt << "Runtime:" << duration << "s" << endl;
 1697              		.loc 4 297 0
 1698 0b80 488D85E0 		leaq	-544(%rbp), %rax
 1698      FDFFFF
 1699 0b87 BE000000 		movl	$.LC4, %esi
 1699      00
 1700 0b8c 4889C7   		movq	%rax, %rdi
 1701 0b8f E8000000 		call	_ZStlsISt11char_traitsIcEERSt13basic_ostreamIcT_ES5_PKc
 1701      00
 1702 0b94 4889C2   		movq	%rax, %rdx
 1703 0b97 488B8518 		movq	-744(%rbp), %rax
GAS LISTING /tmp/ccGYUW7A.s 			page 46


 1703      FDFFFF
 1704 0b9e 48898510 		movq	%rax, -752(%rbp)
 1704      FDFFFF
 1705 0ba5 F20F1085 		movsd	-752(%rbp), %xmm0
 1705      10FDFFFF 
 1706 0bad 4889D7   		movq	%rdx, %rdi
 1707 0bb0 E8000000 		call	_ZNSolsEd
 1707      00
 1708              		.loc 4 297 0 is_stmt 0 discriminator 1
 1709 0bb5 BE000000 		movl	$.LC5, %esi
 1709      00
 1710 0bba 4889C7   		movq	%rax, %rdi
 1711 0bbd E8000000 		call	_ZStlsISt11char_traitsIcEERSt13basic_ostreamIcT_ES5_PKc
 1711      00
 1712              		.loc 4 297 0 discriminator 2
 1713 0bc2 BE000000 		movl	$_ZSt4endlIcSt11char_traitsIcEERSt13basic_ostreamIT_T0_ES6_, %esi
 1713      00
 1714 0bc7 4889C7   		movq	%rax, %rdi
 1715 0bca E8000000 		call	_ZNSolsEPFRSoS_E
 1715      00
 298:/home/brendan/Dropbox/PhD/Code/LBM/2D LBFS/src/program.cpp ****     globals_txt << "CPU Cycles:" << cycles << endl;
 1716              		.loc 4 298 0 is_stmt 1
 1717 0bcf 488D85E0 		leaq	-544(%rbp), %rax
 1717      FDFFFF
 1718 0bd6 BE000000 		movl	$.LC2, %esi
 1718      00
 1719 0bdb 4889C7   		movq	%rax, %rdi
 1720 0bde E8000000 		call	_ZStlsISt11char_traitsIcEERSt13basic_ostreamIcT_ES5_PKc
 1720      00
 1721 0be3 4889C2   		movq	%rax, %rdx
 1722 0be6 488B8538 		movq	-712(%rbp), %rax
 1722      FDFFFF
 1723 0bed 48898510 		movq	%rax, -752(%rbp)
 1723      FDFFFF
 1724 0bf4 F20F1085 		movsd	-752(%rbp), %xmm0
 1724      10FDFFFF 
 1725 0bfc 4889D7   		movq	%rdx, %rdi
 1726 0bff E8000000 		call	_ZNSolsEd
 1726      00
 1727              		.loc 4 298 0 is_stmt 0 discriminator 1
 1728 0c04 BE000000 		movl	$_ZSt4endlIcSt11char_traitsIcEERSt13basic_ostreamIT_T0_ES6_, %esi
 1728      00
 1729 0c09 4889C7   		movq	%rax, %rdi
 1730 0c0c E8000000 		call	_ZNSolsEPFRSoS_E
 1730      00
 299:/home/brendan/Dropbox/PhD/Code/LBM/2D LBFS/src/program.cpp ****     globals_txt << "File:" << filename.c_str()  << endl;
 1731              		.loc 4 299 0 is_stmt 1
 1732 0c11 488D8560 		leaq	-672(%rbp), %rax
 1732      FDFFFF
 1733 0c18 4889C7   		movq	%rax, %rdi
 1734 0c1b E8000000 		call	_ZNKSt7__cxx1112basic_stringIcSt11char_traitsIcESaIcEE5c_strEv
 1734      00
 1735 0c20 4889C3   		movq	%rax, %rbx
 1736 0c23 488D85E0 		leaq	-544(%rbp), %rax
 1736      FDFFFF
 1737 0c2a BE000000 		movl	$.LC6, %esi
 1737      00
GAS LISTING /tmp/ccGYUW7A.s 			page 47


 1738 0c2f 4889C7   		movq	%rax, %rdi
 1739 0c32 E8000000 		call	_ZStlsISt11char_traitsIcEERSt13basic_ostreamIcT_ES5_PKc
 1739      00
 1740 0c37 4889DE   		movq	%rbx, %rsi
 1741 0c3a 4889C7   		movq	%rax, %rdi
 1742 0c3d E8000000 		call	_ZStlsISt11char_traitsIcEERSt13basic_ostreamIcT_ES5_PKc
 1742      00
 1743              		.loc 4 299 0 is_stmt 0 discriminator 1
 1744 0c42 BE000000 		movl	$_ZSt4endlIcSt11char_traitsIcEERSt13basic_ostreamIT_T0_ES6_, %esi
 1744      00
 1745 0c47 4889C7   		movq	%rax, %rdi
 1746 0c4a E8000000 		call	_ZNSolsEPFRSoS_E
 1746      00
 300:/home/brendan/Dropbox/PhD/Code/LBM/2D LBFS/src/program.cpp **** 
 301:/home/brendan/Dropbox/PhD/Code/LBM/2D LBFS/src/program.cpp ****     globals_txt << "Tau:"  << globals.tau << endl;
 1747              		.loc 4 301 0 is_stmt 1
 1748 0c4f 488B8520 		movq	-736(%rbp), %rax
 1748      FDFFFF
 1749 0c56 488B5860 		movq	96(%rax), %rbx
 1750 0c5a 488D85E0 		leaq	-544(%rbp), %rax
 1750      FDFFFF
 1751 0c61 BE000000 		movl	$.LC7, %esi
 1751      00
 1752 0c66 4889C7   		movq	%rax, %rdi
 1753 0c69 E8000000 		call	_ZStlsISt11char_traitsIcEERSt13basic_ostreamIcT_ES5_PKc
 1753      00
 1754 0c6e 48899D10 		movq	%rbx, -752(%rbp)
 1754      FDFFFF
 1755 0c75 F20F1085 		movsd	-752(%rbp), %xmm0
 1755      10FDFFFF 
 1756 0c7d 4889C7   		movq	%rax, %rdi
 1757 0c80 E8000000 		call	_ZNSolsEd
 1757      00
 1758              		.loc 4 301 0 is_stmt 0 discriminator 1
 1759 0c85 BE000000 		movl	$_ZSt4endlIcSt11char_traitsIcEERSt13basic_ostreamIT_T0_ES6_, %esi
 1759      00
 1760 0c8a 4889C7   		movq	%rax, %rdi
 1761 0c8d E8000000 		call	_ZNSolsEPFRSoS_E
 1761      00
 302:/home/brendan/Dropbox/PhD/Code/LBM/2D LBFS/src/program.cpp ****     globals_txt << "Mach" << globals.mach_number << endl;
 1762              		.loc 4 302 0 is_stmt 1
 1763 0c92 488B8520 		movq	-736(%rbp), %rax
 1763      FDFFFF
 1764 0c99 488B5850 		movq	80(%rax), %rbx
 1765 0c9d 488D85E0 		leaq	-544(%rbp), %rax
 1765      FDFFFF
 1766 0ca4 BE000000 		movl	$.LC8, %esi
 1766      00
 1767 0ca9 4889C7   		movq	%rax, %rdi
 1768 0cac E8000000 		call	_ZStlsISt11char_traitsIcEERSt13basic_ostreamIcT_ES5_PKc
 1768      00
 1769 0cb1 48899D10 		movq	%rbx, -752(%rbp)
 1769      FDFFFF
 1770 0cb8 F20F1085 		movsd	-752(%rbp), %xmm0
 1770      10FDFFFF 
 1771 0cc0 4889C7   		movq	%rax, %rdi
 1772 0cc3 E8000000 		call	_ZNSolsEd
GAS LISTING /tmp/ccGYUW7A.s 			page 48


 1772      00
 1773              		.loc 4 302 0 is_stmt 0 discriminator 1
 1774 0cc8 BE000000 		movl	$_ZSt4endlIcSt11char_traitsIcEERSt13basic_ostreamIT_T0_ES6_, %esi
 1774      00
 1775 0ccd 4889C7   		movq	%rax, %rdi
 1776 0cd0 E8000000 		call	_ZNSolsEPFRSoS_E
 1776      00
 303:/home/brendan/Dropbox/PhD/Code/LBM/2D LBFS/src/program.cpp ****     globals_txt << "Reynolds" << globals.reynolds_number << endl;
 1777              		.loc 4 303 0 is_stmt 1
 1778 0cd5 488B8520 		movq	-736(%rbp), %rax
 1778      FDFFFF
 1779 0cdc 488B5848 		movq	72(%rax), %rbx
 1780 0ce0 488D85E0 		leaq	-544(%rbp), %rax
 1780      FDFFFF
 1781 0ce7 BE000000 		movl	$.LC9, %esi
 1781      00
 1782 0cec 4889C7   		movq	%rax, %rdi
 1783 0cef E8000000 		call	_ZStlsISt11char_traitsIcEERSt13basic_ostreamIcT_ES5_PKc
 1783      00
 1784 0cf4 48899D10 		movq	%rbx, -752(%rbp)
 1784      FDFFFF
 1785 0cfb F20F1085 		movsd	-752(%rbp), %xmm0
 1785      10FDFFFF 
 1786 0d03 4889C7   		movq	%rax, %rdi
 1787 0d06 E8000000 		call	_ZNSolsEd
 1787      00
 1788              		.loc 4 303 0 is_stmt 0 discriminator 1
 1789 0d0b BE000000 		movl	$_ZSt4endlIcSt11char_traitsIcEERSt13basic_ostreamIT_T0_ES6_, %esi
 1789      00
 1790 0d10 4889C7   		movq	%rax, %rdi
 1791 0d13 E8000000 		call	_ZNSolsEPFRSoS_E
 1791      00
 1792              	.LEHE34:
 304:/home/brendan/Dropbox/PhD/Code/LBM/2D LBFS/src/program.cpp **** 
 305:/home/brendan/Dropbox/PhD/Code/LBM/2D LBFS/src/program.cpp ****     std::string reynolds_text;
 1793              		.loc 4 305 0 is_stmt 1
 1794 0d18 488D85C0 		leaq	-576(%rbp), %rax
 1794      FDFFFF
 1795 0d1f 4889C7   		movq	%rax, %rdi
 1796 0d22 E8000000 		call	_ZNSt7__cxx1112basic_stringIcSt11char_traitsIcESaIcEEC1Ev
 1796      00
 306:/home/brendan/Dropbox/PhD/Code/LBM/2D LBFS/src/program.cpp ****     reynolds_text = globals.reynolds_number;
 1797              		.loc 4 306 0
 1798 0d27 488B8520 		movq	-736(%rbp), %rax
 1798      FDFFFF
 1799 0d2e F20F1040 		movsd	72(%rax), %xmm0
 1799      48
 1800 0d33 F20F2CC0 		cvttsd2si	%xmm0, %eax
 1801 0d37 0FBED0   		movsbl	%al, %edx
 1802 0d3a 488D85C0 		leaq	-576(%rbp), %rax
 1802      FDFFFF
 1803 0d41 89D6     		movl	%edx, %esi
 1804 0d43 4889C7   		movq	%rax, %rdi
 1805              	.LEHB35:
 1806 0d46 E8000000 		call	_ZNSt7__cxx1112basic_stringIcSt11char_traitsIcESaIcEEaSEc
 1806      00
 307:/home/brendan/Dropbox/PhD/Code/LBM/2D LBFS/src/program.cpp **** 
GAS LISTING /tmp/ccGYUW7A.s 			page 49


 308:/home/brendan/Dropbox/PhD/Code/LBM/2D LBFS/src/program.cpp ****     globals_txt.close();
 1807              		.loc 4 308 0
 1808 0d4b 488D85E0 		leaq	-544(%rbp), %rax
 1808      FDFFFF
 1809 0d52 4889C7   		movq	%rax, %rdi
 1810 0d55 E8000000 		call	_ZNSt14basic_ofstreamIcSt11char_traitsIcEE5closeEv
 1810      00
 1811              	.LEHE35:
 305:/home/brendan/Dropbox/PhD/Code/LBM/2D LBFS/src/program.cpp ****     reynolds_text = globals.reynolds_number;
 1812              		.loc 4 305 0
 1813 0d5a 488D85C0 		leaq	-576(%rbp), %rax
 1813      FDFFFF
 1814 0d61 4889C7   		movq	%rax, %rdi
 1815 0d64 E8000000 		call	_ZNSt7__cxx1112basic_stringIcSt11char_traitsIcESaIcEED1Ev
 1815      00
 286:/home/brendan/Dropbox/PhD/Code/LBM/2D LBFS/src/program.cpp ****     output_location = globals.output_file;
 1816              		.loc 4 286 0
 1817 0d69 488D8580 		leaq	-640(%rbp), %rax
 1817      FDFFFF
 1818 0d70 4889C7   		movq	%rax, %rdi
 1819 0d73 E8000000 		call	_ZNSt7__cxx1112basic_stringIcSt11char_traitsIcESaIcEED1Ev
 1819      00
 285:/home/brendan/Dropbox/PhD/Code/LBM/2D LBFS/src/program.cpp ****     std::string globals_file;
 1820              		.loc 4 285 0
 1821 0d78 488D85E0 		leaq	-544(%rbp), %rax
 1821      FDFFFF
 1822 0d7f 4889C7   		movq	%rax, %rdi
 1823 0d82 E8000000 		call	_ZNSt14basic_ofstreamIcSt11char_traitsIcEED1Ev
 1823      00
 284:/home/brendan/Dropbox/PhD/Code/LBM/2D LBFS/src/program.cpp ****     std::ofstream globals_txt ;
 1824              		.loc 4 284 0
 1825 0d87 488D8560 		leaq	-672(%rbp), %rax
 1825      FDFFFF
 1826 0d8e 4889C7   		movq	%rax, %rdi
 1827 0d91 E8000000 		call	_ZNSt7__cxx1112basic_stringIcSt11char_traitsIcESaIcEED1Ev
 1827      00
 283:/home/brendan/Dropbox/PhD/Code/LBM/2D LBFS/src/program.cpp ****     std::string filename;
 1828              		.loc 4 283 0
 1829 0d96 488D8540 		leaq	-704(%rbp), %rax
 1829      FDFFFF
 1830 0d9d 4889C7   		movq	%rax, %rdi
 1831 0da0 E8000000 		call	_ZNSt7__cxx1112basic_stringIcSt11char_traitsIcESaIcEED1Ev
 1831      00
 309:/home/brendan/Dropbox/PhD/Code/LBM/2D LBFS/src/program.cpp **** 
 310:/home/brendan/Dropbox/PhD/Code/LBM/2D LBFS/src/program.cpp **** 
 311:/home/brendan/Dropbox/PhD/Code/LBM/2D LBFS/src/program.cpp **** }
 1832              		.loc 4 311 0
 1833 0da5 90       		nop
 1834 0da6 488B45E8 		movq	-24(%rbp), %rax
 1835 0daa 64483304 		xorq	%fs:40, %rax
 1835      25280000 
 1835      00
 1836 0db3 747E     		je	.L76
 1837 0db5 EB77     		jmp	.L81
 1838              	.L79:
 1839 0db7 4889C3   		movq	%rax, %rbx
 289:/home/brendan/Dropbox/PhD/Code/LBM/2D LBFS/src/program.cpp ****     double cycles;
GAS LISTING /tmp/ccGYUW7A.s 			page 50


 1840              		.loc 4 289 0
 1841 0dba 488D85A0 		leaq	-608(%rbp), %rax
 1841      FDFFFF
 1842 0dc1 4889C7   		movq	%rax, %rdi
 1843 0dc4 E8000000 		call	_ZNSt7__cxx1112basic_stringIcSt11char_traitsIcESaIcEED1Ev
 1843      00
 1844 0dc9 EB17     		jmp	.L73
 1845              	.L80:
 1846 0dcb 4889C3   		movq	%rax, %rbx
 305:/home/brendan/Dropbox/PhD/Code/LBM/2D LBFS/src/program.cpp ****     reynolds_text = globals.reynolds_number;
 1847              		.loc 4 305 0
 1848 0dce 488D85C0 		leaq	-576(%rbp), %rax
 1848      FDFFFF
 1849 0dd5 4889C7   		movq	%rax, %rdi
 1850 0dd8 E8000000 		call	_ZNSt7__cxx1112basic_stringIcSt11char_traitsIcESaIcEED1Ev
 1850      00
 1851 0ddd EB03     		jmp	.L73
 1852              	.L78:
 1853 0ddf 4889C3   		movq	%rax, %rbx
 1854              	.L73:
 286:/home/brendan/Dropbox/PhD/Code/LBM/2D LBFS/src/program.cpp ****     output_location = globals.output_file;
 1855              		.loc 4 286 0
 1856 0de2 488D8580 		leaq	-640(%rbp), %rax
 1856      FDFFFF
 1857 0de9 4889C7   		movq	%rax, %rdi
 1858 0dec E8000000 		call	_ZNSt7__cxx1112basic_stringIcSt11char_traitsIcESaIcEED1Ev
 1858      00
 285:/home/brendan/Dropbox/PhD/Code/LBM/2D LBFS/src/program.cpp ****     std::string globals_file;
 1859              		.loc 4 285 0
 1860 0df1 488D85E0 		leaq	-544(%rbp), %rax
 1860      FDFFFF
 1861 0df8 4889C7   		movq	%rax, %rdi
 1862 0dfb E8000000 		call	_ZNSt14basic_ofstreamIcSt11char_traitsIcEED1Ev
 1862      00
 1863 0e00 EB03     		jmp	.L75
 1864              	.L77:
 1865 0e02 4889C3   		movq	%rax, %rbx
 1866              	.L75:
 284:/home/brendan/Dropbox/PhD/Code/LBM/2D LBFS/src/program.cpp ****     std::ofstream globals_txt ;
 1867              		.loc 4 284 0
 1868 0e05 488D8560 		leaq	-672(%rbp), %rax
 1868      FDFFFF
 1869 0e0c 4889C7   		movq	%rax, %rdi
 1870 0e0f E8000000 		call	_ZNSt7__cxx1112basic_stringIcSt11char_traitsIcESaIcEED1Ev
 1870      00
 283:/home/brendan/Dropbox/PhD/Code/LBM/2D LBFS/src/program.cpp ****     std::string filename;
 1871              		.loc 4 283 0
 1872 0e14 488D8540 		leaq	-704(%rbp), %rax
 1872      FDFFFF
 1873 0e1b 4889C7   		movq	%rax, %rdi
 1874 0e1e E8000000 		call	_ZNSt7__cxx1112basic_stringIcSt11char_traitsIcESaIcEED1Ev
 1874      00
 1875 0e23 4889D8   		movq	%rbx, %rax
 1876 0e26 4889C7   		movq	%rax, %rdi
 1877              	.LEHB36:
 1878 0e29 E8000000 		call	_Unwind_Resume
 1878      00
GAS LISTING /tmp/ccGYUW7A.s 			page 51


 1879              	.LEHE36:
 1880              	.L81:
 1881              		.loc 4 311 0
 1882 0e2e E8000000 		call	__stack_chk_fail
 1882      00
 1883              	.L76:
 1884 0e33 4881C4E8 		addq	$744, %rsp
 1884      020000
 1885 0e3a 5B       		popq	%rbx
 1886 0e3b 5D       		popq	%rbp
 1887              		.cfi_def_cfa 7, 8
 1888 0e3c C3       		ret
 1889              		.cfi_endproc
 1890              	.LFE2190:
 1891              		.section	.gcc_except_table
 1892              	.LLSDA2190:
 1893 009b FF       		.byte	0xff
 1894 009c FF       		.byte	0xff
 1895 009d 01       		.byte	0x1
 1896 009e 23       		.uleb128 .LLSDACSE2190-.LLSDACSB2190
 1897              	.LLSDACSB2190:
 1898 009f 59       		.uleb128 .LEHB31-.LFB2190
 1899 00a0 05       		.uleb128 .LEHE31-.LEHB31
 1900 00a1 BA07     		.uleb128 .L77-.LFB2190
 1901 00a3 00       		.uleb128 0
 1902 00a4 8801     		.uleb128 .LEHB32-.LFB2190
 1903 00a6 43       		.uleb128 .LEHE32-.LEHB32
 1904 00a7 9707     		.uleb128 .L78-.LFB2190
 1905 00a9 00       		.uleb128 0
 1906 00aa DF01     		.uleb128 .LEHB33-.LFB2190
 1907 00ac 05       		.uleb128 .LEHE33-.LEHB33
 1908 00ad EF06     		.uleb128 .L79-.LFB2190
 1909 00af 00       		.uleb128 0
 1910 00b0 B302     		.uleb128 .LEHB34-.LFB2190
 1911 00b2 9D03     		.uleb128 .LEHE34-.LEHB34
 1912 00b4 9707     		.uleb128 .L78-.LFB2190
 1913 00b6 00       		.uleb128 0
 1914 00b7 FE05     		.uleb128 .LEHB35-.LFB2190
 1915 00b9 14       		.uleb128 .LEHE35-.LEHB35
 1916 00ba 8307     		.uleb128 .L80-.LFB2190
 1917 00bc 00       		.uleb128 0
 1918 00bd E107     		.uleb128 .LEHB36-.LFB2190
 1919 00bf 05       		.uleb128 .LEHE36-.LEHB36
 1920 00c0 00       		.uleb128 0
 1921 00c1 00       		.uleb128 0
 1922              	.LLSDACSE2190:
 1923              		.text
 1925              		.section	.rodata
 1926              	.LC10:
 1927 0065 2F696E70 		.string	"/input.xml"
 1927      75742E78 
 1927      6D6C00
 1928              		.text
 1929 0e3d 90       		.align 2
 1930              		.globl	_ZN7program8copyfileEPcNSt7__cxx1112basic_stringIcSt11char_traitsIcESaIcEEE
 1932              	_ZN7program8copyfileEPcNSt7__cxx1112basic_stringIcSt11char_traitsIcESaIcEEE:
 1933              	.LFB2191:
GAS LISTING /tmp/ccGYUW7A.s 			page 52


 312:/home/brendan/Dropbox/PhD/Code/LBM/2D LBFS/src/program.cpp **** 
 313:/home/brendan/Dropbox/PhD/Code/LBM/2D LBFS/src/program.cpp **** 
 314:/home/brendan/Dropbox/PhD/Code/LBM/2D LBFS/src/program.cpp ****     // copy in binary mode
 315:/home/brendan/Dropbox/PhD/Code/LBM/2D LBFS/src/program.cpp **** void program::copyfile( char* SRC,  std::string  DEST)
 316:/home/brendan/Dropbox/PhD/Code/LBM/2D LBFS/src/program.cpp **** {
 1934              		.loc 4 316 0
 1935              		.cfi_startproc
 1936              		.cfi_personality 0x3,__gxx_personality_v0
 1937              		.cfi_lsda 0x3,.LLSDA2191
 1938 0e3e 55       		pushq	%rbp
 1939              		.cfi_def_cfa_offset 16
 1940              		.cfi_offset 6, -16
 1941 0e3f 4889E5   		movq	%rsp, %rbp
 1942              		.cfi_def_cfa_register 6
 1943 0e42 53       		pushq	%rbx
 1944 0e43 4881EC38 		subq	$1080, %rsp
 1944      040000
 1945              		.cfi_offset 3, -24
 1946 0e4a 4889BDD8 		movq	%rdi, -1064(%rbp)
 1946      FBFFFF
 1947 0e51 4889B5D0 		movq	%rsi, -1072(%rbp)
 1947      FBFFFF
 1948 0e58 488995C8 		movq	%rdx, -1080(%rbp)
 1948      FBFFFF
 1949              		.loc 4 316 0
 1950 0e5f 64488B04 		movq	%fs:40, %rax
 1950      25280000 
 1950      00
 1951 0e68 488945E8 		movq	%rax, -24(%rbp)
 1952 0e6c 31C0     		xorl	%eax, %eax
 317:/home/brendan/Dropbox/PhD/Code/LBM/2D LBFS/src/program.cpp ****     DEST.append("/input.xml");
 1953              		.loc 4 317 0
 1954 0e6e 488B85C8 		movq	-1080(%rbp), %rax
 1954      FBFFFF
 1955 0e75 BE000000 		movl	$.LC10, %esi
 1955      00
 1956 0e7a 4889C7   		movq	%rax, %rdi
 1957              	.LEHB37:
 1958 0e7d E8000000 		call	_ZNSt7__cxx1112basic_stringIcSt11char_traitsIcESaIcEE6appendEPKc
 1958      00
 318:/home/brendan/Dropbox/PhD/Code/LBM/2D LBFS/src/program.cpp **** 
 319:/home/brendan/Dropbox/PhD/Code/LBM/2D LBFS/src/program.cpp ****     std::ifstream src(SRC, std::ios::binary);
 1959              		.loc 4 319 0
 1960 0e82 488B8DD0 		movq	-1072(%rbp), %rcx
 1960      FBFFFF
 1961 0e89 488D85E0 		leaq	-544(%rbp), %rax
 1961      FDFFFF
 1962 0e90 BA040000 		movl	$4, %edx
 1962      00
 1963 0e95 4889CE   		movq	%rcx, %rsi
 1964 0e98 4889C7   		movq	%rax, %rdi
 1965 0e9b E8000000 		call	_ZNSt14basic_ifstreamIcSt11char_traitsIcEEC1EPKcSt13_Ios_Openmode
 1965      00
 1966              	.LEHE37:
 320:/home/brendan/Dropbox/PhD/Code/LBM/2D LBFS/src/program.cpp ****     std::ofstream dest(DEST, std::ios::binary);
 1967              		.loc 4 320 0
 1968 0ea0 488B8DC8 		movq	-1080(%rbp), %rcx
GAS LISTING /tmp/ccGYUW7A.s 			page 53


 1968      FBFFFF
 1969 0ea7 488D85E0 		leaq	-1056(%rbp), %rax
 1969      FBFFFF
 1970 0eae BA040000 		movl	$4, %edx
 1970      00
 1971 0eb3 4889CE   		movq	%rcx, %rsi
 1972 0eb6 4889C7   		movq	%rax, %rdi
 1973              	.LEHB38:
 1974 0eb9 E8000000 		call	_ZNSt14basic_ofstreamIcSt11char_traitsIcEEC1ERKNSt7__cxx1112basic_stringIcS1_SaIcEEESt13_Ios_
 1974      00
 1975              	.LEHE38:
 321:/home/brendan/Dropbox/PhD/Code/LBM/2D LBFS/src/program.cpp ****     dest << src.rdbuf();
 1976              		.loc 4 321 0
 1977 0ebe 488D85E0 		leaq	-544(%rbp), %rax
 1977      FDFFFF
 1978 0ec5 4889C7   		movq	%rax, %rdi
 1979              	.LEHB39:
 1980 0ec8 E8000000 		call	_ZNKSt14basic_ifstreamIcSt11char_traitsIcEE5rdbufEv
 1980      00
 1981 0ecd 4889C2   		movq	%rax, %rdx
 1982 0ed0 488D85E0 		leaq	-1056(%rbp), %rax
 1982      FBFFFF
 1983 0ed7 4889D6   		movq	%rdx, %rsi
 1984 0eda 4889C7   		movq	%rax, %rdi
 1985 0edd E8000000 		call	_ZNSolsEPSt15basic_streambufIcSt11char_traitsIcEE
 1985      00
 1986              	.LEHE39:
 320:/home/brendan/Dropbox/PhD/Code/LBM/2D LBFS/src/program.cpp ****     std::ofstream dest(DEST, std::ios::binary);
 1987              		.loc 4 320 0
 1988 0ee2 488D85E0 		leaq	-1056(%rbp), %rax
 1988      FBFFFF
 1989 0ee9 4889C7   		movq	%rax, %rdi
 1990 0eec E8000000 		call	_ZNSt14basic_ofstreamIcSt11char_traitsIcEED1Ev
 1990      00
 319:/home/brendan/Dropbox/PhD/Code/LBM/2D LBFS/src/program.cpp ****     std::ofstream dest(DEST, std::ios::binary);
 1991              		.loc 4 319 0
 1992 0ef1 488D85E0 		leaq	-544(%rbp), %rax
 1992      FDFFFF
 1993 0ef8 4889C7   		movq	%rax, %rdi
 1994 0efb E8000000 		call	_ZNSt14basic_ifstreamIcSt11char_traitsIcEED1Ev
 1994      00
 322:/home/brendan/Dropbox/PhD/Code/LBM/2D LBFS/src/program.cpp **** 
 323:/home/brendan/Dropbox/PhD/Code/LBM/2D LBFS/src/program.cpp **** }
 1995              		.loc 4 323 0
 1996 0f00 90       		nop
 1997 0f01 488B45E8 		movq	-24(%rbp), %rax
 1998 0f05 64483304 		xorq	%fs:40, %rax
 1998      25280000 
 1998      00
 1999 0f0e 7438     		je	.L85
 2000 0f10 EB31     		jmp	.L88
 2001              	.L87:
 2002 0f12 4889C3   		movq	%rax, %rbx
 320:/home/brendan/Dropbox/PhD/Code/LBM/2D LBFS/src/program.cpp ****     dest << src.rdbuf();
 2003              		.loc 4 320 0
 2004 0f15 488D85E0 		leaq	-1056(%rbp), %rax
 2004      FBFFFF
GAS LISTING /tmp/ccGYUW7A.s 			page 54


 2005 0f1c 4889C7   		movq	%rax, %rdi
 2006 0f1f E8000000 		call	_ZNSt14basic_ofstreamIcSt11char_traitsIcEED1Ev
 2006      00
 2007 0f24 EB03     		jmp	.L84
 2008              	.L86:
 2009 0f26 4889C3   		movq	%rax, %rbx
 2010              	.L84:
 319:/home/brendan/Dropbox/PhD/Code/LBM/2D LBFS/src/program.cpp ****     std::ofstream dest(DEST, std::ios::binary);
 2011              		.loc 4 319 0
 2012 0f29 488D85E0 		leaq	-544(%rbp), %rax
 2012      FDFFFF
 2013 0f30 4889C7   		movq	%rax, %rdi
 2014 0f33 E8000000 		call	_ZNSt14basic_ifstreamIcSt11char_traitsIcEED1Ev
 2014      00
 2015 0f38 4889D8   		movq	%rbx, %rax
 2016 0f3b 4889C7   		movq	%rax, %rdi
 2017              	.LEHB40:
 2018 0f3e E8000000 		call	_Unwind_Resume
 2018      00
 2019              	.LEHE40:
 2020              	.L88:
 2021              		.loc 4 323 0
 2022 0f43 E8000000 		call	__stack_chk_fail
 2022      00
 2023              	.L85:
 2024 0f48 4881C438 		addq	$1080, %rsp
 2024      040000
 2025 0f4f 5B       		popq	%rbx
 2026 0f50 5D       		popq	%rbp
 2027              		.cfi_def_cfa 7, 8
 2028 0f51 C3       		ret
 2029              		.cfi_endproc
 2030              	.LFE2191:
 2031              		.section	.gcc_except_table
 2032              	.LLSDA2191:
 2033 00c2 FF       		.byte	0xff
 2034 00c3 FF       		.byte	0xff
 2035 00c4 01       		.byte	0x1
 2036 00c5 14       		.uleb128 .LLSDACSE2191-.LLSDACSB2191
 2037              	.LLSDACSB2191:
 2038 00c6 3F       		.uleb128 .LEHB37-.LFB2191
 2039 00c7 23       		.uleb128 .LEHE37-.LEHB37
 2040 00c8 00       		.uleb128 0
 2041 00c9 00       		.uleb128 0
 2042 00ca 7B       		.uleb128 .LEHB38-.LFB2191
 2043 00cb 05       		.uleb128 .LEHE38-.LEHB38
 2044 00cc E801     		.uleb128 .L86-.LFB2191
 2045 00ce 00       		.uleb128 0
 2046 00cf 8A01     		.uleb128 .LEHB39-.LFB2191
 2047 00d1 1A       		.uleb128 .LEHE39-.LEHB39
 2048 00d2 D401     		.uleb128 .L87-.LFB2191
 2049 00d4 00       		.uleb128 0
 2050 00d5 8002     		.uleb128 .LEHB40-.LFB2191
 2051 00d7 05       		.uleb128 .LEHE40-.LEHB40
 2052 00d8 00       		.uleb128 0
 2053 00d9 00       		.uleb128 0
 2054              	.LLSDACSE2191:
GAS LISTING /tmp/ccGYUW7A.s 			page 55


 2055              		.text
 2057              		.align 2
 2058              		.globl	_ZN7program9fmg_cycleERiR8SolutionS2_R4MeshR13quad_bcs_plusR18initial_conditions16global_va
 2060              	_ZN7program9fmg_cycleERiR8SolutionS2_R4MeshR13quad_bcs_plusR18initial_conditions16global_variablesR
 2061              	.LFB2192:
 324:/home/brendan/Dropbox/PhD/Code/LBM/2D LBFS/src/program.cpp **** 
 325:/home/brendan/Dropbox/PhD/Code/LBM/2D LBFS/src/program.cpp **** void program::fmg_cycle(int &fmg,Solution &residual , Solution &soln,
 326:/home/brendan/Dropbox/PhD/Code/LBM/2D LBFS/src/program.cpp ****                                       Mesh &fine_mesh, quad_bcs_plus &bcs,
 327:/home/brendan/Dropbox/PhD/Code/LBM/2D LBFS/src/program.cpp ****                                       initial_conditions &initial_conds,
 328:/home/brendan/Dropbox/PhD/Code/LBM/2D LBFS/src/program.cpp ****                                       global_variables globals, domain_geometry &fine_domain,
 329:/home/brendan/Dropbox/PhD/Code/LBM/2D LBFS/src/program.cpp ****                                         Boundary_Conditions &fine_bcs){
 2062              		.loc 4 329 0
 2063              		.cfi_startproc
 2064              		.cfi_personality 0x3,__gxx_personality_v0
 2065              		.cfi_lsda 0x3,.LLSDA2192
 2066 0f52 55       		pushq	%rbp
 2067              		.cfi_def_cfa_offset 16
 2068              		.cfi_offset 6, -16
 2069 0f53 4889E5   		movq	%rsp, %rbp
 2070              		.cfi_def_cfa_register 6
 2071 0f56 53       		pushq	%rbx
 2072 0f57 4881ECA8 		subq	$1704, %rsp
 2072      060000
 2073              		.cfi_offset 3, -24
 2074 0f5e 4889BDA8 		movq	%rdi, -1624(%rbp)
 2074      F9FFFF
 2075 0f65 4889B5A0 		movq	%rsi, -1632(%rbp)
 2075      F9FFFF
 2076 0f6c 48899598 		movq	%rdx, -1640(%rbp)
 2076      F9FFFF
 2077 0f73 48898D90 		movq	%rcx, -1648(%rbp)
 2077      F9FFFF
 2078 0f7a 4C898588 		movq	%r8, -1656(%rbp)
 2078      F9FFFF
 2079 0f81 4C898D80 		movq	%r9, -1664(%rbp)
 2079      F9FFFF
 2080 0f88 488B4510 		movq	16(%rbp), %rax
 2081 0f8c 48898578 		movq	%rax, -1672(%rbp)
 2081      F9FFFF
 2082 0f93 488B4518 		movq	24(%rbp), %rax
 2083 0f97 48898570 		movq	%rax, -1680(%rbp)
 2083      F9FFFF
 2084 0f9e 488B4520 		movq	32(%rbp), %rax
 2085 0fa2 48898568 		movq	%rax, -1688(%rbp)
 2085      F9FFFF
 2086 0fa9 488B4528 		movq	40(%rbp), %rax
 2087 0fad 48898560 		movq	%rax, -1696(%rbp)
 2087      F9FFFF
 2088              		.loc 4 329 0
 2089 0fb4 64488B04 		movq	%fs:40, %rax
 2089      25280000 
 2089      00
 2090 0fbd 488945E8 		movq	%rax, -24(%rbp)
 2091 0fc1 31C0     		xorl	%eax, %eax
 330:/home/brendan/Dropbox/PhD/Code/LBM/2D LBFS/src/program.cpp **** 
 331:/home/brendan/Dropbox/PhD/Code/LBM/2D LBFS/src/program.cpp ****     fmg = fmg +1;
 2092              		.loc 4 331 0
GAS LISTING /tmp/ccGYUW7A.s 			page 56


 2093 0fc3 488B85A0 		movq	-1632(%rbp), %rax
 2093      F9FFFF
 2094 0fca 8B00     		movl	(%rax), %eax
 2095 0fcc 8D5001   		leal	1(%rax), %edx
 2096 0fcf 488B85A0 		movq	-1632(%rbp), %rax
 2096      F9FFFF
 2097 0fd6 8910     		movl	%edx, (%rax)
 332:/home/brendan/Dropbox/PhD/Code/LBM/2D LBFS/src/program.cpp **** 
 333:/home/brendan/Dropbox/PhD/Code/LBM/2D LBFS/src/program.cpp ****     int mg = 0;
 2098              		.loc 4 333 0
 2099 0fd8 C785BCF9 		movl	$0, -1604(%rbp)
 2099      FFFF0000 
 2099      0000
 334:/home/brendan/Dropbox/PhD/Code/LBM/2D LBFS/src/program.cpp **** 
 335:/home/brendan/Dropbox/PhD/Code/LBM/2D LBFS/src/program.cpp **** 
 336:/home/brendan/Dropbox/PhD/Code/LBM/2D LBFS/src/program.cpp ****     // create new coarse Mesh with double up dimensions
 337:/home/brendan/Dropbox/PhD/Code/LBM/2D LBFS/src/program.cpp ****     domain_geometry coarse_domain = fine_mesh.create_coarse_mesh_domain();
 2100              		.loc 4 337 0
 2101 0fe2 488D8510 		leaq	-1520(%rbp), %rax
 2101      FAFFFF
 2102 0fe9 488B9588 		movq	-1656(%rbp), %rdx
 2102      F9FFFF
 2103 0ff0 4889D6   		movq	%rdx, %rsi
 2104 0ff3 4889C7   		movq	%rax, %rdi
 2105              	.LEHB41:
 2106 0ff6 E8000000 		call	_ZN4Mesh25create_coarse_mesh_domainEv
 2106      00
 2107              	.LEHE41:
 338:/home/brendan/Dropbox/PhD/Code/LBM/2D LBFS/src/program.cpp **** 
 339:/home/brendan/Dropbox/PhD/Code/LBM/2D LBFS/src/program.cpp ****     Mesh coarse_mesh (coarse_domain,globals);
 2108              		.loc 4 339 0
 2109 0ffb 488B9570 		movq	-1680(%rbp), %rdx
 2109      F9FFFF
 2110 1002 488D85B0 		leaq	-592(%rbp), %rax
 2110      FDFFFF
 2111 1009 4889D6   		movq	%rdx, %rsi
 2112 100c 4889C7   		movq	%rax, %rdi
 2113              	.LEHB42:
 2114 100f E8000000 		call	_ZN16global_variablesC1ERKS_
 2114      00
 2115              	.LEHE42:
 2116              		.loc 4 339 0 is_stmt 0 discriminator 1
 2117 1014 488D9510 		leaq	-1520(%rbp), %rdx
 2117      FAFFFF
 2118 101b 488D8580 		leaq	-1152(%rbp), %rax
 2118      FBFFFF
 2119 1022 4889D6   		movq	%rdx, %rsi
 2120 1025 4889C7   		movq	%rax, %rdi
 2121 1028 E8000000 		call	_ZN15domain_geometryC1ERKS_
 2121      00
 2122 102d 488D95B0 		leaq	-592(%rbp), %rdx
 2122      FDFFFF
 2123 1034 488D8D80 		leaq	-1152(%rbp), %rcx
 2123      FBFFFF
 2124 103b 488D8530 		leaq	-976(%rbp), %rax
 2124      FCFFFF
 2125 1042 4889CE   		movq	%rcx, %rsi
GAS LISTING /tmp/ccGYUW7A.s 			page 57


 2126 1045 4889C7   		movq	%rax, %rdi
 2127              	.LEHB43:
 2128 1048 E8000000 		call	_ZN4MeshC1E15domain_geometry16global_variables
 2128      00
 2129              	.LEHE43:
 2130 104d 488D8580 		leaq	-1152(%rbp), %rax
 2130      FBFFFF
 2131 1054 4889C7   		movq	%rax, %rdi
 2132 1057 E8000000 		call	_ZN15domain_geometryD1Ev
 2132      00
 2133              		.loc 4 339 0
 2134 105c 488D85B0 		leaq	-592(%rbp), %rax
 2134      FDFFFF
 2135 1063 4889C7   		movq	%rax, %rdi
 2136 1066 E8000000 		call	_ZN16global_variablesD1Ev
 2136      00
 340:/home/brendan/Dropbox/PhD/Code/LBM/2D LBFS/src/program.cpp **** 
 341:/home/brendan/Dropbox/PhD/Code/LBM/2D LBFS/src/program.cpp ****     globals.update_tau(coarse_domain);
 2137              		.loc 4 341 0 is_stmt 1
 2138 106b 488D9510 		leaq	-1520(%rbp), %rdx
 2138      FAFFFF
 2139 1072 488D8580 		leaq	-1152(%rbp), %rax
 2139      FBFFFF
 2140 1079 4889D6   		movq	%rdx, %rsi
 2141 107c 4889C7   		movq	%rax, %rdi
 2142 107f E8000000 		call	_ZN15domain_geometryC1ERKS_
 2142      00
 2143 1084 488D9580 		leaq	-1152(%rbp), %rdx
 2143      FBFFFF
 2144 108b 488B8570 		movq	-1680(%rbp), %rax
 2144      F9FFFF
 2145 1092 4889D6   		movq	%rdx, %rsi
 2146 1095 4889C7   		movq	%rax, %rdi
 2147              	.LEHB44:
 2148 1098 E8000000 		call	_ZN16global_variables10update_tauE15domain_geometry
 2148      00
 2149              	.LEHE44:
 2150              		.loc 4 341 0 is_stmt 0 discriminator 2
 2151 109d 488D8580 		leaq	-1152(%rbp), %rax
 2151      FBFFFF
 2152 10a4 4889C7   		movq	%rax, %rdi
 2153 10a7 E8000000 		call	_ZN15domain_geometryD1Ev
 2153      00
 342:/home/brendan/Dropbox/PhD/Code/LBM/2D LBFS/src/program.cpp ****     globals.magnify_time_step();
 2154              		.loc 4 342 0 is_stmt 1 discriminator 2
 2155 10ac 488B8570 		movq	-1680(%rbp), %rax
 2155      F9FFFF
 2156 10b3 4889C7   		movq	%rax, %rdi
 2157              	.LEHB45:
 2158 10b6 E8000000 		call	_ZN16global_variables17magnify_time_stepEv
 2158      00
 343:/home/brendan/Dropbox/PhD/Code/LBM/2D LBFS/src/program.cpp ****     Boundary_Conditions bc(coarse_mesh.get_num_x(), coarse_mesh.get_num_y());
 2159              		.loc 4 343 0
 2160 10bb 488D8530 		leaq	-976(%rbp), %rax
 2160      FCFFFF
 2161 10c2 4889C7   		movq	%rax, %rdi
 2162 10c5 E8000000 		call	_ZN4Mesh9get_num_yEv
GAS LISTING /tmp/ccGYUW7A.s 			page 58


 2162      00
 2163 10ca 89C3     		movl	%eax, %ebx
 2164 10cc 488D8530 		leaq	-976(%rbp), %rax
 2164      FCFFFF
 2165 10d3 4889C7   		movq	%rax, %rdi
 2166 10d6 E8000000 		call	_ZN4Mesh9get_num_xEv
 2166      00
 2167 10db 89C1     		movl	%eax, %ecx
 2168 10dd 488D8530 		leaq	-1232(%rbp), %rax
 2168      FBFFFF
 2169 10e4 89DA     		movl	%ebx, %edx
 2170 10e6 89CE     		movl	%ecx, %esi
 2171 10e8 4889C7   		movq	%rax, %rdi
 2172 10eb E8000000 		call	_ZN19Boundary_ConditionsC1Eii
 2172      00
 2173              	.LEHE45:
 344:/home/brendan/Dropbox/PhD/Code/LBM/2D LBFS/src/program.cpp ****     bc.assign_boundary_conditions(coarse_mesh.get_num_x(), coarse_mesh.get_num_y(),bcs);
 2174              		.loc 4 344 0
 2175 10f0 488B9580 		movq	-1664(%rbp), %rdx
 2175      F9FFFF
 2176 10f7 488D8580 		leaq	-1152(%rbp), %rax
 2176      FBFFFF
 2177 10fe 4889D6   		movq	%rdx, %rsi
 2178 1101 4889C7   		movq	%rax, %rdi
 2179 1104 E8000000 		call	_ZN13quad_bcs_plusC1ERKS_
 2179      00
 2180 1109 488D8530 		leaq	-976(%rbp), %rax
 2180      FCFFFF
 2181 1110 4889C7   		movq	%rax, %rdi
 2182 1113 E8000000 		call	_ZN4Mesh9get_num_yEv
 2182      00
 2183 1118 89C3     		movl	%eax, %ebx
 2184 111a 488D8530 		leaq	-976(%rbp), %rax
 2184      FCFFFF
 2185 1121 4889C7   		movq	%rax, %rdi
 2186 1124 E8000000 		call	_ZN4Mesh9get_num_xEv
 2186      00
 2187 1129 89C6     		movl	%eax, %esi
 2188 112b 488D9580 		leaq	-1152(%rbp), %rdx
 2188      FBFFFF
 2189 1132 488D8530 		leaq	-1232(%rbp), %rax
 2189      FBFFFF
 2190 1139 4889D1   		movq	%rdx, %rcx
 2191 113c 89DA     		movl	%ebx, %edx
 2192 113e 4889C7   		movq	%rax, %rdi
 2193              	.LEHB46:
 2194 1141 E8000000 		call	_ZN19Boundary_Conditions26assign_boundary_conditionsEii13quad_bcs_plus
 2194      00
 2195              	.LEHE46:
 2196              		.loc 4 344 0 is_stmt 0 discriminator 2
 2197 1146 488D8580 		leaq	-1152(%rbp), %rax
 2197      FBFFFF
 2198 114d 4889C7   		movq	%rax, %rdi
 2199 1150 E8000000 		call	_ZN13quad_bcs_plusD1Ev
 2199      00
 345:/home/brendan/Dropbox/PhD/Code/LBM/2D LBFS/src/program.cpp **** 
 346:/home/brendan/Dropbox/PhD/Code/LBM/2D LBFS/src/program.cpp ****     Solution coarse_soln( coarse_mesh.get_total_cells());
GAS LISTING /tmp/ccGYUW7A.s 			page 59


 2200              		.loc 4 346 0 is_stmt 1 discriminator 2
 2201 1155 488D8530 		leaq	-976(%rbp), %rax
 2201      FCFFFF
 2202 115c 4889C7   		movq	%rax, %rdi
 2203 115f E8000000 		call	_ZN4Mesh15get_total_cellsEv
 2203      00
 2204 1164 89C2     		movl	%eax, %edx
 2205 1166 488D8590 		leaq	-1392(%rbp), %rax
 2205      FAFFFF
 2206 116d 89D6     		movl	%edx, %esi
 2207 116f 4889C7   		movq	%rax, %rdi
 2208              	.LEHB47:
 2209 1172 E8000000 		call	_ZN8SolutionC1Ei
 2209      00
 2210              	.LEHE47:
 347:/home/brendan/Dropbox/PhD/Code/LBM/2D LBFS/src/program.cpp ****     Solution coarse_residual( coarse_mesh.get_total_cells());
 2211              		.loc 4 347 0
 2212 1177 488D8530 		leaq	-976(%rbp), %rax
 2212      FCFFFF
 2213 117e 4889C7   		movq	%rax, %rdi
 2214 1181 E8000000 		call	_ZN4Mesh15get_total_cellsEv
 2214      00
 2215 1186 89C2     		movl	%eax, %edx
 2216 1188 488D85E0 		leaq	-1312(%rbp), %rax
 2216      FAFFFF
 2217 118f 89D6     		movl	%edx, %esi
 2218 1191 4889C7   		movq	%rax, %rdi
 2219              	.LEHB48:
 2220 1194 E8000000 		call	_ZN8SolutionC1Ei
 2220      00
 2221              	.LEHE48:
 348:/home/brendan/Dropbox/PhD/Code/LBM/2D LBFS/src/program.cpp ****     // goto coarsest level
 349:/home/brendan/Dropbox/PhD/Code/LBM/2D LBFS/src/program.cpp ****     if( fmg < globals.fmg_levels){
 2222              		.loc 4 349 0
 2223 1199 488B85A0 		movq	-1632(%rbp), %rax
 2223      F9FFFF
 2224 11a0 8B10     		movl	(%rax), %edx
 2225 11a2 488B8570 		movq	-1680(%rbp), %rax
 2225      F9FFFF
 2226 11a9 8B808400 		movl	132(%rax), %eax
 2226      0000
 2227 11af 39C2     		cmpl	%eax, %edx
 2228 11b1 0F8D8100 		jge	.L90
 2228      0000
 350:/home/brendan/Dropbox/PhD/Code/LBM/2D LBFS/src/program.cpp ****             fmg_cycle(fmg,coarse_residual,coarse_soln,coarse_mesh,bcs,initial_conds,globals,
 2229              		.loc 4 350 0
 2230 11b7 488B9570 		movq	-1680(%rbp), %rdx
 2230      F9FFFF
 2231 11be 488D85D0 		leaq	-304(%rbp), %rax
 2231      FEFFFF
 2232 11c5 4889D6   		movq	%rdx, %rsi
 2233 11c8 4889C7   		movq	%rax, %rdi
 2234              	.LEHB49:
 2235 11cb E8000000 		call	_ZN16global_variablesC1ERKS_
 2235      00
 2236              	.LEHE49:
 351:/home/brendan/Dropbox/PhD/Code/LBM/2D LBFS/src/program.cpp ****                       coarse_domain,bc);
GAS LISTING /tmp/ccGYUW7A.s 			page 60


 2237              		.loc 4 351 0
 2238 11d0 4C8B8D80 		movq	-1664(%rbp), %r9
 2238      F9FFFF
 2239 11d7 4C8D8530 		leaq	-976(%rbp), %r8
 2239      FCFFFF
 2240 11de 488D8D90 		leaq	-1392(%rbp), %rcx
 2240      FAFFFF
 2241 11e5 488D95E0 		leaq	-1312(%rbp), %rdx
 2241      FAFFFF
 2242 11ec 488BB5A0 		movq	-1632(%rbp), %rsi
 2242      F9FFFF
 2243 11f3 488B85A8 		movq	-1624(%rbp), %rax
 2243      F9FFFF
 2244 11fa 488DBD30 		leaq	-1232(%rbp), %rdi
 2244      FBFFFF
 2245 1201 57       		pushq	%rdi
 2246 1202 488DBD10 		leaq	-1520(%rbp), %rdi
 2246      FAFFFF
 2247 1209 57       		pushq	%rdi
 2248 120a 488DBDD0 		leaq	-304(%rbp), %rdi
 2248      FEFFFF
 2249 1211 57       		pushq	%rdi
 2250 1212 FFB578F9 		pushq	-1672(%rbp)
 2250      FFFF
 2251 1218 4889C7   		movq	%rax, %rdi
 2252              	.LEHB50:
 2253              		.cfi_escape 0x2e,0x20
 2254 121b E8000000 		call	_ZN7program9fmg_cycleERiR8SolutionS2_R4MeshR13quad_bcs_plusR18initial_conditions16global_vari
 2254      00
 2255              	.LEHE50:
 2256 1220 4883C420 		addq	$32, %rsp
 350:/home/brendan/Dropbox/PhD/Code/LBM/2D LBFS/src/program.cpp ****             fmg_cycle(fmg,coarse_residual,coarse_soln,coarse_mesh,bcs,initial_conds,globals,
 2257              		.loc 4 350 0
 2258 1224 488D85D0 		leaq	-304(%rbp), %rax
 2258      FEFFFF
 2259 122b 4889C7   		movq	%rax, %rdi
 2260 122e E8000000 		call	_ZN16global_variablesD1Ev
 2260      00
 2261 1233 E9930100 		jmp	.L91
 2261      00
 2262              	.L90:
 352:/home/brendan/Dropbox/PhD/Code/LBM/2D LBFS/src/program.cpp **** 
 353:/home/brendan/Dropbox/PhD/Code/LBM/2D LBFS/src/program.cpp ****     }else{
 354:/home/brendan/Dropbox/PhD/Code/LBM/2D LBFS/src/program.cpp **** 
 355:/home/brendan/Dropbox/PhD/Code/LBM/2D LBFS/src/program.cpp ****         //apply initial conditions at coarsest level
 356:/home/brendan/Dropbox/PhD/Code/LBM/2D LBFS/src/program.cpp ****         coarse_soln.assign_pressure_gradient(initial_conds.rho_gradient,initial_conds.origin_loc,
 2263              		.loc 4 356 0
 2264 1238 488B8578 		movq	-1672(%rbp), %rax
 2264      F9FFFF
 2265 123f 488D5028 		leaq	40(%rax), %rdx
 2266 1243 488D8580 		leaq	-1152(%rbp), %rax
 2266      FBFFFF
 2267 124a 4889D6   		movq	%rdx, %rsi
 2268 124d 4889C7   		movq	%rax, %rdi
 2269 1250 E8000000 		call	_ZN10vector_varC1ERKS_
 2269      00
 2270 1255 488B8578 		movq	-1672(%rbp), %rax
GAS LISTING /tmp/ccGYUW7A.s 			page 61


 2270      F9FFFF
 2271 125c 488D5048 		leaq	72(%rax), %rdx
 2272 1260 488D8550 		leaq	-1456(%rbp), %rax
 2272      FAFFFF
 2273 1267 4889D6   		movq	%rdx, %rsi
 2274 126a 4889C7   		movq	%rax, %rdi
 2275 126d E8000000 		call	_ZN10vector_varC1ERKS_
 2275      00
 2276 1272 488B8578 		movq	-1672(%rbp), %rax
 2276      F9FFFF
 2277 1279 488D5008 		leaq	8(%rax), %rdx
 2278 127d 488D85E0 		leaq	-1568(%rbp), %rax
 2278      F9FFFF
 2279 1284 4889D6   		movq	%rdx, %rsi
 2280 1287 4889C7   		movq	%rax, %rdi
 2281 128a E8000000 		call	_ZN10vector_varC1ERKS_
 2281      00
 357:/home/brendan/Dropbox/PhD/Code/LBM/2D LBFS/src/program.cpp ****                                 initial_conds.rho_origin_mag,coarse_mesh);
 2282              		.loc 4 357 0
 2283 128f 488DBD30 		leaq	-976(%rbp), %rdi
 2283      FCFFFF
 2284 1296 488D8D80 		leaq	-1152(%rbp), %rcx
 2284      FBFFFF
 2285 129d 488D9550 		leaq	-1456(%rbp), %rdx
 2285      FAFFFF
 2286 12a4 488DB5E0 		leaq	-1568(%rbp), %rsi
 2286      F9FFFF
 2287 12ab 488D8590 		leaq	-1392(%rbp), %rax
 2287      FAFFFF
 2288 12b2 4989F8   		movq	%rdi, %r8
 2289 12b5 4889C7   		movq	%rax, %rdi
 2290              	.LEHB51:
 2291              		.cfi_escape 0x2e,0
 2292 12b8 E8000000 		call	_ZN8Solution24assign_pressure_gradientE10vector_varS0_S0_R4Mesh
 2292      00
 2293              	.LEHE51:
 356:/home/brendan/Dropbox/PhD/Code/LBM/2D LBFS/src/program.cpp ****                                 initial_conds.rho_origin_mag,coarse_mesh);
 2294              		.loc 4 356 0
 2295 12bd 488D85E0 		leaq	-1568(%rbp), %rax
 2295      F9FFFF
 2296 12c4 4889C7   		movq	%rax, %rdi
 2297 12c7 E8000000 		call	_ZN10vector_varD1Ev
 2297      00
 2298 12cc 488D8550 		leaq	-1456(%rbp), %rax
 2298      FAFFFF
 2299 12d3 4889C7   		movq	%rax, %rdi
 2300 12d6 E8000000 		call	_ZN10vector_varD1Ev
 2300      00
 2301 12db 488D8580 		leaq	-1152(%rbp), %rax
 2301      FBFFFF
 2302 12e2 4889C7   		movq	%rax, %rdi
 2303 12e5 E8000000 		call	_ZN10vector_varD1Ev
 2303      00
 358:/home/brendan/Dropbox/PhD/Code/LBM/2D LBFS/src/program.cpp ****         coarse_soln.assign_velocity_gradient(initial_conds.vel_gradient,initial_conds.origin_loc,
 2304              		.loc 4 358 0
 2305 12ea 488B8578 		movq	-1672(%rbp), %rax
 2305      F9FFFF
GAS LISTING /tmp/ccGYUW7A.s 			page 62


 2306 12f1 488D90B0 		leaq	176(%rax), %rdx
 2306      000000
 2307 12f8 488D8580 		leaq	-1152(%rbp), %rax
 2307      FBFFFF
 2308 12ff 4889D6   		movq	%rdx, %rsi
 2309 1302 4889C7   		movq	%rax, %rdi
 2310 1305 E8000000 		call	_ZN10vector_varC1ERKS_
 2310      00
 2311 130a 488B8578 		movq	-1672(%rbp), %rax
 2311      F9FFFF
 2312 1311 488D5048 		leaq	72(%rax), %rdx
 2313 1315 488D8550 		leaq	-1456(%rbp), %rax
 2313      FAFFFF
 2314 131c 4889D6   		movq	%rdx, %rsi
 2315 131f 4889C7   		movq	%rax, %rdi
 2316 1322 E8000000 		call	_ZN10vector_varC1ERKS_
 2316      00
 2317 1327 488B8578 		movq	-1672(%rbp), %rax
 2317      F9FFFF
 2318 132e 488D9090 		leaq	144(%rax), %rdx
 2318      000000
 2319 1335 488D85E0 		leaq	-1568(%rbp), %rax
 2319      F9FFFF
 2320 133c 4889D6   		movq	%rdx, %rsi
 2321 133f 4889C7   		movq	%rax, %rdi
 2322 1342 E8000000 		call	_ZN10vector_varC1ERKS_
 2322      00
 359:/home/brendan/Dropbox/PhD/Code/LBM/2D LBFS/src/program.cpp ****                                 initial_conds.vel_origin_mag,coarse_mesh);
 2323              		.loc 4 359 0
 2324 1347 488DBD30 		leaq	-976(%rbp), %rdi
 2324      FCFFFF
 2325 134e 488D8D80 		leaq	-1152(%rbp), %rcx
 2325      FBFFFF
 2326 1355 488D9550 		leaq	-1456(%rbp), %rdx
 2326      FAFFFF
 2327 135c 488DB5E0 		leaq	-1568(%rbp), %rsi
 2327      F9FFFF
 2328 1363 488D8590 		leaq	-1392(%rbp), %rax
 2328      FAFFFF
 2329 136a 4989F8   		movq	%rdi, %r8
 2330 136d 4889C7   		movq	%rax, %rdi
 2331              	.LEHB52:
 2332 1370 E8000000 		call	_ZN8Solution24assign_velocity_gradientE10vector_varS0_S0_R4Mesh
 2332      00
 2333              	.LEHE52:
 358:/home/brendan/Dropbox/PhD/Code/LBM/2D LBFS/src/program.cpp ****         coarse_soln.assign_velocity_gradient(initial_conds.vel_gradient,initial_conds.origin_loc,
 2334              		.loc 4 358 0
 2335 1375 488D85E0 		leaq	-1568(%rbp), %rax
 2335      F9FFFF
 2336 137c 4889C7   		movq	%rax, %rdi
 2337 137f E8000000 		call	_ZN10vector_varD1Ev
 2337      00
 2338 1384 488D8550 		leaq	-1456(%rbp), %rax
 2338      FAFFFF
 2339 138b 4889C7   		movq	%rax, %rdi
 2340 138e E8000000 		call	_ZN10vector_varD1Ev
 2340      00
GAS LISTING /tmp/ccGYUW7A.s 			page 63


 2341 1393 488D8580 		leaq	-1152(%rbp), %rax
 2341      FBFFFF
 2342 139a 4889C7   		movq	%rax, %rdi
 2343 139d E8000000 		call	_ZN10vector_varD1Ev
 2343      00
 360:/home/brendan/Dropbox/PhD/Code/LBM/2D LBFS/src/program.cpp ****         coarse_soln.set_average_rho(initial_conds.average_rho);
 2344              		.loc 4 360 0
 2345 13a2 488B8578 		movq	-1672(%rbp), %rax
 2345      F9FFFF
 2346 13a9 488B5068 		movq	104(%rax), %rdx
 2347 13ad 488D8590 		leaq	-1392(%rbp), %rax
 2347      FAFFFF
 2348 13b4 48899558 		movq	%rdx, -1704(%rbp)
 2348      F9FFFF
 2349 13bb F20F1085 		movsd	-1704(%rbp), %xmm0
 2349      58F9FFFF 
 2350 13c3 4889C7   		movq	%rax, %rdi
 2351 13c6 E8000000 		call	_ZN8Solution15set_average_rhoEd
 2351      00
 2352              	.L91:
 361:/home/brendan/Dropbox/PhD/Code/LBM/2D LBFS/src/program.cpp **** 
 362:/home/brendan/Dropbox/PhD/Code/LBM/2D LBFS/src/program.cpp ****     }
 363:/home/brendan/Dropbox/PhD/Code/LBM/2D LBFS/src/program.cpp **** 
 364:/home/brendan/Dropbox/PhD/Code/LBM/2D LBFS/src/program.cpp ****     external_forces source_term(coarse_mesh.get_total_cells());
 2353              		.loc 4 364 0
 2354 13cb 488D8530 		leaq	-976(%rbp), %rax
 2354      FCFFFF
 2355 13d2 4889C7   		movq	%rax, %rdi
 2356 13d5 E8000000 		call	_ZN4Mesh15get_total_cellsEv
 2356      00
 2357 13da 89C2     		movl	%eax, %edx
 2358 13dc 488D85C0 		leaq	-1600(%rbp), %rax
 2358      F9FFFF
 2359 13e3 89D6     		movl	%edx, %esi
 2360 13e5 4889C7   		movq	%rax, %rdi
 2361              	.LEHB53:
 2362 13e8 E8000000 		call	_ZN15external_forcesC1Ei
 2362      00
 2363              	.LEHE53:
 365:/home/brendan/Dropbox/PhD/Code/LBM/2D LBFS/src/program.cpp ****     source_term.set_uniform_force(initial_conds.pressure_gradient); //pressure force applied throug
 2364              		.loc 4 365 0
 2365 13ed 488B8578 		movq	-1672(%rbp), %rax
 2365      F9FFFF
 2366 13f4 488B90D0 		movq	208(%rax), %rdx
 2366      000000
 2367 13fb 488D85C0 		leaq	-1600(%rbp), %rax
 2367      F9FFFF
 2368 1402 48899558 		movq	%rdx, -1704(%rbp)
 2368      F9FFFF
 2369 1409 F20F1085 		movsd	-1704(%rbp), %xmm0
 2369      58F9FFFF 
 2370 1411 4889C7   		movq	%rax, %rdi
 2371              	.LEHB54:
 2372 1414 E8000000 		call	_ZN15external_forces17set_uniform_forceEd
 2372      00
 366:/home/brendan/Dropbox/PhD/Code/LBM/2D LBFS/src/program.cpp **** 
 367:/home/brendan/Dropbox/PhD/Code/LBM/2D LBFS/src/program.cpp **** 
GAS LISTING /tmp/ccGYUW7A.s 			page 64


 368:/home/brendan/Dropbox/PhD/Code/LBM/2D LBFS/src/program.cpp ****     Solver solve_coarse;
 2373              		.loc 4 368 0
 2374 1419 488D85E0 		leaq	-1568(%rbp), %rax
 2374      F9FFFF
 2375 1420 4889C7   		movq	%rax, %rdi
 2376 1423 E8000000 		call	_ZN6SolverC1Ev
 2376      00
 2377              	.LEHE54:
 369:/home/brendan/Dropbox/PhD/Code/LBM/2D LBFS/src/program.cpp **** 
 370:/home/brendan/Dropbox/PhD/Code/LBM/2D LBFS/src/program.cpp ****     solve_coarse.Mesh_Solver_Clean(coarse_mesh,coarse_soln,bc,source_term,globals,
 2378              		.loc 4 370 0
 2379 1428 488B85A0 		movq	-1632(%rbp), %rax
 2379      F9FFFF
 2380 142f 8B38     		movl	(%rax), %edi
 371:/home/brendan/Dropbox/PhD/Code/LBM/2D LBFS/src/program.cpp ****                                      coarse_domain,initial_conds,bcs,mg,coarse_residual,fmg);
 2381              		.loc 4 371 0
 2382 1431 4C8B8D70 		movq	-1680(%rbp), %r9
 2382      F9FFFF
 2383 1438 4C8D85C0 		leaq	-1600(%rbp), %r8
 2383      F9FFFF
 2384 143f 488D8D30 		leaq	-1232(%rbp), %rcx
 2384      FBFFFF
 2385 1446 488D9590 		leaq	-1392(%rbp), %rdx
 2385      FAFFFF
 2386 144d 488DB530 		leaq	-976(%rbp), %rsi
 2386      FCFFFF
 2387 1454 488D85E0 		leaq	-1568(%rbp), %rax
 2387      F9FFFF
 2388 145b 57       		pushq	%rdi
 2389 145c 488DBDE0 		leaq	-1312(%rbp), %rdi
 2389      FAFFFF
 2390 1463 57       		pushq	%rdi
 2391 1464 8BBDBCF9 		movl	-1604(%rbp), %edi
 2391      FFFF
 2392 146a 57       		pushq	%rdi
 2393 146b FFB580F9 		pushq	-1664(%rbp)
 2393      FFFF
 2394 1471 FFB578F9 		pushq	-1672(%rbp)
 2394      FFFF
 2395 1477 488DBD10 		leaq	-1520(%rbp), %rdi
 2395      FAFFFF
 2396 147e 57       		pushq	%rdi
 2397 147f 4889C7   		movq	%rax, %rdi
 2398              	.LEHB55:
 2399              		.cfi_escape 0x2e,0x30
 2400 1482 E8000000 		call	_ZN6Solver17Mesh_Solver_CleanER4MeshR8SolutionR19Boundary_ConditionsR15external_forcesR16glob
 2400      00
 2401 1487 4883C430 		addq	$48, %rsp
 372:/home/brendan/Dropbox/PhD/Code/LBM/2D LBFS/src/program.cpp **** 
 373:/home/brendan/Dropbox/PhD/Code/LBM/2D LBFS/src/program.cpp ****     Solution temp_soln(coarse_mesh.get_total_cells());
 2402              		.loc 4 373 0
 2403 148b 488D8530 		leaq	-976(%rbp), %rax
 2403      FCFFFF
 2404 1492 4889C7   		movq	%rax, %rdi
 2405 1495 E8000000 		call	_ZN4Mesh15get_total_cellsEv
 2405      00
 2406 149a 89C2     		movl	%eax, %edx
GAS LISTING /tmp/ccGYUW7A.s 			page 65


 2407 149c 488D8580 		leaq	-1152(%rbp), %rax
 2407      FBFFFF
 2408 14a3 89D6     		movl	%edx, %esi
 2409 14a5 4889C7   		movq	%rax, %rdi
 2410              		.cfi_escape 0x2e,0
 2411 14a8 E8000000 		call	_ZN8SolutionC1Ei
 2411      00
 2412              	.LEHE55:
 374:/home/brendan/Dropbox/PhD/Code/LBM/2D LBFS/src/program.cpp ****     // prolongation occurs here
 375:/home/brendan/Dropbox/PhD/Code/LBM/2D LBFS/src/program.cpp **** 
 376:/home/brendan/Dropbox/PhD/Code/LBM/2D LBFS/src/program.cpp ****     coarse_soln.update_bcs(bc,coarse_mesh,coarse_domain);
 2413              		.loc 4 376 0
 2414 14ad 488D8D10 		leaq	-1520(%rbp), %rcx
 2414      FAFFFF
 2415 14b4 488D9530 		leaq	-976(%rbp), %rdx
 2415      FCFFFF
 2416 14bb 488DB530 		leaq	-1232(%rbp), %rsi
 2416      FBFFFF
 2417 14c2 488D8590 		leaq	-1392(%rbp), %rax
 2417      FAFFFF
 2418 14c9 4889C7   		movq	%rax, %rdi
 2419              	.LEHB56:
 2420 14cc E8000000 		call	_ZN8Solution10update_bcsER19Boundary_ConditionsR4MeshR15domain_geometry
 2420      00
 377:/home/brendan/Dropbox/PhD/Code/LBM/2D LBFS/src/program.cpp **** 
 378:/home/brendan/Dropbox/PhD/Code/LBM/2D LBFS/src/program.cpp ****     soln.prolongation( coarse_soln, temp_soln, soln,coarse_mesh, fine_mesh,fine_bcs,true);
 2421              		.loc 4 378 0
 2422 14d1 4C8B8588 		movq	-1656(%rbp), %r8
 2422      F9FFFF
 2423 14d8 488DBD30 		leaq	-976(%rbp), %rdi
 2423      FCFFFF
 2424 14df 488B8D90 		movq	-1648(%rbp), %rcx
 2424      F9FFFF
 2425 14e6 488D9580 		leaq	-1152(%rbp), %rdx
 2425      FBFFFF
 2426 14ed 488DB590 		leaq	-1392(%rbp), %rsi
 2426      FAFFFF
 2427 14f4 488B8590 		movq	-1648(%rbp), %rax
 2427      F9FFFF
 2428 14fb 6A01     		pushq	$1
 2429 14fd FFB560F9 		pushq	-1696(%rbp)
 2429      FFFF
 2430 1503 4D89C1   		movq	%r8, %r9
 2431 1506 4989F8   		movq	%rdi, %r8
 2432 1509 4889C7   		movq	%rax, %rdi
 2433              		.cfi_escape 0x2e,0x10
 2434 150c E8000000 		call	_ZN8Solution12prolongationERS_S0_S0_R4MeshS2_R19Boundary_Conditionsb
 2434      00
 2435 1511 4883C410 		addq	$16, %rsp
 379:/home/brendan/Dropbox/PhD/Code/LBM/2D LBFS/src/program.cpp ****     soln.set_average_rho(initial_conds.average_rho);
 2436              		.loc 4 379 0
 2437 1515 488B8578 		movq	-1672(%rbp), %rax
 2437      F9FFFF
 2438 151c 488B5068 		movq	104(%rax), %rdx
 2439 1520 488B8590 		movq	-1648(%rbp), %rax
 2439      F9FFFF
 2440 1527 48899558 		movq	%rdx, -1704(%rbp)
GAS LISTING /tmp/ccGYUW7A.s 			page 66


 2440      F9FFFF
 2441 152e F20F1085 		movsd	-1704(%rbp), %xmm0
 2441      58F9FFFF 
 2442 1536 4889C7   		movq	%rax, %rdi
 2443 1539 E8000000 		call	_ZN8Solution15set_average_rhoEd
 2443      00
 380:/home/brendan/Dropbox/PhD/Code/LBM/2D LBFS/src/program.cpp ****     soln.update_bcs(fine_bcs,fine_mesh,fine_domain);
 2444              		.loc 4 380 0
 2445 153e 488B8D68 		movq	-1688(%rbp), %rcx
 2445      F9FFFF
 2446 1545 488B9588 		movq	-1656(%rbp), %rdx
 2446      F9FFFF
 2447 154c 488BB560 		movq	-1696(%rbp), %rsi
 2447      F9FFFF
 2448 1553 488B8590 		movq	-1648(%rbp), %rax
 2448      F9FFFF
 2449 155a 4889C7   		movq	%rax, %rdi
 2450              		.cfi_escape 0x2e,0
 2451 155d E8000000 		call	_ZN8Solution10update_bcsER19Boundary_ConditionsR4MeshR15domain_geometry
 2451      00
 2452              	.LEHE56:
 381:/home/brendan/Dropbox/PhD/Code/LBM/2D LBFS/src/program.cpp ****     globals.update_tau(fine_domain);
 2453              		.loc 4 381 0
 2454 1562 488B9568 		movq	-1688(%rbp), %rdx
 2454      F9FFFF
 2455 1569 488D8550 		leaq	-1456(%rbp), %rax
 2455      FAFFFF
 2456 1570 4889D6   		movq	%rdx, %rsi
 2457 1573 4889C7   		movq	%rax, %rdi
 2458 1576 E8000000 		call	_ZN15domain_geometryC1ERKS_
 2458      00
 2459 157b 488D9550 		leaq	-1456(%rbp), %rdx
 2459      FAFFFF
 2460 1582 488B8570 		movq	-1680(%rbp), %rax
 2460      F9FFFF
 2461 1589 4889D6   		movq	%rdx, %rsi
 2462 158c 4889C7   		movq	%rax, %rdi
 2463              	.LEHB57:
 2464 158f E8000000 		call	_ZN16global_variables10update_tauE15domain_geometry
 2464      00
 2465              	.LEHE57:
 2466              		.loc 4 381 0 is_stmt 0 discriminator 2
 2467 1594 488D8550 		leaq	-1456(%rbp), %rax
 2467      FAFFFF
 2468 159b 4889C7   		movq	%rax, %rdi
 2469 159e E8000000 		call	_ZN15domain_geometryD1Ev
 2469      00
 382:/home/brendan/Dropbox/PhD/Code/LBM/2D LBFS/src/program.cpp ****      globals.reduce_time_step();
 2470              		.loc 4 382 0 is_stmt 1 discriminator 2
 2471 15a3 488B8570 		movq	-1680(%rbp), %rax
 2471      F9FFFF
 2472 15aa 4889C7   		movq	%rax, %rdi
 2473              	.LEHB58:
 2474 15ad E8000000 		call	_ZN16global_variables16reduce_time_stepEv
 2474      00
 2475              	.LEHE58:
 383:/home/brendan/Dropbox/PhD/Code/LBM/2D LBFS/src/program.cpp ****     fmg = fmg -1;
GAS LISTING /tmp/ccGYUW7A.s 			page 67


 2476              		.loc 4 383 0
 2477 15b2 488B85A0 		movq	-1632(%rbp), %rax
 2477      F9FFFF
 2478 15b9 8B00     		movl	(%rax), %eax
 2479 15bb 8D50FF   		leal	-1(%rax), %edx
 2480 15be 488B85A0 		movq	-1632(%rbp), %rax
 2480      F9FFFF
 2481 15c5 8910     		movl	%edx, (%rax)
 373:/home/brendan/Dropbox/PhD/Code/LBM/2D LBFS/src/program.cpp ****     // prolongation occurs here
 2482              		.loc 4 373 0
 2483 15c7 488D8580 		leaq	-1152(%rbp), %rax
 2483      FBFFFF
 2484 15ce 4889C7   		movq	%rax, %rdi
 2485 15d1 E8000000 		call	_ZN8SolutionD1Ev
 2485      00
 368:/home/brendan/Dropbox/PhD/Code/LBM/2D LBFS/src/program.cpp **** 
 2486              		.loc 4 368 0
 2487 15d6 488D85E0 		leaq	-1568(%rbp), %rax
 2487      F9FFFF
 2488 15dd 4889C7   		movq	%rax, %rdi
 2489 15e0 E8000000 		call	_ZN6SolverD1Ev
 2489      00
 364:/home/brendan/Dropbox/PhD/Code/LBM/2D LBFS/src/program.cpp ****     source_term.set_uniform_force(initial_conds.pressure_gradient); //pressure force applied throug
 2490              		.loc 4 364 0
 2491 15e5 488D85C0 		leaq	-1600(%rbp), %rax
 2491      F9FFFF
 2492 15ec 4889C7   		movq	%rax, %rdi
 2493 15ef E8000000 		call	_ZN15external_forcesD1Ev
 2493      00
 347:/home/brendan/Dropbox/PhD/Code/LBM/2D LBFS/src/program.cpp ****     // goto coarsest level
 2494              		.loc 4 347 0
 2495 15f4 488D85E0 		leaq	-1312(%rbp), %rax
 2495      FAFFFF
 2496 15fb 4889C7   		movq	%rax, %rdi
 2497 15fe E8000000 		call	_ZN8SolutionD1Ev
 2497      00
 346:/home/brendan/Dropbox/PhD/Code/LBM/2D LBFS/src/program.cpp ****     Solution coarse_residual( coarse_mesh.get_total_cells());
 2498              		.loc 4 346 0
 2499 1603 488D8590 		leaq	-1392(%rbp), %rax
 2499      FAFFFF
 2500 160a 4889C7   		movq	%rax, %rdi
 2501 160d E8000000 		call	_ZN8SolutionD1Ev
 2501      00
 343:/home/brendan/Dropbox/PhD/Code/LBM/2D LBFS/src/program.cpp ****     bc.assign_boundary_conditions(coarse_mesh.get_num_x(), coarse_mesh.get_num_y(),bcs);
 2502              		.loc 4 343 0
 2503 1612 488D8530 		leaq	-1232(%rbp), %rax
 2503      FBFFFF
 2504 1619 4889C7   		movq	%rax, %rdi
 2505 161c E8000000 		call	_ZN19Boundary_ConditionsD1Ev
 2505      00
 339:/home/brendan/Dropbox/PhD/Code/LBM/2D LBFS/src/program.cpp **** 
 2506              		.loc 4 339 0
 2507 1621 488D8530 		leaq	-976(%rbp), %rax
 2507      FCFFFF
 2508 1628 4889C7   		movq	%rax, %rdi
 2509 162b E8000000 		call	_ZN4MeshD1Ev
 2509      00
GAS LISTING /tmp/ccGYUW7A.s 			page 68


 337:/home/brendan/Dropbox/PhD/Code/LBM/2D LBFS/src/program.cpp **** 
 2510              		.loc 4 337 0
 2511 1630 488D8510 		leaq	-1520(%rbp), %rax
 2511      FAFFFF
 2512 1637 4889C7   		movq	%rax, %rdi
 2513 163a E8000000 		call	_ZN15domain_geometryD1Ev
 2513      00
 384:/home/brendan/Dropbox/PhD/Code/LBM/2D LBFS/src/program.cpp **** 
 385:/home/brendan/Dropbox/PhD/Code/LBM/2D LBFS/src/program.cpp **** }
 2514              		.loc 4 385 0
 2515 163f 90       		nop
 2516 1640 488B45E8 		movq	-24(%rbp), %rax
 2517 1644 64483304 		xorq	%fs:40, %rax
 2517      25280000 
 2517      00
 2518 164d 0F849901 		je	.L107
 2518      0000
 2519 1653 E98F0100 		jmp	.L123
 2519      00
 2520              	.L109:
 2521 1658 4889C3   		movq	%rax, %rbx
 2522 165b 488D8580 		leaq	-1152(%rbp), %rax
 2522      FBFFFF
 2523 1662 4889C7   		movq	%rax, %rdi
 2524 1665 E8000000 		call	_ZN15domain_geometryD1Ev
 2524      00
 2525 166a 488D85B0 		leaq	-592(%rbp), %rax
 2525      FDFFFF
 2526 1671 4889C7   		movq	%rax, %rdi
 2527 1674 E8000000 		call	_ZN16global_variablesD1Ev
 2527      00
 2528 1679 E94F0100 		jmp	.L93
 2528      00
 2529              	.L110:
 2530 167e 4889C3   		movq	%rax, %rbx
 341:/home/brendan/Dropbox/PhD/Code/LBM/2D LBFS/src/program.cpp ****     globals.magnify_time_step();
 2531              		.loc 4 341 0
 2532 1681 488D8580 		leaq	-1152(%rbp), %rax
 2532      FBFFFF
 2533 1688 4889C7   		movq	%rax, %rdi
 2534 168b E8000000 		call	_ZN15domain_geometryD1Ev
 2534      00
 2535 1690 E9240100 		jmp	.L95
 2535      00
 2536              	.L112:
 2537 1695 4889C3   		movq	%rax, %rbx
 344:/home/brendan/Dropbox/PhD/Code/LBM/2D LBFS/src/program.cpp **** 
 2538              		.loc 4 344 0
 2539 1698 488D8580 		leaq	-1152(%rbp), %rax
 2539      FBFFFF
 2540 169f 4889C7   		movq	%rax, %rdi
 2541 16a2 E8000000 		call	_ZN13quad_bcs_plusD1Ev
 2541      00
 2542 16a7 E9F90000 		jmp	.L97
 2542      00
 2543              	.L116:
 2544 16ac 4889C3   		movq	%rax, %rbx
GAS LISTING /tmp/ccGYUW7A.s 			page 69


 350:/home/brendan/Dropbox/PhD/Code/LBM/2D LBFS/src/program.cpp ****                       coarse_domain,bc);
 2545              		.loc 4 350 0
 2546 16af 488D85D0 		leaq	-304(%rbp), %rax
 2546      FEFFFF
 2547 16b6 4889C7   		movq	%rax, %rdi
 2548 16b9 E8000000 		call	_ZN16global_variablesD1Ev
 2548      00
 2549 16be E9BA0000 		jmp	.L99
 2549      00
 2550              	.L117:
 2551 16c3 4889C3   		movq	%rax, %rbx
 356:/home/brendan/Dropbox/PhD/Code/LBM/2D LBFS/src/program.cpp ****                                 initial_conds.rho_origin_mag,coarse_mesh);
 2552              		.loc 4 356 0
 2553 16c6 488D85E0 		leaq	-1568(%rbp), %rax
 2553      F9FFFF
 2554 16cd 4889C7   		movq	%rax, %rdi
 2555 16d0 E8000000 		call	_ZN10vector_varD1Ev
 2555      00
 2556 16d5 488D8550 		leaq	-1456(%rbp), %rax
 2556      FAFFFF
 2557 16dc 4889C7   		movq	%rax, %rdi
 2558 16df E8000000 		call	_ZN10vector_varD1Ev
 2558      00
 2559 16e4 488D8580 		leaq	-1152(%rbp), %rax
 2559      FBFFFF
 2560 16eb 4889C7   		movq	%rax, %rdi
 2561 16ee E8000000 		call	_ZN10vector_varD1Ev
 2561      00
 2562 16f3 E9850000 		jmp	.L99
 2562      00
 2563              	.L118:
 2564 16f8 4889C3   		movq	%rax, %rbx
 358:/home/brendan/Dropbox/PhD/Code/LBM/2D LBFS/src/program.cpp ****                                 initial_conds.vel_origin_mag,coarse_mesh);
 2565              		.loc 4 358 0
 2566 16fb 488D85E0 		leaq	-1568(%rbp), %rax
 2566      F9FFFF
 2567 1702 4889C7   		movq	%rax, %rdi
 2568 1705 E8000000 		call	_ZN10vector_varD1Ev
 2568      00
 2569 170a 488D8550 		leaq	-1456(%rbp), %rax
 2569      FAFFFF
 2570 1711 4889C7   		movq	%rax, %rdi
 2571 1714 E8000000 		call	_ZN10vector_varD1Ev
 2571      00
 2572 1719 488D8580 		leaq	-1152(%rbp), %rax
 2572      FBFFFF
 2573 1720 4889C7   		movq	%rax, %rdi
 2574 1723 E8000000 		call	_ZN10vector_varD1Ev
 2574      00
 2575 1728 EB53     		jmp	.L99
 2576              	.L122:
 2577 172a 4889C3   		movq	%rax, %rbx
 381:/home/brendan/Dropbox/PhD/Code/LBM/2D LBFS/src/program.cpp ****      globals.reduce_time_step();
 2578              		.loc 4 381 0
 2579 172d 488D8550 		leaq	-1456(%rbp), %rax
 2579      FAFFFF
 2580 1734 4889C7   		movq	%rax, %rdi
GAS LISTING /tmp/ccGYUW7A.s 			page 70


 2581 1737 E8000000 		call	_ZN15domain_geometryD1Ev
 2581      00
 2582 173c EB03     		jmp	.L103
 2583              	.L121:
 2584 173e 4889C3   		movq	%rax, %rbx
 2585              	.L103:
 373:/home/brendan/Dropbox/PhD/Code/LBM/2D LBFS/src/program.cpp ****     // prolongation occurs here
 2586              		.loc 4 373 0
 2587 1741 488D8580 		leaq	-1152(%rbp), %rax
 2587      FBFFFF
 2588 1748 4889C7   		movq	%rax, %rdi
 2589 174b E8000000 		call	_ZN8SolutionD1Ev
 2589      00
 2590 1750 EB03     		jmp	.L104
 2591              	.L120:
 2592 1752 4889C3   		movq	%rax, %rbx
 2593              	.L104:
 368:/home/brendan/Dropbox/PhD/Code/LBM/2D LBFS/src/program.cpp **** 
 2594              		.loc 4 368 0
 2595 1755 488D85E0 		leaq	-1568(%rbp), %rax
 2595      F9FFFF
 2596 175c 4889C7   		movq	%rax, %rdi
 2597 175f E8000000 		call	_ZN6SolverD1Ev
 2597      00
 2598 1764 EB03     		jmp	.L105
 2599              	.L119:
 2600 1766 4889C3   		movq	%rax, %rbx
 2601              	.L105:
 364:/home/brendan/Dropbox/PhD/Code/LBM/2D LBFS/src/program.cpp ****     source_term.set_uniform_force(initial_conds.pressure_gradient); //pressure force applied throug
 2602              		.loc 4 364 0
 2603 1769 488D85C0 		leaq	-1600(%rbp), %rax
 2603      F9FFFF
 2604 1770 4889C7   		movq	%rax, %rdi
 2605 1773 E8000000 		call	_ZN15external_forcesD1Ev
 2605      00
 2606 1778 EB03     		jmp	.L99
 2607              	.L115:
 2608 177a 4889C3   		movq	%rax, %rbx
 2609              	.L99:
 347:/home/brendan/Dropbox/PhD/Code/LBM/2D LBFS/src/program.cpp ****     // goto coarsest level
 2610              		.loc 4 347 0
 2611 177d 488D85E0 		leaq	-1312(%rbp), %rax
 2611      FAFFFF
 2612 1784 4889C7   		movq	%rax, %rdi
 2613 1787 E8000000 		call	_ZN8SolutionD1Ev
 2613      00
 2614 178c EB03     		jmp	.L106
 2615              	.L114:
 2616 178e 4889C3   		movq	%rax, %rbx
 2617              	.L106:
 346:/home/brendan/Dropbox/PhD/Code/LBM/2D LBFS/src/program.cpp ****     Solution coarse_residual( coarse_mesh.get_total_cells());
 2618              		.loc 4 346 0
 2619 1791 488D8590 		leaq	-1392(%rbp), %rax
 2619      FAFFFF
 2620 1798 4889C7   		movq	%rax, %rdi
 2621 179b E8000000 		call	_ZN8SolutionD1Ev
 2621      00
GAS LISTING /tmp/ccGYUW7A.s 			page 71


 2622 17a0 EB03     		jmp	.L97
 2623              	.L113:
 2624 17a2 4889C3   		movq	%rax, %rbx
 2625              	.L97:
 343:/home/brendan/Dropbox/PhD/Code/LBM/2D LBFS/src/program.cpp ****     bc.assign_boundary_conditions(coarse_mesh.get_num_x(), coarse_mesh.get_num_y(),bcs);
 2626              		.loc 4 343 0
 2627 17a5 488D8530 		leaq	-1232(%rbp), %rax
 2627      FBFFFF
 2628 17ac 4889C7   		movq	%rax, %rdi
 2629 17af E8000000 		call	_ZN19Boundary_ConditionsD1Ev
 2629      00
 2630 17b4 EB03     		jmp	.L95
 2631              	.L111:
 2632 17b6 4889C3   		movq	%rax, %rbx
 2633              	.L95:
 339:/home/brendan/Dropbox/PhD/Code/LBM/2D LBFS/src/program.cpp **** 
 2634              		.loc 4 339 0
 2635 17b9 488D8530 		leaq	-976(%rbp), %rax
 2635      FCFFFF
 2636 17c0 4889C7   		movq	%rax, %rdi
 2637 17c3 E8000000 		call	_ZN4MeshD1Ev
 2637      00
 2638 17c8 EB03     		jmp	.L93
 2639              	.L108:
 2640 17ca 4889C3   		movq	%rax, %rbx
 2641              	.L93:
 337:/home/brendan/Dropbox/PhD/Code/LBM/2D LBFS/src/program.cpp **** 
 2642              		.loc 4 337 0
 2643 17cd 488D8510 		leaq	-1520(%rbp), %rax
 2643      FAFFFF
 2644 17d4 4889C7   		movq	%rax, %rdi
 2645 17d7 E8000000 		call	_ZN15domain_geometryD1Ev
 2645      00
 2646 17dc 4889D8   		movq	%rbx, %rax
 2647 17df 4889C7   		movq	%rax, %rdi
 2648              	.LEHB59:
 2649 17e2 E8000000 		call	_Unwind_Resume
 2649      00
 2650              	.LEHE59:
 2651              	.L123:
 2652              		.loc 4 385 0
 2653 17e7 E8000000 		call	__stack_chk_fail
 2653      00
 2654              	.L107:
 2655 17ec 488B5DF8 		movq	-8(%rbp), %rbx
 2656 17f0 C9       		leave
 2657              		.cfi_def_cfa 7, 8
 2658 17f1 C3       		ret
 2659              		.cfi_endproc
 2660              	.LFE2192:
 2661              		.section	.gcc_except_table
 2662              	.LLSDA2192:
 2663 00da FF       		.byte	0xff
 2664 00db FF       		.byte	0xff
 2665 00dc 01       		.byte	0x1
 2666 00dd 71       		.uleb128 .LLSDACSE2192-.LLSDACSB2192
 2667              	.LLSDACSB2192:
GAS LISTING /tmp/ccGYUW7A.s 			page 72


 2668 00de A401     		.uleb128 .LEHB41-.LFB2192
 2669 00e0 05       		.uleb128 .LEHE41-.LEHB41
 2670 00e1 00       		.uleb128 0
 2671 00e2 00       		.uleb128 0
 2672 00e3 BD01     		.uleb128 .LEHB42-.LFB2192
 2673 00e5 05       		.uleb128 .LEHE42-.LEHB42
 2674 00e6 F810     		.uleb128 .L108-.LFB2192
 2675 00e8 00       		.uleb128 0
 2676 00e9 F601     		.uleb128 .LEHB43-.LFB2192
 2677 00eb 05       		.uleb128 .LEHE43-.LEHB43
 2678 00ec 860E     		.uleb128 .L109-.LFB2192
 2679 00ee 00       		.uleb128 0
 2680 00ef C602     		.uleb128 .LEHB44-.LFB2192
 2681 00f1 05       		.uleb128 .LEHE44-.LEHB44
 2682 00f2 AC0E     		.uleb128 .L110-.LFB2192
 2683 00f4 00       		.uleb128 0
 2684 00f5 E402     		.uleb128 .LEHB45-.LFB2192
 2685 00f7 3A       		.uleb128 .LEHE45-.LEHB45
 2686 00f8 E410     		.uleb128 .L111-.LFB2192
 2687 00fa 00       		.uleb128 0
 2688 00fb EF03     		.uleb128 .LEHB46-.LFB2192
 2689 00fd 05       		.uleb128 .LEHE46-.LEHB46
 2690 00fe C30E     		.uleb128 .L112-.LFB2192
 2691 0100 00       		.uleb128 0
 2692 0101 A004     		.uleb128 .LEHB47-.LFB2192
 2693 0103 05       		.uleb128 .LEHE47-.LEHB47
 2694 0104 D010     		.uleb128 .L113-.LFB2192
 2695 0106 00       		.uleb128 0
 2696 0107 C204     		.uleb128 .LEHB48-.LFB2192
 2697 0109 05       		.uleb128 .LEHE48-.LEHB48
 2698 010a BC10     		.uleb128 .L114-.LFB2192
 2699 010c 00       		.uleb128 0
 2700 010d F904     		.uleb128 .LEHB49-.LFB2192
 2701 010f 05       		.uleb128 .LEHE49-.LEHB49
 2702 0110 A810     		.uleb128 .L115-.LFB2192
 2703 0112 00       		.uleb128 0
 2704 0113 C905     		.uleb128 .LEHB50-.LFB2192
 2705 0115 05       		.uleb128 .LEHE50-.LEHB50
 2706 0116 DA0E     		.uleb128 .L116-.LFB2192
 2707 0118 00       		.uleb128 0
 2708 0119 E606     		.uleb128 .LEHB51-.LFB2192
 2709 011b 05       		.uleb128 .LEHE51-.LEHB51
 2710 011c F10E     		.uleb128 .L117-.LFB2192
 2711 011e 00       		.uleb128 0
 2712 011f 9E08     		.uleb128 .LEHB52-.LFB2192
 2713 0121 05       		.uleb128 .LEHE52-.LEHB52
 2714 0122 A60F     		.uleb128 .L118-.LFB2192
 2715 0124 00       		.uleb128 0
 2716 0125 9609     		.uleb128 .LEHB53-.LFB2192
 2717 0127 05       		.uleb128 .LEHE53-.LEHB53
 2718 0128 A810     		.uleb128 .L115-.LFB2192
 2719 012a 00       		.uleb128 0
 2720 012b C209     		.uleb128 .LEHB54-.LFB2192
 2721 012d 14       		.uleb128 .LEHE54-.LEHB54
 2722 012e 9410     		.uleb128 .L119-.LFB2192
 2723 0130 00       		.uleb128 0
 2724 0131 B00A     		.uleb128 .LEHB55-.LFB2192
GAS LISTING /tmp/ccGYUW7A.s 			page 73


 2725 0133 2B       		.uleb128 .LEHE55-.LEHB55
 2726 0134 8010     		.uleb128 .L120-.LFB2192
 2727 0136 00       		.uleb128 0
 2728 0137 FA0A     		.uleb128 .LEHB56-.LFB2192
 2729 0139 9601     		.uleb128 .LEHE56-.LEHB56
 2730 013b EC0F     		.uleb128 .L121-.LFB2192
 2731 013d 00       		.uleb128 0
 2732 013e BD0C     		.uleb128 .LEHB57-.LFB2192
 2733 0140 05       		.uleb128 .LEHE57-.LEHB57
 2734 0141 D80F     		.uleb128 .L122-.LFB2192
 2735 0143 00       		.uleb128 0
 2736 0144 DB0C     		.uleb128 .LEHB58-.LFB2192
 2737 0146 05       		.uleb128 .LEHE58-.LEHB58
 2738 0147 EC0F     		.uleb128 .L121-.LFB2192
 2739 0149 00       		.uleb128 0
 2740 014a 9011     		.uleb128 .LEHB59-.LFB2192
 2741 014c 05       		.uleb128 .LEHE59-.LEHB59
 2742 014d 00       		.uleb128 0
 2743 014e 00       		.uleb128 0
 2744              	.LLSDACSE2192:
 2745              		.text
 2747              		.section	.text._ZStplIcSt11char_traitsIcESaIcEENSt7__cxx1112basic_stringIT_T0_T1_EERKS8_PKS5_,"axG
 2748              		.weak	_ZStplIcSt11char_traitsIcESaIcEENSt7__cxx1112basic_stringIT_T0_T1_EERKS8_PKS5_
 2750              	_ZStplIcSt11char_traitsIcESaIcEENSt7__cxx1112basic_stringIT_T0_T1_EERKS8_PKS5_:
 2751              	.LFB2264:
 2752              		.file 8 "/usr/include/c++/5/bits/basic_string.h"
   1:/usr/include/c++/5/bits/basic_string.h **** // Components for manipulating sequences of characters -*- C++ -*-
   2:/usr/include/c++/5/bits/basic_string.h **** 
   3:/usr/include/c++/5/bits/basic_string.h **** // Copyright (C) 1997-2015 Free Software Foundation, Inc.
   4:/usr/include/c++/5/bits/basic_string.h **** //
   5:/usr/include/c++/5/bits/basic_string.h **** // This file is part of the GNU ISO C++ Library.  This library is free
   6:/usr/include/c++/5/bits/basic_string.h **** // software; you can redistribute it and/or modify it under the
   7:/usr/include/c++/5/bits/basic_string.h **** // terms of the GNU General Public License as published by the
   8:/usr/include/c++/5/bits/basic_string.h **** // Free Software Foundation; either version 3, or (at your option)
   9:/usr/include/c++/5/bits/basic_string.h **** // any later version.
  10:/usr/include/c++/5/bits/basic_string.h **** 
  11:/usr/include/c++/5/bits/basic_string.h **** // This library is distributed in the hope that it will be useful,
  12:/usr/include/c++/5/bits/basic_string.h **** // but WITHOUT ANY WARRANTY; without even the implied warranty of
  13:/usr/include/c++/5/bits/basic_string.h **** // MERCHANTABILITY or FITNESS FOR A PARTICULAR PURPOSE.  See the
  14:/usr/include/c++/5/bits/basic_string.h **** // GNU General Public License for more details.
  15:/usr/include/c++/5/bits/basic_string.h **** 
  16:/usr/include/c++/5/bits/basic_string.h **** // Under Section 7 of GPL version 3, you are granted additional
  17:/usr/include/c++/5/bits/basic_string.h **** // permissions described in the GCC Runtime Library Exception, version
  18:/usr/include/c++/5/bits/basic_string.h **** // 3.1, as published by the Free Software Foundation.
  19:/usr/include/c++/5/bits/basic_string.h **** 
  20:/usr/include/c++/5/bits/basic_string.h **** // You should have received a copy of the GNU General Public License and
  21:/usr/include/c++/5/bits/basic_string.h **** // a copy of the GCC Runtime Library Exception along with this program;
  22:/usr/include/c++/5/bits/basic_string.h **** // see the files COPYING3 and COPYING.RUNTIME respectively.  If not, see
  23:/usr/include/c++/5/bits/basic_string.h **** // <http://www.gnu.org/licenses/>.
  24:/usr/include/c++/5/bits/basic_string.h **** 
  25:/usr/include/c++/5/bits/basic_string.h **** /** @file bits/basic_string.h
  26:/usr/include/c++/5/bits/basic_string.h ****  *  This is an internal header file, included by other library headers.
  27:/usr/include/c++/5/bits/basic_string.h ****  *  Do not attempt to use it directly. @headername{string}
  28:/usr/include/c++/5/bits/basic_string.h ****  */
  29:/usr/include/c++/5/bits/basic_string.h **** 
  30:/usr/include/c++/5/bits/basic_string.h **** //
  31:/usr/include/c++/5/bits/basic_string.h **** // ISO C++ 14882: 21 Strings library
GAS LISTING /tmp/ccGYUW7A.s 			page 74


  32:/usr/include/c++/5/bits/basic_string.h **** //
  33:/usr/include/c++/5/bits/basic_string.h **** 
  34:/usr/include/c++/5/bits/basic_string.h **** #ifndef _BASIC_STRING_H
  35:/usr/include/c++/5/bits/basic_string.h **** #define _BASIC_STRING_H 1
  36:/usr/include/c++/5/bits/basic_string.h **** 
  37:/usr/include/c++/5/bits/basic_string.h **** #pragma GCC system_header
  38:/usr/include/c++/5/bits/basic_string.h **** 
  39:/usr/include/c++/5/bits/basic_string.h **** #include <ext/atomicity.h>
  40:/usr/include/c++/5/bits/basic_string.h **** #include <ext/alloc_traits.h>
  41:/usr/include/c++/5/bits/basic_string.h **** #include <debug/debug.h>
  42:/usr/include/c++/5/bits/basic_string.h **** #if __cplusplus >= 201103L
  43:/usr/include/c++/5/bits/basic_string.h **** #include <initializer_list>
  44:/usr/include/c++/5/bits/basic_string.h **** #endif
  45:/usr/include/c++/5/bits/basic_string.h **** 
  46:/usr/include/c++/5/bits/basic_string.h **** namespace std _GLIBCXX_VISIBILITY(default)
  47:/usr/include/c++/5/bits/basic_string.h **** {
  48:/usr/include/c++/5/bits/basic_string.h **** _GLIBCXX_BEGIN_NAMESPACE_VERSION
  49:/usr/include/c++/5/bits/basic_string.h **** 
  50:/usr/include/c++/5/bits/basic_string.h **** #if _GLIBCXX_USE_CXX11_ABI
  51:/usr/include/c++/5/bits/basic_string.h **** _GLIBCXX_BEGIN_NAMESPACE_CXX11
  52:/usr/include/c++/5/bits/basic_string.h ****   /**
  53:/usr/include/c++/5/bits/basic_string.h ****    *  @class basic_string basic_string.h <string>
  54:/usr/include/c++/5/bits/basic_string.h ****    *  @brief  Managing sequences of characters and character-like objects.
  55:/usr/include/c++/5/bits/basic_string.h ****    *
  56:/usr/include/c++/5/bits/basic_string.h ****    *  @ingroup strings
  57:/usr/include/c++/5/bits/basic_string.h ****    *  @ingroup sequences
  58:/usr/include/c++/5/bits/basic_string.h ****    *
  59:/usr/include/c++/5/bits/basic_string.h ****    *  @tparam _CharT  Type of character
  60:/usr/include/c++/5/bits/basic_string.h ****    *  @tparam _Traits  Traits for character type, defaults to
  61:/usr/include/c++/5/bits/basic_string.h ****    *                   char_traits<_CharT>.
  62:/usr/include/c++/5/bits/basic_string.h ****    *  @tparam _Alloc  Allocator type, defaults to allocator<_CharT>.
  63:/usr/include/c++/5/bits/basic_string.h ****    *
  64:/usr/include/c++/5/bits/basic_string.h ****    *  Meets the requirements of a <a href="tables.html#65">container</a>, a
  65:/usr/include/c++/5/bits/basic_string.h ****    *  <a href="tables.html#66">reversible container</a>, and a
  66:/usr/include/c++/5/bits/basic_string.h ****    *  <a href="tables.html#67">sequence</a>.  Of the
  67:/usr/include/c++/5/bits/basic_string.h ****    *  <a href="tables.html#68">optional sequence requirements</a>, only
  68:/usr/include/c++/5/bits/basic_string.h ****    *  @c push_back, @c at, and @c %array access are supported.
  69:/usr/include/c++/5/bits/basic_string.h ****    */
  70:/usr/include/c++/5/bits/basic_string.h ****   template<typename _CharT, typename _Traits, typename _Alloc>
  71:/usr/include/c++/5/bits/basic_string.h ****     class basic_string
  72:/usr/include/c++/5/bits/basic_string.h ****     {
  73:/usr/include/c++/5/bits/basic_string.h ****       typedef typename __gnu_cxx::__alloc_traits<_Alloc>::template
  74:/usr/include/c++/5/bits/basic_string.h **** 	rebind<_CharT>::other _Char_alloc_type;
  75:/usr/include/c++/5/bits/basic_string.h ****       typedef __gnu_cxx::__alloc_traits<_Char_alloc_type> _Alloc_traits;
  76:/usr/include/c++/5/bits/basic_string.h **** 
  77:/usr/include/c++/5/bits/basic_string.h ****       // Types:
  78:/usr/include/c++/5/bits/basic_string.h ****     public:
  79:/usr/include/c++/5/bits/basic_string.h ****       typedef _Traits					traits_type;
  80:/usr/include/c++/5/bits/basic_string.h ****       typedef typename _Traits::char_type		value_type;
  81:/usr/include/c++/5/bits/basic_string.h ****       typedef _Char_alloc_type				allocator_type;
  82:/usr/include/c++/5/bits/basic_string.h ****       typedef typename _Alloc_traits::size_type		size_type;
  83:/usr/include/c++/5/bits/basic_string.h ****       typedef typename _Alloc_traits::difference_type	difference_type;
  84:/usr/include/c++/5/bits/basic_string.h ****       typedef typename _Alloc_traits::reference		reference;
  85:/usr/include/c++/5/bits/basic_string.h ****       typedef typename _Alloc_traits::const_reference	const_reference;
  86:/usr/include/c++/5/bits/basic_string.h ****       typedef typename _Alloc_traits::pointer		pointer;
  87:/usr/include/c++/5/bits/basic_string.h ****       typedef typename _Alloc_traits::const_pointer	const_pointer;
  88:/usr/include/c++/5/bits/basic_string.h ****       typedef __gnu_cxx::__normal_iterator<pointer, basic_string>  iterator;
GAS LISTING /tmp/ccGYUW7A.s 			page 75


  89:/usr/include/c++/5/bits/basic_string.h ****       typedef __gnu_cxx::__normal_iterator<const_pointer, basic_string>
  90:/usr/include/c++/5/bits/basic_string.h **** 							const_iterator;
  91:/usr/include/c++/5/bits/basic_string.h ****       typedef std::reverse_iterator<const_iterator>	const_reverse_iterator;
  92:/usr/include/c++/5/bits/basic_string.h ****       typedef std::reverse_iterator<iterator>		reverse_iterator;
  93:/usr/include/c++/5/bits/basic_string.h **** 
  94:/usr/include/c++/5/bits/basic_string.h ****       ///  Value returned by various member functions when they fail.
  95:/usr/include/c++/5/bits/basic_string.h ****       static const size_type	npos = static_cast<size_type>(-1);
  96:/usr/include/c++/5/bits/basic_string.h **** 
  97:/usr/include/c++/5/bits/basic_string.h ****     private:
  98:/usr/include/c++/5/bits/basic_string.h ****       // type used for positions in insert, erase etc.
  99:/usr/include/c++/5/bits/basic_string.h **** #if __cplusplus < 201103L
 100:/usr/include/c++/5/bits/basic_string.h ****       typedef iterator __const_iterator;
 101:/usr/include/c++/5/bits/basic_string.h **** #else
 102:/usr/include/c++/5/bits/basic_string.h ****       typedef const_iterator __const_iterator;
 103:/usr/include/c++/5/bits/basic_string.h **** #endif
 104:/usr/include/c++/5/bits/basic_string.h **** 
 105:/usr/include/c++/5/bits/basic_string.h ****       // Use empty-base optimization: http://www.cantrip.org/emptyopt.html
 106:/usr/include/c++/5/bits/basic_string.h ****       struct _Alloc_hider : allocator_type // TODO check __is_final
 107:/usr/include/c++/5/bits/basic_string.h ****       {
 108:/usr/include/c++/5/bits/basic_string.h **** 	_Alloc_hider(pointer __dat, const _Alloc& __a = _Alloc())
 109:/usr/include/c++/5/bits/basic_string.h **** 	: allocator_type(__a), _M_p(__dat) { }
 110:/usr/include/c++/5/bits/basic_string.h **** 
 111:/usr/include/c++/5/bits/basic_string.h **** 	pointer _M_p; // The actual data.
 112:/usr/include/c++/5/bits/basic_string.h ****       };
 113:/usr/include/c++/5/bits/basic_string.h **** 
 114:/usr/include/c++/5/bits/basic_string.h ****       _Alloc_hider	_M_dataplus;
 115:/usr/include/c++/5/bits/basic_string.h ****       size_type		_M_string_length;
 116:/usr/include/c++/5/bits/basic_string.h **** 
 117:/usr/include/c++/5/bits/basic_string.h ****       enum { _S_local_capacity = 15 / sizeof(_CharT) };
 118:/usr/include/c++/5/bits/basic_string.h **** 
 119:/usr/include/c++/5/bits/basic_string.h ****       union
 120:/usr/include/c++/5/bits/basic_string.h ****       {
 121:/usr/include/c++/5/bits/basic_string.h **** 	_CharT           _M_local_buf[_S_local_capacity + 1];
 122:/usr/include/c++/5/bits/basic_string.h **** 	size_type        _M_allocated_capacity;
 123:/usr/include/c++/5/bits/basic_string.h ****       };
 124:/usr/include/c++/5/bits/basic_string.h **** 
 125:/usr/include/c++/5/bits/basic_string.h ****       void
 126:/usr/include/c++/5/bits/basic_string.h ****       _M_data(pointer __p)
 127:/usr/include/c++/5/bits/basic_string.h ****       { _M_dataplus._M_p = __p; }
 128:/usr/include/c++/5/bits/basic_string.h **** 
 129:/usr/include/c++/5/bits/basic_string.h ****       void
 130:/usr/include/c++/5/bits/basic_string.h ****       _M_length(size_type __length)
 131:/usr/include/c++/5/bits/basic_string.h ****       { _M_string_length = __length; }
 132:/usr/include/c++/5/bits/basic_string.h **** 
 133:/usr/include/c++/5/bits/basic_string.h ****       pointer
 134:/usr/include/c++/5/bits/basic_string.h ****       _M_data() const
 135:/usr/include/c++/5/bits/basic_string.h ****       { return _M_dataplus._M_p; }
 136:/usr/include/c++/5/bits/basic_string.h **** 
 137:/usr/include/c++/5/bits/basic_string.h ****       pointer
 138:/usr/include/c++/5/bits/basic_string.h ****       _M_local_data()
 139:/usr/include/c++/5/bits/basic_string.h ****       {
 140:/usr/include/c++/5/bits/basic_string.h **** #if __cplusplus >= 201103L
 141:/usr/include/c++/5/bits/basic_string.h **** 	return std::pointer_traits<pointer>::pointer_to(*_M_local_buf);
 142:/usr/include/c++/5/bits/basic_string.h **** #else
 143:/usr/include/c++/5/bits/basic_string.h **** 	return pointer(_M_local_buf);
 144:/usr/include/c++/5/bits/basic_string.h **** #endif
 145:/usr/include/c++/5/bits/basic_string.h ****       }
GAS LISTING /tmp/ccGYUW7A.s 			page 76


 146:/usr/include/c++/5/bits/basic_string.h **** 
 147:/usr/include/c++/5/bits/basic_string.h ****       const_pointer
 148:/usr/include/c++/5/bits/basic_string.h ****       _M_local_data() const
 149:/usr/include/c++/5/bits/basic_string.h ****       {
 150:/usr/include/c++/5/bits/basic_string.h **** #if __cplusplus >= 201103L
 151:/usr/include/c++/5/bits/basic_string.h **** 	return std::pointer_traits<const_pointer>::pointer_to(*_M_local_buf);
 152:/usr/include/c++/5/bits/basic_string.h **** #else
 153:/usr/include/c++/5/bits/basic_string.h **** 	return const_pointer(_M_local_buf);
 154:/usr/include/c++/5/bits/basic_string.h **** #endif
 155:/usr/include/c++/5/bits/basic_string.h ****       }
 156:/usr/include/c++/5/bits/basic_string.h **** 
 157:/usr/include/c++/5/bits/basic_string.h ****       void
 158:/usr/include/c++/5/bits/basic_string.h ****       _M_capacity(size_type __capacity)
 159:/usr/include/c++/5/bits/basic_string.h ****       { _M_allocated_capacity = __capacity; }
 160:/usr/include/c++/5/bits/basic_string.h **** 
 161:/usr/include/c++/5/bits/basic_string.h ****       void
 162:/usr/include/c++/5/bits/basic_string.h ****       _M_set_length(size_type __n)
 163:/usr/include/c++/5/bits/basic_string.h ****       {
 164:/usr/include/c++/5/bits/basic_string.h **** 	_M_length(__n);
 165:/usr/include/c++/5/bits/basic_string.h **** 	traits_type::assign(_M_data()[__n], _CharT());
 166:/usr/include/c++/5/bits/basic_string.h ****       }
 167:/usr/include/c++/5/bits/basic_string.h **** 
 168:/usr/include/c++/5/bits/basic_string.h ****       bool
 169:/usr/include/c++/5/bits/basic_string.h ****       _M_is_local() const
 170:/usr/include/c++/5/bits/basic_string.h ****       { return _M_data() == _M_local_data(); }
 171:/usr/include/c++/5/bits/basic_string.h **** 
 172:/usr/include/c++/5/bits/basic_string.h ****       // Create & Destroy
 173:/usr/include/c++/5/bits/basic_string.h ****       pointer
 174:/usr/include/c++/5/bits/basic_string.h ****       _M_create(size_type&, size_type);
 175:/usr/include/c++/5/bits/basic_string.h **** 
 176:/usr/include/c++/5/bits/basic_string.h ****       void
 177:/usr/include/c++/5/bits/basic_string.h ****       _M_dispose()
 178:/usr/include/c++/5/bits/basic_string.h ****       {
 179:/usr/include/c++/5/bits/basic_string.h **** 	if (!_M_is_local())
 180:/usr/include/c++/5/bits/basic_string.h **** 	  _M_destroy(_M_allocated_capacity);
 181:/usr/include/c++/5/bits/basic_string.h ****       }
 182:/usr/include/c++/5/bits/basic_string.h **** 
 183:/usr/include/c++/5/bits/basic_string.h ****       void
 184:/usr/include/c++/5/bits/basic_string.h ****       _M_destroy(size_type __size) throw()
 185:/usr/include/c++/5/bits/basic_string.h ****       { _Alloc_traits::deallocate(_M_get_allocator(), _M_data(), __size + 1); }
 186:/usr/include/c++/5/bits/basic_string.h **** 
 187:/usr/include/c++/5/bits/basic_string.h ****       // _M_construct_aux is used to implement the 21.3.1 para 15 which
 188:/usr/include/c++/5/bits/basic_string.h ****       // requires special behaviour if _InIterator is an integral type
 189:/usr/include/c++/5/bits/basic_string.h ****       template<typename _InIterator>
 190:/usr/include/c++/5/bits/basic_string.h ****         void
 191:/usr/include/c++/5/bits/basic_string.h ****         _M_construct_aux(_InIterator __beg, _InIterator __end,
 192:/usr/include/c++/5/bits/basic_string.h **** 			 std::__false_type)
 193:/usr/include/c++/5/bits/basic_string.h **** 	{
 194:/usr/include/c++/5/bits/basic_string.h ****           typedef typename iterator_traits<_InIterator>::iterator_category _Tag;
 195:/usr/include/c++/5/bits/basic_string.h ****           _M_construct(__beg, __end, _Tag());
 196:/usr/include/c++/5/bits/basic_string.h **** 	}
 197:/usr/include/c++/5/bits/basic_string.h **** 
 198:/usr/include/c++/5/bits/basic_string.h ****       // _GLIBCXX_RESOLVE_LIB_DEFECTS
 199:/usr/include/c++/5/bits/basic_string.h ****       // 438. Ambiguity in the "do the right thing" clause
 200:/usr/include/c++/5/bits/basic_string.h ****       template<typename _Integer>
 201:/usr/include/c++/5/bits/basic_string.h ****         void
 202:/usr/include/c++/5/bits/basic_string.h ****         _M_construct_aux(_Integer __beg, _Integer __end, std::__true_type)
GAS LISTING /tmp/ccGYUW7A.s 			page 77


 203:/usr/include/c++/5/bits/basic_string.h **** 	{ _M_construct_aux_2(static_cast<size_type>(__beg), __end); }
 204:/usr/include/c++/5/bits/basic_string.h **** 
 205:/usr/include/c++/5/bits/basic_string.h ****       void
 206:/usr/include/c++/5/bits/basic_string.h ****       _M_construct_aux_2(size_type __req, _CharT __c)
 207:/usr/include/c++/5/bits/basic_string.h ****       { _M_construct(__req, __c); }
 208:/usr/include/c++/5/bits/basic_string.h **** 
 209:/usr/include/c++/5/bits/basic_string.h ****       template<typename _InIterator>
 210:/usr/include/c++/5/bits/basic_string.h ****         void
 211:/usr/include/c++/5/bits/basic_string.h ****         _M_construct(_InIterator __beg, _InIterator __end)
 212:/usr/include/c++/5/bits/basic_string.h **** 	{
 213:/usr/include/c++/5/bits/basic_string.h **** 	  typedef typename std::__is_integer<_InIterator>::__type _Integral;
 214:/usr/include/c++/5/bits/basic_string.h **** 	  _M_construct_aux(__beg, __end, _Integral());
 215:/usr/include/c++/5/bits/basic_string.h ****         }
 216:/usr/include/c++/5/bits/basic_string.h **** 
 217:/usr/include/c++/5/bits/basic_string.h ****       // For Input Iterators, used in istreambuf_iterators, etc.
 218:/usr/include/c++/5/bits/basic_string.h ****       template<typename _InIterator>
 219:/usr/include/c++/5/bits/basic_string.h ****         void
 220:/usr/include/c++/5/bits/basic_string.h ****         _M_construct(_InIterator __beg, _InIterator __end,
 221:/usr/include/c++/5/bits/basic_string.h **** 		     std::input_iterator_tag);
 222:/usr/include/c++/5/bits/basic_string.h **** 
 223:/usr/include/c++/5/bits/basic_string.h ****       // For forward_iterators up to random_access_iterators, used for
 224:/usr/include/c++/5/bits/basic_string.h ****       // string::iterator, _CharT*, etc.
 225:/usr/include/c++/5/bits/basic_string.h ****       template<typename _FwdIterator>
 226:/usr/include/c++/5/bits/basic_string.h ****         void
 227:/usr/include/c++/5/bits/basic_string.h ****         _M_construct(_FwdIterator __beg, _FwdIterator __end,
 228:/usr/include/c++/5/bits/basic_string.h **** 		     std::forward_iterator_tag);
 229:/usr/include/c++/5/bits/basic_string.h **** 
 230:/usr/include/c++/5/bits/basic_string.h ****       void
 231:/usr/include/c++/5/bits/basic_string.h ****       _M_construct(size_type __req, _CharT __c);
 232:/usr/include/c++/5/bits/basic_string.h **** 
 233:/usr/include/c++/5/bits/basic_string.h ****       allocator_type&
 234:/usr/include/c++/5/bits/basic_string.h ****       _M_get_allocator()
 235:/usr/include/c++/5/bits/basic_string.h ****       { return _M_dataplus; }
 236:/usr/include/c++/5/bits/basic_string.h **** 
 237:/usr/include/c++/5/bits/basic_string.h ****       const allocator_type&
 238:/usr/include/c++/5/bits/basic_string.h ****       _M_get_allocator() const
 239:/usr/include/c++/5/bits/basic_string.h ****       { return _M_dataplus; }
 240:/usr/include/c++/5/bits/basic_string.h **** 
 241:/usr/include/c++/5/bits/basic_string.h ****     private:
 242:/usr/include/c++/5/bits/basic_string.h **** 
 243:/usr/include/c++/5/bits/basic_string.h **** #ifdef _GLIBCXX_DISAMBIGUATE_REPLACE_INST
 244:/usr/include/c++/5/bits/basic_string.h ****       // The explicit instantiations in misc-inst.cc require this due to
 245:/usr/include/c++/5/bits/basic_string.h ****       // https://gcc.gnu.org/bugzilla/show_bug.cgi?id=64063
 246:/usr/include/c++/5/bits/basic_string.h ****       template<typename _Tp, bool _Requires =
 247:/usr/include/c++/5/bits/basic_string.h **** 	       !__are_same<_Tp, _CharT*>::__value
 248:/usr/include/c++/5/bits/basic_string.h **** 	       && !__are_same<_Tp, const _CharT*>::__value
 249:/usr/include/c++/5/bits/basic_string.h **** 	       && !__are_same<_Tp, iterator>::__value
 250:/usr/include/c++/5/bits/basic_string.h **** 	       && !__are_same<_Tp, const_iterator>::__value>
 251:/usr/include/c++/5/bits/basic_string.h **** 	struct __enable_if_not_native_iterator
 252:/usr/include/c++/5/bits/basic_string.h **** 	{ typedef basic_string& __type; };
 253:/usr/include/c++/5/bits/basic_string.h ****       template<typename _Tp>
 254:/usr/include/c++/5/bits/basic_string.h **** 	struct __enable_if_not_native_iterator<_Tp, false> { };
 255:/usr/include/c++/5/bits/basic_string.h **** #endif
 256:/usr/include/c++/5/bits/basic_string.h **** 
 257:/usr/include/c++/5/bits/basic_string.h ****       size_type
 258:/usr/include/c++/5/bits/basic_string.h ****       _M_check(size_type __pos, const char* __s) const
 259:/usr/include/c++/5/bits/basic_string.h ****       {
GAS LISTING /tmp/ccGYUW7A.s 			page 78


 260:/usr/include/c++/5/bits/basic_string.h **** 	if (__pos > this->size())
 261:/usr/include/c++/5/bits/basic_string.h **** 	  __throw_out_of_range_fmt(__N("%s: __pos (which is %zu) > "
 262:/usr/include/c++/5/bits/basic_string.h **** 				       "this->size() (which is %zu)"),
 263:/usr/include/c++/5/bits/basic_string.h **** 				   __s, __pos, this->size());
 264:/usr/include/c++/5/bits/basic_string.h **** 	return __pos;
 265:/usr/include/c++/5/bits/basic_string.h ****       }
 266:/usr/include/c++/5/bits/basic_string.h **** 
 267:/usr/include/c++/5/bits/basic_string.h ****       void
 268:/usr/include/c++/5/bits/basic_string.h ****       _M_check_length(size_type __n1, size_type __n2, const char* __s) const
 269:/usr/include/c++/5/bits/basic_string.h ****       {
 270:/usr/include/c++/5/bits/basic_string.h **** 	if (this->max_size() - (this->size() - __n1) < __n2)
 271:/usr/include/c++/5/bits/basic_string.h **** 	  __throw_length_error(__N(__s));
 272:/usr/include/c++/5/bits/basic_string.h ****       }
 273:/usr/include/c++/5/bits/basic_string.h **** 
 274:/usr/include/c++/5/bits/basic_string.h **** 
 275:/usr/include/c++/5/bits/basic_string.h ****       // NB: _M_limit doesn't check for a bad __pos value.
 276:/usr/include/c++/5/bits/basic_string.h ****       size_type
 277:/usr/include/c++/5/bits/basic_string.h ****       _M_limit(size_type __pos, size_type __off) const _GLIBCXX_NOEXCEPT
 278:/usr/include/c++/5/bits/basic_string.h ****       {
 279:/usr/include/c++/5/bits/basic_string.h **** 	const bool __testoff =  __off < this->size() - __pos;
 280:/usr/include/c++/5/bits/basic_string.h **** 	return __testoff ? __off : this->size() - __pos;
 281:/usr/include/c++/5/bits/basic_string.h ****       }
 282:/usr/include/c++/5/bits/basic_string.h **** 
 283:/usr/include/c++/5/bits/basic_string.h ****       // True if _Rep and source do not overlap.
 284:/usr/include/c++/5/bits/basic_string.h ****       bool
 285:/usr/include/c++/5/bits/basic_string.h ****       _M_disjunct(const _CharT* __s) const _GLIBCXX_NOEXCEPT
 286:/usr/include/c++/5/bits/basic_string.h ****       {
 287:/usr/include/c++/5/bits/basic_string.h **** 	return (less<const _CharT*>()(__s, _M_data())
 288:/usr/include/c++/5/bits/basic_string.h **** 		|| less<const _CharT*>()(_M_data() + this->size(), __s));
 289:/usr/include/c++/5/bits/basic_string.h ****       }
 290:/usr/include/c++/5/bits/basic_string.h **** 
 291:/usr/include/c++/5/bits/basic_string.h ****       // When __n = 1 way faster than the general multichar
 292:/usr/include/c++/5/bits/basic_string.h ****       // traits_type::copy/move/assign.
 293:/usr/include/c++/5/bits/basic_string.h ****       static void
 294:/usr/include/c++/5/bits/basic_string.h ****       _S_copy(_CharT* __d, const _CharT* __s, size_type __n)
 295:/usr/include/c++/5/bits/basic_string.h ****       {
 296:/usr/include/c++/5/bits/basic_string.h **** 	if (__n == 1)
 297:/usr/include/c++/5/bits/basic_string.h **** 	  traits_type::assign(*__d, *__s);
 298:/usr/include/c++/5/bits/basic_string.h **** 	else
 299:/usr/include/c++/5/bits/basic_string.h **** 	  traits_type::copy(__d, __s, __n);
 300:/usr/include/c++/5/bits/basic_string.h ****       }
 301:/usr/include/c++/5/bits/basic_string.h **** 
 302:/usr/include/c++/5/bits/basic_string.h ****       static void
 303:/usr/include/c++/5/bits/basic_string.h ****       _S_move(_CharT* __d, const _CharT* __s, size_type __n)
 304:/usr/include/c++/5/bits/basic_string.h ****       {
 305:/usr/include/c++/5/bits/basic_string.h **** 	if (__n == 1)
 306:/usr/include/c++/5/bits/basic_string.h **** 	  traits_type::assign(*__d, *__s);
 307:/usr/include/c++/5/bits/basic_string.h **** 	else
 308:/usr/include/c++/5/bits/basic_string.h **** 	  traits_type::move(__d, __s, __n);
 309:/usr/include/c++/5/bits/basic_string.h ****       }
 310:/usr/include/c++/5/bits/basic_string.h **** 
 311:/usr/include/c++/5/bits/basic_string.h ****       static void
 312:/usr/include/c++/5/bits/basic_string.h ****       _S_assign(_CharT* __d, size_type __n, _CharT __c)
 313:/usr/include/c++/5/bits/basic_string.h ****       {
 314:/usr/include/c++/5/bits/basic_string.h **** 	if (__n == 1)
 315:/usr/include/c++/5/bits/basic_string.h **** 	  traits_type::assign(*__d, __c);
 316:/usr/include/c++/5/bits/basic_string.h **** 	else
GAS LISTING /tmp/ccGYUW7A.s 			page 79


 317:/usr/include/c++/5/bits/basic_string.h **** 	  traits_type::assign(__d, __n, __c);
 318:/usr/include/c++/5/bits/basic_string.h ****       }
 319:/usr/include/c++/5/bits/basic_string.h **** 
 320:/usr/include/c++/5/bits/basic_string.h ****       // _S_copy_chars is a separate template to permit specialization
 321:/usr/include/c++/5/bits/basic_string.h ****       // to optimize for the common case of pointers as iterators.
 322:/usr/include/c++/5/bits/basic_string.h ****       template<class _Iterator>
 323:/usr/include/c++/5/bits/basic_string.h ****         static void
 324:/usr/include/c++/5/bits/basic_string.h ****         _S_copy_chars(_CharT* __p, _Iterator __k1, _Iterator __k2)
 325:/usr/include/c++/5/bits/basic_string.h ****         {
 326:/usr/include/c++/5/bits/basic_string.h **** 	  for (; __k1 != __k2; ++__k1, ++__p)
 327:/usr/include/c++/5/bits/basic_string.h **** 	    traits_type::assign(*__p, *__k1); // These types are off.
 328:/usr/include/c++/5/bits/basic_string.h **** 	}
 329:/usr/include/c++/5/bits/basic_string.h **** 
 330:/usr/include/c++/5/bits/basic_string.h ****       static void
 331:/usr/include/c++/5/bits/basic_string.h ****       _S_copy_chars(_CharT* __p, iterator __k1, iterator __k2) _GLIBCXX_NOEXCEPT
 332:/usr/include/c++/5/bits/basic_string.h ****       { _S_copy_chars(__p, __k1.base(), __k2.base()); }
 333:/usr/include/c++/5/bits/basic_string.h **** 
 334:/usr/include/c++/5/bits/basic_string.h ****       static void
 335:/usr/include/c++/5/bits/basic_string.h ****       _S_copy_chars(_CharT* __p, const_iterator __k1, const_iterator __k2)
 336:/usr/include/c++/5/bits/basic_string.h ****       _GLIBCXX_NOEXCEPT
 337:/usr/include/c++/5/bits/basic_string.h ****       { _S_copy_chars(__p, __k1.base(), __k2.base()); }
 338:/usr/include/c++/5/bits/basic_string.h **** 
 339:/usr/include/c++/5/bits/basic_string.h ****       static void
 340:/usr/include/c++/5/bits/basic_string.h ****       _S_copy_chars(_CharT* __p, _CharT* __k1, _CharT* __k2) _GLIBCXX_NOEXCEPT
 341:/usr/include/c++/5/bits/basic_string.h ****       { _S_copy(__p, __k1, __k2 - __k1); }
 342:/usr/include/c++/5/bits/basic_string.h **** 
 343:/usr/include/c++/5/bits/basic_string.h ****       static void
 344:/usr/include/c++/5/bits/basic_string.h ****       _S_copy_chars(_CharT* __p, const _CharT* __k1, const _CharT* __k2)
 345:/usr/include/c++/5/bits/basic_string.h ****       _GLIBCXX_NOEXCEPT
 346:/usr/include/c++/5/bits/basic_string.h ****       { _S_copy(__p, __k1, __k2 - __k1); }
 347:/usr/include/c++/5/bits/basic_string.h **** 
 348:/usr/include/c++/5/bits/basic_string.h ****       static int
 349:/usr/include/c++/5/bits/basic_string.h ****       _S_compare(size_type __n1, size_type __n2) _GLIBCXX_NOEXCEPT
 350:/usr/include/c++/5/bits/basic_string.h ****       {
 351:/usr/include/c++/5/bits/basic_string.h **** 	const difference_type __d = difference_type(__n1 - __n2);
 352:/usr/include/c++/5/bits/basic_string.h **** 
 353:/usr/include/c++/5/bits/basic_string.h **** 	if (__d > __gnu_cxx::__numeric_traits<int>::__max)
 354:/usr/include/c++/5/bits/basic_string.h **** 	  return __gnu_cxx::__numeric_traits<int>::__max;
 355:/usr/include/c++/5/bits/basic_string.h **** 	else if (__d < __gnu_cxx::__numeric_traits<int>::__min)
 356:/usr/include/c++/5/bits/basic_string.h **** 	  return __gnu_cxx::__numeric_traits<int>::__min;
 357:/usr/include/c++/5/bits/basic_string.h **** 	else
 358:/usr/include/c++/5/bits/basic_string.h **** 	  return int(__d);
 359:/usr/include/c++/5/bits/basic_string.h ****       }
 360:/usr/include/c++/5/bits/basic_string.h **** 
 361:/usr/include/c++/5/bits/basic_string.h ****       void
 362:/usr/include/c++/5/bits/basic_string.h ****       _M_assign(const basic_string& __rcs);
 363:/usr/include/c++/5/bits/basic_string.h **** 
 364:/usr/include/c++/5/bits/basic_string.h ****       void
 365:/usr/include/c++/5/bits/basic_string.h ****       _M_mutate(size_type __pos, size_type __len1, const _CharT* __s,
 366:/usr/include/c++/5/bits/basic_string.h **** 		size_type __len2);
 367:/usr/include/c++/5/bits/basic_string.h **** 
 368:/usr/include/c++/5/bits/basic_string.h ****       void
 369:/usr/include/c++/5/bits/basic_string.h ****       _M_erase(size_type __pos, size_type __n);
 370:/usr/include/c++/5/bits/basic_string.h **** 
 371:/usr/include/c++/5/bits/basic_string.h ****     public:
 372:/usr/include/c++/5/bits/basic_string.h ****       // Construct/copy/destroy:
 373:/usr/include/c++/5/bits/basic_string.h ****       // NB: We overload ctors in some cases instead of using default
GAS LISTING /tmp/ccGYUW7A.s 			page 80


 374:/usr/include/c++/5/bits/basic_string.h ****       // arguments, per 17.4.4.4 para. 2 item 2.
 375:/usr/include/c++/5/bits/basic_string.h **** 
 376:/usr/include/c++/5/bits/basic_string.h ****       /**
 377:/usr/include/c++/5/bits/basic_string.h ****        *  @brief  Default constructor creates an empty string.
 378:/usr/include/c++/5/bits/basic_string.h ****        */
 379:/usr/include/c++/5/bits/basic_string.h ****       basic_string()
 380:/usr/include/c++/5/bits/basic_string.h **** #if __cplusplus >= 201103L
 381:/usr/include/c++/5/bits/basic_string.h ****       noexcept(is_nothrow_default_constructible<_Alloc>::value)
 382:/usr/include/c++/5/bits/basic_string.h **** #endif
 383:/usr/include/c++/5/bits/basic_string.h ****       : _M_dataplus(_M_local_data())
 384:/usr/include/c++/5/bits/basic_string.h ****       { _M_set_length(0); }
 385:/usr/include/c++/5/bits/basic_string.h **** 
 386:/usr/include/c++/5/bits/basic_string.h ****       /**
 387:/usr/include/c++/5/bits/basic_string.h ****        *  @brief  Construct an empty string using allocator @a a.
 388:/usr/include/c++/5/bits/basic_string.h ****        */
 389:/usr/include/c++/5/bits/basic_string.h ****       explicit
 390:/usr/include/c++/5/bits/basic_string.h ****       basic_string(const _Alloc& __a)
 391:/usr/include/c++/5/bits/basic_string.h ****       : _M_dataplus(_M_local_data(), __a)
 392:/usr/include/c++/5/bits/basic_string.h ****       { _M_set_length(0); }
 393:/usr/include/c++/5/bits/basic_string.h **** 
 394:/usr/include/c++/5/bits/basic_string.h ****       /**
 395:/usr/include/c++/5/bits/basic_string.h ****        *  @brief  Construct string with copy of value of @a __str.
 396:/usr/include/c++/5/bits/basic_string.h ****        *  @param  __str  Source string.
 397:/usr/include/c++/5/bits/basic_string.h ****        */
 398:/usr/include/c++/5/bits/basic_string.h ****       basic_string(const basic_string& __str)
 399:/usr/include/c++/5/bits/basic_string.h ****       : _M_dataplus(_M_local_data(), __str._M_get_allocator()) // TODO A traits
 400:/usr/include/c++/5/bits/basic_string.h ****       { _M_construct(__str._M_data(), __str._M_data() + __str.length()); }
 401:/usr/include/c++/5/bits/basic_string.h **** 
 402:/usr/include/c++/5/bits/basic_string.h ****       /**
 403:/usr/include/c++/5/bits/basic_string.h ****        *  @brief  Construct string as copy of a substring.
 404:/usr/include/c++/5/bits/basic_string.h ****        *  @param  __str  Source string.
 405:/usr/include/c++/5/bits/basic_string.h ****        *  @param  __pos  Index of first character to copy from.
 406:/usr/include/c++/5/bits/basic_string.h ****        *  @param  __n  Number of characters to copy (default remainder).
 407:/usr/include/c++/5/bits/basic_string.h ****        */
 408:/usr/include/c++/5/bits/basic_string.h ****       // _GLIBCXX_RESOLVE_LIB_DEFECTS
 409:/usr/include/c++/5/bits/basic_string.h ****       // 2402. [this constructor] shouldn't use Allocator()
 410:/usr/include/c++/5/bits/basic_string.h ****       basic_string(const basic_string& __str, size_type __pos,
 411:/usr/include/c++/5/bits/basic_string.h **** 		   size_type __n = npos)
 412:/usr/include/c++/5/bits/basic_string.h ****       : _M_dataplus(_M_local_data())
 413:/usr/include/c++/5/bits/basic_string.h ****       {
 414:/usr/include/c++/5/bits/basic_string.h **** 	const _CharT* __start = __str._M_data()
 415:/usr/include/c++/5/bits/basic_string.h **** 	  + __str._M_check(__pos, "basic_string::basic_string");
 416:/usr/include/c++/5/bits/basic_string.h **** 	_M_construct(__start, __start + __str._M_limit(__pos, __n));
 417:/usr/include/c++/5/bits/basic_string.h ****       }
 418:/usr/include/c++/5/bits/basic_string.h **** 
 419:/usr/include/c++/5/bits/basic_string.h ****       /**
 420:/usr/include/c++/5/bits/basic_string.h ****        *  @brief  Construct string as copy of a substring.
 421:/usr/include/c++/5/bits/basic_string.h ****        *  @param  __str  Source string.
 422:/usr/include/c++/5/bits/basic_string.h ****        *  @param  __pos  Index of first character to copy from.
 423:/usr/include/c++/5/bits/basic_string.h ****        *  @param  __n  Number of characters to copy (default remainder).
 424:/usr/include/c++/5/bits/basic_string.h ****        *  @param  __a  Allocator to use.
 425:/usr/include/c++/5/bits/basic_string.h ****        */
 426:/usr/include/c++/5/bits/basic_string.h ****       basic_string(const basic_string& __str, size_type __pos,
 427:/usr/include/c++/5/bits/basic_string.h **** 		   size_type __n, const _Alloc& __a)
 428:/usr/include/c++/5/bits/basic_string.h ****       : _M_dataplus(_M_local_data(), __a)
 429:/usr/include/c++/5/bits/basic_string.h ****       {
 430:/usr/include/c++/5/bits/basic_string.h **** 	const _CharT* __start
GAS LISTING /tmp/ccGYUW7A.s 			page 81


 431:/usr/include/c++/5/bits/basic_string.h **** 	  = __str._M_data() + __str._M_check(__pos, "string::string");
 432:/usr/include/c++/5/bits/basic_string.h **** 	_M_construct(__start, __start + __str._M_limit(__pos, __n));
 433:/usr/include/c++/5/bits/basic_string.h ****       }
 434:/usr/include/c++/5/bits/basic_string.h **** 
 435:/usr/include/c++/5/bits/basic_string.h ****       /**
 436:/usr/include/c++/5/bits/basic_string.h ****        *  @brief  Construct string initialized by a character %array.
 437:/usr/include/c++/5/bits/basic_string.h ****        *  @param  __s  Source character %array.
 438:/usr/include/c++/5/bits/basic_string.h ****        *  @param  __n  Number of characters to copy.
 439:/usr/include/c++/5/bits/basic_string.h ****        *  @param  __a  Allocator to use (default is default allocator).
 440:/usr/include/c++/5/bits/basic_string.h ****        *
 441:/usr/include/c++/5/bits/basic_string.h ****        *  NB: @a __s must have at least @a __n characters, &apos;\\0&apos;
 442:/usr/include/c++/5/bits/basic_string.h ****        *  has no special meaning.
 443:/usr/include/c++/5/bits/basic_string.h ****        */
 444:/usr/include/c++/5/bits/basic_string.h ****       basic_string(const _CharT* __s, size_type __n,
 445:/usr/include/c++/5/bits/basic_string.h **** 		   const _Alloc& __a = _Alloc())
 446:/usr/include/c++/5/bits/basic_string.h ****       : _M_dataplus(_M_local_data(), __a)
 447:/usr/include/c++/5/bits/basic_string.h ****       { _M_construct(__s, __s + __n); }
 448:/usr/include/c++/5/bits/basic_string.h **** 
 449:/usr/include/c++/5/bits/basic_string.h ****       /**
 450:/usr/include/c++/5/bits/basic_string.h ****        *  @brief  Construct string as copy of a C string.
 451:/usr/include/c++/5/bits/basic_string.h ****        *  @param  __s  Source C string.
 452:/usr/include/c++/5/bits/basic_string.h ****        *  @param  __a  Allocator to use (default is default allocator).
 453:/usr/include/c++/5/bits/basic_string.h ****        */
 454:/usr/include/c++/5/bits/basic_string.h ****       basic_string(const _CharT* __s, const _Alloc& __a = _Alloc())
 455:/usr/include/c++/5/bits/basic_string.h ****       : _M_dataplus(_M_local_data(), __a)
 456:/usr/include/c++/5/bits/basic_string.h ****       { _M_construct(__s, __s ? __s + traits_type::length(__s) : __s+npos); }
 457:/usr/include/c++/5/bits/basic_string.h **** 
 458:/usr/include/c++/5/bits/basic_string.h ****       /**
 459:/usr/include/c++/5/bits/basic_string.h ****        *  @brief  Construct string as multiple characters.
 460:/usr/include/c++/5/bits/basic_string.h ****        *  @param  __n  Number of characters.
 461:/usr/include/c++/5/bits/basic_string.h ****        *  @param  __c  Character to use.
 462:/usr/include/c++/5/bits/basic_string.h ****        *  @param  __a  Allocator to use (default is default allocator).
 463:/usr/include/c++/5/bits/basic_string.h ****        */
 464:/usr/include/c++/5/bits/basic_string.h ****       basic_string(size_type __n, _CharT __c, const _Alloc& __a = _Alloc())
 465:/usr/include/c++/5/bits/basic_string.h ****       : _M_dataplus(_M_local_data(), __a)
 466:/usr/include/c++/5/bits/basic_string.h ****       { _M_construct(__n, __c); }
 467:/usr/include/c++/5/bits/basic_string.h **** 
 468:/usr/include/c++/5/bits/basic_string.h **** #if __cplusplus >= 201103L
 469:/usr/include/c++/5/bits/basic_string.h ****       /**
 470:/usr/include/c++/5/bits/basic_string.h ****        *  @brief  Move construct string.
 471:/usr/include/c++/5/bits/basic_string.h ****        *  @param  __str  Source string.
 472:/usr/include/c++/5/bits/basic_string.h ****        *
 473:/usr/include/c++/5/bits/basic_string.h ****        *  The newly-created string contains the exact contents of @a __str.
 474:/usr/include/c++/5/bits/basic_string.h ****        *  @a __str is a valid, but unspecified string.
 475:/usr/include/c++/5/bits/basic_string.h ****        **/
 476:/usr/include/c++/5/bits/basic_string.h ****       basic_string(basic_string&& __str) noexcept
 477:/usr/include/c++/5/bits/basic_string.h ****       : _M_dataplus(_M_local_data(), std::move(__str._M_get_allocator()))
 478:/usr/include/c++/5/bits/basic_string.h ****       {
 479:/usr/include/c++/5/bits/basic_string.h **** 	if (__str._M_is_local())
 480:/usr/include/c++/5/bits/basic_string.h **** 	  {
 481:/usr/include/c++/5/bits/basic_string.h **** 	    traits_type::copy(_M_local_buf, __str._M_local_buf,
 482:/usr/include/c++/5/bits/basic_string.h **** 			      _S_local_capacity + 1);
 483:/usr/include/c++/5/bits/basic_string.h **** 	  }
 484:/usr/include/c++/5/bits/basic_string.h **** 	else
 485:/usr/include/c++/5/bits/basic_string.h **** 	  {
 486:/usr/include/c++/5/bits/basic_string.h **** 	    _M_data(__str._M_data());
 487:/usr/include/c++/5/bits/basic_string.h **** 	    _M_capacity(__str._M_allocated_capacity);
GAS LISTING /tmp/ccGYUW7A.s 			page 82


 488:/usr/include/c++/5/bits/basic_string.h **** 	  }
 489:/usr/include/c++/5/bits/basic_string.h **** 
 490:/usr/include/c++/5/bits/basic_string.h **** 	// Must use _M_length() here not _M_set_length() because
 491:/usr/include/c++/5/bits/basic_string.h **** 	// basic_stringbuf relies on writing into unallocated capacity so
 492:/usr/include/c++/5/bits/basic_string.h **** 	// we mess up the contents if we put a '\0' in the string.
 493:/usr/include/c++/5/bits/basic_string.h **** 	_M_length(__str.length());
 494:/usr/include/c++/5/bits/basic_string.h **** 	__str._M_data(__str._M_local_data());
 495:/usr/include/c++/5/bits/basic_string.h **** 	__str._M_set_length(0);
 496:/usr/include/c++/5/bits/basic_string.h ****       }
 497:/usr/include/c++/5/bits/basic_string.h **** 
 498:/usr/include/c++/5/bits/basic_string.h ****       /**
 499:/usr/include/c++/5/bits/basic_string.h ****        *  @brief  Construct string from an initializer %list.
 500:/usr/include/c++/5/bits/basic_string.h ****        *  @param  __l  std::initializer_list of characters.
 501:/usr/include/c++/5/bits/basic_string.h ****        *  @param  __a  Allocator to use (default is default allocator).
 502:/usr/include/c++/5/bits/basic_string.h ****        */
 503:/usr/include/c++/5/bits/basic_string.h ****       basic_string(initializer_list<_CharT> __l, const _Alloc& __a = _Alloc())
 504:/usr/include/c++/5/bits/basic_string.h ****       : _M_dataplus(_M_local_data(), __a)
 505:/usr/include/c++/5/bits/basic_string.h ****       { _M_construct(__l.begin(), __l.end()); }
 506:/usr/include/c++/5/bits/basic_string.h **** 
 507:/usr/include/c++/5/bits/basic_string.h ****       basic_string(const basic_string& __str, const _Alloc& __a)
 508:/usr/include/c++/5/bits/basic_string.h ****       : _M_dataplus(_M_local_data(), __a)
 509:/usr/include/c++/5/bits/basic_string.h ****       { _M_construct(__str.begin(), __str.end()); }
 510:/usr/include/c++/5/bits/basic_string.h **** 
 511:/usr/include/c++/5/bits/basic_string.h ****       basic_string(basic_string&& __str, const _Alloc& __a)
 512:/usr/include/c++/5/bits/basic_string.h ****       : _M_dataplus(_M_local_data(), __a)
 513:/usr/include/c++/5/bits/basic_string.h ****       {
 514:/usr/include/c++/5/bits/basic_string.h **** 	if (__str.get_allocator() == __a)
 515:/usr/include/c++/5/bits/basic_string.h **** 	  *this = std::move(__str);
 516:/usr/include/c++/5/bits/basic_string.h **** 	else
 517:/usr/include/c++/5/bits/basic_string.h **** 	  _M_construct(__str.begin(), __str.end());
 518:/usr/include/c++/5/bits/basic_string.h ****       }
 519:/usr/include/c++/5/bits/basic_string.h **** 
 520:/usr/include/c++/5/bits/basic_string.h **** #endif // C++11
 521:/usr/include/c++/5/bits/basic_string.h **** 
 522:/usr/include/c++/5/bits/basic_string.h ****       /**
 523:/usr/include/c++/5/bits/basic_string.h ****        *  @brief  Construct string as copy of a range.
 524:/usr/include/c++/5/bits/basic_string.h ****        *  @param  __beg  Start of range.
 525:/usr/include/c++/5/bits/basic_string.h ****        *  @param  __end  End of range.
 526:/usr/include/c++/5/bits/basic_string.h ****        *  @param  __a  Allocator to use (default is default allocator).
 527:/usr/include/c++/5/bits/basic_string.h ****        */
 528:/usr/include/c++/5/bits/basic_string.h **** #if __cplusplus >= 201103L
 529:/usr/include/c++/5/bits/basic_string.h ****       template<typename _InputIterator,
 530:/usr/include/c++/5/bits/basic_string.h **** 	       typename = std::_RequireInputIter<_InputIterator>>
 531:/usr/include/c++/5/bits/basic_string.h **** #else
 532:/usr/include/c++/5/bits/basic_string.h ****       template<typename _InputIterator>
 533:/usr/include/c++/5/bits/basic_string.h **** #endif
 534:/usr/include/c++/5/bits/basic_string.h ****         basic_string(_InputIterator __beg, _InputIterator __end,
 535:/usr/include/c++/5/bits/basic_string.h **** 		     const _Alloc& __a = _Alloc())
 536:/usr/include/c++/5/bits/basic_string.h **** 	: _M_dataplus(_M_local_data(), __a)
 537:/usr/include/c++/5/bits/basic_string.h **** 	{ _M_construct(__beg, __end); }
 538:/usr/include/c++/5/bits/basic_string.h **** 
 539:/usr/include/c++/5/bits/basic_string.h ****       /**
 540:/usr/include/c++/5/bits/basic_string.h ****        *  @brief  Destroy the string instance.
 541:/usr/include/c++/5/bits/basic_string.h ****        */
 542:/usr/include/c++/5/bits/basic_string.h ****       ~basic_string()
 543:/usr/include/c++/5/bits/basic_string.h ****       { _M_dispose(); }
 544:/usr/include/c++/5/bits/basic_string.h **** 
GAS LISTING /tmp/ccGYUW7A.s 			page 83


 545:/usr/include/c++/5/bits/basic_string.h ****       /**
 546:/usr/include/c++/5/bits/basic_string.h ****        *  @brief  Assign the value of @a str to this string.
 547:/usr/include/c++/5/bits/basic_string.h ****        *  @param  __str  Source string.
 548:/usr/include/c++/5/bits/basic_string.h ****        */
 549:/usr/include/c++/5/bits/basic_string.h ****       basic_string&
 550:/usr/include/c++/5/bits/basic_string.h ****       operator=(const basic_string& __str)
 551:/usr/include/c++/5/bits/basic_string.h ****       { return this->assign(__str); }
 552:/usr/include/c++/5/bits/basic_string.h **** 
 553:/usr/include/c++/5/bits/basic_string.h ****       /**
 554:/usr/include/c++/5/bits/basic_string.h ****        *  @brief  Copy contents of @a s into this string.
 555:/usr/include/c++/5/bits/basic_string.h ****        *  @param  __s  Source null-terminated string.
 556:/usr/include/c++/5/bits/basic_string.h ****        */
 557:/usr/include/c++/5/bits/basic_string.h ****       basic_string&
 558:/usr/include/c++/5/bits/basic_string.h ****       operator=(const _CharT* __s)
 559:/usr/include/c++/5/bits/basic_string.h ****       { return this->assign(__s); }
 560:/usr/include/c++/5/bits/basic_string.h **** 
 561:/usr/include/c++/5/bits/basic_string.h ****       /**
 562:/usr/include/c++/5/bits/basic_string.h ****        *  @brief  Set value to string of length 1.
 563:/usr/include/c++/5/bits/basic_string.h ****        *  @param  __c  Source character.
 564:/usr/include/c++/5/bits/basic_string.h ****        *
 565:/usr/include/c++/5/bits/basic_string.h ****        *  Assigning to a character makes this string length 1 and
 566:/usr/include/c++/5/bits/basic_string.h ****        *  (*this)[0] == @a c.
 567:/usr/include/c++/5/bits/basic_string.h ****        */
 568:/usr/include/c++/5/bits/basic_string.h ****       basic_string&
 569:/usr/include/c++/5/bits/basic_string.h ****       operator=(_CharT __c)
 570:/usr/include/c++/5/bits/basic_string.h ****       {
 571:/usr/include/c++/5/bits/basic_string.h **** 	this->assign(1, __c);
 572:/usr/include/c++/5/bits/basic_string.h **** 	return *this;
 573:/usr/include/c++/5/bits/basic_string.h ****       }
 574:/usr/include/c++/5/bits/basic_string.h **** 
 575:/usr/include/c++/5/bits/basic_string.h **** #if __cplusplus >= 201103L
 576:/usr/include/c++/5/bits/basic_string.h ****       /**
 577:/usr/include/c++/5/bits/basic_string.h ****        *  @brief  Move assign the value of @a str to this string.
 578:/usr/include/c++/5/bits/basic_string.h ****        *  @param  __str  Source string.
 579:/usr/include/c++/5/bits/basic_string.h ****        *
 580:/usr/include/c++/5/bits/basic_string.h ****        *  The contents of @a str are moved into this string (without copying).
 581:/usr/include/c++/5/bits/basic_string.h ****        *  @a str is a valid, but unspecified string.
 582:/usr/include/c++/5/bits/basic_string.h ****        **/
 583:/usr/include/c++/5/bits/basic_string.h ****       // PR 58265, this should be noexcept.
 584:/usr/include/c++/5/bits/basic_string.h ****       // _GLIBCXX_RESOLVE_LIB_DEFECTS
 585:/usr/include/c++/5/bits/basic_string.h ****       // 2063. Contradictory requirements for string move assignment
 586:/usr/include/c++/5/bits/basic_string.h ****       basic_string&
 587:/usr/include/c++/5/bits/basic_string.h ****       operator=(basic_string&& __str)
 588:/usr/include/c++/5/bits/basic_string.h ****       {
 589:/usr/include/c++/5/bits/basic_string.h **** 	this->swap(__str);
 590:/usr/include/c++/5/bits/basic_string.h **** 	return *this;
 591:/usr/include/c++/5/bits/basic_string.h ****       }
 592:/usr/include/c++/5/bits/basic_string.h **** 
 593:/usr/include/c++/5/bits/basic_string.h ****       /**
 594:/usr/include/c++/5/bits/basic_string.h ****        *  @brief  Set value to string constructed from initializer %list.
 595:/usr/include/c++/5/bits/basic_string.h ****        *  @param  __l  std::initializer_list.
 596:/usr/include/c++/5/bits/basic_string.h ****        */
 597:/usr/include/c++/5/bits/basic_string.h ****       basic_string&
 598:/usr/include/c++/5/bits/basic_string.h ****       operator=(initializer_list<_CharT> __l)
 599:/usr/include/c++/5/bits/basic_string.h ****       {
 600:/usr/include/c++/5/bits/basic_string.h **** 	this->assign(__l.begin(), __l.size());
 601:/usr/include/c++/5/bits/basic_string.h **** 	return *this;
GAS LISTING /tmp/ccGYUW7A.s 			page 84


 602:/usr/include/c++/5/bits/basic_string.h ****       }
 603:/usr/include/c++/5/bits/basic_string.h **** #endif // C++11
 604:/usr/include/c++/5/bits/basic_string.h **** 
 605:/usr/include/c++/5/bits/basic_string.h ****       // Iterators:
 606:/usr/include/c++/5/bits/basic_string.h ****       /**
 607:/usr/include/c++/5/bits/basic_string.h ****        *  Returns a read/write iterator that points to the first character in
 608:/usr/include/c++/5/bits/basic_string.h ****        *  the %string.
 609:/usr/include/c++/5/bits/basic_string.h ****        */
 610:/usr/include/c++/5/bits/basic_string.h ****       iterator
 611:/usr/include/c++/5/bits/basic_string.h ****       begin() _GLIBCXX_NOEXCEPT
 612:/usr/include/c++/5/bits/basic_string.h ****       { return iterator(_M_data()); }
 613:/usr/include/c++/5/bits/basic_string.h **** 
 614:/usr/include/c++/5/bits/basic_string.h ****       /**
 615:/usr/include/c++/5/bits/basic_string.h ****        *  Returns a read-only (constant) iterator that points to the first
 616:/usr/include/c++/5/bits/basic_string.h ****        *  character in the %string.
 617:/usr/include/c++/5/bits/basic_string.h ****        */
 618:/usr/include/c++/5/bits/basic_string.h ****       const_iterator
 619:/usr/include/c++/5/bits/basic_string.h ****       begin() const _GLIBCXX_NOEXCEPT
 620:/usr/include/c++/5/bits/basic_string.h ****       { return const_iterator(_M_data()); }
 621:/usr/include/c++/5/bits/basic_string.h **** 
 622:/usr/include/c++/5/bits/basic_string.h ****       /**
 623:/usr/include/c++/5/bits/basic_string.h ****        *  Returns a read/write iterator that points one past the last
 624:/usr/include/c++/5/bits/basic_string.h ****        *  character in the %string.
 625:/usr/include/c++/5/bits/basic_string.h ****        */
 626:/usr/include/c++/5/bits/basic_string.h ****       iterator
 627:/usr/include/c++/5/bits/basic_string.h ****       end() _GLIBCXX_NOEXCEPT
 628:/usr/include/c++/5/bits/basic_string.h ****       { return iterator(_M_data() + this->size()); }
 629:/usr/include/c++/5/bits/basic_string.h **** 
 630:/usr/include/c++/5/bits/basic_string.h ****       /**
 631:/usr/include/c++/5/bits/basic_string.h ****        *  Returns a read-only (constant) iterator that points one past the
 632:/usr/include/c++/5/bits/basic_string.h ****        *  last character in the %string.
 633:/usr/include/c++/5/bits/basic_string.h ****        */
 634:/usr/include/c++/5/bits/basic_string.h ****       const_iterator
 635:/usr/include/c++/5/bits/basic_string.h ****       end() const _GLIBCXX_NOEXCEPT
 636:/usr/include/c++/5/bits/basic_string.h ****       { return const_iterator(_M_data() + this->size()); }
 637:/usr/include/c++/5/bits/basic_string.h **** 
 638:/usr/include/c++/5/bits/basic_string.h ****       /**
 639:/usr/include/c++/5/bits/basic_string.h ****        *  Returns a read/write reverse iterator that points to the last
 640:/usr/include/c++/5/bits/basic_string.h ****        *  character in the %string.  Iteration is done in reverse element
 641:/usr/include/c++/5/bits/basic_string.h ****        *  order.
 642:/usr/include/c++/5/bits/basic_string.h ****        */
 643:/usr/include/c++/5/bits/basic_string.h ****       reverse_iterator
 644:/usr/include/c++/5/bits/basic_string.h ****       rbegin() _GLIBCXX_NOEXCEPT
 645:/usr/include/c++/5/bits/basic_string.h ****       { return reverse_iterator(this->end()); }
 646:/usr/include/c++/5/bits/basic_string.h **** 
 647:/usr/include/c++/5/bits/basic_string.h ****       /**
 648:/usr/include/c++/5/bits/basic_string.h ****        *  Returns a read-only (constant) reverse iterator that points
 649:/usr/include/c++/5/bits/basic_string.h ****        *  to the last character in the %string.  Iteration is done in
 650:/usr/include/c++/5/bits/basic_string.h ****        *  reverse element order.
 651:/usr/include/c++/5/bits/basic_string.h ****        */
 652:/usr/include/c++/5/bits/basic_string.h ****       const_reverse_iterator
 653:/usr/include/c++/5/bits/basic_string.h ****       rbegin() const _GLIBCXX_NOEXCEPT
 654:/usr/include/c++/5/bits/basic_string.h ****       { return const_reverse_iterator(this->end()); }
 655:/usr/include/c++/5/bits/basic_string.h **** 
 656:/usr/include/c++/5/bits/basic_string.h ****       /**
 657:/usr/include/c++/5/bits/basic_string.h ****        *  Returns a read/write reverse iterator that points to one before the
 658:/usr/include/c++/5/bits/basic_string.h ****        *  first character in the %string.  Iteration is done in reverse
GAS LISTING /tmp/ccGYUW7A.s 			page 85


 659:/usr/include/c++/5/bits/basic_string.h ****        *  element order.
 660:/usr/include/c++/5/bits/basic_string.h ****        */
 661:/usr/include/c++/5/bits/basic_string.h ****       reverse_iterator
 662:/usr/include/c++/5/bits/basic_string.h ****       rend() _GLIBCXX_NOEXCEPT
 663:/usr/include/c++/5/bits/basic_string.h ****       { return reverse_iterator(this->begin()); }
 664:/usr/include/c++/5/bits/basic_string.h **** 
 665:/usr/include/c++/5/bits/basic_string.h ****       /**
 666:/usr/include/c++/5/bits/basic_string.h ****        *  Returns a read-only (constant) reverse iterator that points
 667:/usr/include/c++/5/bits/basic_string.h ****        *  to one before the first character in the %string.  Iteration
 668:/usr/include/c++/5/bits/basic_string.h ****        *  is done in reverse element order.
 669:/usr/include/c++/5/bits/basic_string.h ****        */
 670:/usr/include/c++/5/bits/basic_string.h ****       const_reverse_iterator
 671:/usr/include/c++/5/bits/basic_string.h ****       rend() const _GLIBCXX_NOEXCEPT
 672:/usr/include/c++/5/bits/basic_string.h ****       { return const_reverse_iterator(this->begin()); }
 673:/usr/include/c++/5/bits/basic_string.h **** 
 674:/usr/include/c++/5/bits/basic_string.h **** #if __cplusplus >= 201103L
 675:/usr/include/c++/5/bits/basic_string.h ****       /**
 676:/usr/include/c++/5/bits/basic_string.h ****        *  Returns a read-only (constant) iterator that points to the first
 677:/usr/include/c++/5/bits/basic_string.h ****        *  character in the %string.
 678:/usr/include/c++/5/bits/basic_string.h ****        */
 679:/usr/include/c++/5/bits/basic_string.h ****       const_iterator
 680:/usr/include/c++/5/bits/basic_string.h ****       cbegin() const noexcept
 681:/usr/include/c++/5/bits/basic_string.h ****       { return const_iterator(this->_M_data()); }
 682:/usr/include/c++/5/bits/basic_string.h **** 
 683:/usr/include/c++/5/bits/basic_string.h ****       /**
 684:/usr/include/c++/5/bits/basic_string.h ****        *  Returns a read-only (constant) iterator that points one past the
 685:/usr/include/c++/5/bits/basic_string.h ****        *  last character in the %string.
 686:/usr/include/c++/5/bits/basic_string.h ****        */
 687:/usr/include/c++/5/bits/basic_string.h ****       const_iterator
 688:/usr/include/c++/5/bits/basic_string.h ****       cend() const noexcept
 689:/usr/include/c++/5/bits/basic_string.h ****       { return const_iterator(this->_M_data() + this->size()); }
 690:/usr/include/c++/5/bits/basic_string.h **** 
 691:/usr/include/c++/5/bits/basic_string.h ****       /**
 692:/usr/include/c++/5/bits/basic_string.h ****        *  Returns a read-only (constant) reverse iterator that points
 693:/usr/include/c++/5/bits/basic_string.h ****        *  to the last character in the %string.  Iteration is done in
 694:/usr/include/c++/5/bits/basic_string.h ****        *  reverse element order.
 695:/usr/include/c++/5/bits/basic_string.h ****        */
 696:/usr/include/c++/5/bits/basic_string.h ****       const_reverse_iterator
 697:/usr/include/c++/5/bits/basic_string.h ****       crbegin() const noexcept
 698:/usr/include/c++/5/bits/basic_string.h ****       { return const_reverse_iterator(this->end()); }
 699:/usr/include/c++/5/bits/basic_string.h **** 
 700:/usr/include/c++/5/bits/basic_string.h ****       /**
 701:/usr/include/c++/5/bits/basic_string.h ****        *  Returns a read-only (constant) reverse iterator that points
 702:/usr/include/c++/5/bits/basic_string.h ****        *  to one before the first character in the %string.  Iteration
 703:/usr/include/c++/5/bits/basic_string.h ****        *  is done in reverse element order.
 704:/usr/include/c++/5/bits/basic_string.h ****        */
 705:/usr/include/c++/5/bits/basic_string.h ****       const_reverse_iterator
 706:/usr/include/c++/5/bits/basic_string.h ****       crend() const noexcept
 707:/usr/include/c++/5/bits/basic_string.h ****       { return const_reverse_iterator(this->begin()); }
 708:/usr/include/c++/5/bits/basic_string.h **** #endif
 709:/usr/include/c++/5/bits/basic_string.h **** 
 710:/usr/include/c++/5/bits/basic_string.h ****     public:
 711:/usr/include/c++/5/bits/basic_string.h ****       // Capacity:
 712:/usr/include/c++/5/bits/basic_string.h ****       ///  Returns the number of characters in the string, not including any
 713:/usr/include/c++/5/bits/basic_string.h ****       ///  null-termination.
 714:/usr/include/c++/5/bits/basic_string.h ****       size_type
 715:/usr/include/c++/5/bits/basic_string.h ****       size() const _GLIBCXX_NOEXCEPT
GAS LISTING /tmp/ccGYUW7A.s 			page 86


 716:/usr/include/c++/5/bits/basic_string.h ****       { return _M_string_length; }
 717:/usr/include/c++/5/bits/basic_string.h **** 
 718:/usr/include/c++/5/bits/basic_string.h ****       ///  Returns the number of characters in the string, not including any
 719:/usr/include/c++/5/bits/basic_string.h ****       ///  null-termination.
 720:/usr/include/c++/5/bits/basic_string.h ****       size_type
 721:/usr/include/c++/5/bits/basic_string.h ****       length() const _GLIBCXX_NOEXCEPT
 722:/usr/include/c++/5/bits/basic_string.h ****       { return _M_string_length; }
 723:/usr/include/c++/5/bits/basic_string.h **** 
 724:/usr/include/c++/5/bits/basic_string.h ****       ///  Returns the size() of the largest possible %string.
 725:/usr/include/c++/5/bits/basic_string.h ****       size_type
 726:/usr/include/c++/5/bits/basic_string.h ****       max_size() const _GLIBCXX_NOEXCEPT
 727:/usr/include/c++/5/bits/basic_string.h ****       { return (_Alloc_traits::max_size(_M_get_allocator()) - 1) / 2; }
 728:/usr/include/c++/5/bits/basic_string.h **** 
 729:/usr/include/c++/5/bits/basic_string.h ****       /**
 730:/usr/include/c++/5/bits/basic_string.h ****        *  @brief  Resizes the %string to the specified number of characters.
 731:/usr/include/c++/5/bits/basic_string.h ****        *  @param  __n  Number of characters the %string should contain.
 732:/usr/include/c++/5/bits/basic_string.h ****        *  @param  __c  Character to fill any new elements.
 733:/usr/include/c++/5/bits/basic_string.h ****        *
 734:/usr/include/c++/5/bits/basic_string.h ****        *  This function will %resize the %string to the specified
 735:/usr/include/c++/5/bits/basic_string.h ****        *  number of characters.  If the number is smaller than the
 736:/usr/include/c++/5/bits/basic_string.h ****        *  %string's current size the %string is truncated, otherwise
 737:/usr/include/c++/5/bits/basic_string.h ****        *  the %string is extended and new elements are %set to @a __c.
 738:/usr/include/c++/5/bits/basic_string.h ****        */
 739:/usr/include/c++/5/bits/basic_string.h ****       void
 740:/usr/include/c++/5/bits/basic_string.h ****       resize(size_type __n, _CharT __c);
 741:/usr/include/c++/5/bits/basic_string.h **** 
 742:/usr/include/c++/5/bits/basic_string.h ****       /**
 743:/usr/include/c++/5/bits/basic_string.h ****        *  @brief  Resizes the %string to the specified number of characters.
 744:/usr/include/c++/5/bits/basic_string.h ****        *  @param  __n  Number of characters the %string should contain.
 745:/usr/include/c++/5/bits/basic_string.h ****        *
 746:/usr/include/c++/5/bits/basic_string.h ****        *  This function will resize the %string to the specified length.  If
 747:/usr/include/c++/5/bits/basic_string.h ****        *  the new size is smaller than the %string's current size the %string
 748:/usr/include/c++/5/bits/basic_string.h ****        *  is truncated, otherwise the %string is extended and new characters
 749:/usr/include/c++/5/bits/basic_string.h ****        *  are default-constructed.  For basic types such as char, this means
 750:/usr/include/c++/5/bits/basic_string.h ****        *  setting them to 0.
 751:/usr/include/c++/5/bits/basic_string.h ****        */
 752:/usr/include/c++/5/bits/basic_string.h ****       void
 753:/usr/include/c++/5/bits/basic_string.h ****       resize(size_type __n)
 754:/usr/include/c++/5/bits/basic_string.h ****       { this->resize(__n, _CharT()); }
 755:/usr/include/c++/5/bits/basic_string.h **** 
 756:/usr/include/c++/5/bits/basic_string.h **** #if __cplusplus >= 201103L
 757:/usr/include/c++/5/bits/basic_string.h ****       ///  A non-binding request to reduce capacity() to size().
 758:/usr/include/c++/5/bits/basic_string.h ****       void
 759:/usr/include/c++/5/bits/basic_string.h ****       shrink_to_fit() noexcept
 760:/usr/include/c++/5/bits/basic_string.h ****       {
 761:/usr/include/c++/5/bits/basic_string.h **** #if __cpp_exceptions
 762:/usr/include/c++/5/bits/basic_string.h **** 	if (capacity() > size())
 763:/usr/include/c++/5/bits/basic_string.h **** 	  {
 764:/usr/include/c++/5/bits/basic_string.h **** 	    try
 765:/usr/include/c++/5/bits/basic_string.h **** 	      { reserve(0); }
 766:/usr/include/c++/5/bits/basic_string.h **** 	    catch(...)
 767:/usr/include/c++/5/bits/basic_string.h **** 	      { }
 768:/usr/include/c++/5/bits/basic_string.h **** 	  }
 769:/usr/include/c++/5/bits/basic_string.h **** #endif
 770:/usr/include/c++/5/bits/basic_string.h ****       }
 771:/usr/include/c++/5/bits/basic_string.h **** #endif
 772:/usr/include/c++/5/bits/basic_string.h **** 
GAS LISTING /tmp/ccGYUW7A.s 			page 87


 773:/usr/include/c++/5/bits/basic_string.h ****       /**
 774:/usr/include/c++/5/bits/basic_string.h ****        *  Returns the total number of characters that the %string can hold
 775:/usr/include/c++/5/bits/basic_string.h ****        *  before needing to allocate more memory.
 776:/usr/include/c++/5/bits/basic_string.h ****        */
 777:/usr/include/c++/5/bits/basic_string.h ****       size_type
 778:/usr/include/c++/5/bits/basic_string.h ****       capacity() const _GLIBCXX_NOEXCEPT
 779:/usr/include/c++/5/bits/basic_string.h ****       {
 780:/usr/include/c++/5/bits/basic_string.h **** 	return _M_is_local() ? size_type(_S_local_capacity)
 781:/usr/include/c++/5/bits/basic_string.h **** 	                     : _M_allocated_capacity;
 782:/usr/include/c++/5/bits/basic_string.h ****       }
 783:/usr/include/c++/5/bits/basic_string.h **** 
 784:/usr/include/c++/5/bits/basic_string.h ****       /**
 785:/usr/include/c++/5/bits/basic_string.h ****        *  @brief  Attempt to preallocate enough memory for specified number of
 786:/usr/include/c++/5/bits/basic_string.h ****        *          characters.
 787:/usr/include/c++/5/bits/basic_string.h ****        *  @param  __res_arg  Number of characters required.
 788:/usr/include/c++/5/bits/basic_string.h ****        *  @throw  std::length_error  If @a __res_arg exceeds @c max_size().
 789:/usr/include/c++/5/bits/basic_string.h ****        *
 790:/usr/include/c++/5/bits/basic_string.h ****        *  This function attempts to reserve enough memory for the
 791:/usr/include/c++/5/bits/basic_string.h ****        *  %string to hold the specified number of characters.  If the
 792:/usr/include/c++/5/bits/basic_string.h ****        *  number requested is more than max_size(), length_error is
 793:/usr/include/c++/5/bits/basic_string.h ****        *  thrown.
 794:/usr/include/c++/5/bits/basic_string.h ****        *
 795:/usr/include/c++/5/bits/basic_string.h ****        *  The advantage of this function is that if optimal code is a
 796:/usr/include/c++/5/bits/basic_string.h ****        *  necessity and the user can determine the string length that will be
 797:/usr/include/c++/5/bits/basic_string.h ****        *  required, the user can reserve the memory in %advance, and thus
 798:/usr/include/c++/5/bits/basic_string.h ****        *  prevent a possible reallocation of memory and copying of %string
 799:/usr/include/c++/5/bits/basic_string.h ****        *  data.
 800:/usr/include/c++/5/bits/basic_string.h ****        */
 801:/usr/include/c++/5/bits/basic_string.h ****       void
 802:/usr/include/c++/5/bits/basic_string.h ****       reserve(size_type __res_arg = 0);
 803:/usr/include/c++/5/bits/basic_string.h **** 
 804:/usr/include/c++/5/bits/basic_string.h ****       /**
 805:/usr/include/c++/5/bits/basic_string.h ****        *  Erases the string, making it empty.
 806:/usr/include/c++/5/bits/basic_string.h ****        */
 807:/usr/include/c++/5/bits/basic_string.h ****       void
 808:/usr/include/c++/5/bits/basic_string.h ****       clear() _GLIBCXX_NOEXCEPT
 809:/usr/include/c++/5/bits/basic_string.h ****       { _M_set_length(0); }
 810:/usr/include/c++/5/bits/basic_string.h **** 
 811:/usr/include/c++/5/bits/basic_string.h ****       /**
 812:/usr/include/c++/5/bits/basic_string.h ****        *  Returns true if the %string is empty.  Equivalent to 
 813:/usr/include/c++/5/bits/basic_string.h ****        *  <code>*this == ""</code>.
 814:/usr/include/c++/5/bits/basic_string.h ****        */
 815:/usr/include/c++/5/bits/basic_string.h ****       bool
 816:/usr/include/c++/5/bits/basic_string.h ****       empty() const _GLIBCXX_NOEXCEPT
 817:/usr/include/c++/5/bits/basic_string.h ****       { return this->size() == 0; }
 818:/usr/include/c++/5/bits/basic_string.h **** 
 819:/usr/include/c++/5/bits/basic_string.h ****       // Element access:
 820:/usr/include/c++/5/bits/basic_string.h ****       /**
 821:/usr/include/c++/5/bits/basic_string.h ****        *  @brief  Subscript access to the data contained in the %string.
 822:/usr/include/c++/5/bits/basic_string.h ****        *  @param  __pos  The index of the character to access.
 823:/usr/include/c++/5/bits/basic_string.h ****        *  @return  Read-only (constant) reference to the character.
 824:/usr/include/c++/5/bits/basic_string.h ****        *
 825:/usr/include/c++/5/bits/basic_string.h ****        *  This operator allows for easy, array-style, data access.
 826:/usr/include/c++/5/bits/basic_string.h ****        *  Note that data access with this operator is unchecked and
 827:/usr/include/c++/5/bits/basic_string.h ****        *  out_of_range lookups are not defined. (For checked lookups
 828:/usr/include/c++/5/bits/basic_string.h ****        *  see at().)
 829:/usr/include/c++/5/bits/basic_string.h ****        */
GAS LISTING /tmp/ccGYUW7A.s 			page 88


 830:/usr/include/c++/5/bits/basic_string.h ****       const_reference
 831:/usr/include/c++/5/bits/basic_string.h ****       operator[] (size_type __pos) const _GLIBCXX_NOEXCEPT
 832:/usr/include/c++/5/bits/basic_string.h ****       {
 833:/usr/include/c++/5/bits/basic_string.h **** 	_GLIBCXX_DEBUG_ASSERT(__pos <= size());
 834:/usr/include/c++/5/bits/basic_string.h **** 	return _M_data()[__pos];
 835:/usr/include/c++/5/bits/basic_string.h ****       }
 836:/usr/include/c++/5/bits/basic_string.h **** 
 837:/usr/include/c++/5/bits/basic_string.h ****       /**
 838:/usr/include/c++/5/bits/basic_string.h ****        *  @brief  Subscript access to the data contained in the %string.
 839:/usr/include/c++/5/bits/basic_string.h ****        *  @param  __pos  The index of the character to access.
 840:/usr/include/c++/5/bits/basic_string.h ****        *  @return  Read/write reference to the character.
 841:/usr/include/c++/5/bits/basic_string.h ****        *
 842:/usr/include/c++/5/bits/basic_string.h ****        *  This operator allows for easy, array-style, data access.
 843:/usr/include/c++/5/bits/basic_string.h ****        *  Note that data access with this operator is unchecked and
 844:/usr/include/c++/5/bits/basic_string.h ****        *  out_of_range lookups are not defined. (For checked lookups
 845:/usr/include/c++/5/bits/basic_string.h ****        *  see at().)
 846:/usr/include/c++/5/bits/basic_string.h ****        */
 847:/usr/include/c++/5/bits/basic_string.h ****       reference
 848:/usr/include/c++/5/bits/basic_string.h ****       operator[](size_type __pos)
 849:/usr/include/c++/5/bits/basic_string.h ****       {
 850:/usr/include/c++/5/bits/basic_string.h ****         // Allow pos == size() both in C++98 mode, as v3 extension,
 851:/usr/include/c++/5/bits/basic_string.h **** 	// and in C++11 mode.
 852:/usr/include/c++/5/bits/basic_string.h **** 	_GLIBCXX_DEBUG_ASSERT(__pos <= size());
 853:/usr/include/c++/5/bits/basic_string.h ****         // In pedantic mode be strict in C++98 mode.
 854:/usr/include/c++/5/bits/basic_string.h **** 	_GLIBCXX_DEBUG_PEDASSERT(__cplusplus >= 201103L || __pos < size());
 855:/usr/include/c++/5/bits/basic_string.h **** 	return _M_data()[__pos];
 856:/usr/include/c++/5/bits/basic_string.h ****       }
 857:/usr/include/c++/5/bits/basic_string.h **** 
 858:/usr/include/c++/5/bits/basic_string.h ****       /**
 859:/usr/include/c++/5/bits/basic_string.h ****        *  @brief  Provides access to the data contained in the %string.
 860:/usr/include/c++/5/bits/basic_string.h ****        *  @param __n The index of the character to access.
 861:/usr/include/c++/5/bits/basic_string.h ****        *  @return  Read-only (const) reference to the character.
 862:/usr/include/c++/5/bits/basic_string.h ****        *  @throw  std::out_of_range  If @a n is an invalid index.
 863:/usr/include/c++/5/bits/basic_string.h ****        *
 864:/usr/include/c++/5/bits/basic_string.h ****        *  This function provides for safer data access.  The parameter is
 865:/usr/include/c++/5/bits/basic_string.h ****        *  first checked that it is in the range of the string.  The function
 866:/usr/include/c++/5/bits/basic_string.h ****        *  throws out_of_range if the check fails.
 867:/usr/include/c++/5/bits/basic_string.h ****        */
 868:/usr/include/c++/5/bits/basic_string.h ****       const_reference
 869:/usr/include/c++/5/bits/basic_string.h ****       at(size_type __n) const
 870:/usr/include/c++/5/bits/basic_string.h ****       {
 871:/usr/include/c++/5/bits/basic_string.h **** 	if (__n >= this->size())
 872:/usr/include/c++/5/bits/basic_string.h **** 	  __throw_out_of_range_fmt(__N("basic_string::at: __n "
 873:/usr/include/c++/5/bits/basic_string.h **** 				       "(which is %zu) >= this->size() "
 874:/usr/include/c++/5/bits/basic_string.h **** 				       "(which is %zu)"),
 875:/usr/include/c++/5/bits/basic_string.h **** 				   __n, this->size());
 876:/usr/include/c++/5/bits/basic_string.h **** 	return _M_data()[__n];
 877:/usr/include/c++/5/bits/basic_string.h ****       }
 878:/usr/include/c++/5/bits/basic_string.h **** 
 879:/usr/include/c++/5/bits/basic_string.h ****       /**
 880:/usr/include/c++/5/bits/basic_string.h ****        *  @brief  Provides access to the data contained in the %string.
 881:/usr/include/c++/5/bits/basic_string.h ****        *  @param __n The index of the character to access.
 882:/usr/include/c++/5/bits/basic_string.h ****        *  @return  Read/write reference to the character.
 883:/usr/include/c++/5/bits/basic_string.h ****        *  @throw  std::out_of_range  If @a n is an invalid index.
 884:/usr/include/c++/5/bits/basic_string.h ****        *
 885:/usr/include/c++/5/bits/basic_string.h ****        *  This function provides for safer data access.  The parameter is
 886:/usr/include/c++/5/bits/basic_string.h ****        *  first checked that it is in the range of the string.  The function
GAS LISTING /tmp/ccGYUW7A.s 			page 89


 887:/usr/include/c++/5/bits/basic_string.h ****        *  throws out_of_range if the check fails.
 888:/usr/include/c++/5/bits/basic_string.h ****        */
 889:/usr/include/c++/5/bits/basic_string.h ****       reference
 890:/usr/include/c++/5/bits/basic_string.h ****       at(size_type __n)
 891:/usr/include/c++/5/bits/basic_string.h ****       {
 892:/usr/include/c++/5/bits/basic_string.h **** 	if (__n >= size())
 893:/usr/include/c++/5/bits/basic_string.h **** 	  __throw_out_of_range_fmt(__N("basic_string::at: __n "
 894:/usr/include/c++/5/bits/basic_string.h **** 				       "(which is %zu) >= this->size() "
 895:/usr/include/c++/5/bits/basic_string.h **** 				       "(which is %zu)"),
 896:/usr/include/c++/5/bits/basic_string.h **** 				   __n, this->size());
 897:/usr/include/c++/5/bits/basic_string.h **** 	return _M_data()[__n];
 898:/usr/include/c++/5/bits/basic_string.h ****       }
 899:/usr/include/c++/5/bits/basic_string.h **** 
 900:/usr/include/c++/5/bits/basic_string.h **** #if __cplusplus >= 201103L
 901:/usr/include/c++/5/bits/basic_string.h ****       /**
 902:/usr/include/c++/5/bits/basic_string.h ****        *  Returns a read/write reference to the data at the first
 903:/usr/include/c++/5/bits/basic_string.h ****        *  element of the %string.
 904:/usr/include/c++/5/bits/basic_string.h ****        */
 905:/usr/include/c++/5/bits/basic_string.h ****       reference
 906:/usr/include/c++/5/bits/basic_string.h ****       front() noexcept
 907:/usr/include/c++/5/bits/basic_string.h ****       { return operator[](0); }
 908:/usr/include/c++/5/bits/basic_string.h **** 
 909:/usr/include/c++/5/bits/basic_string.h ****       /**
 910:/usr/include/c++/5/bits/basic_string.h ****        *  Returns a read-only (constant) reference to the data at the first
 911:/usr/include/c++/5/bits/basic_string.h ****        *  element of the %string.
 912:/usr/include/c++/5/bits/basic_string.h ****        */
 913:/usr/include/c++/5/bits/basic_string.h ****       const_reference
 914:/usr/include/c++/5/bits/basic_string.h ****       front() const noexcept
 915:/usr/include/c++/5/bits/basic_string.h ****       { return operator[](0); }
 916:/usr/include/c++/5/bits/basic_string.h **** 
 917:/usr/include/c++/5/bits/basic_string.h ****       /**
 918:/usr/include/c++/5/bits/basic_string.h ****        *  Returns a read/write reference to the data at the last
 919:/usr/include/c++/5/bits/basic_string.h ****        *  element of the %string.
 920:/usr/include/c++/5/bits/basic_string.h ****        */
 921:/usr/include/c++/5/bits/basic_string.h ****       reference
 922:/usr/include/c++/5/bits/basic_string.h ****       back() noexcept
 923:/usr/include/c++/5/bits/basic_string.h ****       { return operator[](this->size() - 1); }
 924:/usr/include/c++/5/bits/basic_string.h **** 
 925:/usr/include/c++/5/bits/basic_string.h ****       /**
 926:/usr/include/c++/5/bits/basic_string.h ****        *  Returns a read-only (constant) reference to the data at the
 927:/usr/include/c++/5/bits/basic_string.h ****        *  last element of the %string.
 928:/usr/include/c++/5/bits/basic_string.h ****        */
 929:/usr/include/c++/5/bits/basic_string.h ****       const_reference
 930:/usr/include/c++/5/bits/basic_string.h ****       back() const noexcept
 931:/usr/include/c++/5/bits/basic_string.h ****       { return operator[](this->size() - 1); }
 932:/usr/include/c++/5/bits/basic_string.h **** #endif
 933:/usr/include/c++/5/bits/basic_string.h **** 
 934:/usr/include/c++/5/bits/basic_string.h ****       // Modifiers:
 935:/usr/include/c++/5/bits/basic_string.h ****       /**
 936:/usr/include/c++/5/bits/basic_string.h ****        *  @brief  Append a string to this string.
 937:/usr/include/c++/5/bits/basic_string.h ****        *  @param __str  The string to append.
 938:/usr/include/c++/5/bits/basic_string.h ****        *  @return  Reference to this string.
 939:/usr/include/c++/5/bits/basic_string.h ****        */
 940:/usr/include/c++/5/bits/basic_string.h ****       basic_string&
 941:/usr/include/c++/5/bits/basic_string.h ****       operator+=(const basic_string& __str)
 942:/usr/include/c++/5/bits/basic_string.h ****       { return this->append(__str); }
 943:/usr/include/c++/5/bits/basic_string.h **** 
GAS LISTING /tmp/ccGYUW7A.s 			page 90


 944:/usr/include/c++/5/bits/basic_string.h ****       /**
 945:/usr/include/c++/5/bits/basic_string.h ****        *  @brief  Append a C string.
 946:/usr/include/c++/5/bits/basic_string.h ****        *  @param __s  The C string to append.
 947:/usr/include/c++/5/bits/basic_string.h ****        *  @return  Reference to this string.
 948:/usr/include/c++/5/bits/basic_string.h ****        */
 949:/usr/include/c++/5/bits/basic_string.h ****       basic_string&
 950:/usr/include/c++/5/bits/basic_string.h ****       operator+=(const _CharT* __s)
 951:/usr/include/c++/5/bits/basic_string.h ****       { return this->append(__s); }
 952:/usr/include/c++/5/bits/basic_string.h **** 
 953:/usr/include/c++/5/bits/basic_string.h ****       /**
 954:/usr/include/c++/5/bits/basic_string.h ****        *  @brief  Append a character.
 955:/usr/include/c++/5/bits/basic_string.h ****        *  @param __c  The character to append.
 956:/usr/include/c++/5/bits/basic_string.h ****        *  @return  Reference to this string.
 957:/usr/include/c++/5/bits/basic_string.h ****        */
 958:/usr/include/c++/5/bits/basic_string.h ****       basic_string&
 959:/usr/include/c++/5/bits/basic_string.h ****       operator+=(_CharT __c)
 960:/usr/include/c++/5/bits/basic_string.h ****       {
 961:/usr/include/c++/5/bits/basic_string.h **** 	this->push_back(__c);
 962:/usr/include/c++/5/bits/basic_string.h **** 	return *this;
 963:/usr/include/c++/5/bits/basic_string.h ****       }
 964:/usr/include/c++/5/bits/basic_string.h **** 
 965:/usr/include/c++/5/bits/basic_string.h **** #if __cplusplus >= 201103L
 966:/usr/include/c++/5/bits/basic_string.h ****       /**
 967:/usr/include/c++/5/bits/basic_string.h ****        *  @brief  Append an initializer_list of characters.
 968:/usr/include/c++/5/bits/basic_string.h ****        *  @param __l  The initializer_list of characters to be appended.
 969:/usr/include/c++/5/bits/basic_string.h ****        *  @return  Reference to this string.
 970:/usr/include/c++/5/bits/basic_string.h ****        */
 971:/usr/include/c++/5/bits/basic_string.h ****       basic_string&
 972:/usr/include/c++/5/bits/basic_string.h ****       operator+=(initializer_list<_CharT> __l)
 973:/usr/include/c++/5/bits/basic_string.h ****       { return this->append(__l.begin(), __l.size()); }
 974:/usr/include/c++/5/bits/basic_string.h **** #endif // C++11
 975:/usr/include/c++/5/bits/basic_string.h **** 
 976:/usr/include/c++/5/bits/basic_string.h ****       /**
 977:/usr/include/c++/5/bits/basic_string.h ****        *  @brief  Append a string to this string.
 978:/usr/include/c++/5/bits/basic_string.h ****        *  @param __str  The string to append.
 979:/usr/include/c++/5/bits/basic_string.h ****        *  @return  Reference to this string.
 980:/usr/include/c++/5/bits/basic_string.h ****        */
 981:/usr/include/c++/5/bits/basic_string.h ****       basic_string&
 982:/usr/include/c++/5/bits/basic_string.h ****       append(const basic_string& __str)
 983:/usr/include/c++/5/bits/basic_string.h ****       { return _M_append(__str._M_data(), __str.size()); }
 984:/usr/include/c++/5/bits/basic_string.h **** 
 985:/usr/include/c++/5/bits/basic_string.h ****       /**
 986:/usr/include/c++/5/bits/basic_string.h ****        *  @brief  Append a substring.
 987:/usr/include/c++/5/bits/basic_string.h ****        *  @param __str  The string to append.
 988:/usr/include/c++/5/bits/basic_string.h ****        *  @param __pos  Index of the first character of str to append.
 989:/usr/include/c++/5/bits/basic_string.h ****        *  @param __n  The number of characters to append.
 990:/usr/include/c++/5/bits/basic_string.h ****        *  @return  Reference to this string.
 991:/usr/include/c++/5/bits/basic_string.h ****        *  @throw  std::out_of_range if @a __pos is not a valid index.
 992:/usr/include/c++/5/bits/basic_string.h ****        *
 993:/usr/include/c++/5/bits/basic_string.h ****        *  This function appends @a __n characters from @a __str
 994:/usr/include/c++/5/bits/basic_string.h ****        *  starting at @a __pos to this string.  If @a __n is is larger
 995:/usr/include/c++/5/bits/basic_string.h ****        *  than the number of available characters in @a __str, the
 996:/usr/include/c++/5/bits/basic_string.h ****        *  remainder of @a __str is appended.
 997:/usr/include/c++/5/bits/basic_string.h ****        */
 998:/usr/include/c++/5/bits/basic_string.h ****       basic_string&
 999:/usr/include/c++/5/bits/basic_string.h ****       append(const basic_string& __str, size_type __pos, size_type __n)
1000:/usr/include/c++/5/bits/basic_string.h ****       { return _M_append(__str._M_data()
GAS LISTING /tmp/ccGYUW7A.s 			page 91


1001:/usr/include/c++/5/bits/basic_string.h **** 			 + __str._M_check(__pos, "basic_string::append"),
1002:/usr/include/c++/5/bits/basic_string.h **** 			 __str._M_limit(__pos, __n)); }
1003:/usr/include/c++/5/bits/basic_string.h **** 
1004:/usr/include/c++/5/bits/basic_string.h ****       /**
1005:/usr/include/c++/5/bits/basic_string.h ****        *  @brief  Append a C substring.
1006:/usr/include/c++/5/bits/basic_string.h ****        *  @param __s  The C string to append.
1007:/usr/include/c++/5/bits/basic_string.h ****        *  @param __n  The number of characters to append.
1008:/usr/include/c++/5/bits/basic_string.h ****        *  @return  Reference to this string.
1009:/usr/include/c++/5/bits/basic_string.h ****        */
1010:/usr/include/c++/5/bits/basic_string.h ****       basic_string&
1011:/usr/include/c++/5/bits/basic_string.h ****       append(const _CharT* __s, size_type __n)
1012:/usr/include/c++/5/bits/basic_string.h ****       {
1013:/usr/include/c++/5/bits/basic_string.h **** 	__glibcxx_requires_string_len(__s, __n);
1014:/usr/include/c++/5/bits/basic_string.h **** 	_M_check_length(size_type(0), __n, "basic_string::append");
1015:/usr/include/c++/5/bits/basic_string.h **** 	return _M_append(__s, __n);
1016:/usr/include/c++/5/bits/basic_string.h ****       }
1017:/usr/include/c++/5/bits/basic_string.h **** 
1018:/usr/include/c++/5/bits/basic_string.h ****       /**
1019:/usr/include/c++/5/bits/basic_string.h ****        *  @brief  Append a C string.
1020:/usr/include/c++/5/bits/basic_string.h ****        *  @param __s  The C string to append.
1021:/usr/include/c++/5/bits/basic_string.h ****        *  @return  Reference to this string.
1022:/usr/include/c++/5/bits/basic_string.h ****        */
1023:/usr/include/c++/5/bits/basic_string.h ****       basic_string&
1024:/usr/include/c++/5/bits/basic_string.h ****       append(const _CharT* __s)
1025:/usr/include/c++/5/bits/basic_string.h ****       {
1026:/usr/include/c++/5/bits/basic_string.h **** 	__glibcxx_requires_string(__s);
1027:/usr/include/c++/5/bits/basic_string.h **** 	const size_type __n = traits_type::length(__s);
1028:/usr/include/c++/5/bits/basic_string.h **** 	_M_check_length(size_type(0), __n, "basic_string::append");
1029:/usr/include/c++/5/bits/basic_string.h **** 	return _M_append(__s, __n);
1030:/usr/include/c++/5/bits/basic_string.h ****       }
1031:/usr/include/c++/5/bits/basic_string.h **** 
1032:/usr/include/c++/5/bits/basic_string.h ****       /**
1033:/usr/include/c++/5/bits/basic_string.h ****        *  @brief  Append multiple characters.
1034:/usr/include/c++/5/bits/basic_string.h ****        *  @param __n  The number of characters to append.
1035:/usr/include/c++/5/bits/basic_string.h ****        *  @param __c  The character to use.
1036:/usr/include/c++/5/bits/basic_string.h ****        *  @return  Reference to this string.
1037:/usr/include/c++/5/bits/basic_string.h ****        *
1038:/usr/include/c++/5/bits/basic_string.h ****        *  Appends __n copies of __c to this string.
1039:/usr/include/c++/5/bits/basic_string.h ****        */
1040:/usr/include/c++/5/bits/basic_string.h ****       basic_string&
1041:/usr/include/c++/5/bits/basic_string.h ****       append(size_type __n, _CharT __c)
1042:/usr/include/c++/5/bits/basic_string.h ****       { return _M_replace_aux(this->size(), size_type(0), __n, __c); }
1043:/usr/include/c++/5/bits/basic_string.h **** 
1044:/usr/include/c++/5/bits/basic_string.h **** #if __cplusplus >= 201103L
1045:/usr/include/c++/5/bits/basic_string.h ****       /**
1046:/usr/include/c++/5/bits/basic_string.h ****        *  @brief  Append an initializer_list of characters.
1047:/usr/include/c++/5/bits/basic_string.h ****        *  @param __l  The initializer_list of characters to append.
1048:/usr/include/c++/5/bits/basic_string.h ****        *  @return  Reference to this string.
1049:/usr/include/c++/5/bits/basic_string.h ****        */
1050:/usr/include/c++/5/bits/basic_string.h ****       basic_string&
1051:/usr/include/c++/5/bits/basic_string.h ****       append(initializer_list<_CharT> __l)
1052:/usr/include/c++/5/bits/basic_string.h ****       { return this->append(__l.begin(), __l.size()); }
1053:/usr/include/c++/5/bits/basic_string.h **** #endif // C++11
1054:/usr/include/c++/5/bits/basic_string.h **** 
1055:/usr/include/c++/5/bits/basic_string.h ****       /**
1056:/usr/include/c++/5/bits/basic_string.h ****        *  @brief  Append a range of characters.
1057:/usr/include/c++/5/bits/basic_string.h ****        *  @param __first  Iterator referencing the first character to append.
GAS LISTING /tmp/ccGYUW7A.s 			page 92


1058:/usr/include/c++/5/bits/basic_string.h ****        *  @param __last  Iterator marking the end of the range.
1059:/usr/include/c++/5/bits/basic_string.h ****        *  @return  Reference to this string.
1060:/usr/include/c++/5/bits/basic_string.h ****        *
1061:/usr/include/c++/5/bits/basic_string.h ****        *  Appends characters in the range [__first,__last) to this string.
1062:/usr/include/c++/5/bits/basic_string.h ****        */
1063:/usr/include/c++/5/bits/basic_string.h **** #if __cplusplus >= 201103L
1064:/usr/include/c++/5/bits/basic_string.h ****       template<class _InputIterator,
1065:/usr/include/c++/5/bits/basic_string.h **** 	       typename = std::_RequireInputIter<_InputIterator>>
1066:/usr/include/c++/5/bits/basic_string.h **** #else
1067:/usr/include/c++/5/bits/basic_string.h ****       template<class _InputIterator>
1068:/usr/include/c++/5/bits/basic_string.h **** #endif
1069:/usr/include/c++/5/bits/basic_string.h ****         basic_string&
1070:/usr/include/c++/5/bits/basic_string.h ****         append(_InputIterator __first, _InputIterator __last)
1071:/usr/include/c++/5/bits/basic_string.h ****         { return this->replace(end(), end(), __first, __last); }
1072:/usr/include/c++/5/bits/basic_string.h **** 
1073:/usr/include/c++/5/bits/basic_string.h ****       /**
1074:/usr/include/c++/5/bits/basic_string.h ****        *  @brief  Append a single character.
1075:/usr/include/c++/5/bits/basic_string.h ****        *  @param __c  Character to append.
1076:/usr/include/c++/5/bits/basic_string.h ****        */
1077:/usr/include/c++/5/bits/basic_string.h ****       void
1078:/usr/include/c++/5/bits/basic_string.h ****       push_back(_CharT __c)
1079:/usr/include/c++/5/bits/basic_string.h ****       {
1080:/usr/include/c++/5/bits/basic_string.h **** 	const size_type __size = this->size();
1081:/usr/include/c++/5/bits/basic_string.h **** 	if (__size + 1 > this->capacity())
1082:/usr/include/c++/5/bits/basic_string.h **** 	  this->_M_mutate(__size, size_type(0), 0, size_type(1));
1083:/usr/include/c++/5/bits/basic_string.h **** 	traits_type::assign(this->_M_data()[__size], __c);
1084:/usr/include/c++/5/bits/basic_string.h **** 	this->_M_set_length(__size + 1);
1085:/usr/include/c++/5/bits/basic_string.h ****       }
1086:/usr/include/c++/5/bits/basic_string.h **** 
1087:/usr/include/c++/5/bits/basic_string.h ****       /**
1088:/usr/include/c++/5/bits/basic_string.h ****        *  @brief  Set value to contents of another string.
1089:/usr/include/c++/5/bits/basic_string.h ****        *  @param  __str  Source string to use.
1090:/usr/include/c++/5/bits/basic_string.h ****        *  @return  Reference to this string.
1091:/usr/include/c++/5/bits/basic_string.h ****        */
1092:/usr/include/c++/5/bits/basic_string.h ****       basic_string&
1093:/usr/include/c++/5/bits/basic_string.h ****       assign(const basic_string& __str)
1094:/usr/include/c++/5/bits/basic_string.h ****       {
1095:/usr/include/c++/5/bits/basic_string.h **** 	this->_M_assign(__str);
1096:/usr/include/c++/5/bits/basic_string.h **** 	return *this;
1097:/usr/include/c++/5/bits/basic_string.h ****       }
1098:/usr/include/c++/5/bits/basic_string.h **** 
1099:/usr/include/c++/5/bits/basic_string.h **** #if __cplusplus >= 201103L
1100:/usr/include/c++/5/bits/basic_string.h ****       /**
1101:/usr/include/c++/5/bits/basic_string.h ****        *  @brief  Set value to contents of another string.
1102:/usr/include/c++/5/bits/basic_string.h ****        *  @param  __str  Source string to use.
1103:/usr/include/c++/5/bits/basic_string.h ****        *  @return  Reference to this string.
1104:/usr/include/c++/5/bits/basic_string.h ****        *
1105:/usr/include/c++/5/bits/basic_string.h ****        *  This function sets this string to the exact contents of @a __str.
1106:/usr/include/c++/5/bits/basic_string.h ****        *  @a __str is a valid, but unspecified string.
1107:/usr/include/c++/5/bits/basic_string.h ****        */
1108:/usr/include/c++/5/bits/basic_string.h ****       basic_string&
1109:/usr/include/c++/5/bits/basic_string.h ****       assign(basic_string&& __str)
1110:/usr/include/c++/5/bits/basic_string.h ****       {
1111:/usr/include/c++/5/bits/basic_string.h **** 	// _GLIBCXX_RESOLVE_LIB_DEFECTS
1112:/usr/include/c++/5/bits/basic_string.h **** 	// 2063. Contradictory requirements for string move assignment
1113:/usr/include/c++/5/bits/basic_string.h **** 	return *this = std::move(__str);
1114:/usr/include/c++/5/bits/basic_string.h ****       }
GAS LISTING /tmp/ccGYUW7A.s 			page 93


1115:/usr/include/c++/5/bits/basic_string.h **** #endif // C++11
1116:/usr/include/c++/5/bits/basic_string.h **** 
1117:/usr/include/c++/5/bits/basic_string.h ****       /**
1118:/usr/include/c++/5/bits/basic_string.h ****        *  @brief  Set value to a substring of a string.
1119:/usr/include/c++/5/bits/basic_string.h ****        *  @param __str  The string to use.
1120:/usr/include/c++/5/bits/basic_string.h ****        *  @param __pos  Index of the first character of str.
1121:/usr/include/c++/5/bits/basic_string.h ****        *  @param __n  Number of characters to use.
1122:/usr/include/c++/5/bits/basic_string.h ****        *  @return  Reference to this string.
1123:/usr/include/c++/5/bits/basic_string.h ****        *  @throw  std::out_of_range if @a pos is not a valid index.
1124:/usr/include/c++/5/bits/basic_string.h ****        *
1125:/usr/include/c++/5/bits/basic_string.h ****        *  This function sets this string to the substring of @a __str
1126:/usr/include/c++/5/bits/basic_string.h ****        *  consisting of @a __n characters at @a __pos.  If @a __n is
1127:/usr/include/c++/5/bits/basic_string.h ****        *  is larger than the number of available characters in @a
1128:/usr/include/c++/5/bits/basic_string.h ****        *  __str, the remainder of @a __str is used.
1129:/usr/include/c++/5/bits/basic_string.h ****        */
1130:/usr/include/c++/5/bits/basic_string.h ****       basic_string&
1131:/usr/include/c++/5/bits/basic_string.h ****       assign(const basic_string& __str, size_type __pos, size_type __n)
1132:/usr/include/c++/5/bits/basic_string.h ****       { return _M_replace(size_type(0), this->size(), __str._M_data()
1133:/usr/include/c++/5/bits/basic_string.h **** 			  + __str._M_check(__pos, "basic_string::assign"),
1134:/usr/include/c++/5/bits/basic_string.h **** 			  __str._M_limit(__pos, __n)); }
1135:/usr/include/c++/5/bits/basic_string.h **** 
1136:/usr/include/c++/5/bits/basic_string.h ****       /**
1137:/usr/include/c++/5/bits/basic_string.h ****        *  @brief  Set value to a C substring.
1138:/usr/include/c++/5/bits/basic_string.h ****        *  @param __s  The C string to use.
1139:/usr/include/c++/5/bits/basic_string.h ****        *  @param __n  Number of characters to use.
1140:/usr/include/c++/5/bits/basic_string.h ****        *  @return  Reference to this string.
1141:/usr/include/c++/5/bits/basic_string.h ****        *
1142:/usr/include/c++/5/bits/basic_string.h ****        *  This function sets the value of this string to the first @a __n
1143:/usr/include/c++/5/bits/basic_string.h ****        *  characters of @a __s.  If @a __n is is larger than the number of
1144:/usr/include/c++/5/bits/basic_string.h ****        *  available characters in @a __s, the remainder of @a __s is used.
1145:/usr/include/c++/5/bits/basic_string.h ****        */
1146:/usr/include/c++/5/bits/basic_string.h ****       basic_string&
1147:/usr/include/c++/5/bits/basic_string.h ****       assign(const _CharT* __s, size_type __n)
1148:/usr/include/c++/5/bits/basic_string.h ****       {
1149:/usr/include/c++/5/bits/basic_string.h **** 	__glibcxx_requires_string_len(__s, __n);
1150:/usr/include/c++/5/bits/basic_string.h **** 	return _M_replace(size_type(0), this->size(), __s, __n);
1151:/usr/include/c++/5/bits/basic_string.h ****       }
1152:/usr/include/c++/5/bits/basic_string.h **** 
1153:/usr/include/c++/5/bits/basic_string.h ****       /**
1154:/usr/include/c++/5/bits/basic_string.h ****        *  @brief  Set value to contents of a C string.
1155:/usr/include/c++/5/bits/basic_string.h ****        *  @param __s  The C string to use.
1156:/usr/include/c++/5/bits/basic_string.h ****        *  @return  Reference to this string.
1157:/usr/include/c++/5/bits/basic_string.h ****        *
1158:/usr/include/c++/5/bits/basic_string.h ****        *  This function sets the value of this string to the value of @a __s.
1159:/usr/include/c++/5/bits/basic_string.h ****        *  The data is copied, so there is no dependence on @a __s once the
1160:/usr/include/c++/5/bits/basic_string.h ****        *  function returns.
1161:/usr/include/c++/5/bits/basic_string.h ****        */
1162:/usr/include/c++/5/bits/basic_string.h ****       basic_string&
1163:/usr/include/c++/5/bits/basic_string.h ****       assign(const _CharT* __s)
1164:/usr/include/c++/5/bits/basic_string.h ****       {
1165:/usr/include/c++/5/bits/basic_string.h **** 	__glibcxx_requires_string(__s);
1166:/usr/include/c++/5/bits/basic_string.h **** 	return _M_replace(size_type(0), this->size(), __s,
1167:/usr/include/c++/5/bits/basic_string.h **** 			  traits_type::length(__s));
1168:/usr/include/c++/5/bits/basic_string.h ****       }
1169:/usr/include/c++/5/bits/basic_string.h **** 
1170:/usr/include/c++/5/bits/basic_string.h ****       /**
1171:/usr/include/c++/5/bits/basic_string.h ****        *  @brief  Set value to multiple characters.
GAS LISTING /tmp/ccGYUW7A.s 			page 94


1172:/usr/include/c++/5/bits/basic_string.h ****        *  @param __n  Length of the resulting string.
1173:/usr/include/c++/5/bits/basic_string.h ****        *  @param __c  The character to use.
1174:/usr/include/c++/5/bits/basic_string.h ****        *  @return  Reference to this string.
1175:/usr/include/c++/5/bits/basic_string.h ****        *
1176:/usr/include/c++/5/bits/basic_string.h ****        *  This function sets the value of this string to @a __n copies of
1177:/usr/include/c++/5/bits/basic_string.h ****        *  character @a __c.
1178:/usr/include/c++/5/bits/basic_string.h ****        */
1179:/usr/include/c++/5/bits/basic_string.h ****       basic_string&
1180:/usr/include/c++/5/bits/basic_string.h ****       assign(size_type __n, _CharT __c)
1181:/usr/include/c++/5/bits/basic_string.h ****       { return _M_replace_aux(size_type(0), this->size(), __n, __c); }
1182:/usr/include/c++/5/bits/basic_string.h **** 
1183:/usr/include/c++/5/bits/basic_string.h ****       /**
1184:/usr/include/c++/5/bits/basic_string.h ****        *  @brief  Set value to a range of characters.
1185:/usr/include/c++/5/bits/basic_string.h ****        *  @param __first  Iterator referencing the first character to append.
1186:/usr/include/c++/5/bits/basic_string.h ****        *  @param __last  Iterator marking the end of the range.
1187:/usr/include/c++/5/bits/basic_string.h ****        *  @return  Reference to this string.
1188:/usr/include/c++/5/bits/basic_string.h ****        *
1189:/usr/include/c++/5/bits/basic_string.h ****        *  Sets value of string to characters in the range [__first,__last).
1190:/usr/include/c++/5/bits/basic_string.h ****       */
1191:/usr/include/c++/5/bits/basic_string.h **** #if __cplusplus >= 201103L
1192:/usr/include/c++/5/bits/basic_string.h ****       template<class _InputIterator,
1193:/usr/include/c++/5/bits/basic_string.h **** 	       typename = std::_RequireInputIter<_InputIterator>>
1194:/usr/include/c++/5/bits/basic_string.h **** #else
1195:/usr/include/c++/5/bits/basic_string.h ****       template<class _InputIterator>
1196:/usr/include/c++/5/bits/basic_string.h **** #endif
1197:/usr/include/c++/5/bits/basic_string.h ****         basic_string&
1198:/usr/include/c++/5/bits/basic_string.h ****         assign(_InputIterator __first, _InputIterator __last)
1199:/usr/include/c++/5/bits/basic_string.h ****         { return this->replace(begin(), end(), __first, __last); }
1200:/usr/include/c++/5/bits/basic_string.h **** 
1201:/usr/include/c++/5/bits/basic_string.h **** #if __cplusplus >= 201103L
1202:/usr/include/c++/5/bits/basic_string.h ****       /**
1203:/usr/include/c++/5/bits/basic_string.h ****        *  @brief  Set value to an initializer_list of characters.
1204:/usr/include/c++/5/bits/basic_string.h ****        *  @param __l  The initializer_list of characters to assign.
1205:/usr/include/c++/5/bits/basic_string.h ****        *  @return  Reference to this string.
1206:/usr/include/c++/5/bits/basic_string.h ****        */
1207:/usr/include/c++/5/bits/basic_string.h ****       basic_string&
1208:/usr/include/c++/5/bits/basic_string.h ****       assign(initializer_list<_CharT> __l)
1209:/usr/include/c++/5/bits/basic_string.h ****       { return this->assign(__l.begin(), __l.size()); }
1210:/usr/include/c++/5/bits/basic_string.h **** #endif // C++11
1211:/usr/include/c++/5/bits/basic_string.h **** 
1212:/usr/include/c++/5/bits/basic_string.h **** #if __cplusplus >= 201103L
1213:/usr/include/c++/5/bits/basic_string.h ****       /**
1214:/usr/include/c++/5/bits/basic_string.h ****        *  @brief  Insert multiple characters.
1215:/usr/include/c++/5/bits/basic_string.h ****        *  @param __p  Const_iterator referencing location in string to
1216:/usr/include/c++/5/bits/basic_string.h ****        *              insert at.
1217:/usr/include/c++/5/bits/basic_string.h ****        *  @param __n  Number of characters to insert
1218:/usr/include/c++/5/bits/basic_string.h ****        *  @param __c  The character to insert.
1219:/usr/include/c++/5/bits/basic_string.h ****        *  @return  Iterator referencing the first inserted char.
1220:/usr/include/c++/5/bits/basic_string.h ****        *  @throw  std::length_error  If new length exceeds @c max_size().
1221:/usr/include/c++/5/bits/basic_string.h ****        *
1222:/usr/include/c++/5/bits/basic_string.h ****        *  Inserts @a __n copies of character @a __c starting at the
1223:/usr/include/c++/5/bits/basic_string.h ****        *  position referenced by iterator @a __p.  If adding
1224:/usr/include/c++/5/bits/basic_string.h ****        *  characters causes the length to exceed max_size(),
1225:/usr/include/c++/5/bits/basic_string.h ****        *  length_error is thrown.  The value of the string doesn't
1226:/usr/include/c++/5/bits/basic_string.h ****        *  change if an error is thrown.
1227:/usr/include/c++/5/bits/basic_string.h ****       */
1228:/usr/include/c++/5/bits/basic_string.h ****       iterator
GAS LISTING /tmp/ccGYUW7A.s 			page 95


1229:/usr/include/c++/5/bits/basic_string.h ****       insert(const_iterator __p, size_type __n, _CharT __c)
1230:/usr/include/c++/5/bits/basic_string.h ****       {
1231:/usr/include/c++/5/bits/basic_string.h **** 	_GLIBCXX_DEBUG_PEDASSERT(__p >= begin() && __p <= end());
1232:/usr/include/c++/5/bits/basic_string.h **** 	const size_type __pos = __p - begin();
1233:/usr/include/c++/5/bits/basic_string.h **** 	this->replace(__p, __p, __n, __c);
1234:/usr/include/c++/5/bits/basic_string.h **** 	return iterator(this->_M_data() + __pos);
1235:/usr/include/c++/5/bits/basic_string.h ****       }
1236:/usr/include/c++/5/bits/basic_string.h **** #else
1237:/usr/include/c++/5/bits/basic_string.h ****       /**
1238:/usr/include/c++/5/bits/basic_string.h ****        *  @brief  Insert multiple characters.
1239:/usr/include/c++/5/bits/basic_string.h ****        *  @param __p  Iterator referencing location in string to insert at.
1240:/usr/include/c++/5/bits/basic_string.h ****        *  @param __n  Number of characters to insert
1241:/usr/include/c++/5/bits/basic_string.h ****        *  @param __c  The character to insert.
1242:/usr/include/c++/5/bits/basic_string.h ****        *  @throw  std::length_error  If new length exceeds @c max_size().
1243:/usr/include/c++/5/bits/basic_string.h ****        *
1244:/usr/include/c++/5/bits/basic_string.h ****        *  Inserts @a __n copies of character @a __c starting at the
1245:/usr/include/c++/5/bits/basic_string.h ****        *  position referenced by iterator @a __p.  If adding
1246:/usr/include/c++/5/bits/basic_string.h ****        *  characters causes the length to exceed max_size(),
1247:/usr/include/c++/5/bits/basic_string.h ****        *  length_error is thrown.  The value of the string doesn't
1248:/usr/include/c++/5/bits/basic_string.h ****        *  change if an error is thrown.
1249:/usr/include/c++/5/bits/basic_string.h ****       */
1250:/usr/include/c++/5/bits/basic_string.h ****       void
1251:/usr/include/c++/5/bits/basic_string.h ****       insert(iterator __p, size_type __n, _CharT __c)
1252:/usr/include/c++/5/bits/basic_string.h ****       {	this->replace(__p, __p, __n, __c);  }
1253:/usr/include/c++/5/bits/basic_string.h **** #endif
1254:/usr/include/c++/5/bits/basic_string.h **** 
1255:/usr/include/c++/5/bits/basic_string.h **** #if __cplusplus >= 201103L
1256:/usr/include/c++/5/bits/basic_string.h ****       /**
1257:/usr/include/c++/5/bits/basic_string.h ****        *  @brief  Insert a range of characters.
1258:/usr/include/c++/5/bits/basic_string.h ****        *  @param __p  Const_iterator referencing location in string to
1259:/usr/include/c++/5/bits/basic_string.h ****        *              insert at.
1260:/usr/include/c++/5/bits/basic_string.h ****        *  @param __beg  Start of range.
1261:/usr/include/c++/5/bits/basic_string.h ****        *  @param __end  End of range.
1262:/usr/include/c++/5/bits/basic_string.h ****        *  @return  Iterator referencing the first inserted char.
1263:/usr/include/c++/5/bits/basic_string.h ****        *  @throw  std::length_error  If new length exceeds @c max_size().
1264:/usr/include/c++/5/bits/basic_string.h ****        *
1265:/usr/include/c++/5/bits/basic_string.h ****        *  Inserts characters in range [beg,end).  If adding characters
1266:/usr/include/c++/5/bits/basic_string.h ****        *  causes the length to exceed max_size(), length_error is
1267:/usr/include/c++/5/bits/basic_string.h ****        *  thrown.  The value of the string doesn't change if an error
1268:/usr/include/c++/5/bits/basic_string.h ****        *  is thrown.
1269:/usr/include/c++/5/bits/basic_string.h ****       */
1270:/usr/include/c++/5/bits/basic_string.h ****       template<class _InputIterator,
1271:/usr/include/c++/5/bits/basic_string.h **** 	       typename = std::_RequireInputIter<_InputIterator>>
1272:/usr/include/c++/5/bits/basic_string.h **** 	iterator
1273:/usr/include/c++/5/bits/basic_string.h ****         insert(const_iterator __p, _InputIterator __beg, _InputIterator __end)
1274:/usr/include/c++/5/bits/basic_string.h ****         {
1275:/usr/include/c++/5/bits/basic_string.h **** 	  _GLIBCXX_DEBUG_PEDASSERT(__p >= begin() && __p <= end());
1276:/usr/include/c++/5/bits/basic_string.h **** 	  const size_type __pos = __p - begin();
1277:/usr/include/c++/5/bits/basic_string.h **** 	  this->replace(__p, __p, __beg, __end);
1278:/usr/include/c++/5/bits/basic_string.h **** 	  return iterator(this->_M_data() + __pos);
1279:/usr/include/c++/5/bits/basic_string.h **** 	}
1280:/usr/include/c++/5/bits/basic_string.h **** #else
1281:/usr/include/c++/5/bits/basic_string.h ****       /**
1282:/usr/include/c++/5/bits/basic_string.h ****        *  @brief  Insert a range of characters.
1283:/usr/include/c++/5/bits/basic_string.h ****        *  @param __p  Iterator referencing location in string to insert at.
1284:/usr/include/c++/5/bits/basic_string.h ****        *  @param __beg  Start of range.
1285:/usr/include/c++/5/bits/basic_string.h ****        *  @param __end  End of range.
GAS LISTING /tmp/ccGYUW7A.s 			page 96


1286:/usr/include/c++/5/bits/basic_string.h ****        *  @throw  std::length_error  If new length exceeds @c max_size().
1287:/usr/include/c++/5/bits/basic_string.h ****        *
1288:/usr/include/c++/5/bits/basic_string.h ****        *  Inserts characters in range [__beg,__end).  If adding
1289:/usr/include/c++/5/bits/basic_string.h ****        *  characters causes the length to exceed max_size(),
1290:/usr/include/c++/5/bits/basic_string.h ****        *  length_error is thrown.  The value of the string doesn't
1291:/usr/include/c++/5/bits/basic_string.h ****        *  change if an error is thrown.
1292:/usr/include/c++/5/bits/basic_string.h ****       */
1293:/usr/include/c++/5/bits/basic_string.h ****       template<class _InputIterator>
1294:/usr/include/c++/5/bits/basic_string.h ****         void
1295:/usr/include/c++/5/bits/basic_string.h ****         insert(iterator __p, _InputIterator __beg, _InputIterator __end)
1296:/usr/include/c++/5/bits/basic_string.h ****         { this->replace(__p, __p, __beg, __end); }
1297:/usr/include/c++/5/bits/basic_string.h **** #endif
1298:/usr/include/c++/5/bits/basic_string.h **** 
1299:/usr/include/c++/5/bits/basic_string.h **** #if __cplusplus >= 201103L
1300:/usr/include/c++/5/bits/basic_string.h ****       /**
1301:/usr/include/c++/5/bits/basic_string.h ****        *  @brief  Insert an initializer_list of characters.
1302:/usr/include/c++/5/bits/basic_string.h ****        *  @param __p  Iterator referencing location in string to insert at.
1303:/usr/include/c++/5/bits/basic_string.h ****        *  @param __l  The initializer_list of characters to insert.
1304:/usr/include/c++/5/bits/basic_string.h ****        *  @throw  std::length_error  If new length exceeds @c max_size().
1305:/usr/include/c++/5/bits/basic_string.h ****        */
1306:/usr/include/c++/5/bits/basic_string.h ****       void
1307:/usr/include/c++/5/bits/basic_string.h ****       insert(iterator __p, initializer_list<_CharT> __l)
1308:/usr/include/c++/5/bits/basic_string.h ****       {
1309:/usr/include/c++/5/bits/basic_string.h **** 	_GLIBCXX_DEBUG_PEDASSERT(__p >= begin() && __p <= end());
1310:/usr/include/c++/5/bits/basic_string.h **** 	this->insert(__p - begin(), __l.begin(), __l.size());
1311:/usr/include/c++/5/bits/basic_string.h ****       }
1312:/usr/include/c++/5/bits/basic_string.h **** #endif // C++11
1313:/usr/include/c++/5/bits/basic_string.h **** 
1314:/usr/include/c++/5/bits/basic_string.h ****       /**
1315:/usr/include/c++/5/bits/basic_string.h ****        *  @brief  Insert value of a string.
1316:/usr/include/c++/5/bits/basic_string.h ****        *  @param __pos1  Iterator referencing location in string to insert at.
1317:/usr/include/c++/5/bits/basic_string.h ****        *  @param __str  The string to insert.
1318:/usr/include/c++/5/bits/basic_string.h ****        *  @return  Reference to this string.
1319:/usr/include/c++/5/bits/basic_string.h ****        *  @throw  std::length_error  If new length exceeds @c max_size().
1320:/usr/include/c++/5/bits/basic_string.h ****        *
1321:/usr/include/c++/5/bits/basic_string.h ****        *  Inserts value of @a __str starting at @a __pos1.  If adding
1322:/usr/include/c++/5/bits/basic_string.h ****        *  characters causes the length to exceed max_size(),
1323:/usr/include/c++/5/bits/basic_string.h ****        *  length_error is thrown.  The value of the string doesn't
1324:/usr/include/c++/5/bits/basic_string.h ****        *  change if an error is thrown.
1325:/usr/include/c++/5/bits/basic_string.h ****       */
1326:/usr/include/c++/5/bits/basic_string.h ****       basic_string&
1327:/usr/include/c++/5/bits/basic_string.h ****       insert(size_type __pos1, const basic_string& __str)
1328:/usr/include/c++/5/bits/basic_string.h ****       { return this->replace(__pos1, size_type(0),
1329:/usr/include/c++/5/bits/basic_string.h **** 			     __str._M_data(), __str.size()); }
1330:/usr/include/c++/5/bits/basic_string.h **** 
1331:/usr/include/c++/5/bits/basic_string.h ****       /**
1332:/usr/include/c++/5/bits/basic_string.h ****        *  @brief  Insert a substring.
1333:/usr/include/c++/5/bits/basic_string.h ****        *  @param __pos1  Iterator referencing location in string to insert at.
1334:/usr/include/c++/5/bits/basic_string.h ****        *  @param __str  The string to insert.
1335:/usr/include/c++/5/bits/basic_string.h ****        *  @param __pos2  Start of characters in str to insert.
1336:/usr/include/c++/5/bits/basic_string.h ****        *  @param __n  Number of characters to insert.
1337:/usr/include/c++/5/bits/basic_string.h ****        *  @return  Reference to this string.
1338:/usr/include/c++/5/bits/basic_string.h ****        *  @throw  std::length_error  If new length exceeds @c max_size().
1339:/usr/include/c++/5/bits/basic_string.h ****        *  @throw  std::out_of_range  If @a pos1 > size() or
1340:/usr/include/c++/5/bits/basic_string.h ****        *  @a __pos2 > @a str.size().
1341:/usr/include/c++/5/bits/basic_string.h ****        *
1342:/usr/include/c++/5/bits/basic_string.h ****        *  Starting at @a pos1, insert @a __n character of @a __str
GAS LISTING /tmp/ccGYUW7A.s 			page 97


1343:/usr/include/c++/5/bits/basic_string.h ****        *  beginning with @a __pos2.  If adding characters causes the
1344:/usr/include/c++/5/bits/basic_string.h ****        *  length to exceed max_size(), length_error is thrown.  If @a
1345:/usr/include/c++/5/bits/basic_string.h ****        *  __pos1 is beyond the end of this string or @a __pos2 is
1346:/usr/include/c++/5/bits/basic_string.h ****        *  beyond the end of @a __str, out_of_range is thrown.  The
1347:/usr/include/c++/5/bits/basic_string.h ****        *  value of the string doesn't change if an error is thrown.
1348:/usr/include/c++/5/bits/basic_string.h ****       */
1349:/usr/include/c++/5/bits/basic_string.h ****       basic_string&
1350:/usr/include/c++/5/bits/basic_string.h ****       insert(size_type __pos1, const basic_string& __str,
1351:/usr/include/c++/5/bits/basic_string.h **** 	     size_type __pos2, size_type __n)
1352:/usr/include/c++/5/bits/basic_string.h ****       { return this->replace(__pos1, size_type(0), __str._M_data()
1353:/usr/include/c++/5/bits/basic_string.h **** 			     + __str._M_check(__pos2, "basic_string::insert"),
1354:/usr/include/c++/5/bits/basic_string.h **** 			     __str._M_limit(__pos2, __n)); }
1355:/usr/include/c++/5/bits/basic_string.h **** 
1356:/usr/include/c++/5/bits/basic_string.h ****       /**
1357:/usr/include/c++/5/bits/basic_string.h ****        *  @brief  Insert a C substring.
1358:/usr/include/c++/5/bits/basic_string.h ****        *  @param __pos  Iterator referencing location in string to insert at.
1359:/usr/include/c++/5/bits/basic_string.h ****        *  @param __s  The C string to insert.
1360:/usr/include/c++/5/bits/basic_string.h ****        *  @param __n  The number of characters to insert.
1361:/usr/include/c++/5/bits/basic_string.h ****        *  @return  Reference to this string.
1362:/usr/include/c++/5/bits/basic_string.h ****        *  @throw  std::length_error  If new length exceeds @c max_size().
1363:/usr/include/c++/5/bits/basic_string.h ****        *  @throw  std::out_of_range  If @a __pos is beyond the end of this
1364:/usr/include/c++/5/bits/basic_string.h ****        *  string.
1365:/usr/include/c++/5/bits/basic_string.h ****        *
1366:/usr/include/c++/5/bits/basic_string.h ****        *  Inserts the first @a __n characters of @a __s starting at @a
1367:/usr/include/c++/5/bits/basic_string.h ****        *  __pos.  If adding characters causes the length to exceed
1368:/usr/include/c++/5/bits/basic_string.h ****        *  max_size(), length_error is thrown.  If @a __pos is beyond
1369:/usr/include/c++/5/bits/basic_string.h ****        *  end(), out_of_range is thrown.  The value of the string
1370:/usr/include/c++/5/bits/basic_string.h ****        *  doesn't change if an error is thrown.
1371:/usr/include/c++/5/bits/basic_string.h ****       */
1372:/usr/include/c++/5/bits/basic_string.h ****       basic_string&
1373:/usr/include/c++/5/bits/basic_string.h ****       insert(size_type __pos, const _CharT* __s, size_type __n)
1374:/usr/include/c++/5/bits/basic_string.h ****       { return this->replace(__pos, size_type(0), __s, __n); }
1375:/usr/include/c++/5/bits/basic_string.h **** 
1376:/usr/include/c++/5/bits/basic_string.h ****       /**
1377:/usr/include/c++/5/bits/basic_string.h ****        *  @brief  Insert a C string.
1378:/usr/include/c++/5/bits/basic_string.h ****        *  @param __pos  Iterator referencing location in string to insert at.
1379:/usr/include/c++/5/bits/basic_string.h ****        *  @param __s  The C string to insert.
1380:/usr/include/c++/5/bits/basic_string.h ****        *  @return  Reference to this string.
1381:/usr/include/c++/5/bits/basic_string.h ****        *  @throw  std::length_error  If new length exceeds @c max_size().
1382:/usr/include/c++/5/bits/basic_string.h ****        *  @throw  std::out_of_range  If @a pos is beyond the end of this
1383:/usr/include/c++/5/bits/basic_string.h ****        *  string.
1384:/usr/include/c++/5/bits/basic_string.h ****        *
1385:/usr/include/c++/5/bits/basic_string.h ****        *  Inserts the first @a n characters of @a __s starting at @a __pos.  If
1386:/usr/include/c++/5/bits/basic_string.h ****        *  adding characters causes the length to exceed max_size(),
1387:/usr/include/c++/5/bits/basic_string.h ****        *  length_error is thrown.  If @a __pos is beyond end(), out_of_range is
1388:/usr/include/c++/5/bits/basic_string.h ****        *  thrown.  The value of the string doesn't change if an error is
1389:/usr/include/c++/5/bits/basic_string.h ****        *  thrown.
1390:/usr/include/c++/5/bits/basic_string.h ****       */
1391:/usr/include/c++/5/bits/basic_string.h ****       basic_string&
1392:/usr/include/c++/5/bits/basic_string.h ****       insert(size_type __pos, const _CharT* __s)
1393:/usr/include/c++/5/bits/basic_string.h ****       {
1394:/usr/include/c++/5/bits/basic_string.h **** 	__glibcxx_requires_string(__s);
1395:/usr/include/c++/5/bits/basic_string.h **** 	return this->replace(__pos, size_type(0), __s,
1396:/usr/include/c++/5/bits/basic_string.h **** 			     traits_type::length(__s));
1397:/usr/include/c++/5/bits/basic_string.h ****       }
1398:/usr/include/c++/5/bits/basic_string.h **** 
1399:/usr/include/c++/5/bits/basic_string.h ****       /**
GAS LISTING /tmp/ccGYUW7A.s 			page 98


1400:/usr/include/c++/5/bits/basic_string.h ****        *  @brief  Insert multiple characters.
1401:/usr/include/c++/5/bits/basic_string.h ****        *  @param __pos  Index in string to insert at.
1402:/usr/include/c++/5/bits/basic_string.h ****        *  @param __n  Number of characters to insert
1403:/usr/include/c++/5/bits/basic_string.h ****        *  @param __c  The character to insert.
1404:/usr/include/c++/5/bits/basic_string.h ****        *  @return  Reference to this string.
1405:/usr/include/c++/5/bits/basic_string.h ****        *  @throw  std::length_error  If new length exceeds @c max_size().
1406:/usr/include/c++/5/bits/basic_string.h ****        *  @throw  std::out_of_range  If @a __pos is beyond the end of this
1407:/usr/include/c++/5/bits/basic_string.h ****        *  string.
1408:/usr/include/c++/5/bits/basic_string.h ****        *
1409:/usr/include/c++/5/bits/basic_string.h ****        *  Inserts @a __n copies of character @a __c starting at index
1410:/usr/include/c++/5/bits/basic_string.h ****        *  @a __pos.  If adding characters causes the length to exceed
1411:/usr/include/c++/5/bits/basic_string.h ****        *  max_size(), length_error is thrown.  If @a __pos > length(),
1412:/usr/include/c++/5/bits/basic_string.h ****        *  out_of_range is thrown.  The value of the string doesn't
1413:/usr/include/c++/5/bits/basic_string.h ****        *  change if an error is thrown.
1414:/usr/include/c++/5/bits/basic_string.h ****       */
1415:/usr/include/c++/5/bits/basic_string.h ****       basic_string&
1416:/usr/include/c++/5/bits/basic_string.h ****       insert(size_type __pos, size_type __n, _CharT __c)
1417:/usr/include/c++/5/bits/basic_string.h ****       { return _M_replace_aux(_M_check(__pos, "basic_string::insert"),
1418:/usr/include/c++/5/bits/basic_string.h **** 			      size_type(0), __n, __c); }
1419:/usr/include/c++/5/bits/basic_string.h **** 
1420:/usr/include/c++/5/bits/basic_string.h ****       /**
1421:/usr/include/c++/5/bits/basic_string.h ****        *  @brief  Insert one character.
1422:/usr/include/c++/5/bits/basic_string.h ****        *  @param __p  Iterator referencing position in string to insert at.
1423:/usr/include/c++/5/bits/basic_string.h ****        *  @param __c  The character to insert.
1424:/usr/include/c++/5/bits/basic_string.h ****        *  @return  Iterator referencing newly inserted char.
1425:/usr/include/c++/5/bits/basic_string.h ****        *  @throw  std::length_error  If new length exceeds @c max_size().
1426:/usr/include/c++/5/bits/basic_string.h ****        *
1427:/usr/include/c++/5/bits/basic_string.h ****        *  Inserts character @a __c at position referenced by @a __p.
1428:/usr/include/c++/5/bits/basic_string.h ****        *  If adding character causes the length to exceed max_size(),
1429:/usr/include/c++/5/bits/basic_string.h ****        *  length_error is thrown.  If @a __p is beyond end of string,
1430:/usr/include/c++/5/bits/basic_string.h ****        *  out_of_range is thrown.  The value of the string doesn't
1431:/usr/include/c++/5/bits/basic_string.h ****        *  change if an error is thrown.
1432:/usr/include/c++/5/bits/basic_string.h ****       */
1433:/usr/include/c++/5/bits/basic_string.h ****       iterator
1434:/usr/include/c++/5/bits/basic_string.h ****       insert(__const_iterator __p, _CharT __c)
1435:/usr/include/c++/5/bits/basic_string.h ****       {
1436:/usr/include/c++/5/bits/basic_string.h **** 	_GLIBCXX_DEBUG_PEDASSERT(__p >= begin() && __p <= end());
1437:/usr/include/c++/5/bits/basic_string.h **** 	const size_type __pos = __p - begin();
1438:/usr/include/c++/5/bits/basic_string.h **** 	_M_replace_aux(__pos, size_type(0), size_type(1), __c);
1439:/usr/include/c++/5/bits/basic_string.h **** 	return iterator(_M_data() + __pos);
1440:/usr/include/c++/5/bits/basic_string.h ****       }
1441:/usr/include/c++/5/bits/basic_string.h **** 
1442:/usr/include/c++/5/bits/basic_string.h ****       /**
1443:/usr/include/c++/5/bits/basic_string.h ****        *  @brief  Remove characters.
1444:/usr/include/c++/5/bits/basic_string.h ****        *  @param __pos  Index of first character to remove (default 0).
1445:/usr/include/c++/5/bits/basic_string.h ****        *  @param __n  Number of characters to remove (default remainder).
1446:/usr/include/c++/5/bits/basic_string.h ****        *  @return  Reference to this string.
1447:/usr/include/c++/5/bits/basic_string.h ****        *  @throw  std::out_of_range  If @a pos is beyond the end of this
1448:/usr/include/c++/5/bits/basic_string.h ****        *  string.
1449:/usr/include/c++/5/bits/basic_string.h ****        *
1450:/usr/include/c++/5/bits/basic_string.h ****        *  Removes @a __n characters from this string starting at @a
1451:/usr/include/c++/5/bits/basic_string.h ****        *  __pos.  The length of the string is reduced by @a __n.  If
1452:/usr/include/c++/5/bits/basic_string.h ****        *  there are < @a __n characters to remove, the remainder of
1453:/usr/include/c++/5/bits/basic_string.h ****        *  the string is truncated.  If @a __p is beyond end of string,
1454:/usr/include/c++/5/bits/basic_string.h ****        *  out_of_range is thrown.  The value of the string doesn't
1455:/usr/include/c++/5/bits/basic_string.h ****        *  change if an error is thrown.
1456:/usr/include/c++/5/bits/basic_string.h ****       */
GAS LISTING /tmp/ccGYUW7A.s 			page 99


1457:/usr/include/c++/5/bits/basic_string.h ****       basic_string&
1458:/usr/include/c++/5/bits/basic_string.h ****       erase(size_type __pos = 0, size_type __n = npos)
1459:/usr/include/c++/5/bits/basic_string.h ****       {
1460:/usr/include/c++/5/bits/basic_string.h **** 	this->_M_erase(_M_check(__pos, "basic_string::erase"),
1461:/usr/include/c++/5/bits/basic_string.h **** 		       _M_limit(__pos, __n));
1462:/usr/include/c++/5/bits/basic_string.h **** 	return *this;
1463:/usr/include/c++/5/bits/basic_string.h ****       }
1464:/usr/include/c++/5/bits/basic_string.h **** 
1465:/usr/include/c++/5/bits/basic_string.h ****       /**
1466:/usr/include/c++/5/bits/basic_string.h ****        *  @brief  Remove one character.
1467:/usr/include/c++/5/bits/basic_string.h ****        *  @param __position  Iterator referencing the character to remove.
1468:/usr/include/c++/5/bits/basic_string.h ****        *  @return  iterator referencing same location after removal.
1469:/usr/include/c++/5/bits/basic_string.h ****        *
1470:/usr/include/c++/5/bits/basic_string.h ****        *  Removes the character at @a __position from this string. The value
1471:/usr/include/c++/5/bits/basic_string.h ****        *  of the string doesn't change if an error is thrown.
1472:/usr/include/c++/5/bits/basic_string.h ****       */
1473:/usr/include/c++/5/bits/basic_string.h ****       iterator
1474:/usr/include/c++/5/bits/basic_string.h ****       erase(__const_iterator __position)
1475:/usr/include/c++/5/bits/basic_string.h ****       {
1476:/usr/include/c++/5/bits/basic_string.h **** 	_GLIBCXX_DEBUG_PEDASSERT(__position >= begin()
1477:/usr/include/c++/5/bits/basic_string.h **** 				 && __position < end());
1478:/usr/include/c++/5/bits/basic_string.h **** 	const size_type __pos = __position - begin();
1479:/usr/include/c++/5/bits/basic_string.h **** 	this->_M_erase(__pos, size_type(1));
1480:/usr/include/c++/5/bits/basic_string.h **** 	return iterator(_M_data() + __pos);
1481:/usr/include/c++/5/bits/basic_string.h ****       }
1482:/usr/include/c++/5/bits/basic_string.h **** 
1483:/usr/include/c++/5/bits/basic_string.h ****       /**
1484:/usr/include/c++/5/bits/basic_string.h ****        *  @brief  Remove a range of characters.
1485:/usr/include/c++/5/bits/basic_string.h ****        *  @param __first  Iterator referencing the first character to remove.
1486:/usr/include/c++/5/bits/basic_string.h ****        *  @param __last  Iterator referencing the end of the range.
1487:/usr/include/c++/5/bits/basic_string.h ****        *  @return  Iterator referencing location of first after removal.
1488:/usr/include/c++/5/bits/basic_string.h ****        *
1489:/usr/include/c++/5/bits/basic_string.h ****        *  Removes the characters in the range [first,last) from this string.
1490:/usr/include/c++/5/bits/basic_string.h ****        *  The value of the string doesn't change if an error is thrown.
1491:/usr/include/c++/5/bits/basic_string.h ****       */
1492:/usr/include/c++/5/bits/basic_string.h ****       iterator
1493:/usr/include/c++/5/bits/basic_string.h ****       erase(__const_iterator __first, __const_iterator __last)
1494:/usr/include/c++/5/bits/basic_string.h ****       {
1495:/usr/include/c++/5/bits/basic_string.h **** 	_GLIBCXX_DEBUG_PEDASSERT(__first >= begin() && __first <= __last
1496:/usr/include/c++/5/bits/basic_string.h **** 				 && __last <= end());
1497:/usr/include/c++/5/bits/basic_string.h ****         const size_type __pos = __first - begin();
1498:/usr/include/c++/5/bits/basic_string.h **** 	this->_M_erase(__pos, __last - __first);
1499:/usr/include/c++/5/bits/basic_string.h **** 	return iterator(this->_M_data() + __pos);
1500:/usr/include/c++/5/bits/basic_string.h ****       }
1501:/usr/include/c++/5/bits/basic_string.h **** 
1502:/usr/include/c++/5/bits/basic_string.h **** #if __cplusplus >= 201103L
1503:/usr/include/c++/5/bits/basic_string.h ****       /**
1504:/usr/include/c++/5/bits/basic_string.h ****        *  @brief  Remove the last character.
1505:/usr/include/c++/5/bits/basic_string.h ****        *
1506:/usr/include/c++/5/bits/basic_string.h ****        *  The string must be non-empty.
1507:/usr/include/c++/5/bits/basic_string.h ****        */
1508:/usr/include/c++/5/bits/basic_string.h ****       void
1509:/usr/include/c++/5/bits/basic_string.h ****       pop_back() noexcept
1510:/usr/include/c++/5/bits/basic_string.h ****       { _M_erase(size()-1, 1); }
1511:/usr/include/c++/5/bits/basic_string.h **** #endif // C++11
1512:/usr/include/c++/5/bits/basic_string.h **** 
1513:/usr/include/c++/5/bits/basic_string.h ****       /**
GAS LISTING /tmp/ccGYUW7A.s 			page 100


1514:/usr/include/c++/5/bits/basic_string.h ****        *  @brief  Replace characters with value from another string.
1515:/usr/include/c++/5/bits/basic_string.h ****        *  @param __pos  Index of first character to replace.
1516:/usr/include/c++/5/bits/basic_string.h ****        *  @param __n  Number of characters to be replaced.
1517:/usr/include/c++/5/bits/basic_string.h ****        *  @param __str  String to insert.
1518:/usr/include/c++/5/bits/basic_string.h ****        *  @return  Reference to this string.
1519:/usr/include/c++/5/bits/basic_string.h ****        *  @throw  std::out_of_range  If @a pos is beyond the end of this
1520:/usr/include/c++/5/bits/basic_string.h ****        *  string.
1521:/usr/include/c++/5/bits/basic_string.h ****        *  @throw  std::length_error  If new length exceeds @c max_size().
1522:/usr/include/c++/5/bits/basic_string.h ****        *
1523:/usr/include/c++/5/bits/basic_string.h ****        *  Removes the characters in the range [__pos,__pos+__n) from
1524:/usr/include/c++/5/bits/basic_string.h ****        *  this string.  In place, the value of @a __str is inserted.
1525:/usr/include/c++/5/bits/basic_string.h ****        *  If @a __pos is beyond end of string, out_of_range is thrown.
1526:/usr/include/c++/5/bits/basic_string.h ****        *  If the length of the result exceeds max_size(), length_error
1527:/usr/include/c++/5/bits/basic_string.h ****        *  is thrown.  The value of the string doesn't change if an
1528:/usr/include/c++/5/bits/basic_string.h ****        *  error is thrown.
1529:/usr/include/c++/5/bits/basic_string.h ****       */
1530:/usr/include/c++/5/bits/basic_string.h ****       basic_string&
1531:/usr/include/c++/5/bits/basic_string.h ****       replace(size_type __pos, size_type __n, const basic_string& __str)
1532:/usr/include/c++/5/bits/basic_string.h ****       { return this->replace(__pos, __n, __str._M_data(), __str.size()); }
1533:/usr/include/c++/5/bits/basic_string.h **** 
1534:/usr/include/c++/5/bits/basic_string.h ****       /**
1535:/usr/include/c++/5/bits/basic_string.h ****        *  @brief  Replace characters with value from another string.
1536:/usr/include/c++/5/bits/basic_string.h ****        *  @param __pos1  Index of first character to replace.
1537:/usr/include/c++/5/bits/basic_string.h ****        *  @param __n1  Number of characters to be replaced.
1538:/usr/include/c++/5/bits/basic_string.h ****        *  @param __str  String to insert.
1539:/usr/include/c++/5/bits/basic_string.h ****        *  @param __pos2  Index of first character of str to use.
1540:/usr/include/c++/5/bits/basic_string.h ****        *  @param __n2  Number of characters from str to use.
1541:/usr/include/c++/5/bits/basic_string.h ****        *  @return  Reference to this string.
1542:/usr/include/c++/5/bits/basic_string.h ****        *  @throw  std::out_of_range  If @a __pos1 > size() or @a __pos2 >
1543:/usr/include/c++/5/bits/basic_string.h ****        *  __str.size().
1544:/usr/include/c++/5/bits/basic_string.h ****        *  @throw  std::length_error  If new length exceeds @c max_size().
1545:/usr/include/c++/5/bits/basic_string.h ****        *
1546:/usr/include/c++/5/bits/basic_string.h ****        *  Removes the characters in the range [__pos1,__pos1 + n) from this
1547:/usr/include/c++/5/bits/basic_string.h ****        *  string.  In place, the value of @a __str is inserted.  If @a __pos is
1548:/usr/include/c++/5/bits/basic_string.h ****        *  beyond end of string, out_of_range is thrown.  If the length of the
1549:/usr/include/c++/5/bits/basic_string.h ****        *  result exceeds max_size(), length_error is thrown.  The value of the
1550:/usr/include/c++/5/bits/basic_string.h ****        *  string doesn't change if an error is thrown.
1551:/usr/include/c++/5/bits/basic_string.h ****       */
1552:/usr/include/c++/5/bits/basic_string.h ****       basic_string&
1553:/usr/include/c++/5/bits/basic_string.h ****       replace(size_type __pos1, size_type __n1, const basic_string& __str,
1554:/usr/include/c++/5/bits/basic_string.h **** 	      size_type __pos2, size_type __n2)
1555:/usr/include/c++/5/bits/basic_string.h ****       { return this->replace(__pos1, __n1, __str._M_data()
1556:/usr/include/c++/5/bits/basic_string.h **** 			     + __str._M_check(__pos2, "basic_string::replace"),
1557:/usr/include/c++/5/bits/basic_string.h **** 			     __str._M_limit(__pos2, __n2)); }
1558:/usr/include/c++/5/bits/basic_string.h **** 
1559:/usr/include/c++/5/bits/basic_string.h ****       /**
1560:/usr/include/c++/5/bits/basic_string.h ****        *  @brief  Replace characters with value of a C substring.
1561:/usr/include/c++/5/bits/basic_string.h ****        *  @param __pos  Index of first character to replace.
1562:/usr/include/c++/5/bits/basic_string.h ****        *  @param __n1  Number of characters to be replaced.
1563:/usr/include/c++/5/bits/basic_string.h ****        *  @param __s  C string to insert.
1564:/usr/include/c++/5/bits/basic_string.h ****        *  @param __n2  Number of characters from @a s to use.
1565:/usr/include/c++/5/bits/basic_string.h ****        *  @return  Reference to this string.
1566:/usr/include/c++/5/bits/basic_string.h ****        *  @throw  std::out_of_range  If @a pos1 > size().
1567:/usr/include/c++/5/bits/basic_string.h ****        *  @throw  std::length_error  If new length exceeds @c max_size().
1568:/usr/include/c++/5/bits/basic_string.h ****        *
1569:/usr/include/c++/5/bits/basic_string.h ****        *  Removes the characters in the range [__pos,__pos + __n1)
1570:/usr/include/c++/5/bits/basic_string.h ****        *  from this string.  In place, the first @a __n2 characters of
GAS LISTING /tmp/ccGYUW7A.s 			page 101


1571:/usr/include/c++/5/bits/basic_string.h ****        *  @a __s are inserted, or all of @a __s if @a __n2 is too large.  If
1572:/usr/include/c++/5/bits/basic_string.h ****        *  @a __pos is beyond end of string, out_of_range is thrown.  If
1573:/usr/include/c++/5/bits/basic_string.h ****        *  the length of result exceeds max_size(), length_error is
1574:/usr/include/c++/5/bits/basic_string.h ****        *  thrown.  The value of the string doesn't change if an error
1575:/usr/include/c++/5/bits/basic_string.h ****        *  is thrown.
1576:/usr/include/c++/5/bits/basic_string.h ****       */
1577:/usr/include/c++/5/bits/basic_string.h ****       basic_string&
1578:/usr/include/c++/5/bits/basic_string.h ****       replace(size_type __pos, size_type __n1, const _CharT* __s,
1579:/usr/include/c++/5/bits/basic_string.h **** 	      size_type __n2)
1580:/usr/include/c++/5/bits/basic_string.h ****       {
1581:/usr/include/c++/5/bits/basic_string.h **** 	__glibcxx_requires_string_len(__s, __n2);
1582:/usr/include/c++/5/bits/basic_string.h **** 	return _M_replace(_M_check(__pos, "basic_string::replace"),
1583:/usr/include/c++/5/bits/basic_string.h **** 			  _M_limit(__pos, __n1), __s, __n2);
1584:/usr/include/c++/5/bits/basic_string.h ****       }
1585:/usr/include/c++/5/bits/basic_string.h **** 
1586:/usr/include/c++/5/bits/basic_string.h ****       /**
1587:/usr/include/c++/5/bits/basic_string.h ****        *  @brief  Replace characters with value of a C string.
1588:/usr/include/c++/5/bits/basic_string.h ****        *  @param __pos  Index of first character to replace.
1589:/usr/include/c++/5/bits/basic_string.h ****        *  @param __n1  Number of characters to be replaced.
1590:/usr/include/c++/5/bits/basic_string.h ****        *  @param __s  C string to insert.
1591:/usr/include/c++/5/bits/basic_string.h ****        *  @return  Reference to this string.
1592:/usr/include/c++/5/bits/basic_string.h ****        *  @throw  std::out_of_range  If @a pos > size().
1593:/usr/include/c++/5/bits/basic_string.h ****        *  @throw  std::length_error  If new length exceeds @c max_size().
1594:/usr/include/c++/5/bits/basic_string.h ****        *
1595:/usr/include/c++/5/bits/basic_string.h ****        *  Removes the characters in the range [__pos,__pos + __n1)
1596:/usr/include/c++/5/bits/basic_string.h ****        *  from this string.  In place, the characters of @a __s are
1597:/usr/include/c++/5/bits/basic_string.h ****        *  inserted.  If @a __pos is beyond end of string, out_of_range
1598:/usr/include/c++/5/bits/basic_string.h ****        *  is thrown.  If the length of result exceeds max_size(),
1599:/usr/include/c++/5/bits/basic_string.h ****        *  length_error is thrown.  The value of the string doesn't
1600:/usr/include/c++/5/bits/basic_string.h ****        *  change if an error is thrown.
1601:/usr/include/c++/5/bits/basic_string.h ****       */
1602:/usr/include/c++/5/bits/basic_string.h ****       basic_string&
1603:/usr/include/c++/5/bits/basic_string.h ****       replace(size_type __pos, size_type __n1, const _CharT* __s)
1604:/usr/include/c++/5/bits/basic_string.h ****       {
1605:/usr/include/c++/5/bits/basic_string.h **** 	__glibcxx_requires_string(__s);
1606:/usr/include/c++/5/bits/basic_string.h **** 	return this->replace(__pos, __n1, __s, traits_type::length(__s));
1607:/usr/include/c++/5/bits/basic_string.h ****       }
1608:/usr/include/c++/5/bits/basic_string.h **** 
1609:/usr/include/c++/5/bits/basic_string.h ****       /**
1610:/usr/include/c++/5/bits/basic_string.h ****        *  @brief  Replace characters with multiple characters.
1611:/usr/include/c++/5/bits/basic_string.h ****        *  @param __pos  Index of first character to replace.
1612:/usr/include/c++/5/bits/basic_string.h ****        *  @param __n1  Number of characters to be replaced.
1613:/usr/include/c++/5/bits/basic_string.h ****        *  @param __n2  Number of characters to insert.
1614:/usr/include/c++/5/bits/basic_string.h ****        *  @param __c  Character to insert.
1615:/usr/include/c++/5/bits/basic_string.h ****        *  @return  Reference to this string.
1616:/usr/include/c++/5/bits/basic_string.h ****        *  @throw  std::out_of_range  If @a __pos > size().
1617:/usr/include/c++/5/bits/basic_string.h ****        *  @throw  std::length_error  If new length exceeds @c max_size().
1618:/usr/include/c++/5/bits/basic_string.h ****        *
1619:/usr/include/c++/5/bits/basic_string.h ****        *  Removes the characters in the range [pos,pos + n1) from this
1620:/usr/include/c++/5/bits/basic_string.h ****        *  string.  In place, @a __n2 copies of @a __c are inserted.
1621:/usr/include/c++/5/bits/basic_string.h ****        *  If @a __pos is beyond end of string, out_of_range is thrown.
1622:/usr/include/c++/5/bits/basic_string.h ****        *  If the length of result exceeds max_size(), length_error is
1623:/usr/include/c++/5/bits/basic_string.h ****        *  thrown.  The value of the string doesn't change if an error
1624:/usr/include/c++/5/bits/basic_string.h ****        *  is thrown.
1625:/usr/include/c++/5/bits/basic_string.h ****       */
1626:/usr/include/c++/5/bits/basic_string.h ****       basic_string&
1627:/usr/include/c++/5/bits/basic_string.h ****       replace(size_type __pos, size_type __n1, size_type __n2, _CharT __c)
GAS LISTING /tmp/ccGYUW7A.s 			page 102


1628:/usr/include/c++/5/bits/basic_string.h ****       { return _M_replace_aux(_M_check(__pos, "basic_string::replace"),
1629:/usr/include/c++/5/bits/basic_string.h **** 			      _M_limit(__pos, __n1), __n2, __c); }
1630:/usr/include/c++/5/bits/basic_string.h **** 
1631:/usr/include/c++/5/bits/basic_string.h ****       /**
1632:/usr/include/c++/5/bits/basic_string.h ****        *  @brief  Replace range of characters with string.
1633:/usr/include/c++/5/bits/basic_string.h ****        *  @param __i1  Iterator referencing start of range to replace.
1634:/usr/include/c++/5/bits/basic_string.h ****        *  @param __i2  Iterator referencing end of range to replace.
1635:/usr/include/c++/5/bits/basic_string.h ****        *  @param __str  String value to insert.
1636:/usr/include/c++/5/bits/basic_string.h ****        *  @return  Reference to this string.
1637:/usr/include/c++/5/bits/basic_string.h ****        *  @throw  std::length_error  If new length exceeds @c max_size().
1638:/usr/include/c++/5/bits/basic_string.h ****        *
1639:/usr/include/c++/5/bits/basic_string.h ****        *  Removes the characters in the range [__i1,__i2).  In place,
1640:/usr/include/c++/5/bits/basic_string.h ****        *  the value of @a __str is inserted.  If the length of result
1641:/usr/include/c++/5/bits/basic_string.h ****        *  exceeds max_size(), length_error is thrown.  The value of
1642:/usr/include/c++/5/bits/basic_string.h ****        *  the string doesn't change if an error is thrown.
1643:/usr/include/c++/5/bits/basic_string.h ****       */
1644:/usr/include/c++/5/bits/basic_string.h ****       basic_string&
1645:/usr/include/c++/5/bits/basic_string.h ****       replace(__const_iterator __i1, __const_iterator __i2,
1646:/usr/include/c++/5/bits/basic_string.h **** 	      const basic_string& __str)
1647:/usr/include/c++/5/bits/basic_string.h ****       { return this->replace(__i1, __i2, __str._M_data(), __str.size()); }
1648:/usr/include/c++/5/bits/basic_string.h **** 
1649:/usr/include/c++/5/bits/basic_string.h ****       /**
1650:/usr/include/c++/5/bits/basic_string.h ****        *  @brief  Replace range of characters with C substring.
1651:/usr/include/c++/5/bits/basic_string.h ****        *  @param __i1  Iterator referencing start of range to replace.
1652:/usr/include/c++/5/bits/basic_string.h ****        *  @param __i2  Iterator referencing end of range to replace.
1653:/usr/include/c++/5/bits/basic_string.h ****        *  @param __s  C string value to insert.
1654:/usr/include/c++/5/bits/basic_string.h ****        *  @param __n  Number of characters from s to insert.
1655:/usr/include/c++/5/bits/basic_string.h ****        *  @return  Reference to this string.
1656:/usr/include/c++/5/bits/basic_string.h ****        *  @throw  std::length_error  If new length exceeds @c max_size().
1657:/usr/include/c++/5/bits/basic_string.h ****        *
1658:/usr/include/c++/5/bits/basic_string.h ****        *  Removes the characters in the range [__i1,__i2).  In place,
1659:/usr/include/c++/5/bits/basic_string.h ****        *  the first @a __n characters of @a __s are inserted.  If the
1660:/usr/include/c++/5/bits/basic_string.h ****        *  length of result exceeds max_size(), length_error is thrown.
1661:/usr/include/c++/5/bits/basic_string.h ****        *  The value of the string doesn't change if an error is
1662:/usr/include/c++/5/bits/basic_string.h ****        *  thrown.
1663:/usr/include/c++/5/bits/basic_string.h ****       */
1664:/usr/include/c++/5/bits/basic_string.h ****       basic_string&
1665:/usr/include/c++/5/bits/basic_string.h ****       replace(__const_iterator __i1, __const_iterator __i2,
1666:/usr/include/c++/5/bits/basic_string.h **** 	      const _CharT* __s, size_type __n)
1667:/usr/include/c++/5/bits/basic_string.h ****       {
1668:/usr/include/c++/5/bits/basic_string.h **** 	_GLIBCXX_DEBUG_PEDASSERT(begin() <= __i1 && __i1 <= __i2
1669:/usr/include/c++/5/bits/basic_string.h **** 				 && __i2 <= end());
1670:/usr/include/c++/5/bits/basic_string.h **** 	return this->replace(__i1 - begin(), __i2 - __i1, __s, __n);
1671:/usr/include/c++/5/bits/basic_string.h ****       }
1672:/usr/include/c++/5/bits/basic_string.h **** 
1673:/usr/include/c++/5/bits/basic_string.h ****       /**
1674:/usr/include/c++/5/bits/basic_string.h ****        *  @brief  Replace range of characters with C string.
1675:/usr/include/c++/5/bits/basic_string.h ****        *  @param __i1  Iterator referencing start of range to replace.
1676:/usr/include/c++/5/bits/basic_string.h ****        *  @param __i2  Iterator referencing end of range to replace.
1677:/usr/include/c++/5/bits/basic_string.h ****        *  @param __s  C string value to insert.
1678:/usr/include/c++/5/bits/basic_string.h ****        *  @return  Reference to this string.
1679:/usr/include/c++/5/bits/basic_string.h ****        *  @throw  std::length_error  If new length exceeds @c max_size().
1680:/usr/include/c++/5/bits/basic_string.h ****        *
1681:/usr/include/c++/5/bits/basic_string.h ****        *  Removes the characters in the range [__i1,__i2).  In place,
1682:/usr/include/c++/5/bits/basic_string.h ****        *  the characters of @a __s are inserted.  If the length of
1683:/usr/include/c++/5/bits/basic_string.h ****        *  result exceeds max_size(), length_error is thrown.  The
1684:/usr/include/c++/5/bits/basic_string.h ****        *  value of the string doesn't change if an error is thrown.
GAS LISTING /tmp/ccGYUW7A.s 			page 103


1685:/usr/include/c++/5/bits/basic_string.h ****       */
1686:/usr/include/c++/5/bits/basic_string.h ****       basic_string&
1687:/usr/include/c++/5/bits/basic_string.h ****       replace(__const_iterator __i1, __const_iterator __i2, const _CharT* __s)
1688:/usr/include/c++/5/bits/basic_string.h ****       {
1689:/usr/include/c++/5/bits/basic_string.h **** 	__glibcxx_requires_string(__s);
1690:/usr/include/c++/5/bits/basic_string.h **** 	return this->replace(__i1, __i2, __s, traits_type::length(__s));
1691:/usr/include/c++/5/bits/basic_string.h ****       }
1692:/usr/include/c++/5/bits/basic_string.h **** 
1693:/usr/include/c++/5/bits/basic_string.h ****       /**
1694:/usr/include/c++/5/bits/basic_string.h ****        *  @brief  Replace range of characters with multiple characters
1695:/usr/include/c++/5/bits/basic_string.h ****        *  @param __i1  Iterator referencing start of range to replace.
1696:/usr/include/c++/5/bits/basic_string.h ****        *  @param __i2  Iterator referencing end of range to replace.
1697:/usr/include/c++/5/bits/basic_string.h ****        *  @param __n  Number of characters to insert.
1698:/usr/include/c++/5/bits/basic_string.h ****        *  @param __c  Character to insert.
1699:/usr/include/c++/5/bits/basic_string.h ****        *  @return  Reference to this string.
1700:/usr/include/c++/5/bits/basic_string.h ****        *  @throw  std::length_error  If new length exceeds @c max_size().
1701:/usr/include/c++/5/bits/basic_string.h ****        *
1702:/usr/include/c++/5/bits/basic_string.h ****        *  Removes the characters in the range [__i1,__i2).  In place,
1703:/usr/include/c++/5/bits/basic_string.h ****        *  @a __n copies of @a __c are inserted.  If the length of
1704:/usr/include/c++/5/bits/basic_string.h ****        *  result exceeds max_size(), length_error is thrown.  The
1705:/usr/include/c++/5/bits/basic_string.h ****        *  value of the string doesn't change if an error is thrown.
1706:/usr/include/c++/5/bits/basic_string.h ****       */
1707:/usr/include/c++/5/bits/basic_string.h ****       basic_string&
1708:/usr/include/c++/5/bits/basic_string.h ****       replace(__const_iterator __i1, __const_iterator __i2, size_type __n,
1709:/usr/include/c++/5/bits/basic_string.h **** 	      _CharT __c)
1710:/usr/include/c++/5/bits/basic_string.h ****       {
1711:/usr/include/c++/5/bits/basic_string.h **** 	_GLIBCXX_DEBUG_PEDASSERT(begin() <= __i1 && __i1 <= __i2
1712:/usr/include/c++/5/bits/basic_string.h **** 				 && __i2 <= end());
1713:/usr/include/c++/5/bits/basic_string.h **** 	return _M_replace_aux(__i1 - begin(), __i2 - __i1, __n, __c);
1714:/usr/include/c++/5/bits/basic_string.h ****       }
1715:/usr/include/c++/5/bits/basic_string.h **** 
1716:/usr/include/c++/5/bits/basic_string.h ****       /**
1717:/usr/include/c++/5/bits/basic_string.h ****        *  @brief  Replace range of characters with range.
1718:/usr/include/c++/5/bits/basic_string.h ****        *  @param __i1  Iterator referencing start of range to replace.
1719:/usr/include/c++/5/bits/basic_string.h ****        *  @param __i2  Iterator referencing end of range to replace.
1720:/usr/include/c++/5/bits/basic_string.h ****        *  @param __k1  Iterator referencing start of range to insert.
1721:/usr/include/c++/5/bits/basic_string.h ****        *  @param __k2  Iterator referencing end of range to insert.
1722:/usr/include/c++/5/bits/basic_string.h ****        *  @return  Reference to this string.
1723:/usr/include/c++/5/bits/basic_string.h ****        *  @throw  std::length_error  If new length exceeds @c max_size().
1724:/usr/include/c++/5/bits/basic_string.h ****        *
1725:/usr/include/c++/5/bits/basic_string.h ****        *  Removes the characters in the range [__i1,__i2).  In place,
1726:/usr/include/c++/5/bits/basic_string.h ****        *  characters in the range [__k1,__k2) are inserted.  If the
1727:/usr/include/c++/5/bits/basic_string.h ****        *  length of result exceeds max_size(), length_error is thrown.
1728:/usr/include/c++/5/bits/basic_string.h ****        *  The value of the string doesn't change if an error is
1729:/usr/include/c++/5/bits/basic_string.h ****        *  thrown.
1730:/usr/include/c++/5/bits/basic_string.h ****       */
1731:/usr/include/c++/5/bits/basic_string.h **** #if __cplusplus >= 201103L
1732:/usr/include/c++/5/bits/basic_string.h ****       template<class _InputIterator,
1733:/usr/include/c++/5/bits/basic_string.h **** 	       typename = std::_RequireInputIter<_InputIterator>>
1734:/usr/include/c++/5/bits/basic_string.h ****         basic_string&
1735:/usr/include/c++/5/bits/basic_string.h ****         replace(const_iterator __i1, const_iterator __i2,
1736:/usr/include/c++/5/bits/basic_string.h **** 		_InputIterator __k1, _InputIterator __k2)
1737:/usr/include/c++/5/bits/basic_string.h ****         {
1738:/usr/include/c++/5/bits/basic_string.h **** 	  _GLIBCXX_DEBUG_PEDASSERT(begin() <= __i1 && __i1 <= __i2
1739:/usr/include/c++/5/bits/basic_string.h **** 				   && __i2 <= end());
1740:/usr/include/c++/5/bits/basic_string.h **** 	  __glibcxx_requires_valid_range(__k1, __k2);
1741:/usr/include/c++/5/bits/basic_string.h **** 	  return this->_M_replace_dispatch(__i1, __i2, __k1, __k2,
GAS LISTING /tmp/ccGYUW7A.s 			page 104


1742:/usr/include/c++/5/bits/basic_string.h **** 					   std::__false_type());
1743:/usr/include/c++/5/bits/basic_string.h **** 	}
1744:/usr/include/c++/5/bits/basic_string.h **** #else
1745:/usr/include/c++/5/bits/basic_string.h ****       template<class _InputIterator>
1746:/usr/include/c++/5/bits/basic_string.h **** #ifdef _GLIBCXX_DISAMBIGUATE_REPLACE_INST
1747:/usr/include/c++/5/bits/basic_string.h ****         typename __enable_if_not_native_iterator<_InputIterator>::__type
1748:/usr/include/c++/5/bits/basic_string.h **** #else
1749:/usr/include/c++/5/bits/basic_string.h ****         basic_string&
1750:/usr/include/c++/5/bits/basic_string.h **** #endif
1751:/usr/include/c++/5/bits/basic_string.h ****         replace(iterator __i1, iterator __i2,
1752:/usr/include/c++/5/bits/basic_string.h **** 		_InputIterator __k1, _InputIterator __k2)
1753:/usr/include/c++/5/bits/basic_string.h ****         {
1754:/usr/include/c++/5/bits/basic_string.h **** 	  _GLIBCXX_DEBUG_PEDASSERT(begin() <= __i1 && __i1 <= __i2
1755:/usr/include/c++/5/bits/basic_string.h **** 				   && __i2 <= end());
1756:/usr/include/c++/5/bits/basic_string.h **** 	  __glibcxx_requires_valid_range(__k1, __k2);
1757:/usr/include/c++/5/bits/basic_string.h **** 	  typedef typename std::__is_integer<_InputIterator>::__type _Integral;
1758:/usr/include/c++/5/bits/basic_string.h **** 	  return _M_replace_dispatch(__i1, __i2, __k1, __k2, _Integral());
1759:/usr/include/c++/5/bits/basic_string.h **** 	}
1760:/usr/include/c++/5/bits/basic_string.h **** #endif
1761:/usr/include/c++/5/bits/basic_string.h **** 
1762:/usr/include/c++/5/bits/basic_string.h ****       // Specializations for the common case of pointer and iterator:
1763:/usr/include/c++/5/bits/basic_string.h ****       // useful to avoid the overhead of temporary buffering in _M_replace.
1764:/usr/include/c++/5/bits/basic_string.h ****       basic_string&
1765:/usr/include/c++/5/bits/basic_string.h ****       replace(__const_iterator __i1, __const_iterator __i2,
1766:/usr/include/c++/5/bits/basic_string.h **** 	      _CharT* __k1, _CharT* __k2)
1767:/usr/include/c++/5/bits/basic_string.h ****       {
1768:/usr/include/c++/5/bits/basic_string.h **** 	_GLIBCXX_DEBUG_PEDASSERT(begin() <= __i1 && __i1 <= __i2
1769:/usr/include/c++/5/bits/basic_string.h **** 				 && __i2 <= end());
1770:/usr/include/c++/5/bits/basic_string.h **** 	__glibcxx_requires_valid_range(__k1, __k2);
1771:/usr/include/c++/5/bits/basic_string.h **** 	return this->replace(__i1 - begin(), __i2 - __i1,
1772:/usr/include/c++/5/bits/basic_string.h **** 			     __k1, __k2 - __k1);
1773:/usr/include/c++/5/bits/basic_string.h ****       }
1774:/usr/include/c++/5/bits/basic_string.h **** 
1775:/usr/include/c++/5/bits/basic_string.h ****       basic_string&
1776:/usr/include/c++/5/bits/basic_string.h ****       replace(__const_iterator __i1, __const_iterator __i2,
1777:/usr/include/c++/5/bits/basic_string.h **** 	      const _CharT* __k1, const _CharT* __k2)
1778:/usr/include/c++/5/bits/basic_string.h ****       {
1779:/usr/include/c++/5/bits/basic_string.h **** 	_GLIBCXX_DEBUG_PEDASSERT(begin() <= __i1 && __i1 <= __i2
1780:/usr/include/c++/5/bits/basic_string.h **** 				 && __i2 <= end());
1781:/usr/include/c++/5/bits/basic_string.h **** 	__glibcxx_requires_valid_range(__k1, __k2);
1782:/usr/include/c++/5/bits/basic_string.h **** 	return this->replace(__i1 - begin(), __i2 - __i1,
1783:/usr/include/c++/5/bits/basic_string.h **** 			     __k1, __k2 - __k1);
1784:/usr/include/c++/5/bits/basic_string.h ****       }
1785:/usr/include/c++/5/bits/basic_string.h **** 
1786:/usr/include/c++/5/bits/basic_string.h ****       basic_string&
1787:/usr/include/c++/5/bits/basic_string.h ****       replace(__const_iterator __i1, __const_iterator __i2,
1788:/usr/include/c++/5/bits/basic_string.h **** 	      iterator __k1, iterator __k2)
1789:/usr/include/c++/5/bits/basic_string.h ****       {
1790:/usr/include/c++/5/bits/basic_string.h **** 	_GLIBCXX_DEBUG_PEDASSERT(begin() <= __i1 && __i1 <= __i2
1791:/usr/include/c++/5/bits/basic_string.h **** 				 && __i2 <= end());
1792:/usr/include/c++/5/bits/basic_string.h **** 	__glibcxx_requires_valid_range(__k1, __k2);
1793:/usr/include/c++/5/bits/basic_string.h **** 	return this->replace(__i1 - begin(), __i2 - __i1,
1794:/usr/include/c++/5/bits/basic_string.h **** 			     __k1.base(), __k2 - __k1);
1795:/usr/include/c++/5/bits/basic_string.h ****       }
1796:/usr/include/c++/5/bits/basic_string.h **** 
1797:/usr/include/c++/5/bits/basic_string.h ****       basic_string&
1798:/usr/include/c++/5/bits/basic_string.h ****       replace(__const_iterator __i1, __const_iterator __i2,
GAS LISTING /tmp/ccGYUW7A.s 			page 105


1799:/usr/include/c++/5/bits/basic_string.h **** 	      const_iterator __k1, const_iterator __k2)
1800:/usr/include/c++/5/bits/basic_string.h ****       {
1801:/usr/include/c++/5/bits/basic_string.h **** 	_GLIBCXX_DEBUG_PEDASSERT(begin() <= __i1 && __i1 <= __i2
1802:/usr/include/c++/5/bits/basic_string.h **** 				 && __i2 <= end());
1803:/usr/include/c++/5/bits/basic_string.h **** 	__glibcxx_requires_valid_range(__k1, __k2);
1804:/usr/include/c++/5/bits/basic_string.h **** 	return this->replace(__i1 - begin(), __i2 - __i1,
1805:/usr/include/c++/5/bits/basic_string.h **** 			     __k1.base(), __k2 - __k1);
1806:/usr/include/c++/5/bits/basic_string.h ****       }
1807:/usr/include/c++/5/bits/basic_string.h **** 
1808:/usr/include/c++/5/bits/basic_string.h **** #if __cplusplus >= 201103L
1809:/usr/include/c++/5/bits/basic_string.h ****       /**
1810:/usr/include/c++/5/bits/basic_string.h ****        *  @brief  Replace range of characters with initializer_list.
1811:/usr/include/c++/5/bits/basic_string.h ****        *  @param __i1  Iterator referencing start of range to replace.
1812:/usr/include/c++/5/bits/basic_string.h ****        *  @param __i2  Iterator referencing end of range to replace.
1813:/usr/include/c++/5/bits/basic_string.h ****        *  @param __l  The initializer_list of characters to insert.
1814:/usr/include/c++/5/bits/basic_string.h ****        *  @return  Reference to this string.
1815:/usr/include/c++/5/bits/basic_string.h ****        *  @throw  std::length_error  If new length exceeds @c max_size().
1816:/usr/include/c++/5/bits/basic_string.h ****        *
1817:/usr/include/c++/5/bits/basic_string.h ****        *  Removes the characters in the range [__i1,__i2).  In place,
1818:/usr/include/c++/5/bits/basic_string.h ****        *  characters in the range [__k1,__k2) are inserted.  If the
1819:/usr/include/c++/5/bits/basic_string.h ****        *  length of result exceeds max_size(), length_error is thrown.
1820:/usr/include/c++/5/bits/basic_string.h ****        *  The value of the string doesn't change if an error is
1821:/usr/include/c++/5/bits/basic_string.h ****        *  thrown.
1822:/usr/include/c++/5/bits/basic_string.h ****       */
1823:/usr/include/c++/5/bits/basic_string.h ****       basic_string& replace(const_iterator __i1, const_iterator __i2,
1824:/usr/include/c++/5/bits/basic_string.h **** 			    initializer_list<_CharT> __l)
1825:/usr/include/c++/5/bits/basic_string.h ****       { return this->replace(__i1, __i2, __l.begin(), __l.end()); }
1826:/usr/include/c++/5/bits/basic_string.h **** #endif // C++11
1827:/usr/include/c++/5/bits/basic_string.h **** 
1828:/usr/include/c++/5/bits/basic_string.h ****     private:
1829:/usr/include/c++/5/bits/basic_string.h ****       template<class _Integer>
1830:/usr/include/c++/5/bits/basic_string.h **** 	basic_string&
1831:/usr/include/c++/5/bits/basic_string.h **** 	_M_replace_dispatch(const_iterator __i1, const_iterator __i2,
1832:/usr/include/c++/5/bits/basic_string.h **** 			    _Integer __n, _Integer __val, __true_type)
1833:/usr/include/c++/5/bits/basic_string.h ****         { return _M_replace_aux(__i1 - begin(), __i2 - __i1, __n, __val); }
1834:/usr/include/c++/5/bits/basic_string.h **** 
1835:/usr/include/c++/5/bits/basic_string.h ****       template<class _InputIterator>
1836:/usr/include/c++/5/bits/basic_string.h **** 	basic_string&
1837:/usr/include/c++/5/bits/basic_string.h **** 	_M_replace_dispatch(const_iterator __i1, const_iterator __i2,
1838:/usr/include/c++/5/bits/basic_string.h **** 			    _InputIterator __k1, _InputIterator __k2,
1839:/usr/include/c++/5/bits/basic_string.h **** 			    __false_type);
1840:/usr/include/c++/5/bits/basic_string.h **** 
1841:/usr/include/c++/5/bits/basic_string.h ****       basic_string&
1842:/usr/include/c++/5/bits/basic_string.h ****       _M_replace_aux(size_type __pos1, size_type __n1, size_type __n2,
1843:/usr/include/c++/5/bits/basic_string.h **** 		     _CharT __c);
1844:/usr/include/c++/5/bits/basic_string.h **** 
1845:/usr/include/c++/5/bits/basic_string.h ****       basic_string&
1846:/usr/include/c++/5/bits/basic_string.h ****       _M_replace(size_type __pos, size_type __len1, const _CharT* __s,
1847:/usr/include/c++/5/bits/basic_string.h **** 		 const size_type __len2);
1848:/usr/include/c++/5/bits/basic_string.h **** 
1849:/usr/include/c++/5/bits/basic_string.h ****       basic_string&
1850:/usr/include/c++/5/bits/basic_string.h ****       _M_append(const _CharT* __s, size_type __n);
1851:/usr/include/c++/5/bits/basic_string.h **** 
1852:/usr/include/c++/5/bits/basic_string.h ****     public:
1853:/usr/include/c++/5/bits/basic_string.h **** 
1854:/usr/include/c++/5/bits/basic_string.h ****       /**
1855:/usr/include/c++/5/bits/basic_string.h ****        *  @brief  Copy substring into C string.
GAS LISTING /tmp/ccGYUW7A.s 			page 106


1856:/usr/include/c++/5/bits/basic_string.h ****        *  @param __s  C string to copy value into.
1857:/usr/include/c++/5/bits/basic_string.h ****        *  @param __n  Number of characters to copy.
1858:/usr/include/c++/5/bits/basic_string.h ****        *  @param __pos  Index of first character to copy.
1859:/usr/include/c++/5/bits/basic_string.h ****        *  @return  Number of characters actually copied
1860:/usr/include/c++/5/bits/basic_string.h ****        *  @throw  std::out_of_range  If __pos > size().
1861:/usr/include/c++/5/bits/basic_string.h ****        *
1862:/usr/include/c++/5/bits/basic_string.h ****        *  Copies up to @a __n characters starting at @a __pos into the
1863:/usr/include/c++/5/bits/basic_string.h ****        *  C string @a __s.  If @a __pos is %greater than size(),
1864:/usr/include/c++/5/bits/basic_string.h ****        *  out_of_range is thrown.
1865:/usr/include/c++/5/bits/basic_string.h ****       */
1866:/usr/include/c++/5/bits/basic_string.h ****       size_type
1867:/usr/include/c++/5/bits/basic_string.h ****       copy(_CharT* __s, size_type __n, size_type __pos = 0) const;
1868:/usr/include/c++/5/bits/basic_string.h **** 
1869:/usr/include/c++/5/bits/basic_string.h ****       /**
1870:/usr/include/c++/5/bits/basic_string.h ****        *  @brief  Swap contents with another string.
1871:/usr/include/c++/5/bits/basic_string.h ****        *  @param __s  String to swap with.
1872:/usr/include/c++/5/bits/basic_string.h ****        *
1873:/usr/include/c++/5/bits/basic_string.h ****        *  Exchanges the contents of this string with that of @a __s in constant
1874:/usr/include/c++/5/bits/basic_string.h ****        *  time.
1875:/usr/include/c++/5/bits/basic_string.h ****       */
1876:/usr/include/c++/5/bits/basic_string.h ****       void
1877:/usr/include/c++/5/bits/basic_string.h ****       swap(basic_string& __s) _GLIBCXX_NOEXCEPT;
1878:/usr/include/c++/5/bits/basic_string.h **** 
1879:/usr/include/c++/5/bits/basic_string.h ****       // String operations:
1880:/usr/include/c++/5/bits/basic_string.h ****       /**
1881:/usr/include/c++/5/bits/basic_string.h ****        *  @brief  Return const pointer to null-terminated contents.
1882:/usr/include/c++/5/bits/basic_string.h ****        *
1883:/usr/include/c++/5/bits/basic_string.h ****        *  This is a handle to internal data.  Do not modify or dire things may
1884:/usr/include/c++/5/bits/basic_string.h ****        *  happen.
1885:/usr/include/c++/5/bits/basic_string.h ****       */
1886:/usr/include/c++/5/bits/basic_string.h ****       const _CharT*
1887:/usr/include/c++/5/bits/basic_string.h ****       c_str() const _GLIBCXX_NOEXCEPT
1888:/usr/include/c++/5/bits/basic_string.h ****       { return _M_data(); }
1889:/usr/include/c++/5/bits/basic_string.h **** 
1890:/usr/include/c++/5/bits/basic_string.h ****       /**
1891:/usr/include/c++/5/bits/basic_string.h ****        *  @brief  Return const pointer to contents.
1892:/usr/include/c++/5/bits/basic_string.h ****        *
1893:/usr/include/c++/5/bits/basic_string.h ****        *  This is a handle to internal data.  Do not modify or dire things may
1894:/usr/include/c++/5/bits/basic_string.h ****        *  happen.
1895:/usr/include/c++/5/bits/basic_string.h ****       */
1896:/usr/include/c++/5/bits/basic_string.h ****       const _CharT*
1897:/usr/include/c++/5/bits/basic_string.h ****       data() const _GLIBCXX_NOEXCEPT
1898:/usr/include/c++/5/bits/basic_string.h ****       { return _M_data(); }
1899:/usr/include/c++/5/bits/basic_string.h **** 
1900:/usr/include/c++/5/bits/basic_string.h ****       /**
1901:/usr/include/c++/5/bits/basic_string.h ****        *  @brief  Return copy of allocator used to construct this string.
1902:/usr/include/c++/5/bits/basic_string.h ****       */
1903:/usr/include/c++/5/bits/basic_string.h ****       allocator_type
1904:/usr/include/c++/5/bits/basic_string.h ****       get_allocator() const _GLIBCXX_NOEXCEPT
1905:/usr/include/c++/5/bits/basic_string.h ****       { return _M_get_allocator(); }
1906:/usr/include/c++/5/bits/basic_string.h **** 
1907:/usr/include/c++/5/bits/basic_string.h ****       /**
1908:/usr/include/c++/5/bits/basic_string.h ****        *  @brief  Find position of a C substring.
1909:/usr/include/c++/5/bits/basic_string.h ****        *  @param __s  C string to locate.
1910:/usr/include/c++/5/bits/basic_string.h ****        *  @param __pos  Index of character to search from.
1911:/usr/include/c++/5/bits/basic_string.h ****        *  @param __n  Number of characters from @a s to search for.
1912:/usr/include/c++/5/bits/basic_string.h ****        *  @return  Index of start of first occurrence.
GAS LISTING /tmp/ccGYUW7A.s 			page 107


1913:/usr/include/c++/5/bits/basic_string.h ****        *
1914:/usr/include/c++/5/bits/basic_string.h ****        *  Starting from @a __pos, searches forward for the first @a
1915:/usr/include/c++/5/bits/basic_string.h ****        *  __n characters in @a __s within this string.  If found,
1916:/usr/include/c++/5/bits/basic_string.h ****        *  returns the index where it begins.  If not found, returns
1917:/usr/include/c++/5/bits/basic_string.h ****        *  npos.
1918:/usr/include/c++/5/bits/basic_string.h ****       */
1919:/usr/include/c++/5/bits/basic_string.h ****       size_type
1920:/usr/include/c++/5/bits/basic_string.h ****       find(const _CharT* __s, size_type __pos, size_type __n) const;
1921:/usr/include/c++/5/bits/basic_string.h **** 
1922:/usr/include/c++/5/bits/basic_string.h ****       /**
1923:/usr/include/c++/5/bits/basic_string.h ****        *  @brief  Find position of a string.
1924:/usr/include/c++/5/bits/basic_string.h ****        *  @param __str  String to locate.
1925:/usr/include/c++/5/bits/basic_string.h ****        *  @param __pos  Index of character to search from (default 0).
1926:/usr/include/c++/5/bits/basic_string.h ****        *  @return  Index of start of first occurrence.
1927:/usr/include/c++/5/bits/basic_string.h ****        *
1928:/usr/include/c++/5/bits/basic_string.h ****        *  Starting from @a __pos, searches forward for value of @a __str within
1929:/usr/include/c++/5/bits/basic_string.h ****        *  this string.  If found, returns the index where it begins.  If not
1930:/usr/include/c++/5/bits/basic_string.h ****        *  found, returns npos.
1931:/usr/include/c++/5/bits/basic_string.h ****       */
1932:/usr/include/c++/5/bits/basic_string.h ****       size_type
1933:/usr/include/c++/5/bits/basic_string.h ****       find(const basic_string& __str, size_type __pos = 0) const
1934:/usr/include/c++/5/bits/basic_string.h **** 	_GLIBCXX_NOEXCEPT
1935:/usr/include/c++/5/bits/basic_string.h ****       { return this->find(__str.data(), __pos, __str.size()); }
1936:/usr/include/c++/5/bits/basic_string.h **** 
1937:/usr/include/c++/5/bits/basic_string.h ****       /**
1938:/usr/include/c++/5/bits/basic_string.h ****        *  @brief  Find position of a C string.
1939:/usr/include/c++/5/bits/basic_string.h ****        *  @param __s  C string to locate.
1940:/usr/include/c++/5/bits/basic_string.h ****        *  @param __pos  Index of character to search from (default 0).
1941:/usr/include/c++/5/bits/basic_string.h ****        *  @return  Index of start of first occurrence.
1942:/usr/include/c++/5/bits/basic_string.h ****        *
1943:/usr/include/c++/5/bits/basic_string.h ****        *  Starting from @a __pos, searches forward for the value of @a
1944:/usr/include/c++/5/bits/basic_string.h ****        *  __s within this string.  If found, returns the index where
1945:/usr/include/c++/5/bits/basic_string.h ****        *  it begins.  If not found, returns npos.
1946:/usr/include/c++/5/bits/basic_string.h ****       */
1947:/usr/include/c++/5/bits/basic_string.h ****       size_type
1948:/usr/include/c++/5/bits/basic_string.h ****       find(const _CharT* __s, size_type __pos = 0) const
1949:/usr/include/c++/5/bits/basic_string.h ****       {
1950:/usr/include/c++/5/bits/basic_string.h **** 	__glibcxx_requires_string(__s);
1951:/usr/include/c++/5/bits/basic_string.h **** 	return this->find(__s, __pos, traits_type::length(__s));
1952:/usr/include/c++/5/bits/basic_string.h ****       }
1953:/usr/include/c++/5/bits/basic_string.h **** 
1954:/usr/include/c++/5/bits/basic_string.h ****       /**
1955:/usr/include/c++/5/bits/basic_string.h ****        *  @brief  Find position of a character.
1956:/usr/include/c++/5/bits/basic_string.h ****        *  @param __c  Character to locate.
1957:/usr/include/c++/5/bits/basic_string.h ****        *  @param __pos  Index of character to search from (default 0).
1958:/usr/include/c++/5/bits/basic_string.h ****        *  @return  Index of first occurrence.
1959:/usr/include/c++/5/bits/basic_string.h ****        *
1960:/usr/include/c++/5/bits/basic_string.h ****        *  Starting from @a __pos, searches forward for @a __c within
1961:/usr/include/c++/5/bits/basic_string.h ****        *  this string.  If found, returns the index where it was
1962:/usr/include/c++/5/bits/basic_string.h ****        *  found.  If not found, returns npos.
1963:/usr/include/c++/5/bits/basic_string.h ****       */
1964:/usr/include/c++/5/bits/basic_string.h ****       size_type
1965:/usr/include/c++/5/bits/basic_string.h ****       find(_CharT __c, size_type __pos = 0) const _GLIBCXX_NOEXCEPT;
1966:/usr/include/c++/5/bits/basic_string.h **** 
1967:/usr/include/c++/5/bits/basic_string.h ****       /**
1968:/usr/include/c++/5/bits/basic_string.h ****        *  @brief  Find last position of a string.
1969:/usr/include/c++/5/bits/basic_string.h ****        *  @param __str  String to locate.
GAS LISTING /tmp/ccGYUW7A.s 			page 108


1970:/usr/include/c++/5/bits/basic_string.h ****        *  @param __pos  Index of character to search back from (default end).
1971:/usr/include/c++/5/bits/basic_string.h ****        *  @return  Index of start of last occurrence.
1972:/usr/include/c++/5/bits/basic_string.h ****        *
1973:/usr/include/c++/5/bits/basic_string.h ****        *  Starting from @a __pos, searches backward for value of @a
1974:/usr/include/c++/5/bits/basic_string.h ****        *  __str within this string.  If found, returns the index where
1975:/usr/include/c++/5/bits/basic_string.h ****        *  it begins.  If not found, returns npos.
1976:/usr/include/c++/5/bits/basic_string.h ****       */
1977:/usr/include/c++/5/bits/basic_string.h ****       size_type
1978:/usr/include/c++/5/bits/basic_string.h ****       rfind(const basic_string& __str, size_type __pos = npos) const
1979:/usr/include/c++/5/bits/basic_string.h **** 	_GLIBCXX_NOEXCEPT
1980:/usr/include/c++/5/bits/basic_string.h ****       { return this->rfind(__str.data(), __pos, __str.size()); }
1981:/usr/include/c++/5/bits/basic_string.h **** 
1982:/usr/include/c++/5/bits/basic_string.h ****       /**
1983:/usr/include/c++/5/bits/basic_string.h ****        *  @brief  Find last position of a C substring.
1984:/usr/include/c++/5/bits/basic_string.h ****        *  @param __s  C string to locate.
1985:/usr/include/c++/5/bits/basic_string.h ****        *  @param __pos  Index of character to search back from.
1986:/usr/include/c++/5/bits/basic_string.h ****        *  @param __n  Number of characters from s to search for.
1987:/usr/include/c++/5/bits/basic_string.h ****        *  @return  Index of start of last occurrence.
1988:/usr/include/c++/5/bits/basic_string.h ****        *
1989:/usr/include/c++/5/bits/basic_string.h ****        *  Starting from @a __pos, searches backward for the first @a
1990:/usr/include/c++/5/bits/basic_string.h ****        *  __n characters in @a __s within this string.  If found,
1991:/usr/include/c++/5/bits/basic_string.h ****        *  returns the index where it begins.  If not found, returns
1992:/usr/include/c++/5/bits/basic_string.h ****        *  npos.
1993:/usr/include/c++/5/bits/basic_string.h ****       */
1994:/usr/include/c++/5/bits/basic_string.h ****       size_type
1995:/usr/include/c++/5/bits/basic_string.h ****       rfind(const _CharT* __s, size_type __pos, size_type __n) const;
1996:/usr/include/c++/5/bits/basic_string.h **** 
1997:/usr/include/c++/5/bits/basic_string.h ****       /**
1998:/usr/include/c++/5/bits/basic_string.h ****        *  @brief  Find last position of a C string.
1999:/usr/include/c++/5/bits/basic_string.h ****        *  @param __s  C string to locate.
2000:/usr/include/c++/5/bits/basic_string.h ****        *  @param __pos  Index of character to start search at (default end).
2001:/usr/include/c++/5/bits/basic_string.h ****        *  @return  Index of start of  last occurrence.
2002:/usr/include/c++/5/bits/basic_string.h ****        *
2003:/usr/include/c++/5/bits/basic_string.h ****        *  Starting from @a __pos, searches backward for the value of
2004:/usr/include/c++/5/bits/basic_string.h ****        *  @a __s within this string.  If found, returns the index
2005:/usr/include/c++/5/bits/basic_string.h ****        *  where it begins.  If not found, returns npos.
2006:/usr/include/c++/5/bits/basic_string.h ****       */
2007:/usr/include/c++/5/bits/basic_string.h ****       size_type
2008:/usr/include/c++/5/bits/basic_string.h ****       rfind(const _CharT* __s, size_type __pos = npos) const
2009:/usr/include/c++/5/bits/basic_string.h ****       {
2010:/usr/include/c++/5/bits/basic_string.h **** 	__glibcxx_requires_string(__s);
2011:/usr/include/c++/5/bits/basic_string.h **** 	return this->rfind(__s, __pos, traits_type::length(__s));
2012:/usr/include/c++/5/bits/basic_string.h ****       }
2013:/usr/include/c++/5/bits/basic_string.h **** 
2014:/usr/include/c++/5/bits/basic_string.h ****       /**
2015:/usr/include/c++/5/bits/basic_string.h ****        *  @brief  Find last position of a character.
2016:/usr/include/c++/5/bits/basic_string.h ****        *  @param __c  Character to locate.
2017:/usr/include/c++/5/bits/basic_string.h ****        *  @param __pos  Index of character to search back from (default end).
2018:/usr/include/c++/5/bits/basic_string.h ****        *  @return  Index of last occurrence.
2019:/usr/include/c++/5/bits/basic_string.h ****        *
2020:/usr/include/c++/5/bits/basic_string.h ****        *  Starting from @a __pos, searches backward for @a __c within
2021:/usr/include/c++/5/bits/basic_string.h ****        *  this string.  If found, returns the index where it was
2022:/usr/include/c++/5/bits/basic_string.h ****        *  found.  If not found, returns npos.
2023:/usr/include/c++/5/bits/basic_string.h ****       */
2024:/usr/include/c++/5/bits/basic_string.h ****       size_type
2025:/usr/include/c++/5/bits/basic_string.h ****       rfind(_CharT __c, size_type __pos = npos) const _GLIBCXX_NOEXCEPT;
2026:/usr/include/c++/5/bits/basic_string.h **** 
GAS LISTING /tmp/ccGYUW7A.s 			page 109


2027:/usr/include/c++/5/bits/basic_string.h ****       /**
2028:/usr/include/c++/5/bits/basic_string.h ****        *  @brief  Find position of a character of string.
2029:/usr/include/c++/5/bits/basic_string.h ****        *  @param __str  String containing characters to locate.
2030:/usr/include/c++/5/bits/basic_string.h ****        *  @param __pos  Index of character to search from (default 0).
2031:/usr/include/c++/5/bits/basic_string.h ****        *  @return  Index of first occurrence.
2032:/usr/include/c++/5/bits/basic_string.h ****        *
2033:/usr/include/c++/5/bits/basic_string.h ****        *  Starting from @a __pos, searches forward for one of the
2034:/usr/include/c++/5/bits/basic_string.h ****        *  characters of @a __str within this string.  If found,
2035:/usr/include/c++/5/bits/basic_string.h ****        *  returns the index where it was found.  If not found, returns
2036:/usr/include/c++/5/bits/basic_string.h ****        *  npos.
2037:/usr/include/c++/5/bits/basic_string.h ****       */
2038:/usr/include/c++/5/bits/basic_string.h ****       size_type
2039:/usr/include/c++/5/bits/basic_string.h ****       find_first_of(const basic_string& __str, size_type __pos = 0) const
2040:/usr/include/c++/5/bits/basic_string.h **** 	_GLIBCXX_NOEXCEPT
2041:/usr/include/c++/5/bits/basic_string.h ****       { return this->find_first_of(__str.data(), __pos, __str.size()); }
2042:/usr/include/c++/5/bits/basic_string.h **** 
2043:/usr/include/c++/5/bits/basic_string.h ****       /**
2044:/usr/include/c++/5/bits/basic_string.h ****        *  @brief  Find position of a character of C substring.
2045:/usr/include/c++/5/bits/basic_string.h ****        *  @param __s  String containing characters to locate.
2046:/usr/include/c++/5/bits/basic_string.h ****        *  @param __pos  Index of character to search from.
2047:/usr/include/c++/5/bits/basic_string.h ****        *  @param __n  Number of characters from s to search for.
2048:/usr/include/c++/5/bits/basic_string.h ****        *  @return  Index of first occurrence.
2049:/usr/include/c++/5/bits/basic_string.h ****        *
2050:/usr/include/c++/5/bits/basic_string.h ****        *  Starting from @a __pos, searches forward for one of the
2051:/usr/include/c++/5/bits/basic_string.h ****        *  first @a __n characters of @a __s within this string.  If
2052:/usr/include/c++/5/bits/basic_string.h ****        *  found, returns the index where it was found.  If not found,
2053:/usr/include/c++/5/bits/basic_string.h ****        *  returns npos.
2054:/usr/include/c++/5/bits/basic_string.h ****       */
2055:/usr/include/c++/5/bits/basic_string.h ****       size_type
2056:/usr/include/c++/5/bits/basic_string.h ****       find_first_of(const _CharT* __s, size_type __pos, size_type __n) const;
2057:/usr/include/c++/5/bits/basic_string.h **** 
2058:/usr/include/c++/5/bits/basic_string.h ****       /**
2059:/usr/include/c++/5/bits/basic_string.h ****        *  @brief  Find position of a character of C string.
2060:/usr/include/c++/5/bits/basic_string.h ****        *  @param __s  String containing characters to locate.
2061:/usr/include/c++/5/bits/basic_string.h ****        *  @param __pos  Index of character to search from (default 0).
2062:/usr/include/c++/5/bits/basic_string.h ****        *  @return  Index of first occurrence.
2063:/usr/include/c++/5/bits/basic_string.h ****        *
2064:/usr/include/c++/5/bits/basic_string.h ****        *  Starting from @a __pos, searches forward for one of the
2065:/usr/include/c++/5/bits/basic_string.h ****        *  characters of @a __s within this string.  If found, returns
2066:/usr/include/c++/5/bits/basic_string.h ****        *  the index where it was found.  If not found, returns npos.
2067:/usr/include/c++/5/bits/basic_string.h ****       */
2068:/usr/include/c++/5/bits/basic_string.h ****       size_type
2069:/usr/include/c++/5/bits/basic_string.h ****       find_first_of(const _CharT* __s, size_type __pos = 0) const
2070:/usr/include/c++/5/bits/basic_string.h ****       {
2071:/usr/include/c++/5/bits/basic_string.h **** 	__glibcxx_requires_string(__s);
2072:/usr/include/c++/5/bits/basic_string.h **** 	return this->find_first_of(__s, __pos, traits_type::length(__s));
2073:/usr/include/c++/5/bits/basic_string.h ****       }
2074:/usr/include/c++/5/bits/basic_string.h **** 
2075:/usr/include/c++/5/bits/basic_string.h ****       /**
2076:/usr/include/c++/5/bits/basic_string.h ****        *  @brief  Find position of a character.
2077:/usr/include/c++/5/bits/basic_string.h ****        *  @param __c  Character to locate.
2078:/usr/include/c++/5/bits/basic_string.h ****        *  @param __pos  Index of character to search from (default 0).
2079:/usr/include/c++/5/bits/basic_string.h ****        *  @return  Index of first occurrence.
2080:/usr/include/c++/5/bits/basic_string.h ****        *
2081:/usr/include/c++/5/bits/basic_string.h ****        *  Starting from @a __pos, searches forward for the character
2082:/usr/include/c++/5/bits/basic_string.h ****        *  @a __c within this string.  If found, returns the index
2083:/usr/include/c++/5/bits/basic_string.h ****        *  where it was found.  If not found, returns npos.
GAS LISTING /tmp/ccGYUW7A.s 			page 110


2084:/usr/include/c++/5/bits/basic_string.h ****        *
2085:/usr/include/c++/5/bits/basic_string.h ****        *  Note: equivalent to find(__c, __pos).
2086:/usr/include/c++/5/bits/basic_string.h ****       */
2087:/usr/include/c++/5/bits/basic_string.h ****       size_type
2088:/usr/include/c++/5/bits/basic_string.h ****       find_first_of(_CharT __c, size_type __pos = 0) const _GLIBCXX_NOEXCEPT
2089:/usr/include/c++/5/bits/basic_string.h ****       { return this->find(__c, __pos); }
2090:/usr/include/c++/5/bits/basic_string.h **** 
2091:/usr/include/c++/5/bits/basic_string.h ****       /**
2092:/usr/include/c++/5/bits/basic_string.h ****        *  @brief  Find last position of a character of string.
2093:/usr/include/c++/5/bits/basic_string.h ****        *  @param __str  String containing characters to locate.
2094:/usr/include/c++/5/bits/basic_string.h ****        *  @param __pos  Index of character to search back from (default end).
2095:/usr/include/c++/5/bits/basic_string.h ****        *  @return  Index of last occurrence.
2096:/usr/include/c++/5/bits/basic_string.h ****        *
2097:/usr/include/c++/5/bits/basic_string.h ****        *  Starting from @a __pos, searches backward for one of the
2098:/usr/include/c++/5/bits/basic_string.h ****        *  characters of @a __str within this string.  If found,
2099:/usr/include/c++/5/bits/basic_string.h ****        *  returns the index where it was found.  If not found, returns
2100:/usr/include/c++/5/bits/basic_string.h ****        *  npos.
2101:/usr/include/c++/5/bits/basic_string.h ****       */
2102:/usr/include/c++/5/bits/basic_string.h ****       size_type
2103:/usr/include/c++/5/bits/basic_string.h ****       find_last_of(const basic_string& __str, size_type __pos = npos) const
2104:/usr/include/c++/5/bits/basic_string.h **** 	_GLIBCXX_NOEXCEPT
2105:/usr/include/c++/5/bits/basic_string.h ****       { return this->find_last_of(__str.data(), __pos, __str.size()); }
2106:/usr/include/c++/5/bits/basic_string.h **** 
2107:/usr/include/c++/5/bits/basic_string.h ****       /**
2108:/usr/include/c++/5/bits/basic_string.h ****        *  @brief  Find last position of a character of C substring.
2109:/usr/include/c++/5/bits/basic_string.h ****        *  @param __s  C string containing characters to locate.
2110:/usr/include/c++/5/bits/basic_string.h ****        *  @param __pos  Index of character to search back from.
2111:/usr/include/c++/5/bits/basic_string.h ****        *  @param __n  Number of characters from s to search for.
2112:/usr/include/c++/5/bits/basic_string.h ****        *  @return  Index of last occurrence.
2113:/usr/include/c++/5/bits/basic_string.h ****        *
2114:/usr/include/c++/5/bits/basic_string.h ****        *  Starting from @a __pos, searches backward for one of the
2115:/usr/include/c++/5/bits/basic_string.h ****        *  first @a __n characters of @a __s within this string.  If
2116:/usr/include/c++/5/bits/basic_string.h ****        *  found, returns the index where it was found.  If not found,
2117:/usr/include/c++/5/bits/basic_string.h ****        *  returns npos.
2118:/usr/include/c++/5/bits/basic_string.h ****       */
2119:/usr/include/c++/5/bits/basic_string.h ****       size_type
2120:/usr/include/c++/5/bits/basic_string.h ****       find_last_of(const _CharT* __s, size_type __pos, size_type __n) const;
2121:/usr/include/c++/5/bits/basic_string.h **** 
2122:/usr/include/c++/5/bits/basic_string.h ****       /**
2123:/usr/include/c++/5/bits/basic_string.h ****        *  @brief  Find last position of a character of C string.
2124:/usr/include/c++/5/bits/basic_string.h ****        *  @param __s  C string containing characters to locate.
2125:/usr/include/c++/5/bits/basic_string.h ****        *  @param __pos  Index of character to search back from (default end).
2126:/usr/include/c++/5/bits/basic_string.h ****        *  @return  Index of last occurrence.
2127:/usr/include/c++/5/bits/basic_string.h ****        *
2128:/usr/include/c++/5/bits/basic_string.h ****        *  Starting from @a __pos, searches backward for one of the
2129:/usr/include/c++/5/bits/basic_string.h ****        *  characters of @a __s within this string.  If found, returns
2130:/usr/include/c++/5/bits/basic_string.h ****        *  the index where it was found.  If not found, returns npos.
2131:/usr/include/c++/5/bits/basic_string.h ****       */
2132:/usr/include/c++/5/bits/basic_string.h ****       size_type
2133:/usr/include/c++/5/bits/basic_string.h ****       find_last_of(const _CharT* __s, size_type __pos = npos) const
2134:/usr/include/c++/5/bits/basic_string.h ****       {
2135:/usr/include/c++/5/bits/basic_string.h **** 	__glibcxx_requires_string(__s);
2136:/usr/include/c++/5/bits/basic_string.h **** 	return this->find_last_of(__s, __pos, traits_type::length(__s));
2137:/usr/include/c++/5/bits/basic_string.h ****       }
2138:/usr/include/c++/5/bits/basic_string.h **** 
2139:/usr/include/c++/5/bits/basic_string.h ****       /**
2140:/usr/include/c++/5/bits/basic_string.h ****        *  @brief  Find last position of a character.
GAS LISTING /tmp/ccGYUW7A.s 			page 111


2141:/usr/include/c++/5/bits/basic_string.h ****        *  @param __c  Character to locate.
2142:/usr/include/c++/5/bits/basic_string.h ****        *  @param __pos  Index of character to search back from (default end).
2143:/usr/include/c++/5/bits/basic_string.h ****        *  @return  Index of last occurrence.
2144:/usr/include/c++/5/bits/basic_string.h ****        *
2145:/usr/include/c++/5/bits/basic_string.h ****        *  Starting from @a __pos, searches backward for @a __c within
2146:/usr/include/c++/5/bits/basic_string.h ****        *  this string.  If found, returns the index where it was
2147:/usr/include/c++/5/bits/basic_string.h ****        *  found.  If not found, returns npos.
2148:/usr/include/c++/5/bits/basic_string.h ****        *
2149:/usr/include/c++/5/bits/basic_string.h ****        *  Note: equivalent to rfind(__c, __pos).
2150:/usr/include/c++/5/bits/basic_string.h ****       */
2151:/usr/include/c++/5/bits/basic_string.h ****       size_type
2152:/usr/include/c++/5/bits/basic_string.h ****       find_last_of(_CharT __c, size_type __pos = npos) const _GLIBCXX_NOEXCEPT
2153:/usr/include/c++/5/bits/basic_string.h ****       { return this->rfind(__c, __pos); }
2154:/usr/include/c++/5/bits/basic_string.h **** 
2155:/usr/include/c++/5/bits/basic_string.h ****       /**
2156:/usr/include/c++/5/bits/basic_string.h ****        *  @brief  Find position of a character not in string.
2157:/usr/include/c++/5/bits/basic_string.h ****        *  @param __str  String containing characters to avoid.
2158:/usr/include/c++/5/bits/basic_string.h ****        *  @param __pos  Index of character to search from (default 0).
2159:/usr/include/c++/5/bits/basic_string.h ****        *  @return  Index of first occurrence.
2160:/usr/include/c++/5/bits/basic_string.h ****        *
2161:/usr/include/c++/5/bits/basic_string.h ****        *  Starting from @a __pos, searches forward for a character not contained
2162:/usr/include/c++/5/bits/basic_string.h ****        *  in @a __str within this string.  If found, returns the index where it
2163:/usr/include/c++/5/bits/basic_string.h ****        *  was found.  If not found, returns npos.
2164:/usr/include/c++/5/bits/basic_string.h ****       */
2165:/usr/include/c++/5/bits/basic_string.h ****       size_type
2166:/usr/include/c++/5/bits/basic_string.h ****       find_first_not_of(const basic_string& __str, size_type __pos = 0) const
2167:/usr/include/c++/5/bits/basic_string.h **** 	_GLIBCXX_NOEXCEPT
2168:/usr/include/c++/5/bits/basic_string.h ****       { return this->find_first_not_of(__str.data(), __pos, __str.size()); }
2169:/usr/include/c++/5/bits/basic_string.h **** 
2170:/usr/include/c++/5/bits/basic_string.h ****       /**
2171:/usr/include/c++/5/bits/basic_string.h ****        *  @brief  Find position of a character not in C substring.
2172:/usr/include/c++/5/bits/basic_string.h ****        *  @param __s  C string containing characters to avoid.
2173:/usr/include/c++/5/bits/basic_string.h ****        *  @param __pos  Index of character to search from.
2174:/usr/include/c++/5/bits/basic_string.h ****        *  @param __n  Number of characters from __s to consider.
2175:/usr/include/c++/5/bits/basic_string.h ****        *  @return  Index of first occurrence.
2176:/usr/include/c++/5/bits/basic_string.h ****        *
2177:/usr/include/c++/5/bits/basic_string.h ****        *  Starting from @a __pos, searches forward for a character not
2178:/usr/include/c++/5/bits/basic_string.h ****        *  contained in the first @a __n characters of @a __s within
2179:/usr/include/c++/5/bits/basic_string.h ****        *  this string.  If found, returns the index where it was
2180:/usr/include/c++/5/bits/basic_string.h ****        *  found.  If not found, returns npos.
2181:/usr/include/c++/5/bits/basic_string.h ****       */
2182:/usr/include/c++/5/bits/basic_string.h ****       size_type
2183:/usr/include/c++/5/bits/basic_string.h ****       find_first_not_of(const _CharT* __s, size_type __pos,
2184:/usr/include/c++/5/bits/basic_string.h **** 			size_type __n) const;
2185:/usr/include/c++/5/bits/basic_string.h **** 
2186:/usr/include/c++/5/bits/basic_string.h ****       /**
2187:/usr/include/c++/5/bits/basic_string.h ****        *  @brief  Find position of a character not in C string.
2188:/usr/include/c++/5/bits/basic_string.h ****        *  @param __s  C string containing characters to avoid.
2189:/usr/include/c++/5/bits/basic_string.h ****        *  @param __pos  Index of character to search from (default 0).
2190:/usr/include/c++/5/bits/basic_string.h ****        *  @return  Index of first occurrence.
2191:/usr/include/c++/5/bits/basic_string.h ****        *
2192:/usr/include/c++/5/bits/basic_string.h ****        *  Starting from @a __pos, searches forward for a character not
2193:/usr/include/c++/5/bits/basic_string.h ****        *  contained in @a __s within this string.  If found, returns
2194:/usr/include/c++/5/bits/basic_string.h ****        *  the index where it was found.  If not found, returns npos.
2195:/usr/include/c++/5/bits/basic_string.h ****       */
2196:/usr/include/c++/5/bits/basic_string.h ****       size_type
2197:/usr/include/c++/5/bits/basic_string.h ****       find_first_not_of(const _CharT* __s, size_type __pos = 0) const
GAS LISTING /tmp/ccGYUW7A.s 			page 112


2198:/usr/include/c++/5/bits/basic_string.h ****       {
2199:/usr/include/c++/5/bits/basic_string.h **** 	__glibcxx_requires_string(__s);
2200:/usr/include/c++/5/bits/basic_string.h **** 	return this->find_first_not_of(__s, __pos, traits_type::length(__s));
2201:/usr/include/c++/5/bits/basic_string.h ****       }
2202:/usr/include/c++/5/bits/basic_string.h **** 
2203:/usr/include/c++/5/bits/basic_string.h ****       /**
2204:/usr/include/c++/5/bits/basic_string.h ****        *  @brief  Find position of a different character.
2205:/usr/include/c++/5/bits/basic_string.h ****        *  @param __c  Character to avoid.
2206:/usr/include/c++/5/bits/basic_string.h ****        *  @param __pos  Index of character to search from (default 0).
2207:/usr/include/c++/5/bits/basic_string.h ****        *  @return  Index of first occurrence.
2208:/usr/include/c++/5/bits/basic_string.h ****        *
2209:/usr/include/c++/5/bits/basic_string.h ****        *  Starting from @a __pos, searches forward for a character
2210:/usr/include/c++/5/bits/basic_string.h ****        *  other than @a __c within this string.  If found, returns the
2211:/usr/include/c++/5/bits/basic_string.h ****        *  index where it was found.  If not found, returns npos.
2212:/usr/include/c++/5/bits/basic_string.h ****       */
2213:/usr/include/c++/5/bits/basic_string.h ****       size_type
2214:/usr/include/c++/5/bits/basic_string.h ****       find_first_not_of(_CharT __c, size_type __pos = 0) const
2215:/usr/include/c++/5/bits/basic_string.h **** 	_GLIBCXX_NOEXCEPT;
2216:/usr/include/c++/5/bits/basic_string.h **** 
2217:/usr/include/c++/5/bits/basic_string.h ****       /**
2218:/usr/include/c++/5/bits/basic_string.h ****        *  @brief  Find last position of a character not in string.
2219:/usr/include/c++/5/bits/basic_string.h ****        *  @param __str  String containing characters to avoid.
2220:/usr/include/c++/5/bits/basic_string.h ****        *  @param __pos  Index of character to search back from (default end).
2221:/usr/include/c++/5/bits/basic_string.h ****        *  @return  Index of last occurrence.
2222:/usr/include/c++/5/bits/basic_string.h ****        *
2223:/usr/include/c++/5/bits/basic_string.h ****        *  Starting from @a __pos, searches backward for a character
2224:/usr/include/c++/5/bits/basic_string.h ****        *  not contained in @a __str within this string.  If found,
2225:/usr/include/c++/5/bits/basic_string.h ****        *  returns the index where it was found.  If not found, returns
2226:/usr/include/c++/5/bits/basic_string.h ****        *  npos.
2227:/usr/include/c++/5/bits/basic_string.h ****       */
2228:/usr/include/c++/5/bits/basic_string.h ****       size_type
2229:/usr/include/c++/5/bits/basic_string.h ****       find_last_not_of(const basic_string& __str, size_type __pos = npos) const
2230:/usr/include/c++/5/bits/basic_string.h **** 	_GLIBCXX_NOEXCEPT
2231:/usr/include/c++/5/bits/basic_string.h ****       { return this->find_last_not_of(__str.data(), __pos, __str.size()); }
2232:/usr/include/c++/5/bits/basic_string.h **** 
2233:/usr/include/c++/5/bits/basic_string.h ****       /**
2234:/usr/include/c++/5/bits/basic_string.h ****        *  @brief  Find last position of a character not in C substring.
2235:/usr/include/c++/5/bits/basic_string.h ****        *  @param __s  C string containing characters to avoid.
2236:/usr/include/c++/5/bits/basic_string.h ****        *  @param __pos  Index of character to search back from.
2237:/usr/include/c++/5/bits/basic_string.h ****        *  @param __n  Number of characters from s to consider.
2238:/usr/include/c++/5/bits/basic_string.h ****        *  @return  Index of last occurrence.
2239:/usr/include/c++/5/bits/basic_string.h ****        *
2240:/usr/include/c++/5/bits/basic_string.h ****        *  Starting from @a __pos, searches backward for a character not
2241:/usr/include/c++/5/bits/basic_string.h ****        *  contained in the first @a __n characters of @a __s within this string.
2242:/usr/include/c++/5/bits/basic_string.h ****        *  If found, returns the index where it was found.  If not found,
2243:/usr/include/c++/5/bits/basic_string.h ****        *  returns npos.
2244:/usr/include/c++/5/bits/basic_string.h ****       */
2245:/usr/include/c++/5/bits/basic_string.h ****       size_type
2246:/usr/include/c++/5/bits/basic_string.h ****       find_last_not_of(const _CharT* __s, size_type __pos,
2247:/usr/include/c++/5/bits/basic_string.h **** 		       size_type __n) const;
2248:/usr/include/c++/5/bits/basic_string.h ****       /**
2249:/usr/include/c++/5/bits/basic_string.h ****        *  @brief  Find last position of a character not in C string.
2250:/usr/include/c++/5/bits/basic_string.h ****        *  @param __s  C string containing characters to avoid.
2251:/usr/include/c++/5/bits/basic_string.h ****        *  @param __pos  Index of character to search back from (default end).
2252:/usr/include/c++/5/bits/basic_string.h ****        *  @return  Index of last occurrence.
2253:/usr/include/c++/5/bits/basic_string.h ****        *
2254:/usr/include/c++/5/bits/basic_string.h ****        *  Starting from @a __pos, searches backward for a character
GAS LISTING /tmp/ccGYUW7A.s 			page 113


2255:/usr/include/c++/5/bits/basic_string.h ****        *  not contained in @a __s within this string.  If found,
2256:/usr/include/c++/5/bits/basic_string.h ****        *  returns the index where it was found.  If not found, returns
2257:/usr/include/c++/5/bits/basic_string.h ****        *  npos.
2258:/usr/include/c++/5/bits/basic_string.h ****       */
2259:/usr/include/c++/5/bits/basic_string.h ****       size_type
2260:/usr/include/c++/5/bits/basic_string.h ****       find_last_not_of(const _CharT* __s, size_type __pos = npos) const
2261:/usr/include/c++/5/bits/basic_string.h ****       {
2262:/usr/include/c++/5/bits/basic_string.h **** 	__glibcxx_requires_string(__s);
2263:/usr/include/c++/5/bits/basic_string.h **** 	return this->find_last_not_of(__s, __pos, traits_type::length(__s));
2264:/usr/include/c++/5/bits/basic_string.h ****       }
2265:/usr/include/c++/5/bits/basic_string.h **** 
2266:/usr/include/c++/5/bits/basic_string.h ****       /**
2267:/usr/include/c++/5/bits/basic_string.h ****        *  @brief  Find last position of a different character.
2268:/usr/include/c++/5/bits/basic_string.h ****        *  @param __c  Character to avoid.
2269:/usr/include/c++/5/bits/basic_string.h ****        *  @param __pos  Index of character to search back from (default end).
2270:/usr/include/c++/5/bits/basic_string.h ****        *  @return  Index of last occurrence.
2271:/usr/include/c++/5/bits/basic_string.h ****        *
2272:/usr/include/c++/5/bits/basic_string.h ****        *  Starting from @a __pos, searches backward for a character other than
2273:/usr/include/c++/5/bits/basic_string.h ****        *  @a __c within this string.  If found, returns the index where it was
2274:/usr/include/c++/5/bits/basic_string.h ****        *  found.  If not found, returns npos.
2275:/usr/include/c++/5/bits/basic_string.h ****       */
2276:/usr/include/c++/5/bits/basic_string.h ****       size_type
2277:/usr/include/c++/5/bits/basic_string.h ****       find_last_not_of(_CharT __c, size_type __pos = npos) const
2278:/usr/include/c++/5/bits/basic_string.h **** 	_GLIBCXX_NOEXCEPT;
2279:/usr/include/c++/5/bits/basic_string.h **** 
2280:/usr/include/c++/5/bits/basic_string.h ****       /**
2281:/usr/include/c++/5/bits/basic_string.h ****        *  @brief  Get a substring.
2282:/usr/include/c++/5/bits/basic_string.h ****        *  @param __pos  Index of first character (default 0).
2283:/usr/include/c++/5/bits/basic_string.h ****        *  @param __n  Number of characters in substring (default remainder).
2284:/usr/include/c++/5/bits/basic_string.h ****        *  @return  The new string.
2285:/usr/include/c++/5/bits/basic_string.h ****        *  @throw  std::out_of_range  If __pos > size().
2286:/usr/include/c++/5/bits/basic_string.h ****        *
2287:/usr/include/c++/5/bits/basic_string.h ****        *  Construct and return a new string using the @a __n
2288:/usr/include/c++/5/bits/basic_string.h ****        *  characters starting at @a __pos.  If the string is too
2289:/usr/include/c++/5/bits/basic_string.h ****        *  short, use the remainder of the characters.  If @a __pos is
2290:/usr/include/c++/5/bits/basic_string.h ****        *  beyond the end of the string, out_of_range is thrown.
2291:/usr/include/c++/5/bits/basic_string.h ****       */
2292:/usr/include/c++/5/bits/basic_string.h ****       basic_string
2293:/usr/include/c++/5/bits/basic_string.h ****       substr(size_type __pos = 0, size_type __n = npos) const
2294:/usr/include/c++/5/bits/basic_string.h ****       { return basic_string(*this,
2295:/usr/include/c++/5/bits/basic_string.h **** 			    _M_check(__pos, "basic_string::substr"), __n); }
2296:/usr/include/c++/5/bits/basic_string.h **** 
2297:/usr/include/c++/5/bits/basic_string.h ****       /**
2298:/usr/include/c++/5/bits/basic_string.h ****        *  @brief  Compare to a string.
2299:/usr/include/c++/5/bits/basic_string.h ****        *  @param __str  String to compare against.
2300:/usr/include/c++/5/bits/basic_string.h ****        *  @return  Integer < 0, 0, or > 0.
2301:/usr/include/c++/5/bits/basic_string.h ****        *
2302:/usr/include/c++/5/bits/basic_string.h ****        *  Returns an integer < 0 if this string is ordered before @a
2303:/usr/include/c++/5/bits/basic_string.h ****        *  __str, 0 if their values are equivalent, or > 0 if this
2304:/usr/include/c++/5/bits/basic_string.h ****        *  string is ordered after @a __str.  Determines the effective
2305:/usr/include/c++/5/bits/basic_string.h ****        *  length rlen of the strings to compare as the smallest of
2306:/usr/include/c++/5/bits/basic_string.h ****        *  size() and str.size().  The function then compares the two
2307:/usr/include/c++/5/bits/basic_string.h ****        *  strings by calling traits::compare(data(), str.data(),rlen).
2308:/usr/include/c++/5/bits/basic_string.h ****        *  If the result of the comparison is nonzero returns it,
2309:/usr/include/c++/5/bits/basic_string.h ****        *  otherwise the shorter one is ordered first.
2310:/usr/include/c++/5/bits/basic_string.h ****       */
2311:/usr/include/c++/5/bits/basic_string.h ****       int
GAS LISTING /tmp/ccGYUW7A.s 			page 114


2312:/usr/include/c++/5/bits/basic_string.h ****       compare(const basic_string& __str) const
2313:/usr/include/c++/5/bits/basic_string.h ****       {
2314:/usr/include/c++/5/bits/basic_string.h **** 	const size_type __size = this->size();
2315:/usr/include/c++/5/bits/basic_string.h **** 	const size_type __osize = __str.size();
2316:/usr/include/c++/5/bits/basic_string.h **** 	const size_type __len = std::min(__size, __osize);
2317:/usr/include/c++/5/bits/basic_string.h **** 
2318:/usr/include/c++/5/bits/basic_string.h **** 	int __r = traits_type::compare(_M_data(), __str.data(), __len);
2319:/usr/include/c++/5/bits/basic_string.h **** 	if (!__r)
2320:/usr/include/c++/5/bits/basic_string.h **** 	  __r = _S_compare(__size, __osize);
2321:/usr/include/c++/5/bits/basic_string.h **** 	return __r;
2322:/usr/include/c++/5/bits/basic_string.h ****       }
2323:/usr/include/c++/5/bits/basic_string.h **** 
2324:/usr/include/c++/5/bits/basic_string.h ****       /**
2325:/usr/include/c++/5/bits/basic_string.h ****        *  @brief  Compare substring to a string.
2326:/usr/include/c++/5/bits/basic_string.h ****        *  @param __pos  Index of first character of substring.
2327:/usr/include/c++/5/bits/basic_string.h ****        *  @param __n  Number of characters in substring.
2328:/usr/include/c++/5/bits/basic_string.h ****        *  @param __str  String to compare against.
2329:/usr/include/c++/5/bits/basic_string.h ****        *  @return  Integer < 0, 0, or > 0.
2330:/usr/include/c++/5/bits/basic_string.h ****        *
2331:/usr/include/c++/5/bits/basic_string.h ****        *  Form the substring of this string from the @a __n characters
2332:/usr/include/c++/5/bits/basic_string.h ****        *  starting at @a __pos.  Returns an integer < 0 if the
2333:/usr/include/c++/5/bits/basic_string.h ****        *  substring is ordered before @a __str, 0 if their values are
2334:/usr/include/c++/5/bits/basic_string.h ****        *  equivalent, or > 0 if the substring is ordered after @a
2335:/usr/include/c++/5/bits/basic_string.h ****        *  __str.  Determines the effective length rlen of the strings
2336:/usr/include/c++/5/bits/basic_string.h ****        *  to compare as the smallest of the length of the substring
2337:/usr/include/c++/5/bits/basic_string.h ****        *  and @a __str.size().  The function then compares the two
2338:/usr/include/c++/5/bits/basic_string.h ****        *  strings by calling
2339:/usr/include/c++/5/bits/basic_string.h ****        *  traits::compare(substring.data(),str.data(),rlen).  If the
2340:/usr/include/c++/5/bits/basic_string.h ****        *  result of the comparison is nonzero returns it, otherwise
2341:/usr/include/c++/5/bits/basic_string.h ****        *  the shorter one is ordered first.
2342:/usr/include/c++/5/bits/basic_string.h ****       */
2343:/usr/include/c++/5/bits/basic_string.h ****       int
2344:/usr/include/c++/5/bits/basic_string.h ****       compare(size_type __pos, size_type __n, const basic_string& __str) const;
2345:/usr/include/c++/5/bits/basic_string.h **** 
2346:/usr/include/c++/5/bits/basic_string.h ****       /**
2347:/usr/include/c++/5/bits/basic_string.h ****        *  @brief  Compare substring to a substring.
2348:/usr/include/c++/5/bits/basic_string.h ****        *  @param __pos1  Index of first character of substring.
2349:/usr/include/c++/5/bits/basic_string.h ****        *  @param __n1  Number of characters in substring.
2350:/usr/include/c++/5/bits/basic_string.h ****        *  @param __str  String to compare against.
2351:/usr/include/c++/5/bits/basic_string.h ****        *  @param __pos2  Index of first character of substring of str.
2352:/usr/include/c++/5/bits/basic_string.h ****        *  @param __n2  Number of characters in substring of str.
2353:/usr/include/c++/5/bits/basic_string.h ****        *  @return  Integer < 0, 0, or > 0.
2354:/usr/include/c++/5/bits/basic_string.h ****        *
2355:/usr/include/c++/5/bits/basic_string.h ****        *  Form the substring of this string from the @a __n1
2356:/usr/include/c++/5/bits/basic_string.h ****        *  characters starting at @a __pos1.  Form the substring of @a
2357:/usr/include/c++/5/bits/basic_string.h ****        *  __str from the @a __n2 characters starting at @a __pos2.
2358:/usr/include/c++/5/bits/basic_string.h ****        *  Returns an integer < 0 if this substring is ordered before
2359:/usr/include/c++/5/bits/basic_string.h ****        *  the substring of @a __str, 0 if their values are equivalent,
2360:/usr/include/c++/5/bits/basic_string.h ****        *  or > 0 if this substring is ordered after the substring of
2361:/usr/include/c++/5/bits/basic_string.h ****        *  @a __str.  Determines the effective length rlen of the
2362:/usr/include/c++/5/bits/basic_string.h ****        *  strings to compare as the smallest of the lengths of the
2363:/usr/include/c++/5/bits/basic_string.h ****        *  substrings.  The function then compares the two strings by
2364:/usr/include/c++/5/bits/basic_string.h ****        *  calling
2365:/usr/include/c++/5/bits/basic_string.h ****        *  traits::compare(substring.data(),str.substr(pos2,n2).data(),rlen).
2366:/usr/include/c++/5/bits/basic_string.h ****        *  If the result of the comparison is nonzero returns it,
2367:/usr/include/c++/5/bits/basic_string.h ****        *  otherwise the shorter one is ordered first.
2368:/usr/include/c++/5/bits/basic_string.h ****       */
GAS LISTING /tmp/ccGYUW7A.s 			page 115


2369:/usr/include/c++/5/bits/basic_string.h ****       int
2370:/usr/include/c++/5/bits/basic_string.h ****       compare(size_type __pos1, size_type __n1, const basic_string& __str,
2371:/usr/include/c++/5/bits/basic_string.h **** 	      size_type __pos2, size_type __n2) const;
2372:/usr/include/c++/5/bits/basic_string.h **** 
2373:/usr/include/c++/5/bits/basic_string.h ****       /**
2374:/usr/include/c++/5/bits/basic_string.h ****        *  @brief  Compare to a C string.
2375:/usr/include/c++/5/bits/basic_string.h ****        *  @param __s  C string to compare against.
2376:/usr/include/c++/5/bits/basic_string.h ****        *  @return  Integer < 0, 0, or > 0.
2377:/usr/include/c++/5/bits/basic_string.h ****        *
2378:/usr/include/c++/5/bits/basic_string.h ****        *  Returns an integer < 0 if this string is ordered before @a __s, 0 if
2379:/usr/include/c++/5/bits/basic_string.h ****        *  their values are equivalent, or > 0 if this string is ordered after
2380:/usr/include/c++/5/bits/basic_string.h ****        *  @a __s.  Determines the effective length rlen of the strings to
2381:/usr/include/c++/5/bits/basic_string.h ****        *  compare as the smallest of size() and the length of a string
2382:/usr/include/c++/5/bits/basic_string.h ****        *  constructed from @a __s.  The function then compares the two strings
2383:/usr/include/c++/5/bits/basic_string.h ****        *  by calling traits::compare(data(),s,rlen).  If the result of the
2384:/usr/include/c++/5/bits/basic_string.h ****        *  comparison is nonzero returns it, otherwise the shorter one is
2385:/usr/include/c++/5/bits/basic_string.h ****        *  ordered first.
2386:/usr/include/c++/5/bits/basic_string.h ****       */
2387:/usr/include/c++/5/bits/basic_string.h ****       int
2388:/usr/include/c++/5/bits/basic_string.h ****       compare(const _CharT* __s) const;
2389:/usr/include/c++/5/bits/basic_string.h **** 
2390:/usr/include/c++/5/bits/basic_string.h ****       // _GLIBCXX_RESOLVE_LIB_DEFECTS
2391:/usr/include/c++/5/bits/basic_string.h ****       // 5 String::compare specification questionable
2392:/usr/include/c++/5/bits/basic_string.h ****       /**
2393:/usr/include/c++/5/bits/basic_string.h ****        *  @brief  Compare substring to a C string.
2394:/usr/include/c++/5/bits/basic_string.h ****        *  @param __pos  Index of first character of substring.
2395:/usr/include/c++/5/bits/basic_string.h ****        *  @param __n1  Number of characters in substring.
2396:/usr/include/c++/5/bits/basic_string.h ****        *  @param __s  C string to compare against.
2397:/usr/include/c++/5/bits/basic_string.h ****        *  @return  Integer < 0, 0, or > 0.
2398:/usr/include/c++/5/bits/basic_string.h ****        *
2399:/usr/include/c++/5/bits/basic_string.h ****        *  Form the substring of this string from the @a __n1
2400:/usr/include/c++/5/bits/basic_string.h ****        *  characters starting at @a pos.  Returns an integer < 0 if
2401:/usr/include/c++/5/bits/basic_string.h ****        *  the substring is ordered before @a __s, 0 if their values
2402:/usr/include/c++/5/bits/basic_string.h ****        *  are equivalent, or > 0 if the substring is ordered after @a
2403:/usr/include/c++/5/bits/basic_string.h ****        *  __s.  Determines the effective length rlen of the strings to
2404:/usr/include/c++/5/bits/basic_string.h ****        *  compare as the smallest of the length of the substring and
2405:/usr/include/c++/5/bits/basic_string.h ****        *  the length of a string constructed from @a __s.  The
2406:/usr/include/c++/5/bits/basic_string.h ****        *  function then compares the two string by calling
2407:/usr/include/c++/5/bits/basic_string.h ****        *  traits::compare(substring.data(),__s,rlen).  If the result of
2408:/usr/include/c++/5/bits/basic_string.h ****        *  the comparison is nonzero returns it, otherwise the shorter
2409:/usr/include/c++/5/bits/basic_string.h ****        *  one is ordered first.
2410:/usr/include/c++/5/bits/basic_string.h ****       */
2411:/usr/include/c++/5/bits/basic_string.h ****       int
2412:/usr/include/c++/5/bits/basic_string.h ****       compare(size_type __pos, size_type __n1, const _CharT* __s) const;
2413:/usr/include/c++/5/bits/basic_string.h **** 
2414:/usr/include/c++/5/bits/basic_string.h ****       /**
2415:/usr/include/c++/5/bits/basic_string.h ****        *  @brief  Compare substring against a character %array.
2416:/usr/include/c++/5/bits/basic_string.h ****        *  @param __pos  Index of first character of substring.
2417:/usr/include/c++/5/bits/basic_string.h ****        *  @param __n1  Number of characters in substring.
2418:/usr/include/c++/5/bits/basic_string.h ****        *  @param __s  character %array to compare against.
2419:/usr/include/c++/5/bits/basic_string.h ****        *  @param __n2  Number of characters of s.
2420:/usr/include/c++/5/bits/basic_string.h ****        *  @return  Integer < 0, 0, or > 0.
2421:/usr/include/c++/5/bits/basic_string.h ****        *
2422:/usr/include/c++/5/bits/basic_string.h ****        *  Form the substring of this string from the @a __n1
2423:/usr/include/c++/5/bits/basic_string.h ****        *  characters starting at @a __pos.  Form a string from the
2424:/usr/include/c++/5/bits/basic_string.h ****        *  first @a __n2 characters of @a __s.  Returns an integer < 0
2425:/usr/include/c++/5/bits/basic_string.h ****        *  if this substring is ordered before the string from @a __s,
GAS LISTING /tmp/ccGYUW7A.s 			page 116


2426:/usr/include/c++/5/bits/basic_string.h ****        *  0 if their values are equivalent, or > 0 if this substring
2427:/usr/include/c++/5/bits/basic_string.h ****        *  is ordered after the string from @a __s.  Determines the
2428:/usr/include/c++/5/bits/basic_string.h ****        *  effective length rlen of the strings to compare as the
2429:/usr/include/c++/5/bits/basic_string.h ****        *  smallest of the length of the substring and @a __n2.  The
2430:/usr/include/c++/5/bits/basic_string.h ****        *  function then compares the two strings by calling
2431:/usr/include/c++/5/bits/basic_string.h ****        *  traits::compare(substring.data(),s,rlen).  If the result of
2432:/usr/include/c++/5/bits/basic_string.h ****        *  the comparison is nonzero returns it, otherwise the shorter
2433:/usr/include/c++/5/bits/basic_string.h ****        *  one is ordered first.
2434:/usr/include/c++/5/bits/basic_string.h ****        *
2435:/usr/include/c++/5/bits/basic_string.h ****        *  NB: s must have at least n2 characters, &apos;\\0&apos; has
2436:/usr/include/c++/5/bits/basic_string.h ****        *  no special meaning.
2437:/usr/include/c++/5/bits/basic_string.h ****       */
2438:/usr/include/c++/5/bits/basic_string.h ****       int
2439:/usr/include/c++/5/bits/basic_string.h ****       compare(size_type __pos, size_type __n1, const _CharT* __s,
2440:/usr/include/c++/5/bits/basic_string.h **** 	      size_type __n2) const;
2441:/usr/include/c++/5/bits/basic_string.h ****   };
2442:/usr/include/c++/5/bits/basic_string.h **** _GLIBCXX_END_NAMESPACE_CXX11
2443:/usr/include/c++/5/bits/basic_string.h **** #else  // !_GLIBCXX_USE_CXX11_ABI
2444:/usr/include/c++/5/bits/basic_string.h ****   // Reference-counted COW string implentation
2445:/usr/include/c++/5/bits/basic_string.h **** 
2446:/usr/include/c++/5/bits/basic_string.h ****   /**
2447:/usr/include/c++/5/bits/basic_string.h ****    *  @class basic_string basic_string.h <string>
2448:/usr/include/c++/5/bits/basic_string.h ****    *  @brief  Managing sequences of characters and character-like objects.
2449:/usr/include/c++/5/bits/basic_string.h ****    *
2450:/usr/include/c++/5/bits/basic_string.h ****    *  @ingroup strings
2451:/usr/include/c++/5/bits/basic_string.h ****    *  @ingroup sequences
2452:/usr/include/c++/5/bits/basic_string.h ****    *
2453:/usr/include/c++/5/bits/basic_string.h ****    *  @tparam _CharT  Type of character
2454:/usr/include/c++/5/bits/basic_string.h ****    *  @tparam _Traits  Traits for character type, defaults to
2455:/usr/include/c++/5/bits/basic_string.h ****    *                   char_traits<_CharT>.
2456:/usr/include/c++/5/bits/basic_string.h ****    *  @tparam _Alloc  Allocator type, defaults to allocator<_CharT>.
2457:/usr/include/c++/5/bits/basic_string.h ****    *
2458:/usr/include/c++/5/bits/basic_string.h ****    *  Meets the requirements of a <a href="tables.html#65">container</a>, a
2459:/usr/include/c++/5/bits/basic_string.h ****    *  <a href="tables.html#66">reversible container</a>, and a
2460:/usr/include/c++/5/bits/basic_string.h ****    *  <a href="tables.html#67">sequence</a>.  Of the
2461:/usr/include/c++/5/bits/basic_string.h ****    *  <a href="tables.html#68">optional sequence requirements</a>, only
2462:/usr/include/c++/5/bits/basic_string.h ****    *  @c push_back, @c at, and @c %array access are supported.
2463:/usr/include/c++/5/bits/basic_string.h ****    *
2464:/usr/include/c++/5/bits/basic_string.h ****    *  @doctodo
2465:/usr/include/c++/5/bits/basic_string.h ****    *
2466:/usr/include/c++/5/bits/basic_string.h ****    *
2467:/usr/include/c++/5/bits/basic_string.h ****    *  Documentation?  What's that?
2468:/usr/include/c++/5/bits/basic_string.h ****    *  Nathan Myers <ncm@cantrip.org>.
2469:/usr/include/c++/5/bits/basic_string.h ****    *
2470:/usr/include/c++/5/bits/basic_string.h ****    *  A string looks like this:
2471:/usr/include/c++/5/bits/basic_string.h ****    *
2472:/usr/include/c++/5/bits/basic_string.h ****    *  @code
2473:/usr/include/c++/5/bits/basic_string.h ****    *                                        [_Rep]
2474:/usr/include/c++/5/bits/basic_string.h ****    *                                        _M_length
2475:/usr/include/c++/5/bits/basic_string.h ****    *   [basic_string<char_type>]            _M_capacity
2476:/usr/include/c++/5/bits/basic_string.h ****    *   _M_dataplus                          _M_refcount
2477:/usr/include/c++/5/bits/basic_string.h ****    *   _M_p ---------------->               unnamed array of char_type
2478:/usr/include/c++/5/bits/basic_string.h ****    *  @endcode
2479:/usr/include/c++/5/bits/basic_string.h ****    *
2480:/usr/include/c++/5/bits/basic_string.h ****    *  Where the _M_p points to the first character in the string, and
2481:/usr/include/c++/5/bits/basic_string.h ****    *  you cast it to a pointer-to-_Rep and subtract 1 to get a
2482:/usr/include/c++/5/bits/basic_string.h ****    *  pointer to the header.
GAS LISTING /tmp/ccGYUW7A.s 			page 117


2483:/usr/include/c++/5/bits/basic_string.h ****    *
2484:/usr/include/c++/5/bits/basic_string.h ****    *  This approach has the enormous advantage that a string object
2485:/usr/include/c++/5/bits/basic_string.h ****    *  requires only one allocation.  All the ugliness is confined
2486:/usr/include/c++/5/bits/basic_string.h ****    *  within a single %pair of inline functions, which each compile to
2487:/usr/include/c++/5/bits/basic_string.h ****    *  a single @a add instruction: _Rep::_M_data(), and
2488:/usr/include/c++/5/bits/basic_string.h ****    *  string::_M_rep(); and the allocation function which gets a
2489:/usr/include/c++/5/bits/basic_string.h ****    *  block of raw bytes and with room enough and constructs a _Rep
2490:/usr/include/c++/5/bits/basic_string.h ****    *  object at the front.
2491:/usr/include/c++/5/bits/basic_string.h ****    *
2492:/usr/include/c++/5/bits/basic_string.h ****    *  The reason you want _M_data pointing to the character %array and
2493:/usr/include/c++/5/bits/basic_string.h ****    *  not the _Rep is so that the debugger can see the string
2494:/usr/include/c++/5/bits/basic_string.h ****    *  contents. (Probably we should add a non-inline member to get
2495:/usr/include/c++/5/bits/basic_string.h ****    *  the _Rep for the debugger to use, so users can check the actual
2496:/usr/include/c++/5/bits/basic_string.h ****    *  string length.)
2497:/usr/include/c++/5/bits/basic_string.h ****    *
2498:/usr/include/c++/5/bits/basic_string.h ****    *  Note that the _Rep object is a POD so that you can have a
2499:/usr/include/c++/5/bits/basic_string.h ****    *  static <em>empty string</em> _Rep object already @a constructed before
2500:/usr/include/c++/5/bits/basic_string.h ****    *  static constructors have run.  The reference-count encoding is
2501:/usr/include/c++/5/bits/basic_string.h ****    *  chosen so that a 0 indicates one reference, so you never try to
2502:/usr/include/c++/5/bits/basic_string.h ****    *  destroy the empty-string _Rep object.
2503:/usr/include/c++/5/bits/basic_string.h ****    *
2504:/usr/include/c++/5/bits/basic_string.h ****    *  All but the last paragraph is considered pretty conventional
2505:/usr/include/c++/5/bits/basic_string.h ****    *  for a C++ string implementation.
2506:/usr/include/c++/5/bits/basic_string.h ****   */
2507:/usr/include/c++/5/bits/basic_string.h ****   // 21.3  Template class basic_string
2508:/usr/include/c++/5/bits/basic_string.h ****   template<typename _CharT, typename _Traits, typename _Alloc>
2509:/usr/include/c++/5/bits/basic_string.h ****     class basic_string
2510:/usr/include/c++/5/bits/basic_string.h ****     {
2511:/usr/include/c++/5/bits/basic_string.h ****       typedef typename _Alloc::template rebind<_CharT>::other _CharT_alloc_type;
2512:/usr/include/c++/5/bits/basic_string.h **** 
2513:/usr/include/c++/5/bits/basic_string.h ****       // Types:
2514:/usr/include/c++/5/bits/basic_string.h ****     public:
2515:/usr/include/c++/5/bits/basic_string.h ****       typedef _Traits					    traits_type;
2516:/usr/include/c++/5/bits/basic_string.h ****       typedef typename _Traits::char_type		    value_type;
2517:/usr/include/c++/5/bits/basic_string.h ****       typedef _Alloc					    allocator_type;
2518:/usr/include/c++/5/bits/basic_string.h ****       typedef typename _CharT_alloc_type::size_type	    size_type;
2519:/usr/include/c++/5/bits/basic_string.h ****       typedef typename _CharT_alloc_type::difference_type   difference_type;
2520:/usr/include/c++/5/bits/basic_string.h ****       typedef typename _CharT_alloc_type::reference	    reference;
2521:/usr/include/c++/5/bits/basic_string.h ****       typedef typename _CharT_alloc_type::const_reference   const_reference;
2522:/usr/include/c++/5/bits/basic_string.h ****       typedef typename _CharT_alloc_type::pointer	    pointer;
2523:/usr/include/c++/5/bits/basic_string.h ****       typedef typename _CharT_alloc_type::const_pointer	    const_pointer;
2524:/usr/include/c++/5/bits/basic_string.h ****       typedef __gnu_cxx::__normal_iterator<pointer, basic_string>  iterator;
2525:/usr/include/c++/5/bits/basic_string.h ****       typedef __gnu_cxx::__normal_iterator<const_pointer, basic_string>
2526:/usr/include/c++/5/bits/basic_string.h ****                                                             const_iterator;
2527:/usr/include/c++/5/bits/basic_string.h ****       typedef std::reverse_iterator<const_iterator>	const_reverse_iterator;
2528:/usr/include/c++/5/bits/basic_string.h ****       typedef std::reverse_iterator<iterator>		    reverse_iterator;
2529:/usr/include/c++/5/bits/basic_string.h **** 
2530:/usr/include/c++/5/bits/basic_string.h ****     private:
2531:/usr/include/c++/5/bits/basic_string.h ****       // _Rep: string representation
2532:/usr/include/c++/5/bits/basic_string.h ****       //   Invariants:
2533:/usr/include/c++/5/bits/basic_string.h ****       //   1. String really contains _M_length + 1 characters: due to 21.3.4
2534:/usr/include/c++/5/bits/basic_string.h ****       //      must be kept null-terminated.
2535:/usr/include/c++/5/bits/basic_string.h ****       //   2. _M_capacity >= _M_length
2536:/usr/include/c++/5/bits/basic_string.h ****       //      Allocated memory is always (_M_capacity + 1) * sizeof(_CharT).
2537:/usr/include/c++/5/bits/basic_string.h ****       //   3. _M_refcount has three states:
2538:/usr/include/c++/5/bits/basic_string.h ****       //      -1: leaked, one reference, no ref-copies allowed, non-const.
2539:/usr/include/c++/5/bits/basic_string.h ****       //       0: one reference, non-const.
GAS LISTING /tmp/ccGYUW7A.s 			page 118


2540:/usr/include/c++/5/bits/basic_string.h ****       //     n>0: n + 1 references, operations require a lock, const.
2541:/usr/include/c++/5/bits/basic_string.h ****       //   4. All fields==0 is an empty string, given the extra storage
2542:/usr/include/c++/5/bits/basic_string.h ****       //      beyond-the-end for a null terminator; thus, the shared
2543:/usr/include/c++/5/bits/basic_string.h ****       //      empty string representation needs no constructor.
2544:/usr/include/c++/5/bits/basic_string.h **** 
2545:/usr/include/c++/5/bits/basic_string.h ****       struct _Rep_base
2546:/usr/include/c++/5/bits/basic_string.h ****       {
2547:/usr/include/c++/5/bits/basic_string.h **** 	size_type		_M_length;
2548:/usr/include/c++/5/bits/basic_string.h **** 	size_type		_M_capacity;
2549:/usr/include/c++/5/bits/basic_string.h **** 	_Atomic_word		_M_refcount;
2550:/usr/include/c++/5/bits/basic_string.h ****       };
2551:/usr/include/c++/5/bits/basic_string.h **** 
2552:/usr/include/c++/5/bits/basic_string.h ****       struct _Rep : _Rep_base
2553:/usr/include/c++/5/bits/basic_string.h ****       {
2554:/usr/include/c++/5/bits/basic_string.h **** 	// Types:
2555:/usr/include/c++/5/bits/basic_string.h **** 	typedef typename _Alloc::template rebind<char>::other _Raw_bytes_alloc;
2556:/usr/include/c++/5/bits/basic_string.h **** 
2557:/usr/include/c++/5/bits/basic_string.h **** 	// (Public) Data members:
2558:/usr/include/c++/5/bits/basic_string.h **** 
2559:/usr/include/c++/5/bits/basic_string.h **** 	// The maximum number of individual char_type elements of an
2560:/usr/include/c++/5/bits/basic_string.h **** 	// individual string is determined by _S_max_size. This is the
2561:/usr/include/c++/5/bits/basic_string.h **** 	// value that will be returned by max_size().  (Whereas npos
2562:/usr/include/c++/5/bits/basic_string.h **** 	// is the maximum number of bytes the allocator can allocate.)
2563:/usr/include/c++/5/bits/basic_string.h **** 	// If one was to divvy up the theoretical largest size string,
2564:/usr/include/c++/5/bits/basic_string.h **** 	// with a terminating character and m _CharT elements, it'd
2565:/usr/include/c++/5/bits/basic_string.h **** 	// look like this:
2566:/usr/include/c++/5/bits/basic_string.h **** 	// npos = sizeof(_Rep) + (m * sizeof(_CharT)) + sizeof(_CharT)
2567:/usr/include/c++/5/bits/basic_string.h **** 	// Solving for m:
2568:/usr/include/c++/5/bits/basic_string.h **** 	// m = ((npos - sizeof(_Rep))/sizeof(CharT)) - 1
2569:/usr/include/c++/5/bits/basic_string.h **** 	// In addition, this implementation quarters this amount.
2570:/usr/include/c++/5/bits/basic_string.h **** 	static const size_type	_S_max_size;
2571:/usr/include/c++/5/bits/basic_string.h **** 	static const _CharT	_S_terminal;
2572:/usr/include/c++/5/bits/basic_string.h **** 
2573:/usr/include/c++/5/bits/basic_string.h **** 	// The following storage is init'd to 0 by the linker, resulting
2574:/usr/include/c++/5/bits/basic_string.h ****         // (carefully) in an empty string with one reference.
2575:/usr/include/c++/5/bits/basic_string.h ****         static size_type _S_empty_rep_storage[];
2576:/usr/include/c++/5/bits/basic_string.h **** 
2577:/usr/include/c++/5/bits/basic_string.h ****         static _Rep&
2578:/usr/include/c++/5/bits/basic_string.h ****         _S_empty_rep() _GLIBCXX_NOEXCEPT
2579:/usr/include/c++/5/bits/basic_string.h ****         { 
2580:/usr/include/c++/5/bits/basic_string.h **** 	  // NB: Mild hack to avoid strict-aliasing warnings.  Note that
2581:/usr/include/c++/5/bits/basic_string.h **** 	  // _S_empty_rep_storage is never modified and the punning should
2582:/usr/include/c++/5/bits/basic_string.h **** 	  // be reasonably safe in this case.
2583:/usr/include/c++/5/bits/basic_string.h **** 	  void* __p = reinterpret_cast<void*>(&_S_empty_rep_storage);
2584:/usr/include/c++/5/bits/basic_string.h **** 	  return *reinterpret_cast<_Rep*>(__p);
2585:/usr/include/c++/5/bits/basic_string.h **** 	}
2586:/usr/include/c++/5/bits/basic_string.h **** 
2587:/usr/include/c++/5/bits/basic_string.h ****         bool
2588:/usr/include/c++/5/bits/basic_string.h **** 	_M_is_leaked() const _GLIBCXX_NOEXCEPT
2589:/usr/include/c++/5/bits/basic_string.h ****         { return this->_M_refcount < 0; }
2590:/usr/include/c++/5/bits/basic_string.h **** 
2591:/usr/include/c++/5/bits/basic_string.h ****         bool
2592:/usr/include/c++/5/bits/basic_string.h **** 	_M_is_shared() const _GLIBCXX_NOEXCEPT
2593:/usr/include/c++/5/bits/basic_string.h ****         { return this->_M_refcount > 0; }
2594:/usr/include/c++/5/bits/basic_string.h **** 
2595:/usr/include/c++/5/bits/basic_string.h ****         void
2596:/usr/include/c++/5/bits/basic_string.h **** 	_M_set_leaked() _GLIBCXX_NOEXCEPT
GAS LISTING /tmp/ccGYUW7A.s 			page 119


2597:/usr/include/c++/5/bits/basic_string.h ****         { this->_M_refcount = -1; }
2598:/usr/include/c++/5/bits/basic_string.h **** 
2599:/usr/include/c++/5/bits/basic_string.h ****         void
2600:/usr/include/c++/5/bits/basic_string.h **** 	_M_set_sharable() _GLIBCXX_NOEXCEPT
2601:/usr/include/c++/5/bits/basic_string.h ****         { this->_M_refcount = 0; }
2602:/usr/include/c++/5/bits/basic_string.h **** 
2603:/usr/include/c++/5/bits/basic_string.h **** 	void
2604:/usr/include/c++/5/bits/basic_string.h **** 	_M_set_length_and_sharable(size_type __n) _GLIBCXX_NOEXCEPT
2605:/usr/include/c++/5/bits/basic_string.h **** 	{
2606:/usr/include/c++/5/bits/basic_string.h **** #if _GLIBCXX_FULLY_DYNAMIC_STRING == 0
2607:/usr/include/c++/5/bits/basic_string.h **** 	  if (__builtin_expect(this != &_S_empty_rep(), false))
2608:/usr/include/c++/5/bits/basic_string.h **** #endif
2609:/usr/include/c++/5/bits/basic_string.h **** 	    {
2610:/usr/include/c++/5/bits/basic_string.h **** 	      this->_M_set_sharable();  // One reference.
2611:/usr/include/c++/5/bits/basic_string.h **** 	      this->_M_length = __n;
2612:/usr/include/c++/5/bits/basic_string.h **** 	      traits_type::assign(this->_M_refdata()[__n], _S_terminal);
2613:/usr/include/c++/5/bits/basic_string.h **** 	      // grrr. (per 21.3.4)
2614:/usr/include/c++/5/bits/basic_string.h **** 	      // You cannot leave those LWG people alone for a second.
2615:/usr/include/c++/5/bits/basic_string.h **** 	    }
2616:/usr/include/c++/5/bits/basic_string.h **** 	}
2617:/usr/include/c++/5/bits/basic_string.h **** 
2618:/usr/include/c++/5/bits/basic_string.h **** 	_CharT*
2619:/usr/include/c++/5/bits/basic_string.h **** 	_M_refdata() throw()
2620:/usr/include/c++/5/bits/basic_string.h **** 	{ return reinterpret_cast<_CharT*>(this + 1); }
2621:/usr/include/c++/5/bits/basic_string.h **** 
2622:/usr/include/c++/5/bits/basic_string.h **** 	_CharT*
2623:/usr/include/c++/5/bits/basic_string.h **** 	_M_grab(const _Alloc& __alloc1, const _Alloc& __alloc2)
2624:/usr/include/c++/5/bits/basic_string.h **** 	{
2625:/usr/include/c++/5/bits/basic_string.h **** 	  return (!_M_is_leaked() && __alloc1 == __alloc2)
2626:/usr/include/c++/5/bits/basic_string.h **** 	          ? _M_refcopy() : _M_clone(__alloc1);
2627:/usr/include/c++/5/bits/basic_string.h **** 	}
2628:/usr/include/c++/5/bits/basic_string.h **** 
2629:/usr/include/c++/5/bits/basic_string.h **** 	// Create & Destroy
2630:/usr/include/c++/5/bits/basic_string.h **** 	static _Rep*
2631:/usr/include/c++/5/bits/basic_string.h **** 	_S_create(size_type, size_type, const _Alloc&);
2632:/usr/include/c++/5/bits/basic_string.h **** 
2633:/usr/include/c++/5/bits/basic_string.h **** 	void
2634:/usr/include/c++/5/bits/basic_string.h **** 	_M_dispose(const _Alloc& __a) _GLIBCXX_NOEXCEPT
2635:/usr/include/c++/5/bits/basic_string.h **** 	{
2636:/usr/include/c++/5/bits/basic_string.h **** #if _GLIBCXX_FULLY_DYNAMIC_STRING == 0
2637:/usr/include/c++/5/bits/basic_string.h **** 	  if (__builtin_expect(this != &_S_empty_rep(), false))
2638:/usr/include/c++/5/bits/basic_string.h **** #endif
2639:/usr/include/c++/5/bits/basic_string.h **** 	    {
2640:/usr/include/c++/5/bits/basic_string.h **** 	      // Be race-detector-friendly.  For more info see bits/c++config.
2641:/usr/include/c++/5/bits/basic_string.h **** 	      _GLIBCXX_SYNCHRONIZATION_HAPPENS_BEFORE(&this->_M_refcount);
2642:/usr/include/c++/5/bits/basic_string.h **** 	      if (__gnu_cxx::__exchange_and_add_dispatch(&this->_M_refcount,
2643:/usr/include/c++/5/bits/basic_string.h **** 							 -1) <= 0)
2644:/usr/include/c++/5/bits/basic_string.h **** 		{
2645:/usr/include/c++/5/bits/basic_string.h **** 		  _GLIBCXX_SYNCHRONIZATION_HAPPENS_AFTER(&this->_M_refcount);
2646:/usr/include/c++/5/bits/basic_string.h **** 		  _M_destroy(__a);
2647:/usr/include/c++/5/bits/basic_string.h **** 		}
2648:/usr/include/c++/5/bits/basic_string.h **** 	    }
2649:/usr/include/c++/5/bits/basic_string.h **** 	}  // XXX MT
2650:/usr/include/c++/5/bits/basic_string.h **** 
2651:/usr/include/c++/5/bits/basic_string.h **** 	void
2652:/usr/include/c++/5/bits/basic_string.h **** 	_M_destroy(const _Alloc&) throw();
2653:/usr/include/c++/5/bits/basic_string.h **** 
GAS LISTING /tmp/ccGYUW7A.s 			page 120


2654:/usr/include/c++/5/bits/basic_string.h **** 	_CharT*
2655:/usr/include/c++/5/bits/basic_string.h **** 	_M_refcopy() throw()
2656:/usr/include/c++/5/bits/basic_string.h **** 	{
2657:/usr/include/c++/5/bits/basic_string.h **** #if _GLIBCXX_FULLY_DYNAMIC_STRING == 0
2658:/usr/include/c++/5/bits/basic_string.h **** 	  if (__builtin_expect(this != &_S_empty_rep(), false))
2659:/usr/include/c++/5/bits/basic_string.h **** #endif
2660:/usr/include/c++/5/bits/basic_string.h ****             __gnu_cxx::__atomic_add_dispatch(&this->_M_refcount, 1);
2661:/usr/include/c++/5/bits/basic_string.h **** 	  return _M_refdata();
2662:/usr/include/c++/5/bits/basic_string.h **** 	}  // XXX MT
2663:/usr/include/c++/5/bits/basic_string.h **** 
2664:/usr/include/c++/5/bits/basic_string.h **** 	_CharT*
2665:/usr/include/c++/5/bits/basic_string.h **** 	_M_clone(const _Alloc&, size_type __res = 0);
2666:/usr/include/c++/5/bits/basic_string.h ****       };
2667:/usr/include/c++/5/bits/basic_string.h **** 
2668:/usr/include/c++/5/bits/basic_string.h ****       // Use empty-base optimization: http://www.cantrip.org/emptyopt.html
2669:/usr/include/c++/5/bits/basic_string.h ****       struct _Alloc_hider : _Alloc
2670:/usr/include/c++/5/bits/basic_string.h ****       {
2671:/usr/include/c++/5/bits/basic_string.h **** 	_Alloc_hider(_CharT* __dat, const _Alloc& __a) _GLIBCXX_NOEXCEPT
2672:/usr/include/c++/5/bits/basic_string.h **** 	: _Alloc(__a), _M_p(__dat) { }
2673:/usr/include/c++/5/bits/basic_string.h **** 
2674:/usr/include/c++/5/bits/basic_string.h **** 	_CharT* _M_p; // The actual data.
2675:/usr/include/c++/5/bits/basic_string.h ****       };
2676:/usr/include/c++/5/bits/basic_string.h **** 
2677:/usr/include/c++/5/bits/basic_string.h ****     public:
2678:/usr/include/c++/5/bits/basic_string.h ****       // Data Members (public):
2679:/usr/include/c++/5/bits/basic_string.h ****       // NB: This is an unsigned type, and thus represents the maximum
2680:/usr/include/c++/5/bits/basic_string.h ****       // size that the allocator can hold.
2681:/usr/include/c++/5/bits/basic_string.h ****       ///  Value returned by various member functions when they fail.
2682:/usr/include/c++/5/bits/basic_string.h ****       static const size_type	npos = static_cast<size_type>(-1);
2683:/usr/include/c++/5/bits/basic_string.h **** 
2684:/usr/include/c++/5/bits/basic_string.h ****     private:
2685:/usr/include/c++/5/bits/basic_string.h ****       // Data Members (private):
2686:/usr/include/c++/5/bits/basic_string.h ****       mutable _Alloc_hider	_M_dataplus;
2687:/usr/include/c++/5/bits/basic_string.h **** 
2688:/usr/include/c++/5/bits/basic_string.h ****       _CharT*
2689:/usr/include/c++/5/bits/basic_string.h ****       _M_data() const _GLIBCXX_NOEXCEPT
2690:/usr/include/c++/5/bits/basic_string.h ****       { return  _M_dataplus._M_p; }
2691:/usr/include/c++/5/bits/basic_string.h **** 
2692:/usr/include/c++/5/bits/basic_string.h ****       _CharT*
2693:/usr/include/c++/5/bits/basic_string.h ****       _M_data(_CharT* __p) _GLIBCXX_NOEXCEPT
2694:/usr/include/c++/5/bits/basic_string.h ****       { return (_M_dataplus._M_p = __p); }
2695:/usr/include/c++/5/bits/basic_string.h **** 
2696:/usr/include/c++/5/bits/basic_string.h ****       _Rep*
2697:/usr/include/c++/5/bits/basic_string.h ****       _M_rep() const _GLIBCXX_NOEXCEPT
2698:/usr/include/c++/5/bits/basic_string.h ****       { return &((reinterpret_cast<_Rep*> (_M_data()))[-1]); }
2699:/usr/include/c++/5/bits/basic_string.h **** 
2700:/usr/include/c++/5/bits/basic_string.h ****       // For the internal use we have functions similar to `begin'/`end'
2701:/usr/include/c++/5/bits/basic_string.h ****       // but they do not call _M_leak.
2702:/usr/include/c++/5/bits/basic_string.h ****       iterator
2703:/usr/include/c++/5/bits/basic_string.h ****       _M_ibegin() const _GLIBCXX_NOEXCEPT
2704:/usr/include/c++/5/bits/basic_string.h ****       { return iterator(_M_data()); }
2705:/usr/include/c++/5/bits/basic_string.h **** 
2706:/usr/include/c++/5/bits/basic_string.h ****       iterator
2707:/usr/include/c++/5/bits/basic_string.h ****       _M_iend() const _GLIBCXX_NOEXCEPT
2708:/usr/include/c++/5/bits/basic_string.h ****       { return iterator(_M_data() + this->size()); }
2709:/usr/include/c++/5/bits/basic_string.h **** 
2710:/usr/include/c++/5/bits/basic_string.h ****       void
GAS LISTING /tmp/ccGYUW7A.s 			page 121


2711:/usr/include/c++/5/bits/basic_string.h ****       _M_leak()    // for use in begin() & non-const op[]
2712:/usr/include/c++/5/bits/basic_string.h ****       {
2713:/usr/include/c++/5/bits/basic_string.h **** 	if (!_M_rep()->_M_is_leaked())
2714:/usr/include/c++/5/bits/basic_string.h **** 	  _M_leak_hard();
2715:/usr/include/c++/5/bits/basic_string.h ****       }
2716:/usr/include/c++/5/bits/basic_string.h **** 
2717:/usr/include/c++/5/bits/basic_string.h ****       size_type
2718:/usr/include/c++/5/bits/basic_string.h ****       _M_check(size_type __pos, const char* __s) const
2719:/usr/include/c++/5/bits/basic_string.h ****       {
2720:/usr/include/c++/5/bits/basic_string.h **** 	if (__pos > this->size())
2721:/usr/include/c++/5/bits/basic_string.h **** 	  __throw_out_of_range_fmt(__N("%s: __pos (which is %zu) > "
2722:/usr/include/c++/5/bits/basic_string.h **** 				       "this->size() (which is %zu)"),
2723:/usr/include/c++/5/bits/basic_string.h **** 				   __s, __pos, this->size());
2724:/usr/include/c++/5/bits/basic_string.h **** 	return __pos;
2725:/usr/include/c++/5/bits/basic_string.h ****       }
2726:/usr/include/c++/5/bits/basic_string.h **** 
2727:/usr/include/c++/5/bits/basic_string.h ****       void
2728:/usr/include/c++/5/bits/basic_string.h ****       _M_check_length(size_type __n1, size_type __n2, const char* __s) const
2729:/usr/include/c++/5/bits/basic_string.h ****       {
2730:/usr/include/c++/5/bits/basic_string.h **** 	if (this->max_size() - (this->size() - __n1) < __n2)
2731:/usr/include/c++/5/bits/basic_string.h **** 	  __throw_length_error(__N(__s));
2732:/usr/include/c++/5/bits/basic_string.h ****       }
2733:/usr/include/c++/5/bits/basic_string.h **** 
2734:/usr/include/c++/5/bits/basic_string.h ****       // NB: _M_limit doesn't check for a bad __pos value.
2735:/usr/include/c++/5/bits/basic_string.h ****       size_type
2736:/usr/include/c++/5/bits/basic_string.h ****       _M_limit(size_type __pos, size_type __off) const _GLIBCXX_NOEXCEPT
2737:/usr/include/c++/5/bits/basic_string.h ****       {
2738:/usr/include/c++/5/bits/basic_string.h **** 	const bool __testoff =  __off < this->size() - __pos;
2739:/usr/include/c++/5/bits/basic_string.h **** 	return __testoff ? __off : this->size() - __pos;
2740:/usr/include/c++/5/bits/basic_string.h ****       }
2741:/usr/include/c++/5/bits/basic_string.h **** 
2742:/usr/include/c++/5/bits/basic_string.h ****       // True if _Rep and source do not overlap.
2743:/usr/include/c++/5/bits/basic_string.h ****       bool
2744:/usr/include/c++/5/bits/basic_string.h ****       _M_disjunct(const _CharT* __s) const _GLIBCXX_NOEXCEPT
2745:/usr/include/c++/5/bits/basic_string.h ****       {
2746:/usr/include/c++/5/bits/basic_string.h **** 	return (less<const _CharT*>()(__s, _M_data())
2747:/usr/include/c++/5/bits/basic_string.h **** 		|| less<const _CharT*>()(_M_data() + this->size(), __s));
2748:/usr/include/c++/5/bits/basic_string.h ****       }
2749:/usr/include/c++/5/bits/basic_string.h **** 
2750:/usr/include/c++/5/bits/basic_string.h ****       // When __n = 1 way faster than the general multichar
2751:/usr/include/c++/5/bits/basic_string.h ****       // traits_type::copy/move/assign.
2752:/usr/include/c++/5/bits/basic_string.h ****       static void
2753:/usr/include/c++/5/bits/basic_string.h ****       _M_copy(_CharT* __d, const _CharT* __s, size_type __n) _GLIBCXX_NOEXCEPT
2754:/usr/include/c++/5/bits/basic_string.h ****       {
2755:/usr/include/c++/5/bits/basic_string.h **** 	if (__n == 1)
2756:/usr/include/c++/5/bits/basic_string.h **** 	  traits_type::assign(*__d, *__s);
2757:/usr/include/c++/5/bits/basic_string.h **** 	else
2758:/usr/include/c++/5/bits/basic_string.h **** 	  traits_type::copy(__d, __s, __n);
2759:/usr/include/c++/5/bits/basic_string.h ****       }
2760:/usr/include/c++/5/bits/basic_string.h **** 
2761:/usr/include/c++/5/bits/basic_string.h ****       static void
2762:/usr/include/c++/5/bits/basic_string.h ****       _M_move(_CharT* __d, const _CharT* __s, size_type __n) _GLIBCXX_NOEXCEPT
2763:/usr/include/c++/5/bits/basic_string.h ****       {
2764:/usr/include/c++/5/bits/basic_string.h **** 	if (__n == 1)
2765:/usr/include/c++/5/bits/basic_string.h **** 	  traits_type::assign(*__d, *__s);
2766:/usr/include/c++/5/bits/basic_string.h **** 	else
2767:/usr/include/c++/5/bits/basic_string.h **** 	  traits_type::move(__d, __s, __n);	  
GAS LISTING /tmp/ccGYUW7A.s 			page 122


2768:/usr/include/c++/5/bits/basic_string.h ****       }
2769:/usr/include/c++/5/bits/basic_string.h **** 
2770:/usr/include/c++/5/bits/basic_string.h ****       static void
2771:/usr/include/c++/5/bits/basic_string.h ****       _M_assign(_CharT* __d, size_type __n, _CharT __c) _GLIBCXX_NOEXCEPT
2772:/usr/include/c++/5/bits/basic_string.h ****       {
2773:/usr/include/c++/5/bits/basic_string.h **** 	if (__n == 1)
2774:/usr/include/c++/5/bits/basic_string.h **** 	  traits_type::assign(*__d, __c);
2775:/usr/include/c++/5/bits/basic_string.h **** 	else
2776:/usr/include/c++/5/bits/basic_string.h **** 	  traits_type::assign(__d, __n, __c);	  
2777:/usr/include/c++/5/bits/basic_string.h ****       }
2778:/usr/include/c++/5/bits/basic_string.h **** 
2779:/usr/include/c++/5/bits/basic_string.h ****       // _S_copy_chars is a separate template to permit specialization
2780:/usr/include/c++/5/bits/basic_string.h ****       // to optimize for the common case of pointers as iterators.
2781:/usr/include/c++/5/bits/basic_string.h ****       template<class _Iterator>
2782:/usr/include/c++/5/bits/basic_string.h ****         static void
2783:/usr/include/c++/5/bits/basic_string.h ****         _S_copy_chars(_CharT* __p, _Iterator __k1, _Iterator __k2)
2784:/usr/include/c++/5/bits/basic_string.h ****         {
2785:/usr/include/c++/5/bits/basic_string.h **** 	  for (; __k1 != __k2; ++__k1, ++__p)
2786:/usr/include/c++/5/bits/basic_string.h **** 	    traits_type::assign(*__p, *__k1); // These types are off.
2787:/usr/include/c++/5/bits/basic_string.h **** 	}
2788:/usr/include/c++/5/bits/basic_string.h **** 
2789:/usr/include/c++/5/bits/basic_string.h ****       static void
2790:/usr/include/c++/5/bits/basic_string.h ****       _S_copy_chars(_CharT* __p, iterator __k1, iterator __k2) _GLIBCXX_NOEXCEPT
2791:/usr/include/c++/5/bits/basic_string.h ****       { _S_copy_chars(__p, __k1.base(), __k2.base()); }
2792:/usr/include/c++/5/bits/basic_string.h **** 
2793:/usr/include/c++/5/bits/basic_string.h ****       static void
2794:/usr/include/c++/5/bits/basic_string.h ****       _S_copy_chars(_CharT* __p, const_iterator __k1, const_iterator __k2)
2795:/usr/include/c++/5/bits/basic_string.h ****       _GLIBCXX_NOEXCEPT
2796:/usr/include/c++/5/bits/basic_string.h ****       { _S_copy_chars(__p, __k1.base(), __k2.base()); }
2797:/usr/include/c++/5/bits/basic_string.h **** 
2798:/usr/include/c++/5/bits/basic_string.h ****       static void
2799:/usr/include/c++/5/bits/basic_string.h ****       _S_copy_chars(_CharT* __p, _CharT* __k1, _CharT* __k2) _GLIBCXX_NOEXCEPT
2800:/usr/include/c++/5/bits/basic_string.h ****       { _M_copy(__p, __k1, __k2 - __k1); }
2801:/usr/include/c++/5/bits/basic_string.h **** 
2802:/usr/include/c++/5/bits/basic_string.h ****       static void
2803:/usr/include/c++/5/bits/basic_string.h ****       _S_copy_chars(_CharT* __p, const _CharT* __k1, const _CharT* __k2)
2804:/usr/include/c++/5/bits/basic_string.h ****       _GLIBCXX_NOEXCEPT
2805:/usr/include/c++/5/bits/basic_string.h ****       { _M_copy(__p, __k1, __k2 - __k1); }
2806:/usr/include/c++/5/bits/basic_string.h **** 
2807:/usr/include/c++/5/bits/basic_string.h ****       static int
2808:/usr/include/c++/5/bits/basic_string.h ****       _S_compare(size_type __n1, size_type __n2) _GLIBCXX_NOEXCEPT
2809:/usr/include/c++/5/bits/basic_string.h ****       {
2810:/usr/include/c++/5/bits/basic_string.h **** 	const difference_type __d = difference_type(__n1 - __n2);
2811:/usr/include/c++/5/bits/basic_string.h **** 
2812:/usr/include/c++/5/bits/basic_string.h **** 	if (__d > __gnu_cxx::__numeric_traits<int>::__max)
2813:/usr/include/c++/5/bits/basic_string.h **** 	  return __gnu_cxx::__numeric_traits<int>::__max;
2814:/usr/include/c++/5/bits/basic_string.h **** 	else if (__d < __gnu_cxx::__numeric_traits<int>::__min)
2815:/usr/include/c++/5/bits/basic_string.h **** 	  return __gnu_cxx::__numeric_traits<int>::__min;
2816:/usr/include/c++/5/bits/basic_string.h **** 	else
2817:/usr/include/c++/5/bits/basic_string.h **** 	  return int(__d);
2818:/usr/include/c++/5/bits/basic_string.h ****       }
2819:/usr/include/c++/5/bits/basic_string.h **** 
2820:/usr/include/c++/5/bits/basic_string.h ****       void
2821:/usr/include/c++/5/bits/basic_string.h ****       _M_mutate(size_type __pos, size_type __len1, size_type __len2);
2822:/usr/include/c++/5/bits/basic_string.h **** 
2823:/usr/include/c++/5/bits/basic_string.h ****       void
2824:/usr/include/c++/5/bits/basic_string.h ****       _M_leak_hard();
GAS LISTING /tmp/ccGYUW7A.s 			page 123


2825:/usr/include/c++/5/bits/basic_string.h **** 
2826:/usr/include/c++/5/bits/basic_string.h ****       static _Rep&
2827:/usr/include/c++/5/bits/basic_string.h ****       _S_empty_rep() _GLIBCXX_NOEXCEPT
2828:/usr/include/c++/5/bits/basic_string.h ****       { return _Rep::_S_empty_rep(); }
2829:/usr/include/c++/5/bits/basic_string.h **** 
2830:/usr/include/c++/5/bits/basic_string.h ****     public:
2831:/usr/include/c++/5/bits/basic_string.h ****       // Construct/copy/destroy:
2832:/usr/include/c++/5/bits/basic_string.h ****       // NB: We overload ctors in some cases instead of using default
2833:/usr/include/c++/5/bits/basic_string.h ****       // arguments, per 17.4.4.4 para. 2 item 2.
2834:/usr/include/c++/5/bits/basic_string.h **** 
2835:/usr/include/c++/5/bits/basic_string.h ****       /**
2836:/usr/include/c++/5/bits/basic_string.h ****        *  @brief  Default constructor creates an empty string.
2837:/usr/include/c++/5/bits/basic_string.h ****        */
2838:/usr/include/c++/5/bits/basic_string.h ****       basic_string()
2839:/usr/include/c++/5/bits/basic_string.h **** #if _GLIBCXX_FULLY_DYNAMIC_STRING == 0
2840:/usr/include/c++/5/bits/basic_string.h ****       : _M_dataplus(_S_empty_rep()._M_refdata(), _Alloc()) { }
2841:/usr/include/c++/5/bits/basic_string.h **** #else
2842:/usr/include/c++/5/bits/basic_string.h ****       : _M_dataplus(_S_construct(size_type(), _CharT(), _Alloc()), _Alloc()){ }
2843:/usr/include/c++/5/bits/basic_string.h **** #endif
2844:/usr/include/c++/5/bits/basic_string.h **** 
2845:/usr/include/c++/5/bits/basic_string.h ****       /**
2846:/usr/include/c++/5/bits/basic_string.h ****        *  @brief  Construct an empty string using allocator @a a.
2847:/usr/include/c++/5/bits/basic_string.h ****        */
2848:/usr/include/c++/5/bits/basic_string.h ****       explicit
2849:/usr/include/c++/5/bits/basic_string.h ****       basic_string(const _Alloc& __a);
2850:/usr/include/c++/5/bits/basic_string.h **** 
2851:/usr/include/c++/5/bits/basic_string.h ****       // NB: per LWG issue 42, semantics different from IS:
2852:/usr/include/c++/5/bits/basic_string.h ****       /**
2853:/usr/include/c++/5/bits/basic_string.h ****        *  @brief  Construct string with copy of value of @a str.
2854:/usr/include/c++/5/bits/basic_string.h ****        *  @param  __str  Source string.
2855:/usr/include/c++/5/bits/basic_string.h ****        */
2856:/usr/include/c++/5/bits/basic_string.h ****       basic_string(const basic_string& __str);
2857:/usr/include/c++/5/bits/basic_string.h ****       /**
2858:/usr/include/c++/5/bits/basic_string.h ****        *  @brief  Construct string as copy of a substring.
2859:/usr/include/c++/5/bits/basic_string.h ****        *  @param  __str  Source string.
2860:/usr/include/c++/5/bits/basic_string.h ****        *  @param  __pos  Index of first character to copy from.
2861:/usr/include/c++/5/bits/basic_string.h ****        *  @param  __n  Number of characters to copy (default remainder).
2862:/usr/include/c++/5/bits/basic_string.h ****        */
2863:/usr/include/c++/5/bits/basic_string.h ****       basic_string(const basic_string& __str, size_type __pos,
2864:/usr/include/c++/5/bits/basic_string.h **** 		   size_type __n = npos);
2865:/usr/include/c++/5/bits/basic_string.h ****       /**
2866:/usr/include/c++/5/bits/basic_string.h ****        *  @brief  Construct string as copy of a substring.
2867:/usr/include/c++/5/bits/basic_string.h ****        *  @param  __str  Source string.
2868:/usr/include/c++/5/bits/basic_string.h ****        *  @param  __pos  Index of first character to copy from.
2869:/usr/include/c++/5/bits/basic_string.h ****        *  @param  __n  Number of characters to copy.
2870:/usr/include/c++/5/bits/basic_string.h ****        *  @param  __a  Allocator to use.
2871:/usr/include/c++/5/bits/basic_string.h ****        */
2872:/usr/include/c++/5/bits/basic_string.h ****       basic_string(const basic_string& __str, size_type __pos,
2873:/usr/include/c++/5/bits/basic_string.h **** 		   size_type __n, const _Alloc& __a);
2874:/usr/include/c++/5/bits/basic_string.h **** 
2875:/usr/include/c++/5/bits/basic_string.h ****       /**
2876:/usr/include/c++/5/bits/basic_string.h ****        *  @brief  Construct string initialized by a character %array.
2877:/usr/include/c++/5/bits/basic_string.h ****        *  @param  __s  Source character %array.
2878:/usr/include/c++/5/bits/basic_string.h ****        *  @param  __n  Number of characters to copy.
2879:/usr/include/c++/5/bits/basic_string.h ****        *  @param  __a  Allocator to use (default is default allocator).
2880:/usr/include/c++/5/bits/basic_string.h ****        *
2881:/usr/include/c++/5/bits/basic_string.h ****        *  NB: @a __s must have at least @a __n characters, &apos;\\0&apos;
GAS LISTING /tmp/ccGYUW7A.s 			page 124


2882:/usr/include/c++/5/bits/basic_string.h ****        *  has no special meaning.
2883:/usr/include/c++/5/bits/basic_string.h ****        */
2884:/usr/include/c++/5/bits/basic_string.h ****       basic_string(const _CharT* __s, size_type __n,
2885:/usr/include/c++/5/bits/basic_string.h **** 		   const _Alloc& __a = _Alloc());
2886:/usr/include/c++/5/bits/basic_string.h ****       /**
2887:/usr/include/c++/5/bits/basic_string.h ****        *  @brief  Construct string as copy of a C string.
2888:/usr/include/c++/5/bits/basic_string.h ****        *  @param  __s  Source C string.
2889:/usr/include/c++/5/bits/basic_string.h ****        *  @param  __a  Allocator to use (default is default allocator).
2890:/usr/include/c++/5/bits/basic_string.h ****        */
2891:/usr/include/c++/5/bits/basic_string.h ****       basic_string(const _CharT* __s, const _Alloc& __a = _Alloc());
2892:/usr/include/c++/5/bits/basic_string.h ****       /**
2893:/usr/include/c++/5/bits/basic_string.h ****        *  @brief  Construct string as multiple characters.
2894:/usr/include/c++/5/bits/basic_string.h ****        *  @param  __n  Number of characters.
2895:/usr/include/c++/5/bits/basic_string.h ****        *  @param  __c  Character to use.
2896:/usr/include/c++/5/bits/basic_string.h ****        *  @param  __a  Allocator to use (default is default allocator).
2897:/usr/include/c++/5/bits/basic_string.h ****        */
2898:/usr/include/c++/5/bits/basic_string.h ****       basic_string(size_type __n, _CharT __c, const _Alloc& __a = _Alloc());
2899:/usr/include/c++/5/bits/basic_string.h **** 
2900:/usr/include/c++/5/bits/basic_string.h **** #if __cplusplus >= 201103L
2901:/usr/include/c++/5/bits/basic_string.h ****       /**
2902:/usr/include/c++/5/bits/basic_string.h ****        *  @brief  Move construct string.
2903:/usr/include/c++/5/bits/basic_string.h ****        *  @param  __str  Source string.
2904:/usr/include/c++/5/bits/basic_string.h ****        *
2905:/usr/include/c++/5/bits/basic_string.h ****        *  The newly-created string contains the exact contents of @a __str.
2906:/usr/include/c++/5/bits/basic_string.h ****        *  @a __str is a valid, but unspecified string.
2907:/usr/include/c++/5/bits/basic_string.h ****        **/
2908:/usr/include/c++/5/bits/basic_string.h ****       basic_string(basic_string&& __str)
2909:/usr/include/c++/5/bits/basic_string.h **** #if _GLIBCXX_FULLY_DYNAMIC_STRING == 0
2910:/usr/include/c++/5/bits/basic_string.h ****       noexcept // FIXME C++11: should always be noexcept.
2911:/usr/include/c++/5/bits/basic_string.h **** #endif
2912:/usr/include/c++/5/bits/basic_string.h ****       : _M_dataplus(__str._M_dataplus)
2913:/usr/include/c++/5/bits/basic_string.h ****       {
2914:/usr/include/c++/5/bits/basic_string.h **** #if _GLIBCXX_FULLY_DYNAMIC_STRING == 0
2915:/usr/include/c++/5/bits/basic_string.h **** 	__str._M_data(_S_empty_rep()._M_refdata());
2916:/usr/include/c++/5/bits/basic_string.h **** #else
2917:/usr/include/c++/5/bits/basic_string.h **** 	__str._M_data(_S_construct(size_type(), _CharT(), get_allocator()));
2918:/usr/include/c++/5/bits/basic_string.h **** #endif
2919:/usr/include/c++/5/bits/basic_string.h ****       }
2920:/usr/include/c++/5/bits/basic_string.h **** 
2921:/usr/include/c++/5/bits/basic_string.h ****       /**
2922:/usr/include/c++/5/bits/basic_string.h ****        *  @brief  Construct string from an initializer %list.
2923:/usr/include/c++/5/bits/basic_string.h ****        *  @param  __l  std::initializer_list of characters.
2924:/usr/include/c++/5/bits/basic_string.h ****        *  @param  __a  Allocator to use (default is default allocator).
2925:/usr/include/c++/5/bits/basic_string.h ****        */
2926:/usr/include/c++/5/bits/basic_string.h ****       basic_string(initializer_list<_CharT> __l, const _Alloc& __a = _Alloc());
2927:/usr/include/c++/5/bits/basic_string.h **** #endif // C++11
2928:/usr/include/c++/5/bits/basic_string.h **** 
2929:/usr/include/c++/5/bits/basic_string.h ****       /**
2930:/usr/include/c++/5/bits/basic_string.h ****        *  @brief  Construct string as copy of a range.
2931:/usr/include/c++/5/bits/basic_string.h ****        *  @param  __beg  Start of range.
2932:/usr/include/c++/5/bits/basic_string.h ****        *  @param  __end  End of range.
2933:/usr/include/c++/5/bits/basic_string.h ****        *  @param  __a  Allocator to use (default is default allocator).
2934:/usr/include/c++/5/bits/basic_string.h ****        */
2935:/usr/include/c++/5/bits/basic_string.h ****       template<class _InputIterator>
2936:/usr/include/c++/5/bits/basic_string.h ****         basic_string(_InputIterator __beg, _InputIterator __end,
2937:/usr/include/c++/5/bits/basic_string.h **** 		     const _Alloc& __a = _Alloc());
2938:/usr/include/c++/5/bits/basic_string.h **** 
GAS LISTING /tmp/ccGYUW7A.s 			page 125


2939:/usr/include/c++/5/bits/basic_string.h ****       /**
2940:/usr/include/c++/5/bits/basic_string.h ****        *  @brief  Destroy the string instance.
2941:/usr/include/c++/5/bits/basic_string.h ****        */
2942:/usr/include/c++/5/bits/basic_string.h ****       ~basic_string() _GLIBCXX_NOEXCEPT
2943:/usr/include/c++/5/bits/basic_string.h ****       { _M_rep()->_M_dispose(this->get_allocator()); }
2944:/usr/include/c++/5/bits/basic_string.h **** 
2945:/usr/include/c++/5/bits/basic_string.h ****       /**
2946:/usr/include/c++/5/bits/basic_string.h ****        *  @brief  Assign the value of @a str to this string.
2947:/usr/include/c++/5/bits/basic_string.h ****        *  @param  __str  Source string.
2948:/usr/include/c++/5/bits/basic_string.h ****        */
2949:/usr/include/c++/5/bits/basic_string.h ****       basic_string&
2950:/usr/include/c++/5/bits/basic_string.h ****       operator=(const basic_string& __str) 
2951:/usr/include/c++/5/bits/basic_string.h ****       { return this->assign(__str); }
2952:/usr/include/c++/5/bits/basic_string.h **** 
2953:/usr/include/c++/5/bits/basic_string.h ****       /**
2954:/usr/include/c++/5/bits/basic_string.h ****        *  @brief  Copy contents of @a s into this string.
2955:/usr/include/c++/5/bits/basic_string.h ****        *  @param  __s  Source null-terminated string.
2956:/usr/include/c++/5/bits/basic_string.h ****        */
2957:/usr/include/c++/5/bits/basic_string.h ****       basic_string&
2958:/usr/include/c++/5/bits/basic_string.h ****       operator=(const _CharT* __s) 
2959:/usr/include/c++/5/bits/basic_string.h ****       { return this->assign(__s); }
2960:/usr/include/c++/5/bits/basic_string.h **** 
2961:/usr/include/c++/5/bits/basic_string.h ****       /**
2962:/usr/include/c++/5/bits/basic_string.h ****        *  @brief  Set value to string of length 1.
2963:/usr/include/c++/5/bits/basic_string.h ****        *  @param  __c  Source character.
2964:/usr/include/c++/5/bits/basic_string.h ****        *
2965:/usr/include/c++/5/bits/basic_string.h ****        *  Assigning to a character makes this string length 1 and
2966:/usr/include/c++/5/bits/basic_string.h ****        *  (*this)[0] == @a c.
2967:/usr/include/c++/5/bits/basic_string.h ****        */
2968:/usr/include/c++/5/bits/basic_string.h ****       basic_string&
2969:/usr/include/c++/5/bits/basic_string.h ****       operator=(_CharT __c) 
2970:/usr/include/c++/5/bits/basic_string.h ****       { 
2971:/usr/include/c++/5/bits/basic_string.h **** 	this->assign(1, __c); 
2972:/usr/include/c++/5/bits/basic_string.h **** 	return *this;
2973:/usr/include/c++/5/bits/basic_string.h ****       }
2974:/usr/include/c++/5/bits/basic_string.h **** 
2975:/usr/include/c++/5/bits/basic_string.h **** #if __cplusplus >= 201103L
2976:/usr/include/c++/5/bits/basic_string.h ****       /**
2977:/usr/include/c++/5/bits/basic_string.h ****        *  @brief  Move assign the value of @a str to this string.
2978:/usr/include/c++/5/bits/basic_string.h ****        *  @param  __str  Source string.
2979:/usr/include/c++/5/bits/basic_string.h ****        *
2980:/usr/include/c++/5/bits/basic_string.h ****        *  The contents of @a str are moved into this string (without copying).
2981:/usr/include/c++/5/bits/basic_string.h ****        *  @a str is a valid, but unspecified string.
2982:/usr/include/c++/5/bits/basic_string.h ****        **/
2983:/usr/include/c++/5/bits/basic_string.h ****       // PR 58265, this should be noexcept.
2984:/usr/include/c++/5/bits/basic_string.h ****       basic_string&
2985:/usr/include/c++/5/bits/basic_string.h ****       operator=(basic_string&& __str)
2986:/usr/include/c++/5/bits/basic_string.h ****       {
2987:/usr/include/c++/5/bits/basic_string.h **** 	// NB: DR 1204.
2988:/usr/include/c++/5/bits/basic_string.h **** 	this->swap(__str);
2989:/usr/include/c++/5/bits/basic_string.h **** 	return *this;
2990:/usr/include/c++/5/bits/basic_string.h ****       }
2991:/usr/include/c++/5/bits/basic_string.h **** 
2992:/usr/include/c++/5/bits/basic_string.h ****       /**
2993:/usr/include/c++/5/bits/basic_string.h ****        *  @brief  Set value to string constructed from initializer %list.
2994:/usr/include/c++/5/bits/basic_string.h ****        *  @param  __l  std::initializer_list.
2995:/usr/include/c++/5/bits/basic_string.h ****        */
GAS LISTING /tmp/ccGYUW7A.s 			page 126


2996:/usr/include/c++/5/bits/basic_string.h ****       basic_string&
2997:/usr/include/c++/5/bits/basic_string.h ****       operator=(initializer_list<_CharT> __l)
2998:/usr/include/c++/5/bits/basic_string.h ****       {
2999:/usr/include/c++/5/bits/basic_string.h **** 	this->assign(__l.begin(), __l.size());
3000:/usr/include/c++/5/bits/basic_string.h **** 	return *this;
3001:/usr/include/c++/5/bits/basic_string.h ****       }
3002:/usr/include/c++/5/bits/basic_string.h **** #endif // C++11
3003:/usr/include/c++/5/bits/basic_string.h **** 
3004:/usr/include/c++/5/bits/basic_string.h ****       // Iterators:
3005:/usr/include/c++/5/bits/basic_string.h ****       /**
3006:/usr/include/c++/5/bits/basic_string.h ****        *  Returns a read/write iterator that points to the first character in
3007:/usr/include/c++/5/bits/basic_string.h ****        *  the %string.  Unshares the string.
3008:/usr/include/c++/5/bits/basic_string.h ****        */
3009:/usr/include/c++/5/bits/basic_string.h ****       iterator
3010:/usr/include/c++/5/bits/basic_string.h ****       begin() // FIXME C++11: should be noexcept.
3011:/usr/include/c++/5/bits/basic_string.h ****       {
3012:/usr/include/c++/5/bits/basic_string.h **** 	_M_leak();
3013:/usr/include/c++/5/bits/basic_string.h **** 	return iterator(_M_data());
3014:/usr/include/c++/5/bits/basic_string.h ****       }
3015:/usr/include/c++/5/bits/basic_string.h **** 
3016:/usr/include/c++/5/bits/basic_string.h ****       /**
3017:/usr/include/c++/5/bits/basic_string.h ****        *  Returns a read-only (constant) iterator that points to the first
3018:/usr/include/c++/5/bits/basic_string.h ****        *  character in the %string.
3019:/usr/include/c++/5/bits/basic_string.h ****        */
3020:/usr/include/c++/5/bits/basic_string.h ****       const_iterator
3021:/usr/include/c++/5/bits/basic_string.h ****       begin() const _GLIBCXX_NOEXCEPT
3022:/usr/include/c++/5/bits/basic_string.h ****       { return const_iterator(_M_data()); }
3023:/usr/include/c++/5/bits/basic_string.h **** 
3024:/usr/include/c++/5/bits/basic_string.h ****       /**
3025:/usr/include/c++/5/bits/basic_string.h ****        *  Returns a read/write iterator that points one past the last
3026:/usr/include/c++/5/bits/basic_string.h ****        *  character in the %string.  Unshares the string.
3027:/usr/include/c++/5/bits/basic_string.h ****        */
3028:/usr/include/c++/5/bits/basic_string.h ****       iterator
3029:/usr/include/c++/5/bits/basic_string.h ****       end() // FIXME C++11: should be noexcept.
3030:/usr/include/c++/5/bits/basic_string.h ****       {
3031:/usr/include/c++/5/bits/basic_string.h **** 	_M_leak();
3032:/usr/include/c++/5/bits/basic_string.h **** 	return iterator(_M_data() + this->size());
3033:/usr/include/c++/5/bits/basic_string.h ****       }
3034:/usr/include/c++/5/bits/basic_string.h **** 
3035:/usr/include/c++/5/bits/basic_string.h ****       /**
3036:/usr/include/c++/5/bits/basic_string.h ****        *  Returns a read-only (constant) iterator that points one past the
3037:/usr/include/c++/5/bits/basic_string.h ****        *  last character in the %string.
3038:/usr/include/c++/5/bits/basic_string.h ****        */
3039:/usr/include/c++/5/bits/basic_string.h ****       const_iterator
3040:/usr/include/c++/5/bits/basic_string.h ****       end() const _GLIBCXX_NOEXCEPT
3041:/usr/include/c++/5/bits/basic_string.h ****       { return const_iterator(_M_data() + this->size()); }
3042:/usr/include/c++/5/bits/basic_string.h **** 
3043:/usr/include/c++/5/bits/basic_string.h ****       /**
3044:/usr/include/c++/5/bits/basic_string.h ****        *  Returns a read/write reverse iterator that points to the last
3045:/usr/include/c++/5/bits/basic_string.h ****        *  character in the %string.  Iteration is done in reverse element
3046:/usr/include/c++/5/bits/basic_string.h ****        *  order.  Unshares the string.
3047:/usr/include/c++/5/bits/basic_string.h ****        */
3048:/usr/include/c++/5/bits/basic_string.h ****       reverse_iterator
3049:/usr/include/c++/5/bits/basic_string.h ****       rbegin() // FIXME C++11: should be noexcept.
3050:/usr/include/c++/5/bits/basic_string.h ****       { return reverse_iterator(this->end()); }
3051:/usr/include/c++/5/bits/basic_string.h **** 
3052:/usr/include/c++/5/bits/basic_string.h ****       /**
GAS LISTING /tmp/ccGYUW7A.s 			page 127


3053:/usr/include/c++/5/bits/basic_string.h ****        *  Returns a read-only (constant) reverse iterator that points
3054:/usr/include/c++/5/bits/basic_string.h ****        *  to the last character in the %string.  Iteration is done in
3055:/usr/include/c++/5/bits/basic_string.h ****        *  reverse element order.
3056:/usr/include/c++/5/bits/basic_string.h ****        */
3057:/usr/include/c++/5/bits/basic_string.h ****       const_reverse_iterator
3058:/usr/include/c++/5/bits/basic_string.h ****       rbegin() const _GLIBCXX_NOEXCEPT
3059:/usr/include/c++/5/bits/basic_string.h ****       { return const_reverse_iterator(this->end()); }
3060:/usr/include/c++/5/bits/basic_string.h **** 
3061:/usr/include/c++/5/bits/basic_string.h ****       /**
3062:/usr/include/c++/5/bits/basic_string.h ****        *  Returns a read/write reverse iterator that points to one before the
3063:/usr/include/c++/5/bits/basic_string.h ****        *  first character in the %string.  Iteration is done in reverse
3064:/usr/include/c++/5/bits/basic_string.h ****        *  element order.  Unshares the string.
3065:/usr/include/c++/5/bits/basic_string.h ****        */
3066:/usr/include/c++/5/bits/basic_string.h ****       reverse_iterator
3067:/usr/include/c++/5/bits/basic_string.h ****       rend() // FIXME C++11: should be noexcept.
3068:/usr/include/c++/5/bits/basic_string.h ****       { return reverse_iterator(this->begin()); }
3069:/usr/include/c++/5/bits/basic_string.h **** 
3070:/usr/include/c++/5/bits/basic_string.h ****       /**
3071:/usr/include/c++/5/bits/basic_string.h ****        *  Returns a read-only (constant) reverse iterator that points
3072:/usr/include/c++/5/bits/basic_string.h ****        *  to one before the first character in the %string.  Iteration
3073:/usr/include/c++/5/bits/basic_string.h ****        *  is done in reverse element order.
3074:/usr/include/c++/5/bits/basic_string.h ****        */
3075:/usr/include/c++/5/bits/basic_string.h ****       const_reverse_iterator
3076:/usr/include/c++/5/bits/basic_string.h ****       rend() const _GLIBCXX_NOEXCEPT
3077:/usr/include/c++/5/bits/basic_string.h ****       { return const_reverse_iterator(this->begin()); }
3078:/usr/include/c++/5/bits/basic_string.h **** 
3079:/usr/include/c++/5/bits/basic_string.h **** #if __cplusplus >= 201103L
3080:/usr/include/c++/5/bits/basic_string.h ****       /**
3081:/usr/include/c++/5/bits/basic_string.h ****        *  Returns a read-only (constant) iterator that points to the first
3082:/usr/include/c++/5/bits/basic_string.h ****        *  character in the %string.
3083:/usr/include/c++/5/bits/basic_string.h ****        */
3084:/usr/include/c++/5/bits/basic_string.h ****       const_iterator
3085:/usr/include/c++/5/bits/basic_string.h ****       cbegin() const noexcept
3086:/usr/include/c++/5/bits/basic_string.h ****       { return const_iterator(this->_M_data()); }
3087:/usr/include/c++/5/bits/basic_string.h **** 
3088:/usr/include/c++/5/bits/basic_string.h ****       /**
3089:/usr/include/c++/5/bits/basic_string.h ****        *  Returns a read-only (constant) iterator that points one past the
3090:/usr/include/c++/5/bits/basic_string.h ****        *  last character in the %string.
3091:/usr/include/c++/5/bits/basic_string.h ****        */
3092:/usr/include/c++/5/bits/basic_string.h ****       const_iterator
3093:/usr/include/c++/5/bits/basic_string.h ****       cend() const noexcept
3094:/usr/include/c++/5/bits/basic_string.h ****       { return const_iterator(this->_M_data() + this->size()); }
3095:/usr/include/c++/5/bits/basic_string.h **** 
3096:/usr/include/c++/5/bits/basic_string.h ****       /**
3097:/usr/include/c++/5/bits/basic_string.h ****        *  Returns a read-only (constant) reverse iterator that points
3098:/usr/include/c++/5/bits/basic_string.h ****        *  to the last character in the %string.  Iteration is done in
3099:/usr/include/c++/5/bits/basic_string.h ****        *  reverse element order.
3100:/usr/include/c++/5/bits/basic_string.h ****        */
3101:/usr/include/c++/5/bits/basic_string.h ****       const_reverse_iterator
3102:/usr/include/c++/5/bits/basic_string.h ****       crbegin() const noexcept
3103:/usr/include/c++/5/bits/basic_string.h ****       { return const_reverse_iterator(this->end()); }
3104:/usr/include/c++/5/bits/basic_string.h **** 
3105:/usr/include/c++/5/bits/basic_string.h ****       /**
3106:/usr/include/c++/5/bits/basic_string.h ****        *  Returns a read-only (constant) reverse iterator that points
3107:/usr/include/c++/5/bits/basic_string.h ****        *  to one before the first character in the %string.  Iteration
3108:/usr/include/c++/5/bits/basic_string.h ****        *  is done in reverse element order.
3109:/usr/include/c++/5/bits/basic_string.h ****        */
GAS LISTING /tmp/ccGYUW7A.s 			page 128


3110:/usr/include/c++/5/bits/basic_string.h ****       const_reverse_iterator
3111:/usr/include/c++/5/bits/basic_string.h ****       crend() const noexcept
3112:/usr/include/c++/5/bits/basic_string.h ****       { return const_reverse_iterator(this->begin()); }
3113:/usr/include/c++/5/bits/basic_string.h **** #endif
3114:/usr/include/c++/5/bits/basic_string.h **** 
3115:/usr/include/c++/5/bits/basic_string.h ****     public:
3116:/usr/include/c++/5/bits/basic_string.h ****       // Capacity:
3117:/usr/include/c++/5/bits/basic_string.h ****       ///  Returns the number of characters in the string, not including any
3118:/usr/include/c++/5/bits/basic_string.h ****       ///  null-termination.
3119:/usr/include/c++/5/bits/basic_string.h ****       size_type
3120:/usr/include/c++/5/bits/basic_string.h ****       size() const _GLIBCXX_NOEXCEPT
3121:/usr/include/c++/5/bits/basic_string.h ****       { return _M_rep()->_M_length; }
3122:/usr/include/c++/5/bits/basic_string.h **** 
3123:/usr/include/c++/5/bits/basic_string.h ****       ///  Returns the number of characters in the string, not including any
3124:/usr/include/c++/5/bits/basic_string.h ****       ///  null-termination.
3125:/usr/include/c++/5/bits/basic_string.h ****       size_type
3126:/usr/include/c++/5/bits/basic_string.h ****       length() const _GLIBCXX_NOEXCEPT
3127:/usr/include/c++/5/bits/basic_string.h ****       { return _M_rep()->_M_length; }
3128:/usr/include/c++/5/bits/basic_string.h **** 
3129:/usr/include/c++/5/bits/basic_string.h ****       ///  Returns the size() of the largest possible %string.
3130:/usr/include/c++/5/bits/basic_string.h ****       size_type
3131:/usr/include/c++/5/bits/basic_string.h ****       max_size() const _GLIBCXX_NOEXCEPT
3132:/usr/include/c++/5/bits/basic_string.h ****       { return _Rep::_S_max_size; }
3133:/usr/include/c++/5/bits/basic_string.h **** 
3134:/usr/include/c++/5/bits/basic_string.h ****       /**
3135:/usr/include/c++/5/bits/basic_string.h ****        *  @brief  Resizes the %string to the specified number of characters.
3136:/usr/include/c++/5/bits/basic_string.h ****        *  @param  __n  Number of characters the %string should contain.
3137:/usr/include/c++/5/bits/basic_string.h ****        *  @param  __c  Character to fill any new elements.
3138:/usr/include/c++/5/bits/basic_string.h ****        *
3139:/usr/include/c++/5/bits/basic_string.h ****        *  This function will %resize the %string to the specified
3140:/usr/include/c++/5/bits/basic_string.h ****        *  number of characters.  If the number is smaller than the
3141:/usr/include/c++/5/bits/basic_string.h ****        *  %string's current size the %string is truncated, otherwise
3142:/usr/include/c++/5/bits/basic_string.h ****        *  the %string is extended and new elements are %set to @a __c.
3143:/usr/include/c++/5/bits/basic_string.h ****        */
3144:/usr/include/c++/5/bits/basic_string.h ****       void
3145:/usr/include/c++/5/bits/basic_string.h ****       resize(size_type __n, _CharT __c);
3146:/usr/include/c++/5/bits/basic_string.h **** 
3147:/usr/include/c++/5/bits/basic_string.h ****       /**
3148:/usr/include/c++/5/bits/basic_string.h ****        *  @brief  Resizes the %string to the specified number of characters.
3149:/usr/include/c++/5/bits/basic_string.h ****        *  @param  __n  Number of characters the %string should contain.
3150:/usr/include/c++/5/bits/basic_string.h ****        *
3151:/usr/include/c++/5/bits/basic_string.h ****        *  This function will resize the %string to the specified length.  If
3152:/usr/include/c++/5/bits/basic_string.h ****        *  the new size is smaller than the %string's current size the %string
3153:/usr/include/c++/5/bits/basic_string.h ****        *  is truncated, otherwise the %string is extended and new characters
3154:/usr/include/c++/5/bits/basic_string.h ****        *  are default-constructed.  For basic types such as char, this means
3155:/usr/include/c++/5/bits/basic_string.h ****        *  setting them to 0.
3156:/usr/include/c++/5/bits/basic_string.h ****        */
3157:/usr/include/c++/5/bits/basic_string.h ****       void
3158:/usr/include/c++/5/bits/basic_string.h ****       resize(size_type __n)
3159:/usr/include/c++/5/bits/basic_string.h ****       { this->resize(__n, _CharT()); }
3160:/usr/include/c++/5/bits/basic_string.h **** 
3161:/usr/include/c++/5/bits/basic_string.h **** #if __cplusplus >= 201103L
3162:/usr/include/c++/5/bits/basic_string.h ****       ///  A non-binding request to reduce capacity() to size().
3163:/usr/include/c++/5/bits/basic_string.h ****       void
3164:/usr/include/c++/5/bits/basic_string.h ****       shrink_to_fit() _GLIBCXX_NOEXCEPT
3165:/usr/include/c++/5/bits/basic_string.h ****       {
3166:/usr/include/c++/5/bits/basic_string.h **** #if __cpp_exceptions
GAS LISTING /tmp/ccGYUW7A.s 			page 129


3167:/usr/include/c++/5/bits/basic_string.h **** 	if (capacity() > size())
3168:/usr/include/c++/5/bits/basic_string.h **** 	  {
3169:/usr/include/c++/5/bits/basic_string.h **** 	    try
3170:/usr/include/c++/5/bits/basic_string.h **** 	      { reserve(0); }
3171:/usr/include/c++/5/bits/basic_string.h **** 	    catch(...)
3172:/usr/include/c++/5/bits/basic_string.h **** 	      { }
3173:/usr/include/c++/5/bits/basic_string.h **** 	  }
3174:/usr/include/c++/5/bits/basic_string.h **** #endif
3175:/usr/include/c++/5/bits/basic_string.h ****       }
3176:/usr/include/c++/5/bits/basic_string.h **** #endif
3177:/usr/include/c++/5/bits/basic_string.h **** 
3178:/usr/include/c++/5/bits/basic_string.h ****       /**
3179:/usr/include/c++/5/bits/basic_string.h ****        *  Returns the total number of characters that the %string can hold
3180:/usr/include/c++/5/bits/basic_string.h ****        *  before needing to allocate more memory.
3181:/usr/include/c++/5/bits/basic_string.h ****        */
3182:/usr/include/c++/5/bits/basic_string.h ****       size_type
3183:/usr/include/c++/5/bits/basic_string.h ****       capacity() const _GLIBCXX_NOEXCEPT
3184:/usr/include/c++/5/bits/basic_string.h ****       { return _M_rep()->_M_capacity; }
3185:/usr/include/c++/5/bits/basic_string.h **** 
3186:/usr/include/c++/5/bits/basic_string.h ****       /**
3187:/usr/include/c++/5/bits/basic_string.h ****        *  @brief  Attempt to preallocate enough memory for specified number of
3188:/usr/include/c++/5/bits/basic_string.h ****        *          characters.
3189:/usr/include/c++/5/bits/basic_string.h ****        *  @param  __res_arg  Number of characters required.
3190:/usr/include/c++/5/bits/basic_string.h ****        *  @throw  std::length_error  If @a __res_arg exceeds @c max_size().
3191:/usr/include/c++/5/bits/basic_string.h ****        *
3192:/usr/include/c++/5/bits/basic_string.h ****        *  This function attempts to reserve enough memory for the
3193:/usr/include/c++/5/bits/basic_string.h ****        *  %string to hold the specified number of characters.  If the
3194:/usr/include/c++/5/bits/basic_string.h ****        *  number requested is more than max_size(), length_error is
3195:/usr/include/c++/5/bits/basic_string.h ****        *  thrown.
3196:/usr/include/c++/5/bits/basic_string.h ****        *
3197:/usr/include/c++/5/bits/basic_string.h ****        *  The advantage of this function is that if optimal code is a
3198:/usr/include/c++/5/bits/basic_string.h ****        *  necessity and the user can determine the string length that will be
3199:/usr/include/c++/5/bits/basic_string.h ****        *  required, the user can reserve the memory in %advance, and thus
3200:/usr/include/c++/5/bits/basic_string.h ****        *  prevent a possible reallocation of memory and copying of %string
3201:/usr/include/c++/5/bits/basic_string.h ****        *  data.
3202:/usr/include/c++/5/bits/basic_string.h ****        */
3203:/usr/include/c++/5/bits/basic_string.h ****       void
3204:/usr/include/c++/5/bits/basic_string.h ****       reserve(size_type __res_arg = 0);
3205:/usr/include/c++/5/bits/basic_string.h **** 
3206:/usr/include/c++/5/bits/basic_string.h ****       /**
3207:/usr/include/c++/5/bits/basic_string.h ****        *  Erases the string, making it empty.
3208:/usr/include/c++/5/bits/basic_string.h ****        */
3209:/usr/include/c++/5/bits/basic_string.h ****       // PR 56166: this should not throw.
3210:/usr/include/c++/5/bits/basic_string.h ****       void
3211:/usr/include/c++/5/bits/basic_string.h ****       clear()
3212:/usr/include/c++/5/bits/basic_string.h ****       { _M_mutate(0, this->size(), 0); }
3213:/usr/include/c++/5/bits/basic_string.h **** 
3214:/usr/include/c++/5/bits/basic_string.h ****       /**
3215:/usr/include/c++/5/bits/basic_string.h ****        *  Returns true if the %string is empty.  Equivalent to 
3216:/usr/include/c++/5/bits/basic_string.h ****        *  <code>*this == ""</code>.
3217:/usr/include/c++/5/bits/basic_string.h ****        */
3218:/usr/include/c++/5/bits/basic_string.h ****       bool
3219:/usr/include/c++/5/bits/basic_string.h ****       empty() const _GLIBCXX_NOEXCEPT
3220:/usr/include/c++/5/bits/basic_string.h ****       { return this->size() == 0; }
3221:/usr/include/c++/5/bits/basic_string.h **** 
3222:/usr/include/c++/5/bits/basic_string.h ****       // Element access:
3223:/usr/include/c++/5/bits/basic_string.h ****       /**
GAS LISTING /tmp/ccGYUW7A.s 			page 130


3224:/usr/include/c++/5/bits/basic_string.h ****        *  @brief  Subscript access to the data contained in the %string.
3225:/usr/include/c++/5/bits/basic_string.h ****        *  @param  __pos  The index of the character to access.
3226:/usr/include/c++/5/bits/basic_string.h ****        *  @return  Read-only (constant) reference to the character.
3227:/usr/include/c++/5/bits/basic_string.h ****        *
3228:/usr/include/c++/5/bits/basic_string.h ****        *  This operator allows for easy, array-style, data access.
3229:/usr/include/c++/5/bits/basic_string.h ****        *  Note that data access with this operator is unchecked and
3230:/usr/include/c++/5/bits/basic_string.h ****        *  out_of_range lookups are not defined. (For checked lookups
3231:/usr/include/c++/5/bits/basic_string.h ****        *  see at().)
3232:/usr/include/c++/5/bits/basic_string.h ****        */
3233:/usr/include/c++/5/bits/basic_string.h ****       const_reference
3234:/usr/include/c++/5/bits/basic_string.h ****       operator[] (size_type __pos) const _GLIBCXX_NOEXCEPT
3235:/usr/include/c++/5/bits/basic_string.h ****       {
3236:/usr/include/c++/5/bits/basic_string.h **** 	_GLIBCXX_DEBUG_ASSERT(__pos <= size());
3237:/usr/include/c++/5/bits/basic_string.h **** 	return _M_data()[__pos];
3238:/usr/include/c++/5/bits/basic_string.h ****       }
3239:/usr/include/c++/5/bits/basic_string.h **** 
3240:/usr/include/c++/5/bits/basic_string.h ****       /**
3241:/usr/include/c++/5/bits/basic_string.h ****        *  @brief  Subscript access to the data contained in the %string.
3242:/usr/include/c++/5/bits/basic_string.h ****        *  @param  __pos  The index of the character to access.
3243:/usr/include/c++/5/bits/basic_string.h ****        *  @return  Read/write reference to the character.
3244:/usr/include/c++/5/bits/basic_string.h ****        *
3245:/usr/include/c++/5/bits/basic_string.h ****        *  This operator allows for easy, array-style, data access.
3246:/usr/include/c++/5/bits/basic_string.h ****        *  Note that data access with this operator is unchecked and
3247:/usr/include/c++/5/bits/basic_string.h ****        *  out_of_range lookups are not defined. (For checked lookups
3248:/usr/include/c++/5/bits/basic_string.h ****        *  see at().)  Unshares the string.
3249:/usr/include/c++/5/bits/basic_string.h ****        */
3250:/usr/include/c++/5/bits/basic_string.h ****       reference
3251:/usr/include/c++/5/bits/basic_string.h ****       operator[](size_type __pos)
3252:/usr/include/c++/5/bits/basic_string.h ****       {
3253:/usr/include/c++/5/bits/basic_string.h ****         // Allow pos == size() both in C++98 mode, as v3 extension,
3254:/usr/include/c++/5/bits/basic_string.h **** 	// and in C++11 mode.
3255:/usr/include/c++/5/bits/basic_string.h **** 	_GLIBCXX_DEBUG_ASSERT(__pos <= size());
3256:/usr/include/c++/5/bits/basic_string.h ****         // In pedantic mode be strict in C++98 mode.
3257:/usr/include/c++/5/bits/basic_string.h **** 	_GLIBCXX_DEBUG_PEDASSERT(__cplusplus >= 201103L || __pos < size());
3258:/usr/include/c++/5/bits/basic_string.h **** 	_M_leak();
3259:/usr/include/c++/5/bits/basic_string.h **** 	return _M_data()[__pos];
3260:/usr/include/c++/5/bits/basic_string.h ****       }
3261:/usr/include/c++/5/bits/basic_string.h **** 
3262:/usr/include/c++/5/bits/basic_string.h ****       /**
3263:/usr/include/c++/5/bits/basic_string.h ****        *  @brief  Provides access to the data contained in the %string.
3264:/usr/include/c++/5/bits/basic_string.h ****        *  @param __n The index of the character to access.
3265:/usr/include/c++/5/bits/basic_string.h ****        *  @return  Read-only (const) reference to the character.
3266:/usr/include/c++/5/bits/basic_string.h ****        *  @throw  std::out_of_range  If @a n is an invalid index.
3267:/usr/include/c++/5/bits/basic_string.h ****        *
3268:/usr/include/c++/5/bits/basic_string.h ****        *  This function provides for safer data access.  The parameter is
3269:/usr/include/c++/5/bits/basic_string.h ****        *  first checked that it is in the range of the string.  The function
3270:/usr/include/c++/5/bits/basic_string.h ****        *  throws out_of_range if the check fails.
3271:/usr/include/c++/5/bits/basic_string.h ****        */
3272:/usr/include/c++/5/bits/basic_string.h ****       const_reference
3273:/usr/include/c++/5/bits/basic_string.h ****       at(size_type __n) const
3274:/usr/include/c++/5/bits/basic_string.h ****       {
3275:/usr/include/c++/5/bits/basic_string.h **** 	if (__n >= this->size())
3276:/usr/include/c++/5/bits/basic_string.h **** 	  __throw_out_of_range_fmt(__N("basic_string::at: __n "
3277:/usr/include/c++/5/bits/basic_string.h **** 				       "(which is %zu) >= this->size() "
3278:/usr/include/c++/5/bits/basic_string.h **** 				       "(which is %zu)"),
3279:/usr/include/c++/5/bits/basic_string.h **** 				   __n, this->size());
3280:/usr/include/c++/5/bits/basic_string.h **** 	return _M_data()[__n];
GAS LISTING /tmp/ccGYUW7A.s 			page 131


3281:/usr/include/c++/5/bits/basic_string.h ****       }
3282:/usr/include/c++/5/bits/basic_string.h **** 
3283:/usr/include/c++/5/bits/basic_string.h ****       /**
3284:/usr/include/c++/5/bits/basic_string.h ****        *  @brief  Provides access to the data contained in the %string.
3285:/usr/include/c++/5/bits/basic_string.h ****        *  @param __n The index of the character to access.
3286:/usr/include/c++/5/bits/basic_string.h ****        *  @return  Read/write reference to the character.
3287:/usr/include/c++/5/bits/basic_string.h ****        *  @throw  std::out_of_range  If @a n is an invalid index.
3288:/usr/include/c++/5/bits/basic_string.h ****        *
3289:/usr/include/c++/5/bits/basic_string.h ****        *  This function provides for safer data access.  The parameter is
3290:/usr/include/c++/5/bits/basic_string.h ****        *  first checked that it is in the range of the string.  The function
3291:/usr/include/c++/5/bits/basic_string.h ****        *  throws out_of_range if the check fails.  Success results in
3292:/usr/include/c++/5/bits/basic_string.h ****        *  unsharing the string.
3293:/usr/include/c++/5/bits/basic_string.h ****        */
3294:/usr/include/c++/5/bits/basic_string.h ****       reference
3295:/usr/include/c++/5/bits/basic_string.h ****       at(size_type __n)
3296:/usr/include/c++/5/bits/basic_string.h ****       {
3297:/usr/include/c++/5/bits/basic_string.h **** 	if (__n >= size())
3298:/usr/include/c++/5/bits/basic_string.h **** 	  __throw_out_of_range_fmt(__N("basic_string::at: __n "
3299:/usr/include/c++/5/bits/basic_string.h **** 				       "(which is %zu) >= this->size() "
3300:/usr/include/c++/5/bits/basic_string.h **** 				       "(which is %zu)"),
3301:/usr/include/c++/5/bits/basic_string.h **** 				   __n, this->size());
3302:/usr/include/c++/5/bits/basic_string.h **** 	_M_leak();
3303:/usr/include/c++/5/bits/basic_string.h **** 	return _M_data()[__n];
3304:/usr/include/c++/5/bits/basic_string.h ****       }
3305:/usr/include/c++/5/bits/basic_string.h **** 
3306:/usr/include/c++/5/bits/basic_string.h **** #if __cplusplus >= 201103L
3307:/usr/include/c++/5/bits/basic_string.h ****       /**
3308:/usr/include/c++/5/bits/basic_string.h ****        *  Returns a read/write reference to the data at the first
3309:/usr/include/c++/5/bits/basic_string.h ****        *  element of the %string.
3310:/usr/include/c++/5/bits/basic_string.h ****        */
3311:/usr/include/c++/5/bits/basic_string.h ****       reference
3312:/usr/include/c++/5/bits/basic_string.h ****       front()
3313:/usr/include/c++/5/bits/basic_string.h ****       { return operator[](0); }
3314:/usr/include/c++/5/bits/basic_string.h **** 
3315:/usr/include/c++/5/bits/basic_string.h ****       /**
3316:/usr/include/c++/5/bits/basic_string.h ****        *  Returns a read-only (constant) reference to the data at the first
3317:/usr/include/c++/5/bits/basic_string.h ****        *  element of the %string.
3318:/usr/include/c++/5/bits/basic_string.h ****        */
3319:/usr/include/c++/5/bits/basic_string.h ****       const_reference
3320:/usr/include/c++/5/bits/basic_string.h ****       front() const _GLIBCXX_NOEXCEPT
3321:/usr/include/c++/5/bits/basic_string.h ****       { return operator[](0); }
3322:/usr/include/c++/5/bits/basic_string.h **** 
3323:/usr/include/c++/5/bits/basic_string.h ****       /**
3324:/usr/include/c++/5/bits/basic_string.h ****        *  Returns a read/write reference to the data at the last
3325:/usr/include/c++/5/bits/basic_string.h ****        *  element of the %string.
3326:/usr/include/c++/5/bits/basic_string.h ****        */
3327:/usr/include/c++/5/bits/basic_string.h ****       reference
3328:/usr/include/c++/5/bits/basic_string.h ****       back()
3329:/usr/include/c++/5/bits/basic_string.h ****       { return operator[](this->size() - 1); }
3330:/usr/include/c++/5/bits/basic_string.h **** 
3331:/usr/include/c++/5/bits/basic_string.h ****       /**
3332:/usr/include/c++/5/bits/basic_string.h ****        *  Returns a read-only (constant) reference to the data at the
3333:/usr/include/c++/5/bits/basic_string.h ****        *  last element of the %string.
3334:/usr/include/c++/5/bits/basic_string.h ****        */
3335:/usr/include/c++/5/bits/basic_string.h ****       const_reference
3336:/usr/include/c++/5/bits/basic_string.h ****       back() const _GLIBCXX_NOEXCEPT
3337:/usr/include/c++/5/bits/basic_string.h ****       { return operator[](this->size() - 1); }
GAS LISTING /tmp/ccGYUW7A.s 			page 132


3338:/usr/include/c++/5/bits/basic_string.h **** #endif
3339:/usr/include/c++/5/bits/basic_string.h **** 
3340:/usr/include/c++/5/bits/basic_string.h ****       // Modifiers:
3341:/usr/include/c++/5/bits/basic_string.h ****       /**
3342:/usr/include/c++/5/bits/basic_string.h ****        *  @brief  Append a string to this string.
3343:/usr/include/c++/5/bits/basic_string.h ****        *  @param __str  The string to append.
3344:/usr/include/c++/5/bits/basic_string.h ****        *  @return  Reference to this string.
3345:/usr/include/c++/5/bits/basic_string.h ****        */
3346:/usr/include/c++/5/bits/basic_string.h ****       basic_string&
3347:/usr/include/c++/5/bits/basic_string.h ****       operator+=(const basic_string& __str)
3348:/usr/include/c++/5/bits/basic_string.h ****       { return this->append(__str); }
3349:/usr/include/c++/5/bits/basic_string.h **** 
3350:/usr/include/c++/5/bits/basic_string.h ****       /**
3351:/usr/include/c++/5/bits/basic_string.h ****        *  @brief  Append a C string.
3352:/usr/include/c++/5/bits/basic_string.h ****        *  @param __s  The C string to append.
3353:/usr/include/c++/5/bits/basic_string.h ****        *  @return  Reference to this string.
3354:/usr/include/c++/5/bits/basic_string.h ****        */
3355:/usr/include/c++/5/bits/basic_string.h ****       basic_string&
3356:/usr/include/c++/5/bits/basic_string.h ****       operator+=(const _CharT* __s)
3357:/usr/include/c++/5/bits/basic_string.h ****       { return this->append(__s); }
3358:/usr/include/c++/5/bits/basic_string.h **** 
3359:/usr/include/c++/5/bits/basic_string.h ****       /**
3360:/usr/include/c++/5/bits/basic_string.h ****        *  @brief  Append a character.
3361:/usr/include/c++/5/bits/basic_string.h ****        *  @param __c  The character to append.
3362:/usr/include/c++/5/bits/basic_string.h ****        *  @return  Reference to this string.
3363:/usr/include/c++/5/bits/basic_string.h ****        */
3364:/usr/include/c++/5/bits/basic_string.h ****       basic_string&
3365:/usr/include/c++/5/bits/basic_string.h ****       operator+=(_CharT __c)
3366:/usr/include/c++/5/bits/basic_string.h ****       { 
3367:/usr/include/c++/5/bits/basic_string.h **** 	this->push_back(__c);
3368:/usr/include/c++/5/bits/basic_string.h **** 	return *this;
3369:/usr/include/c++/5/bits/basic_string.h ****       }
3370:/usr/include/c++/5/bits/basic_string.h **** 
3371:/usr/include/c++/5/bits/basic_string.h **** #if __cplusplus >= 201103L
3372:/usr/include/c++/5/bits/basic_string.h ****       /**
3373:/usr/include/c++/5/bits/basic_string.h ****        *  @brief  Append an initializer_list of characters.
3374:/usr/include/c++/5/bits/basic_string.h ****        *  @param __l  The initializer_list of characters to be appended.
3375:/usr/include/c++/5/bits/basic_string.h ****        *  @return  Reference to this string.
3376:/usr/include/c++/5/bits/basic_string.h ****        */
3377:/usr/include/c++/5/bits/basic_string.h ****       basic_string&
3378:/usr/include/c++/5/bits/basic_string.h ****       operator+=(initializer_list<_CharT> __l)
3379:/usr/include/c++/5/bits/basic_string.h ****       { return this->append(__l.begin(), __l.size()); }
3380:/usr/include/c++/5/bits/basic_string.h **** #endif // C++11
3381:/usr/include/c++/5/bits/basic_string.h **** 
3382:/usr/include/c++/5/bits/basic_string.h ****       /**
3383:/usr/include/c++/5/bits/basic_string.h ****        *  @brief  Append a string to this string.
3384:/usr/include/c++/5/bits/basic_string.h ****        *  @param __str  The string to append.
3385:/usr/include/c++/5/bits/basic_string.h ****        *  @return  Reference to this string.
3386:/usr/include/c++/5/bits/basic_string.h ****        */
3387:/usr/include/c++/5/bits/basic_string.h ****       basic_string&
3388:/usr/include/c++/5/bits/basic_string.h ****       append(const basic_string& __str);
3389:/usr/include/c++/5/bits/basic_string.h **** 
3390:/usr/include/c++/5/bits/basic_string.h ****       /**
3391:/usr/include/c++/5/bits/basic_string.h ****        *  @brief  Append a substring.
3392:/usr/include/c++/5/bits/basic_string.h ****        *  @param __str  The string to append.
3393:/usr/include/c++/5/bits/basic_string.h ****        *  @param __pos  Index of the first character of str to append.
3394:/usr/include/c++/5/bits/basic_string.h ****        *  @param __n  The number of characters to append.
GAS LISTING /tmp/ccGYUW7A.s 			page 133


3395:/usr/include/c++/5/bits/basic_string.h ****        *  @return  Reference to this string.
3396:/usr/include/c++/5/bits/basic_string.h ****        *  @throw  std::out_of_range if @a __pos is not a valid index.
3397:/usr/include/c++/5/bits/basic_string.h ****        *
3398:/usr/include/c++/5/bits/basic_string.h ****        *  This function appends @a __n characters from @a __str
3399:/usr/include/c++/5/bits/basic_string.h ****        *  starting at @a __pos to this string.  If @a __n is is larger
3400:/usr/include/c++/5/bits/basic_string.h ****        *  than the number of available characters in @a __str, the
3401:/usr/include/c++/5/bits/basic_string.h ****        *  remainder of @a __str is appended.
3402:/usr/include/c++/5/bits/basic_string.h ****        */
3403:/usr/include/c++/5/bits/basic_string.h ****       basic_string&
3404:/usr/include/c++/5/bits/basic_string.h ****       append(const basic_string& __str, size_type __pos, size_type __n);
3405:/usr/include/c++/5/bits/basic_string.h **** 
3406:/usr/include/c++/5/bits/basic_string.h ****       /**
3407:/usr/include/c++/5/bits/basic_string.h ****        *  @brief  Append a C substring.
3408:/usr/include/c++/5/bits/basic_string.h ****        *  @param __s  The C string to append.
3409:/usr/include/c++/5/bits/basic_string.h ****        *  @param __n  The number of characters to append.
3410:/usr/include/c++/5/bits/basic_string.h ****        *  @return  Reference to this string.
3411:/usr/include/c++/5/bits/basic_string.h ****        */
3412:/usr/include/c++/5/bits/basic_string.h ****       basic_string&
3413:/usr/include/c++/5/bits/basic_string.h ****       append(const _CharT* __s, size_type __n);
3414:/usr/include/c++/5/bits/basic_string.h **** 
3415:/usr/include/c++/5/bits/basic_string.h ****       /**
3416:/usr/include/c++/5/bits/basic_string.h ****        *  @brief  Append a C string.
3417:/usr/include/c++/5/bits/basic_string.h ****        *  @param __s  The C string to append.
3418:/usr/include/c++/5/bits/basic_string.h ****        *  @return  Reference to this string.
3419:/usr/include/c++/5/bits/basic_string.h ****        */
3420:/usr/include/c++/5/bits/basic_string.h ****       basic_string&
3421:/usr/include/c++/5/bits/basic_string.h ****       append(const _CharT* __s)
3422:/usr/include/c++/5/bits/basic_string.h ****       {
3423:/usr/include/c++/5/bits/basic_string.h **** 	__glibcxx_requires_string(__s);
3424:/usr/include/c++/5/bits/basic_string.h **** 	return this->append(__s, traits_type::length(__s));
3425:/usr/include/c++/5/bits/basic_string.h ****       }
3426:/usr/include/c++/5/bits/basic_string.h **** 
3427:/usr/include/c++/5/bits/basic_string.h ****       /**
3428:/usr/include/c++/5/bits/basic_string.h ****        *  @brief  Append multiple characters.
3429:/usr/include/c++/5/bits/basic_string.h ****        *  @param __n  The number of characters to append.
3430:/usr/include/c++/5/bits/basic_string.h ****        *  @param __c  The character to use.
3431:/usr/include/c++/5/bits/basic_string.h ****        *  @return  Reference to this string.
3432:/usr/include/c++/5/bits/basic_string.h ****        *
3433:/usr/include/c++/5/bits/basic_string.h ****        *  Appends __n copies of __c to this string.
3434:/usr/include/c++/5/bits/basic_string.h ****        */
3435:/usr/include/c++/5/bits/basic_string.h ****       basic_string&
3436:/usr/include/c++/5/bits/basic_string.h ****       append(size_type __n, _CharT __c);
3437:/usr/include/c++/5/bits/basic_string.h **** 
3438:/usr/include/c++/5/bits/basic_string.h **** #if __cplusplus >= 201103L
3439:/usr/include/c++/5/bits/basic_string.h ****       /**
3440:/usr/include/c++/5/bits/basic_string.h ****        *  @brief  Append an initializer_list of characters.
3441:/usr/include/c++/5/bits/basic_string.h ****        *  @param __l  The initializer_list of characters to append.
3442:/usr/include/c++/5/bits/basic_string.h ****        *  @return  Reference to this string.
3443:/usr/include/c++/5/bits/basic_string.h ****        */
3444:/usr/include/c++/5/bits/basic_string.h ****       basic_string&
3445:/usr/include/c++/5/bits/basic_string.h ****       append(initializer_list<_CharT> __l)
3446:/usr/include/c++/5/bits/basic_string.h ****       { return this->append(__l.begin(), __l.size()); }
3447:/usr/include/c++/5/bits/basic_string.h **** #endif // C++11
3448:/usr/include/c++/5/bits/basic_string.h **** 
3449:/usr/include/c++/5/bits/basic_string.h ****       /**
3450:/usr/include/c++/5/bits/basic_string.h ****        *  @brief  Append a range of characters.
3451:/usr/include/c++/5/bits/basic_string.h ****        *  @param __first  Iterator referencing the first character to append.
GAS LISTING /tmp/ccGYUW7A.s 			page 134


3452:/usr/include/c++/5/bits/basic_string.h ****        *  @param __last  Iterator marking the end of the range.
3453:/usr/include/c++/5/bits/basic_string.h ****        *  @return  Reference to this string.
3454:/usr/include/c++/5/bits/basic_string.h ****        *
3455:/usr/include/c++/5/bits/basic_string.h ****        *  Appends characters in the range [__first,__last) to this string.
3456:/usr/include/c++/5/bits/basic_string.h ****        */
3457:/usr/include/c++/5/bits/basic_string.h ****       template<class _InputIterator>
3458:/usr/include/c++/5/bits/basic_string.h ****         basic_string&
3459:/usr/include/c++/5/bits/basic_string.h ****         append(_InputIterator __first, _InputIterator __last)
3460:/usr/include/c++/5/bits/basic_string.h ****         { return this->replace(_M_iend(), _M_iend(), __first, __last); }
3461:/usr/include/c++/5/bits/basic_string.h **** 
3462:/usr/include/c++/5/bits/basic_string.h ****       /**
3463:/usr/include/c++/5/bits/basic_string.h ****        *  @brief  Append a single character.
3464:/usr/include/c++/5/bits/basic_string.h ****        *  @param __c  Character to append.
3465:/usr/include/c++/5/bits/basic_string.h ****        */
3466:/usr/include/c++/5/bits/basic_string.h ****       void
3467:/usr/include/c++/5/bits/basic_string.h ****       push_back(_CharT __c)
3468:/usr/include/c++/5/bits/basic_string.h ****       { 
3469:/usr/include/c++/5/bits/basic_string.h **** 	const size_type __len = 1 + this->size();
3470:/usr/include/c++/5/bits/basic_string.h **** 	if (__len > this->capacity() || _M_rep()->_M_is_shared())
3471:/usr/include/c++/5/bits/basic_string.h **** 	  this->reserve(__len);
3472:/usr/include/c++/5/bits/basic_string.h **** 	traits_type::assign(_M_data()[this->size()], __c);
3473:/usr/include/c++/5/bits/basic_string.h **** 	_M_rep()->_M_set_length_and_sharable(__len);
3474:/usr/include/c++/5/bits/basic_string.h ****       }
3475:/usr/include/c++/5/bits/basic_string.h **** 
3476:/usr/include/c++/5/bits/basic_string.h ****       /**
3477:/usr/include/c++/5/bits/basic_string.h ****        *  @brief  Set value to contents of another string.
3478:/usr/include/c++/5/bits/basic_string.h ****        *  @param  __str  Source string to use.
3479:/usr/include/c++/5/bits/basic_string.h ****        *  @return  Reference to this string.
3480:/usr/include/c++/5/bits/basic_string.h ****        */
3481:/usr/include/c++/5/bits/basic_string.h ****       basic_string&
3482:/usr/include/c++/5/bits/basic_string.h ****       assign(const basic_string& __str);
3483:/usr/include/c++/5/bits/basic_string.h **** 
3484:/usr/include/c++/5/bits/basic_string.h **** #if __cplusplus >= 201103L
3485:/usr/include/c++/5/bits/basic_string.h ****       /**
3486:/usr/include/c++/5/bits/basic_string.h ****        *  @brief  Set value to contents of another string.
3487:/usr/include/c++/5/bits/basic_string.h ****        *  @param  __str  Source string to use.
3488:/usr/include/c++/5/bits/basic_string.h ****        *  @return  Reference to this string.
3489:/usr/include/c++/5/bits/basic_string.h ****        *
3490:/usr/include/c++/5/bits/basic_string.h ****        *  This function sets this string to the exact contents of @a __str.
3491:/usr/include/c++/5/bits/basic_string.h ****        *  @a __str is a valid, but unspecified string.
3492:/usr/include/c++/5/bits/basic_string.h ****        */
3493:/usr/include/c++/5/bits/basic_string.h ****       // PR 58265, this should be noexcept.
3494:/usr/include/c++/5/bits/basic_string.h ****       basic_string&
3495:/usr/include/c++/5/bits/basic_string.h ****       assign(basic_string&& __str)
3496:/usr/include/c++/5/bits/basic_string.h ****       {
3497:/usr/include/c++/5/bits/basic_string.h **** 	this->swap(__str);
3498:/usr/include/c++/5/bits/basic_string.h **** 	return *this;
3499:/usr/include/c++/5/bits/basic_string.h ****       }
3500:/usr/include/c++/5/bits/basic_string.h **** #endif // C++11
3501:/usr/include/c++/5/bits/basic_string.h **** 
3502:/usr/include/c++/5/bits/basic_string.h ****       /**
3503:/usr/include/c++/5/bits/basic_string.h ****        *  @brief  Set value to a substring of a string.
3504:/usr/include/c++/5/bits/basic_string.h ****        *  @param __str  The string to use.
3505:/usr/include/c++/5/bits/basic_string.h ****        *  @param __pos  Index of the first character of str.
3506:/usr/include/c++/5/bits/basic_string.h ****        *  @param __n  Number of characters to use.
3507:/usr/include/c++/5/bits/basic_string.h ****        *  @return  Reference to this string.
3508:/usr/include/c++/5/bits/basic_string.h ****        *  @throw  std::out_of_range if @a pos is not a valid index.
GAS LISTING /tmp/ccGYUW7A.s 			page 135


3509:/usr/include/c++/5/bits/basic_string.h ****        *
3510:/usr/include/c++/5/bits/basic_string.h ****        *  This function sets this string to the substring of @a __str
3511:/usr/include/c++/5/bits/basic_string.h ****        *  consisting of @a __n characters at @a __pos.  If @a __n is
3512:/usr/include/c++/5/bits/basic_string.h ****        *  is larger than the number of available characters in @a
3513:/usr/include/c++/5/bits/basic_string.h ****        *  __str, the remainder of @a __str is used.
3514:/usr/include/c++/5/bits/basic_string.h ****        */
3515:/usr/include/c++/5/bits/basic_string.h ****       basic_string&
3516:/usr/include/c++/5/bits/basic_string.h ****       assign(const basic_string& __str, size_type __pos, size_type __n)
3517:/usr/include/c++/5/bits/basic_string.h ****       { return this->assign(__str._M_data()
3518:/usr/include/c++/5/bits/basic_string.h **** 			    + __str._M_check(__pos, "basic_string::assign"),
3519:/usr/include/c++/5/bits/basic_string.h **** 			    __str._M_limit(__pos, __n)); }
3520:/usr/include/c++/5/bits/basic_string.h **** 
3521:/usr/include/c++/5/bits/basic_string.h ****       /**
3522:/usr/include/c++/5/bits/basic_string.h ****        *  @brief  Set value to a C substring.
3523:/usr/include/c++/5/bits/basic_string.h ****        *  @param __s  The C string to use.
3524:/usr/include/c++/5/bits/basic_string.h ****        *  @param __n  Number of characters to use.
3525:/usr/include/c++/5/bits/basic_string.h ****        *  @return  Reference to this string.
3526:/usr/include/c++/5/bits/basic_string.h ****        *
3527:/usr/include/c++/5/bits/basic_string.h ****        *  This function sets the value of this string to the first @a __n
3528:/usr/include/c++/5/bits/basic_string.h ****        *  characters of @a __s.  If @a __n is is larger than the number of
3529:/usr/include/c++/5/bits/basic_string.h ****        *  available characters in @a __s, the remainder of @a __s is used.
3530:/usr/include/c++/5/bits/basic_string.h ****        */
3531:/usr/include/c++/5/bits/basic_string.h ****       basic_string&
3532:/usr/include/c++/5/bits/basic_string.h ****       assign(const _CharT* __s, size_type __n);
3533:/usr/include/c++/5/bits/basic_string.h **** 
3534:/usr/include/c++/5/bits/basic_string.h ****       /**
3535:/usr/include/c++/5/bits/basic_string.h ****        *  @brief  Set value to contents of a C string.
3536:/usr/include/c++/5/bits/basic_string.h ****        *  @param __s  The C string to use.
3537:/usr/include/c++/5/bits/basic_string.h ****        *  @return  Reference to this string.
3538:/usr/include/c++/5/bits/basic_string.h ****        *
3539:/usr/include/c++/5/bits/basic_string.h ****        *  This function sets the value of this string to the value of @a __s.
3540:/usr/include/c++/5/bits/basic_string.h ****        *  The data is copied, so there is no dependence on @a __s once the
3541:/usr/include/c++/5/bits/basic_string.h ****        *  function returns.
3542:/usr/include/c++/5/bits/basic_string.h ****        */
3543:/usr/include/c++/5/bits/basic_string.h ****       basic_string&
3544:/usr/include/c++/5/bits/basic_string.h ****       assign(const _CharT* __s)
3545:/usr/include/c++/5/bits/basic_string.h ****       {
3546:/usr/include/c++/5/bits/basic_string.h **** 	__glibcxx_requires_string(__s);
3547:/usr/include/c++/5/bits/basic_string.h **** 	return this->assign(__s, traits_type::length(__s));
3548:/usr/include/c++/5/bits/basic_string.h ****       }
3549:/usr/include/c++/5/bits/basic_string.h **** 
3550:/usr/include/c++/5/bits/basic_string.h ****       /**
3551:/usr/include/c++/5/bits/basic_string.h ****        *  @brief  Set value to multiple characters.
3552:/usr/include/c++/5/bits/basic_string.h ****        *  @param __n  Length of the resulting string.
3553:/usr/include/c++/5/bits/basic_string.h ****        *  @param __c  The character to use.
3554:/usr/include/c++/5/bits/basic_string.h ****        *  @return  Reference to this string.
3555:/usr/include/c++/5/bits/basic_string.h ****        *
3556:/usr/include/c++/5/bits/basic_string.h ****        *  This function sets the value of this string to @a __n copies of
3557:/usr/include/c++/5/bits/basic_string.h ****        *  character @a __c.
3558:/usr/include/c++/5/bits/basic_string.h ****        */
3559:/usr/include/c++/5/bits/basic_string.h ****       basic_string&
3560:/usr/include/c++/5/bits/basic_string.h ****       assign(size_type __n, _CharT __c)
3561:/usr/include/c++/5/bits/basic_string.h ****       { return _M_replace_aux(size_type(0), this->size(), __n, __c); }
3562:/usr/include/c++/5/bits/basic_string.h **** 
3563:/usr/include/c++/5/bits/basic_string.h ****       /**
3564:/usr/include/c++/5/bits/basic_string.h ****        *  @brief  Set value to a range of characters.
3565:/usr/include/c++/5/bits/basic_string.h ****        *  @param __first  Iterator referencing the first character to append.
GAS LISTING /tmp/ccGYUW7A.s 			page 136


3566:/usr/include/c++/5/bits/basic_string.h ****        *  @param __last  Iterator marking the end of the range.
3567:/usr/include/c++/5/bits/basic_string.h ****        *  @return  Reference to this string.
3568:/usr/include/c++/5/bits/basic_string.h ****        *
3569:/usr/include/c++/5/bits/basic_string.h ****        *  Sets value of string to characters in the range [__first,__last).
3570:/usr/include/c++/5/bits/basic_string.h ****       */
3571:/usr/include/c++/5/bits/basic_string.h ****       template<class _InputIterator>
3572:/usr/include/c++/5/bits/basic_string.h ****         basic_string&
3573:/usr/include/c++/5/bits/basic_string.h ****         assign(_InputIterator __first, _InputIterator __last)
3574:/usr/include/c++/5/bits/basic_string.h ****         { return this->replace(_M_ibegin(), _M_iend(), __first, __last); }
3575:/usr/include/c++/5/bits/basic_string.h **** 
3576:/usr/include/c++/5/bits/basic_string.h **** #if __cplusplus >= 201103L
3577:/usr/include/c++/5/bits/basic_string.h ****       /**
3578:/usr/include/c++/5/bits/basic_string.h ****        *  @brief  Set value to an initializer_list of characters.
3579:/usr/include/c++/5/bits/basic_string.h ****        *  @param __l  The initializer_list of characters to assign.
3580:/usr/include/c++/5/bits/basic_string.h ****        *  @return  Reference to this string.
3581:/usr/include/c++/5/bits/basic_string.h ****        */
3582:/usr/include/c++/5/bits/basic_string.h ****       basic_string&
3583:/usr/include/c++/5/bits/basic_string.h ****       assign(initializer_list<_CharT> __l)
3584:/usr/include/c++/5/bits/basic_string.h ****       { return this->assign(__l.begin(), __l.size()); }
3585:/usr/include/c++/5/bits/basic_string.h **** #endif // C++11
3586:/usr/include/c++/5/bits/basic_string.h **** 
3587:/usr/include/c++/5/bits/basic_string.h ****       /**
3588:/usr/include/c++/5/bits/basic_string.h ****        *  @brief  Insert multiple characters.
3589:/usr/include/c++/5/bits/basic_string.h ****        *  @param __p  Iterator referencing location in string to insert at.
3590:/usr/include/c++/5/bits/basic_string.h ****        *  @param __n  Number of characters to insert
3591:/usr/include/c++/5/bits/basic_string.h ****        *  @param __c  The character to insert.
3592:/usr/include/c++/5/bits/basic_string.h ****        *  @throw  std::length_error  If new length exceeds @c max_size().
3593:/usr/include/c++/5/bits/basic_string.h ****        *
3594:/usr/include/c++/5/bits/basic_string.h ****        *  Inserts @a __n copies of character @a __c starting at the
3595:/usr/include/c++/5/bits/basic_string.h ****        *  position referenced by iterator @a __p.  If adding
3596:/usr/include/c++/5/bits/basic_string.h ****        *  characters causes the length to exceed max_size(),
3597:/usr/include/c++/5/bits/basic_string.h ****        *  length_error is thrown.  The value of the string doesn't
3598:/usr/include/c++/5/bits/basic_string.h ****        *  change if an error is thrown.
3599:/usr/include/c++/5/bits/basic_string.h ****       */
3600:/usr/include/c++/5/bits/basic_string.h ****       void
3601:/usr/include/c++/5/bits/basic_string.h ****       insert(iterator __p, size_type __n, _CharT __c)
3602:/usr/include/c++/5/bits/basic_string.h ****       {	this->replace(__p, __p, __n, __c);  }
3603:/usr/include/c++/5/bits/basic_string.h **** 
3604:/usr/include/c++/5/bits/basic_string.h ****       /**
3605:/usr/include/c++/5/bits/basic_string.h ****        *  @brief  Insert a range of characters.
3606:/usr/include/c++/5/bits/basic_string.h ****        *  @param __p  Iterator referencing location in string to insert at.
3607:/usr/include/c++/5/bits/basic_string.h ****        *  @param __beg  Start of range.
3608:/usr/include/c++/5/bits/basic_string.h ****        *  @param __end  End of range.
3609:/usr/include/c++/5/bits/basic_string.h ****        *  @throw  std::length_error  If new length exceeds @c max_size().
3610:/usr/include/c++/5/bits/basic_string.h ****        *
3611:/usr/include/c++/5/bits/basic_string.h ****        *  Inserts characters in range [__beg,__end).  If adding
3612:/usr/include/c++/5/bits/basic_string.h ****        *  characters causes the length to exceed max_size(),
3613:/usr/include/c++/5/bits/basic_string.h ****        *  length_error is thrown.  The value of the string doesn't
3614:/usr/include/c++/5/bits/basic_string.h ****        *  change if an error is thrown.
3615:/usr/include/c++/5/bits/basic_string.h ****       */
3616:/usr/include/c++/5/bits/basic_string.h ****       template<class _InputIterator>
3617:/usr/include/c++/5/bits/basic_string.h ****         void
3618:/usr/include/c++/5/bits/basic_string.h ****         insert(iterator __p, _InputIterator __beg, _InputIterator __end)
3619:/usr/include/c++/5/bits/basic_string.h ****         { this->replace(__p, __p, __beg, __end); }
3620:/usr/include/c++/5/bits/basic_string.h **** 
3621:/usr/include/c++/5/bits/basic_string.h **** #if __cplusplus >= 201103L
3622:/usr/include/c++/5/bits/basic_string.h ****       /**
GAS LISTING /tmp/ccGYUW7A.s 			page 137


3623:/usr/include/c++/5/bits/basic_string.h ****        *  @brief  Insert an initializer_list of characters.
3624:/usr/include/c++/5/bits/basic_string.h ****        *  @param __p  Iterator referencing location in string to insert at.
3625:/usr/include/c++/5/bits/basic_string.h ****        *  @param __l  The initializer_list of characters to insert.
3626:/usr/include/c++/5/bits/basic_string.h ****        *  @throw  std::length_error  If new length exceeds @c max_size().
3627:/usr/include/c++/5/bits/basic_string.h ****        */
3628:/usr/include/c++/5/bits/basic_string.h ****       void
3629:/usr/include/c++/5/bits/basic_string.h ****       insert(iterator __p, initializer_list<_CharT> __l)
3630:/usr/include/c++/5/bits/basic_string.h ****       {
3631:/usr/include/c++/5/bits/basic_string.h **** 	_GLIBCXX_DEBUG_PEDASSERT(__p >= _M_ibegin() && __p <= _M_iend());
3632:/usr/include/c++/5/bits/basic_string.h **** 	this->insert(__p - _M_ibegin(), __l.begin(), __l.size());
3633:/usr/include/c++/5/bits/basic_string.h ****       }
3634:/usr/include/c++/5/bits/basic_string.h **** #endif // C++11
3635:/usr/include/c++/5/bits/basic_string.h **** 
3636:/usr/include/c++/5/bits/basic_string.h ****       /**
3637:/usr/include/c++/5/bits/basic_string.h ****        *  @brief  Insert value of a string.
3638:/usr/include/c++/5/bits/basic_string.h ****        *  @param __pos1  Iterator referencing location in string to insert at.
3639:/usr/include/c++/5/bits/basic_string.h ****        *  @param __str  The string to insert.
3640:/usr/include/c++/5/bits/basic_string.h ****        *  @return  Reference to this string.
3641:/usr/include/c++/5/bits/basic_string.h ****        *  @throw  std::length_error  If new length exceeds @c max_size().
3642:/usr/include/c++/5/bits/basic_string.h ****        *
3643:/usr/include/c++/5/bits/basic_string.h ****        *  Inserts value of @a __str starting at @a __pos1.  If adding
3644:/usr/include/c++/5/bits/basic_string.h ****        *  characters causes the length to exceed max_size(),
3645:/usr/include/c++/5/bits/basic_string.h ****        *  length_error is thrown.  The value of the string doesn't
3646:/usr/include/c++/5/bits/basic_string.h ****        *  change if an error is thrown.
3647:/usr/include/c++/5/bits/basic_string.h ****       */
3648:/usr/include/c++/5/bits/basic_string.h ****       basic_string&
3649:/usr/include/c++/5/bits/basic_string.h ****       insert(size_type __pos1, const basic_string& __str)
3650:/usr/include/c++/5/bits/basic_string.h ****       { return this->insert(__pos1, __str, size_type(0), __str.size()); }
3651:/usr/include/c++/5/bits/basic_string.h **** 
3652:/usr/include/c++/5/bits/basic_string.h ****       /**
3653:/usr/include/c++/5/bits/basic_string.h ****        *  @brief  Insert a substring.
3654:/usr/include/c++/5/bits/basic_string.h ****        *  @param __pos1  Iterator referencing location in string to insert at.
3655:/usr/include/c++/5/bits/basic_string.h ****        *  @param __str  The string to insert.
3656:/usr/include/c++/5/bits/basic_string.h ****        *  @param __pos2  Start of characters in str to insert.
3657:/usr/include/c++/5/bits/basic_string.h ****        *  @param __n  Number of characters to insert.
3658:/usr/include/c++/5/bits/basic_string.h ****        *  @return  Reference to this string.
3659:/usr/include/c++/5/bits/basic_string.h ****        *  @throw  std::length_error  If new length exceeds @c max_size().
3660:/usr/include/c++/5/bits/basic_string.h ****        *  @throw  std::out_of_range  If @a pos1 > size() or
3661:/usr/include/c++/5/bits/basic_string.h ****        *  @a __pos2 > @a str.size().
3662:/usr/include/c++/5/bits/basic_string.h ****        *
3663:/usr/include/c++/5/bits/basic_string.h ****        *  Starting at @a pos1, insert @a __n character of @a __str
3664:/usr/include/c++/5/bits/basic_string.h ****        *  beginning with @a __pos2.  If adding characters causes the
3665:/usr/include/c++/5/bits/basic_string.h ****        *  length to exceed max_size(), length_error is thrown.  If @a
3666:/usr/include/c++/5/bits/basic_string.h ****        *  __pos1 is beyond the end of this string or @a __pos2 is
3667:/usr/include/c++/5/bits/basic_string.h ****        *  beyond the end of @a __str, out_of_range is thrown.  The
3668:/usr/include/c++/5/bits/basic_string.h ****        *  value of the string doesn't change if an error is thrown.
3669:/usr/include/c++/5/bits/basic_string.h ****       */
3670:/usr/include/c++/5/bits/basic_string.h ****       basic_string&
3671:/usr/include/c++/5/bits/basic_string.h ****       insert(size_type __pos1, const basic_string& __str,
3672:/usr/include/c++/5/bits/basic_string.h **** 	     size_type __pos2, size_type __n)
3673:/usr/include/c++/5/bits/basic_string.h ****       { return this->insert(__pos1, __str._M_data()
3674:/usr/include/c++/5/bits/basic_string.h **** 			    + __str._M_check(__pos2, "basic_string::insert"),
3675:/usr/include/c++/5/bits/basic_string.h **** 			    __str._M_limit(__pos2, __n)); }
3676:/usr/include/c++/5/bits/basic_string.h **** 
3677:/usr/include/c++/5/bits/basic_string.h ****       /**
3678:/usr/include/c++/5/bits/basic_string.h ****        *  @brief  Insert a C substring.
3679:/usr/include/c++/5/bits/basic_string.h ****        *  @param __pos  Iterator referencing location in string to insert at.
GAS LISTING /tmp/ccGYUW7A.s 			page 138


3680:/usr/include/c++/5/bits/basic_string.h ****        *  @param __s  The C string to insert.
3681:/usr/include/c++/5/bits/basic_string.h ****        *  @param __n  The number of characters to insert.
3682:/usr/include/c++/5/bits/basic_string.h ****        *  @return  Reference to this string.
3683:/usr/include/c++/5/bits/basic_string.h ****        *  @throw  std::length_error  If new length exceeds @c max_size().
3684:/usr/include/c++/5/bits/basic_string.h ****        *  @throw  std::out_of_range  If @a __pos is beyond the end of this
3685:/usr/include/c++/5/bits/basic_string.h ****        *  string.
3686:/usr/include/c++/5/bits/basic_string.h ****        *
3687:/usr/include/c++/5/bits/basic_string.h ****        *  Inserts the first @a __n characters of @a __s starting at @a
3688:/usr/include/c++/5/bits/basic_string.h ****        *  __pos.  If adding characters causes the length to exceed
3689:/usr/include/c++/5/bits/basic_string.h ****        *  max_size(), length_error is thrown.  If @a __pos is beyond
3690:/usr/include/c++/5/bits/basic_string.h ****        *  end(), out_of_range is thrown.  The value of the string
3691:/usr/include/c++/5/bits/basic_string.h ****        *  doesn't change if an error is thrown.
3692:/usr/include/c++/5/bits/basic_string.h ****       */
3693:/usr/include/c++/5/bits/basic_string.h ****       basic_string&
3694:/usr/include/c++/5/bits/basic_string.h ****       insert(size_type __pos, const _CharT* __s, size_type __n);
3695:/usr/include/c++/5/bits/basic_string.h **** 
3696:/usr/include/c++/5/bits/basic_string.h ****       /**
3697:/usr/include/c++/5/bits/basic_string.h ****        *  @brief  Insert a C string.
3698:/usr/include/c++/5/bits/basic_string.h ****        *  @param __pos  Iterator referencing location in string to insert at.
3699:/usr/include/c++/5/bits/basic_string.h ****        *  @param __s  The C string to insert.
3700:/usr/include/c++/5/bits/basic_string.h ****        *  @return  Reference to this string.
3701:/usr/include/c++/5/bits/basic_string.h ****        *  @throw  std::length_error  If new length exceeds @c max_size().
3702:/usr/include/c++/5/bits/basic_string.h ****        *  @throw  std::out_of_range  If @a pos is beyond the end of this
3703:/usr/include/c++/5/bits/basic_string.h ****        *  string.
3704:/usr/include/c++/5/bits/basic_string.h ****        *
3705:/usr/include/c++/5/bits/basic_string.h ****        *  Inserts the first @a n characters of @a __s starting at @a __pos.  If
3706:/usr/include/c++/5/bits/basic_string.h ****        *  adding characters causes the length to exceed max_size(),
3707:/usr/include/c++/5/bits/basic_string.h ****        *  length_error is thrown.  If @a __pos is beyond end(), out_of_range is
3708:/usr/include/c++/5/bits/basic_string.h ****        *  thrown.  The value of the string doesn't change if an error is
3709:/usr/include/c++/5/bits/basic_string.h ****        *  thrown.
3710:/usr/include/c++/5/bits/basic_string.h ****       */
3711:/usr/include/c++/5/bits/basic_string.h ****       basic_string&
3712:/usr/include/c++/5/bits/basic_string.h ****       insert(size_type __pos, const _CharT* __s)
3713:/usr/include/c++/5/bits/basic_string.h ****       {
3714:/usr/include/c++/5/bits/basic_string.h **** 	__glibcxx_requires_string(__s);
3715:/usr/include/c++/5/bits/basic_string.h **** 	return this->insert(__pos, __s, traits_type::length(__s));
3716:/usr/include/c++/5/bits/basic_string.h ****       }
3717:/usr/include/c++/5/bits/basic_string.h **** 
3718:/usr/include/c++/5/bits/basic_string.h ****       /**
3719:/usr/include/c++/5/bits/basic_string.h ****        *  @brief  Insert multiple characters.
3720:/usr/include/c++/5/bits/basic_string.h ****        *  @param __pos  Index in string to insert at.
3721:/usr/include/c++/5/bits/basic_string.h ****        *  @param __n  Number of characters to insert
3722:/usr/include/c++/5/bits/basic_string.h ****        *  @param __c  The character to insert.
3723:/usr/include/c++/5/bits/basic_string.h ****        *  @return  Reference to this string.
3724:/usr/include/c++/5/bits/basic_string.h ****        *  @throw  std::length_error  If new length exceeds @c max_size().
3725:/usr/include/c++/5/bits/basic_string.h ****        *  @throw  std::out_of_range  If @a __pos is beyond the end of this
3726:/usr/include/c++/5/bits/basic_string.h ****        *  string.
3727:/usr/include/c++/5/bits/basic_string.h ****        *
3728:/usr/include/c++/5/bits/basic_string.h ****        *  Inserts @a __n copies of character @a __c starting at index
3729:/usr/include/c++/5/bits/basic_string.h ****        *  @a __pos.  If adding characters causes the length to exceed
3730:/usr/include/c++/5/bits/basic_string.h ****        *  max_size(), length_error is thrown.  If @a __pos > length(),
3731:/usr/include/c++/5/bits/basic_string.h ****        *  out_of_range is thrown.  The value of the string doesn't
3732:/usr/include/c++/5/bits/basic_string.h ****        *  change if an error is thrown.
3733:/usr/include/c++/5/bits/basic_string.h ****       */
3734:/usr/include/c++/5/bits/basic_string.h ****       basic_string&
3735:/usr/include/c++/5/bits/basic_string.h ****       insert(size_type __pos, size_type __n, _CharT __c)
3736:/usr/include/c++/5/bits/basic_string.h ****       { return _M_replace_aux(_M_check(__pos, "basic_string::insert"),
GAS LISTING /tmp/ccGYUW7A.s 			page 139


3737:/usr/include/c++/5/bits/basic_string.h **** 			      size_type(0), __n, __c); }
3738:/usr/include/c++/5/bits/basic_string.h **** 
3739:/usr/include/c++/5/bits/basic_string.h ****       /**
3740:/usr/include/c++/5/bits/basic_string.h ****        *  @brief  Insert one character.
3741:/usr/include/c++/5/bits/basic_string.h ****        *  @param __p  Iterator referencing position in string to insert at.
3742:/usr/include/c++/5/bits/basic_string.h ****        *  @param __c  The character to insert.
3743:/usr/include/c++/5/bits/basic_string.h ****        *  @return  Iterator referencing newly inserted char.
3744:/usr/include/c++/5/bits/basic_string.h ****        *  @throw  std::length_error  If new length exceeds @c max_size().
3745:/usr/include/c++/5/bits/basic_string.h ****        *
3746:/usr/include/c++/5/bits/basic_string.h ****        *  Inserts character @a __c at position referenced by @a __p.
3747:/usr/include/c++/5/bits/basic_string.h ****        *  If adding character causes the length to exceed max_size(),
3748:/usr/include/c++/5/bits/basic_string.h ****        *  length_error is thrown.  If @a __p is beyond end of string,
3749:/usr/include/c++/5/bits/basic_string.h ****        *  out_of_range is thrown.  The value of the string doesn't
3750:/usr/include/c++/5/bits/basic_string.h ****        *  change if an error is thrown.
3751:/usr/include/c++/5/bits/basic_string.h ****       */
3752:/usr/include/c++/5/bits/basic_string.h ****       iterator
3753:/usr/include/c++/5/bits/basic_string.h ****       insert(iterator __p, _CharT __c)
3754:/usr/include/c++/5/bits/basic_string.h ****       {
3755:/usr/include/c++/5/bits/basic_string.h **** 	_GLIBCXX_DEBUG_PEDASSERT(__p >= _M_ibegin() && __p <= _M_iend());
3756:/usr/include/c++/5/bits/basic_string.h **** 	const size_type __pos = __p - _M_ibegin();
3757:/usr/include/c++/5/bits/basic_string.h **** 	_M_replace_aux(__pos, size_type(0), size_type(1), __c);
3758:/usr/include/c++/5/bits/basic_string.h **** 	_M_rep()->_M_set_leaked();
3759:/usr/include/c++/5/bits/basic_string.h **** 	return iterator(_M_data() + __pos);
3760:/usr/include/c++/5/bits/basic_string.h ****       }
3761:/usr/include/c++/5/bits/basic_string.h **** 
3762:/usr/include/c++/5/bits/basic_string.h ****       /**
3763:/usr/include/c++/5/bits/basic_string.h ****        *  @brief  Remove characters.
3764:/usr/include/c++/5/bits/basic_string.h ****        *  @param __pos  Index of first character to remove (default 0).
3765:/usr/include/c++/5/bits/basic_string.h ****        *  @param __n  Number of characters to remove (default remainder).
3766:/usr/include/c++/5/bits/basic_string.h ****        *  @return  Reference to this string.
3767:/usr/include/c++/5/bits/basic_string.h ****        *  @throw  std::out_of_range  If @a pos is beyond the end of this
3768:/usr/include/c++/5/bits/basic_string.h ****        *  string.
3769:/usr/include/c++/5/bits/basic_string.h ****        *
3770:/usr/include/c++/5/bits/basic_string.h ****        *  Removes @a __n characters from this string starting at @a
3771:/usr/include/c++/5/bits/basic_string.h ****        *  __pos.  The length of the string is reduced by @a __n.  If
3772:/usr/include/c++/5/bits/basic_string.h ****        *  there are < @a __n characters to remove, the remainder of
3773:/usr/include/c++/5/bits/basic_string.h ****        *  the string is truncated.  If @a __p is beyond end of string,
3774:/usr/include/c++/5/bits/basic_string.h ****        *  out_of_range is thrown.  The value of the string doesn't
3775:/usr/include/c++/5/bits/basic_string.h ****        *  change if an error is thrown.
3776:/usr/include/c++/5/bits/basic_string.h ****       */
3777:/usr/include/c++/5/bits/basic_string.h ****       basic_string&
3778:/usr/include/c++/5/bits/basic_string.h ****       erase(size_type __pos = 0, size_type __n = npos)
3779:/usr/include/c++/5/bits/basic_string.h ****       { 
3780:/usr/include/c++/5/bits/basic_string.h **** 	_M_mutate(_M_check(__pos, "basic_string::erase"),
3781:/usr/include/c++/5/bits/basic_string.h **** 		  _M_limit(__pos, __n), size_type(0));
3782:/usr/include/c++/5/bits/basic_string.h **** 	return *this;
3783:/usr/include/c++/5/bits/basic_string.h ****       }
3784:/usr/include/c++/5/bits/basic_string.h **** 
3785:/usr/include/c++/5/bits/basic_string.h ****       /**
3786:/usr/include/c++/5/bits/basic_string.h ****        *  @brief  Remove one character.
3787:/usr/include/c++/5/bits/basic_string.h ****        *  @param __position  Iterator referencing the character to remove.
3788:/usr/include/c++/5/bits/basic_string.h ****        *  @return  iterator referencing same location after removal.
3789:/usr/include/c++/5/bits/basic_string.h ****        *
3790:/usr/include/c++/5/bits/basic_string.h ****        *  Removes the character at @a __position from this string. The value
3791:/usr/include/c++/5/bits/basic_string.h ****        *  of the string doesn't change if an error is thrown.
3792:/usr/include/c++/5/bits/basic_string.h ****       */
3793:/usr/include/c++/5/bits/basic_string.h ****       iterator
GAS LISTING /tmp/ccGYUW7A.s 			page 140


3794:/usr/include/c++/5/bits/basic_string.h ****       erase(iterator __position)
3795:/usr/include/c++/5/bits/basic_string.h ****       {
3796:/usr/include/c++/5/bits/basic_string.h **** 	_GLIBCXX_DEBUG_PEDASSERT(__position >= _M_ibegin()
3797:/usr/include/c++/5/bits/basic_string.h **** 				 && __position < _M_iend());
3798:/usr/include/c++/5/bits/basic_string.h **** 	const size_type __pos = __position - _M_ibegin();
3799:/usr/include/c++/5/bits/basic_string.h **** 	_M_mutate(__pos, size_type(1), size_type(0));
3800:/usr/include/c++/5/bits/basic_string.h **** 	_M_rep()->_M_set_leaked();
3801:/usr/include/c++/5/bits/basic_string.h **** 	return iterator(_M_data() + __pos);
3802:/usr/include/c++/5/bits/basic_string.h ****       }
3803:/usr/include/c++/5/bits/basic_string.h **** 
3804:/usr/include/c++/5/bits/basic_string.h ****       /**
3805:/usr/include/c++/5/bits/basic_string.h ****        *  @brief  Remove a range of characters.
3806:/usr/include/c++/5/bits/basic_string.h ****        *  @param __first  Iterator referencing the first character to remove.
3807:/usr/include/c++/5/bits/basic_string.h ****        *  @param __last  Iterator referencing the end of the range.
3808:/usr/include/c++/5/bits/basic_string.h ****        *  @return  Iterator referencing location of first after removal.
3809:/usr/include/c++/5/bits/basic_string.h ****        *
3810:/usr/include/c++/5/bits/basic_string.h ****        *  Removes the characters in the range [first,last) from this string.
3811:/usr/include/c++/5/bits/basic_string.h ****        *  The value of the string doesn't change if an error is thrown.
3812:/usr/include/c++/5/bits/basic_string.h ****       */
3813:/usr/include/c++/5/bits/basic_string.h ****       iterator
3814:/usr/include/c++/5/bits/basic_string.h ****       erase(iterator __first, iterator __last);
3815:/usr/include/c++/5/bits/basic_string.h ****  
3816:/usr/include/c++/5/bits/basic_string.h **** #if __cplusplus >= 201103L
3817:/usr/include/c++/5/bits/basic_string.h ****       /**
3818:/usr/include/c++/5/bits/basic_string.h ****        *  @brief  Remove the last character.
3819:/usr/include/c++/5/bits/basic_string.h ****        *
3820:/usr/include/c++/5/bits/basic_string.h ****        *  The string must be non-empty.
3821:/usr/include/c++/5/bits/basic_string.h ****        */
3822:/usr/include/c++/5/bits/basic_string.h ****       void
3823:/usr/include/c++/5/bits/basic_string.h ****       pop_back() // FIXME C++11: should be noexcept.
3824:/usr/include/c++/5/bits/basic_string.h ****       { erase(size()-1, 1); }
3825:/usr/include/c++/5/bits/basic_string.h **** #endif // C++11
3826:/usr/include/c++/5/bits/basic_string.h **** 
3827:/usr/include/c++/5/bits/basic_string.h ****       /**
3828:/usr/include/c++/5/bits/basic_string.h ****        *  @brief  Replace characters with value from another string.
3829:/usr/include/c++/5/bits/basic_string.h ****        *  @param __pos  Index of first character to replace.
3830:/usr/include/c++/5/bits/basic_string.h ****        *  @param __n  Number of characters to be replaced.
3831:/usr/include/c++/5/bits/basic_string.h ****        *  @param __str  String to insert.
3832:/usr/include/c++/5/bits/basic_string.h ****        *  @return  Reference to this string.
3833:/usr/include/c++/5/bits/basic_string.h ****        *  @throw  std::out_of_range  If @a pos is beyond the end of this
3834:/usr/include/c++/5/bits/basic_string.h ****        *  string.
3835:/usr/include/c++/5/bits/basic_string.h ****        *  @throw  std::length_error  If new length exceeds @c max_size().
3836:/usr/include/c++/5/bits/basic_string.h ****        *
3837:/usr/include/c++/5/bits/basic_string.h ****        *  Removes the characters in the range [__pos,__pos+__n) from
3838:/usr/include/c++/5/bits/basic_string.h ****        *  this string.  In place, the value of @a __str is inserted.
3839:/usr/include/c++/5/bits/basic_string.h ****        *  If @a __pos is beyond end of string, out_of_range is thrown.
3840:/usr/include/c++/5/bits/basic_string.h ****        *  If the length of the result exceeds max_size(), length_error
3841:/usr/include/c++/5/bits/basic_string.h ****        *  is thrown.  The value of the string doesn't change if an
3842:/usr/include/c++/5/bits/basic_string.h ****        *  error is thrown.
3843:/usr/include/c++/5/bits/basic_string.h ****       */
3844:/usr/include/c++/5/bits/basic_string.h ****       basic_string&
3845:/usr/include/c++/5/bits/basic_string.h ****       replace(size_type __pos, size_type __n, const basic_string& __str)
3846:/usr/include/c++/5/bits/basic_string.h ****       { return this->replace(__pos, __n, __str._M_data(), __str.size()); }
3847:/usr/include/c++/5/bits/basic_string.h **** 
3848:/usr/include/c++/5/bits/basic_string.h ****       /**
3849:/usr/include/c++/5/bits/basic_string.h ****        *  @brief  Replace characters with value from another string.
3850:/usr/include/c++/5/bits/basic_string.h ****        *  @param __pos1  Index of first character to replace.
GAS LISTING /tmp/ccGYUW7A.s 			page 141


3851:/usr/include/c++/5/bits/basic_string.h ****        *  @param __n1  Number of characters to be replaced.
3852:/usr/include/c++/5/bits/basic_string.h ****        *  @param __str  String to insert.
3853:/usr/include/c++/5/bits/basic_string.h ****        *  @param __pos2  Index of first character of str to use.
3854:/usr/include/c++/5/bits/basic_string.h ****        *  @param __n2  Number of characters from str to use.
3855:/usr/include/c++/5/bits/basic_string.h ****        *  @return  Reference to this string.
3856:/usr/include/c++/5/bits/basic_string.h ****        *  @throw  std::out_of_range  If @a __pos1 > size() or @a __pos2 >
3857:/usr/include/c++/5/bits/basic_string.h ****        *  __str.size().
3858:/usr/include/c++/5/bits/basic_string.h ****        *  @throw  std::length_error  If new length exceeds @c max_size().
3859:/usr/include/c++/5/bits/basic_string.h ****        *
3860:/usr/include/c++/5/bits/basic_string.h ****        *  Removes the characters in the range [__pos1,__pos1 + n) from this
3861:/usr/include/c++/5/bits/basic_string.h ****        *  string.  In place, the value of @a __str is inserted.  If @a __pos is
3862:/usr/include/c++/5/bits/basic_string.h ****        *  beyond end of string, out_of_range is thrown.  If the length of the
3863:/usr/include/c++/5/bits/basic_string.h ****        *  result exceeds max_size(), length_error is thrown.  The value of the
3864:/usr/include/c++/5/bits/basic_string.h ****        *  string doesn't change if an error is thrown.
3865:/usr/include/c++/5/bits/basic_string.h ****       */
3866:/usr/include/c++/5/bits/basic_string.h ****       basic_string&
3867:/usr/include/c++/5/bits/basic_string.h ****       replace(size_type __pos1, size_type __n1, const basic_string& __str,
3868:/usr/include/c++/5/bits/basic_string.h **** 	      size_type __pos2, size_type __n2)
3869:/usr/include/c++/5/bits/basic_string.h ****       { return this->replace(__pos1, __n1, __str._M_data()
3870:/usr/include/c++/5/bits/basic_string.h **** 			     + __str._M_check(__pos2, "basic_string::replace"),
3871:/usr/include/c++/5/bits/basic_string.h **** 			     __str._M_limit(__pos2, __n2)); }
3872:/usr/include/c++/5/bits/basic_string.h **** 
3873:/usr/include/c++/5/bits/basic_string.h ****       /**
3874:/usr/include/c++/5/bits/basic_string.h ****        *  @brief  Replace characters with value of a C substring.
3875:/usr/include/c++/5/bits/basic_string.h ****        *  @param __pos  Index of first character to replace.
3876:/usr/include/c++/5/bits/basic_string.h ****        *  @param __n1  Number of characters to be replaced.
3877:/usr/include/c++/5/bits/basic_string.h ****        *  @param __s  C string to insert.
3878:/usr/include/c++/5/bits/basic_string.h ****        *  @param __n2  Number of characters from @a s to use.
3879:/usr/include/c++/5/bits/basic_string.h ****        *  @return  Reference to this string.
3880:/usr/include/c++/5/bits/basic_string.h ****        *  @throw  std::out_of_range  If @a pos1 > size().
3881:/usr/include/c++/5/bits/basic_string.h ****        *  @throw  std::length_error  If new length exceeds @c max_size().
3882:/usr/include/c++/5/bits/basic_string.h ****        *
3883:/usr/include/c++/5/bits/basic_string.h ****        *  Removes the characters in the range [__pos,__pos + __n1)
3884:/usr/include/c++/5/bits/basic_string.h ****        *  from this string.  In place, the first @a __n2 characters of
3885:/usr/include/c++/5/bits/basic_string.h ****        *  @a __s are inserted, or all of @a __s if @a __n2 is too large.  If
3886:/usr/include/c++/5/bits/basic_string.h ****        *  @a __pos is beyond end of string, out_of_range is thrown.  If
3887:/usr/include/c++/5/bits/basic_string.h ****        *  the length of result exceeds max_size(), length_error is
3888:/usr/include/c++/5/bits/basic_string.h ****        *  thrown.  The value of the string doesn't change if an error
3889:/usr/include/c++/5/bits/basic_string.h ****        *  is thrown.
3890:/usr/include/c++/5/bits/basic_string.h ****       */
3891:/usr/include/c++/5/bits/basic_string.h ****       basic_string&
3892:/usr/include/c++/5/bits/basic_string.h ****       replace(size_type __pos, size_type __n1, const _CharT* __s,
3893:/usr/include/c++/5/bits/basic_string.h **** 	      size_type __n2);
3894:/usr/include/c++/5/bits/basic_string.h **** 
3895:/usr/include/c++/5/bits/basic_string.h ****       /**
3896:/usr/include/c++/5/bits/basic_string.h ****        *  @brief  Replace characters with value of a C string.
3897:/usr/include/c++/5/bits/basic_string.h ****        *  @param __pos  Index of first character to replace.
3898:/usr/include/c++/5/bits/basic_string.h ****        *  @param __n1  Number of characters to be replaced.
3899:/usr/include/c++/5/bits/basic_string.h ****        *  @param __s  C string to insert.
3900:/usr/include/c++/5/bits/basic_string.h ****        *  @return  Reference to this string.
3901:/usr/include/c++/5/bits/basic_string.h ****        *  @throw  std::out_of_range  If @a pos > size().
3902:/usr/include/c++/5/bits/basic_string.h ****        *  @throw  std::length_error  If new length exceeds @c max_size().
3903:/usr/include/c++/5/bits/basic_string.h ****        *
3904:/usr/include/c++/5/bits/basic_string.h ****        *  Removes the characters in the range [__pos,__pos + __n1)
3905:/usr/include/c++/5/bits/basic_string.h ****        *  from this string.  In place, the characters of @a __s are
3906:/usr/include/c++/5/bits/basic_string.h ****        *  inserted.  If @a __pos is beyond end of string, out_of_range
3907:/usr/include/c++/5/bits/basic_string.h ****        *  is thrown.  If the length of result exceeds max_size(),
GAS LISTING /tmp/ccGYUW7A.s 			page 142


3908:/usr/include/c++/5/bits/basic_string.h ****        *  length_error is thrown.  The value of the string doesn't
3909:/usr/include/c++/5/bits/basic_string.h ****        *  change if an error is thrown.
3910:/usr/include/c++/5/bits/basic_string.h ****       */
3911:/usr/include/c++/5/bits/basic_string.h ****       basic_string&
3912:/usr/include/c++/5/bits/basic_string.h ****       replace(size_type __pos, size_type __n1, const _CharT* __s)
3913:/usr/include/c++/5/bits/basic_string.h ****       {
3914:/usr/include/c++/5/bits/basic_string.h **** 	__glibcxx_requires_string(__s);
3915:/usr/include/c++/5/bits/basic_string.h **** 	return this->replace(__pos, __n1, __s, traits_type::length(__s));
3916:/usr/include/c++/5/bits/basic_string.h ****       }
3917:/usr/include/c++/5/bits/basic_string.h **** 
3918:/usr/include/c++/5/bits/basic_string.h ****       /**
3919:/usr/include/c++/5/bits/basic_string.h ****        *  @brief  Replace characters with multiple characters.
3920:/usr/include/c++/5/bits/basic_string.h ****        *  @param __pos  Index of first character to replace.
3921:/usr/include/c++/5/bits/basic_string.h ****        *  @param __n1  Number of characters to be replaced.
3922:/usr/include/c++/5/bits/basic_string.h ****        *  @param __n2  Number of characters to insert.
3923:/usr/include/c++/5/bits/basic_string.h ****        *  @param __c  Character to insert.
3924:/usr/include/c++/5/bits/basic_string.h ****        *  @return  Reference to this string.
3925:/usr/include/c++/5/bits/basic_string.h ****        *  @throw  std::out_of_range  If @a __pos > size().
3926:/usr/include/c++/5/bits/basic_string.h ****        *  @throw  std::length_error  If new length exceeds @c max_size().
3927:/usr/include/c++/5/bits/basic_string.h ****        *
3928:/usr/include/c++/5/bits/basic_string.h ****        *  Removes the characters in the range [pos,pos + n1) from this
3929:/usr/include/c++/5/bits/basic_string.h ****        *  string.  In place, @a __n2 copies of @a __c are inserted.
3930:/usr/include/c++/5/bits/basic_string.h ****        *  If @a __pos is beyond end of string, out_of_range is thrown.
3931:/usr/include/c++/5/bits/basic_string.h ****        *  If the length of result exceeds max_size(), length_error is
3932:/usr/include/c++/5/bits/basic_string.h ****        *  thrown.  The value of the string doesn't change if an error
3933:/usr/include/c++/5/bits/basic_string.h ****        *  is thrown.
3934:/usr/include/c++/5/bits/basic_string.h ****       */
3935:/usr/include/c++/5/bits/basic_string.h ****       basic_string&
3936:/usr/include/c++/5/bits/basic_string.h ****       replace(size_type __pos, size_type __n1, size_type __n2, _CharT __c)
3937:/usr/include/c++/5/bits/basic_string.h ****       { return _M_replace_aux(_M_check(__pos, "basic_string::replace"),
3938:/usr/include/c++/5/bits/basic_string.h **** 			      _M_limit(__pos, __n1), __n2, __c); }
3939:/usr/include/c++/5/bits/basic_string.h **** 
3940:/usr/include/c++/5/bits/basic_string.h ****       /**
3941:/usr/include/c++/5/bits/basic_string.h ****        *  @brief  Replace range of characters with string.
3942:/usr/include/c++/5/bits/basic_string.h ****        *  @param __i1  Iterator referencing start of range to replace.
3943:/usr/include/c++/5/bits/basic_string.h ****        *  @param __i2  Iterator referencing end of range to replace.
3944:/usr/include/c++/5/bits/basic_string.h ****        *  @param __str  String value to insert.
3945:/usr/include/c++/5/bits/basic_string.h ****        *  @return  Reference to this string.
3946:/usr/include/c++/5/bits/basic_string.h ****        *  @throw  std::length_error  If new length exceeds @c max_size().
3947:/usr/include/c++/5/bits/basic_string.h ****        *
3948:/usr/include/c++/5/bits/basic_string.h ****        *  Removes the characters in the range [__i1,__i2).  In place,
3949:/usr/include/c++/5/bits/basic_string.h ****        *  the value of @a __str is inserted.  If the length of result
3950:/usr/include/c++/5/bits/basic_string.h ****        *  exceeds max_size(), length_error is thrown.  The value of
3951:/usr/include/c++/5/bits/basic_string.h ****        *  the string doesn't change if an error is thrown.
3952:/usr/include/c++/5/bits/basic_string.h ****       */
3953:/usr/include/c++/5/bits/basic_string.h ****       basic_string&
3954:/usr/include/c++/5/bits/basic_string.h ****       replace(iterator __i1, iterator __i2, const basic_string& __str)
3955:/usr/include/c++/5/bits/basic_string.h ****       { return this->replace(__i1, __i2, __str._M_data(), __str.size()); }
3956:/usr/include/c++/5/bits/basic_string.h **** 
3957:/usr/include/c++/5/bits/basic_string.h ****       /**
3958:/usr/include/c++/5/bits/basic_string.h ****        *  @brief  Replace range of characters with C substring.
3959:/usr/include/c++/5/bits/basic_string.h ****        *  @param __i1  Iterator referencing start of range to replace.
3960:/usr/include/c++/5/bits/basic_string.h ****        *  @param __i2  Iterator referencing end of range to replace.
3961:/usr/include/c++/5/bits/basic_string.h ****        *  @param __s  C string value to insert.
3962:/usr/include/c++/5/bits/basic_string.h ****        *  @param __n  Number of characters from s to insert.
3963:/usr/include/c++/5/bits/basic_string.h ****        *  @return  Reference to this string.
3964:/usr/include/c++/5/bits/basic_string.h ****        *  @throw  std::length_error  If new length exceeds @c max_size().
GAS LISTING /tmp/ccGYUW7A.s 			page 143


3965:/usr/include/c++/5/bits/basic_string.h ****        *
3966:/usr/include/c++/5/bits/basic_string.h ****        *  Removes the characters in the range [__i1,__i2).  In place,
3967:/usr/include/c++/5/bits/basic_string.h ****        *  the first @a __n characters of @a __s are inserted.  If the
3968:/usr/include/c++/5/bits/basic_string.h ****        *  length of result exceeds max_size(), length_error is thrown.
3969:/usr/include/c++/5/bits/basic_string.h ****        *  The value of the string doesn't change if an error is
3970:/usr/include/c++/5/bits/basic_string.h ****        *  thrown.
3971:/usr/include/c++/5/bits/basic_string.h ****       */
3972:/usr/include/c++/5/bits/basic_string.h ****       basic_string&
3973:/usr/include/c++/5/bits/basic_string.h ****       replace(iterator __i1, iterator __i2, const _CharT* __s, size_type __n)
3974:/usr/include/c++/5/bits/basic_string.h ****       {
3975:/usr/include/c++/5/bits/basic_string.h **** 	_GLIBCXX_DEBUG_PEDASSERT(_M_ibegin() <= __i1 && __i1 <= __i2
3976:/usr/include/c++/5/bits/basic_string.h **** 				 && __i2 <= _M_iend());
3977:/usr/include/c++/5/bits/basic_string.h **** 	return this->replace(__i1 - _M_ibegin(), __i2 - __i1, __s, __n);
3978:/usr/include/c++/5/bits/basic_string.h ****       }
3979:/usr/include/c++/5/bits/basic_string.h **** 
3980:/usr/include/c++/5/bits/basic_string.h ****       /**
3981:/usr/include/c++/5/bits/basic_string.h ****        *  @brief  Replace range of characters with C string.
3982:/usr/include/c++/5/bits/basic_string.h ****        *  @param __i1  Iterator referencing start of range to replace.
3983:/usr/include/c++/5/bits/basic_string.h ****        *  @param __i2  Iterator referencing end of range to replace.
3984:/usr/include/c++/5/bits/basic_string.h ****        *  @param __s  C string value to insert.
3985:/usr/include/c++/5/bits/basic_string.h ****        *  @return  Reference to this string.
3986:/usr/include/c++/5/bits/basic_string.h ****        *  @throw  std::length_error  If new length exceeds @c max_size().
3987:/usr/include/c++/5/bits/basic_string.h ****        *
3988:/usr/include/c++/5/bits/basic_string.h ****        *  Removes the characters in the range [__i1,__i2).  In place,
3989:/usr/include/c++/5/bits/basic_string.h ****        *  the characters of @a __s are inserted.  If the length of
3990:/usr/include/c++/5/bits/basic_string.h ****        *  result exceeds max_size(), length_error is thrown.  The
3991:/usr/include/c++/5/bits/basic_string.h ****        *  value of the string doesn't change if an error is thrown.
3992:/usr/include/c++/5/bits/basic_string.h ****       */
3993:/usr/include/c++/5/bits/basic_string.h ****       basic_string&
3994:/usr/include/c++/5/bits/basic_string.h ****       replace(iterator __i1, iterator __i2, const _CharT* __s)
3995:/usr/include/c++/5/bits/basic_string.h ****       {
3996:/usr/include/c++/5/bits/basic_string.h **** 	__glibcxx_requires_string(__s);
3997:/usr/include/c++/5/bits/basic_string.h **** 	return this->replace(__i1, __i2, __s, traits_type::length(__s));
3998:/usr/include/c++/5/bits/basic_string.h ****       }
3999:/usr/include/c++/5/bits/basic_string.h **** 
4000:/usr/include/c++/5/bits/basic_string.h ****       /**
4001:/usr/include/c++/5/bits/basic_string.h ****        *  @brief  Replace range of characters with multiple characters
4002:/usr/include/c++/5/bits/basic_string.h ****        *  @param __i1  Iterator referencing start of range to replace.
4003:/usr/include/c++/5/bits/basic_string.h ****        *  @param __i2  Iterator referencing end of range to replace.
4004:/usr/include/c++/5/bits/basic_string.h ****        *  @param __n  Number of characters to insert.
4005:/usr/include/c++/5/bits/basic_string.h ****        *  @param __c  Character to insert.
4006:/usr/include/c++/5/bits/basic_string.h ****        *  @return  Reference to this string.
4007:/usr/include/c++/5/bits/basic_string.h ****        *  @throw  std::length_error  If new length exceeds @c max_size().
4008:/usr/include/c++/5/bits/basic_string.h ****        *
4009:/usr/include/c++/5/bits/basic_string.h ****        *  Removes the characters in the range [__i1,__i2).  In place,
4010:/usr/include/c++/5/bits/basic_string.h ****        *  @a __n copies of @a __c are inserted.  If the length of
4011:/usr/include/c++/5/bits/basic_string.h ****        *  result exceeds max_size(), length_error is thrown.  The
4012:/usr/include/c++/5/bits/basic_string.h ****        *  value of the string doesn't change if an error is thrown.
4013:/usr/include/c++/5/bits/basic_string.h ****       */
4014:/usr/include/c++/5/bits/basic_string.h ****       basic_string&
4015:/usr/include/c++/5/bits/basic_string.h ****       replace(iterator __i1, iterator __i2, size_type __n, _CharT __c)
4016:/usr/include/c++/5/bits/basic_string.h ****       {
4017:/usr/include/c++/5/bits/basic_string.h **** 	_GLIBCXX_DEBUG_PEDASSERT(_M_ibegin() <= __i1 && __i1 <= __i2
4018:/usr/include/c++/5/bits/basic_string.h **** 				 && __i2 <= _M_iend());
4019:/usr/include/c++/5/bits/basic_string.h **** 	return _M_replace_aux(__i1 - _M_ibegin(), __i2 - __i1, __n, __c);
4020:/usr/include/c++/5/bits/basic_string.h ****       }
4021:/usr/include/c++/5/bits/basic_string.h **** 
GAS LISTING /tmp/ccGYUW7A.s 			page 144


4022:/usr/include/c++/5/bits/basic_string.h ****       /**
4023:/usr/include/c++/5/bits/basic_string.h ****        *  @brief  Replace range of characters with range.
4024:/usr/include/c++/5/bits/basic_string.h ****        *  @param __i1  Iterator referencing start of range to replace.
4025:/usr/include/c++/5/bits/basic_string.h ****        *  @param __i2  Iterator referencing end of range to replace.
4026:/usr/include/c++/5/bits/basic_string.h ****        *  @param __k1  Iterator referencing start of range to insert.
4027:/usr/include/c++/5/bits/basic_string.h ****        *  @param __k2  Iterator referencing end of range to insert.
4028:/usr/include/c++/5/bits/basic_string.h ****        *  @return  Reference to this string.
4029:/usr/include/c++/5/bits/basic_string.h ****        *  @throw  std::length_error  If new length exceeds @c max_size().
4030:/usr/include/c++/5/bits/basic_string.h ****        *
4031:/usr/include/c++/5/bits/basic_string.h ****        *  Removes the characters in the range [__i1,__i2).  In place,
4032:/usr/include/c++/5/bits/basic_string.h ****        *  characters in the range [__k1,__k2) are inserted.  If the
4033:/usr/include/c++/5/bits/basic_string.h ****        *  length of result exceeds max_size(), length_error is thrown.
4034:/usr/include/c++/5/bits/basic_string.h ****        *  The value of the string doesn't change if an error is
4035:/usr/include/c++/5/bits/basic_string.h ****        *  thrown.
4036:/usr/include/c++/5/bits/basic_string.h ****       */
4037:/usr/include/c++/5/bits/basic_string.h ****       template<class _InputIterator>
4038:/usr/include/c++/5/bits/basic_string.h ****         basic_string&
4039:/usr/include/c++/5/bits/basic_string.h ****         replace(iterator __i1, iterator __i2,
4040:/usr/include/c++/5/bits/basic_string.h **** 		_InputIterator __k1, _InputIterator __k2)
4041:/usr/include/c++/5/bits/basic_string.h ****         {
4042:/usr/include/c++/5/bits/basic_string.h **** 	  _GLIBCXX_DEBUG_PEDASSERT(_M_ibegin() <= __i1 && __i1 <= __i2
4043:/usr/include/c++/5/bits/basic_string.h **** 				   && __i2 <= _M_iend());
4044:/usr/include/c++/5/bits/basic_string.h **** 	  __glibcxx_requires_valid_range(__k1, __k2);
4045:/usr/include/c++/5/bits/basic_string.h **** 	  typedef typename std::__is_integer<_InputIterator>::__type _Integral;
4046:/usr/include/c++/5/bits/basic_string.h **** 	  return _M_replace_dispatch(__i1, __i2, __k1, __k2, _Integral());
4047:/usr/include/c++/5/bits/basic_string.h **** 	}
4048:/usr/include/c++/5/bits/basic_string.h **** 
4049:/usr/include/c++/5/bits/basic_string.h ****       // Specializations for the common case of pointer and iterator:
4050:/usr/include/c++/5/bits/basic_string.h ****       // useful to avoid the overhead of temporary buffering in _M_replace.
4051:/usr/include/c++/5/bits/basic_string.h ****       basic_string&
4052:/usr/include/c++/5/bits/basic_string.h ****       replace(iterator __i1, iterator __i2, _CharT* __k1, _CharT* __k2)
4053:/usr/include/c++/5/bits/basic_string.h ****       {
4054:/usr/include/c++/5/bits/basic_string.h **** 	_GLIBCXX_DEBUG_PEDASSERT(_M_ibegin() <= __i1 && __i1 <= __i2
4055:/usr/include/c++/5/bits/basic_string.h **** 				 && __i2 <= _M_iend());
4056:/usr/include/c++/5/bits/basic_string.h **** 	__glibcxx_requires_valid_range(__k1, __k2);
4057:/usr/include/c++/5/bits/basic_string.h **** 	return this->replace(__i1 - _M_ibegin(), __i2 - __i1,
4058:/usr/include/c++/5/bits/basic_string.h **** 			     __k1, __k2 - __k1);
4059:/usr/include/c++/5/bits/basic_string.h ****       }
4060:/usr/include/c++/5/bits/basic_string.h **** 
4061:/usr/include/c++/5/bits/basic_string.h ****       basic_string&
4062:/usr/include/c++/5/bits/basic_string.h ****       replace(iterator __i1, iterator __i2,
4063:/usr/include/c++/5/bits/basic_string.h **** 	      const _CharT* __k1, const _CharT* __k2)
4064:/usr/include/c++/5/bits/basic_string.h ****       {
4065:/usr/include/c++/5/bits/basic_string.h **** 	_GLIBCXX_DEBUG_PEDASSERT(_M_ibegin() <= __i1 && __i1 <= __i2
4066:/usr/include/c++/5/bits/basic_string.h **** 				 && __i2 <= _M_iend());
4067:/usr/include/c++/5/bits/basic_string.h **** 	__glibcxx_requires_valid_range(__k1, __k2);
4068:/usr/include/c++/5/bits/basic_string.h **** 	return this->replace(__i1 - _M_ibegin(), __i2 - __i1,
4069:/usr/include/c++/5/bits/basic_string.h **** 			     __k1, __k2 - __k1);
4070:/usr/include/c++/5/bits/basic_string.h ****       }
4071:/usr/include/c++/5/bits/basic_string.h **** 
4072:/usr/include/c++/5/bits/basic_string.h ****       basic_string&
4073:/usr/include/c++/5/bits/basic_string.h ****       replace(iterator __i1, iterator __i2, iterator __k1, iterator __k2)
4074:/usr/include/c++/5/bits/basic_string.h ****       {
4075:/usr/include/c++/5/bits/basic_string.h **** 	_GLIBCXX_DEBUG_PEDASSERT(_M_ibegin() <= __i1 && __i1 <= __i2
4076:/usr/include/c++/5/bits/basic_string.h **** 				 && __i2 <= _M_iend());
4077:/usr/include/c++/5/bits/basic_string.h **** 	__glibcxx_requires_valid_range(__k1, __k2);
4078:/usr/include/c++/5/bits/basic_string.h **** 	return this->replace(__i1 - _M_ibegin(), __i2 - __i1,
GAS LISTING /tmp/ccGYUW7A.s 			page 145


4079:/usr/include/c++/5/bits/basic_string.h **** 			     __k1.base(), __k2 - __k1);
4080:/usr/include/c++/5/bits/basic_string.h ****       }
4081:/usr/include/c++/5/bits/basic_string.h **** 
4082:/usr/include/c++/5/bits/basic_string.h ****       basic_string&
4083:/usr/include/c++/5/bits/basic_string.h ****       replace(iterator __i1, iterator __i2,
4084:/usr/include/c++/5/bits/basic_string.h **** 	      const_iterator __k1, const_iterator __k2)
4085:/usr/include/c++/5/bits/basic_string.h ****       {
4086:/usr/include/c++/5/bits/basic_string.h **** 	_GLIBCXX_DEBUG_PEDASSERT(_M_ibegin() <= __i1 && __i1 <= __i2
4087:/usr/include/c++/5/bits/basic_string.h **** 				 && __i2 <= _M_iend());
4088:/usr/include/c++/5/bits/basic_string.h **** 	__glibcxx_requires_valid_range(__k1, __k2);
4089:/usr/include/c++/5/bits/basic_string.h **** 	return this->replace(__i1 - _M_ibegin(), __i2 - __i1,
4090:/usr/include/c++/5/bits/basic_string.h **** 			     __k1.base(), __k2 - __k1);
4091:/usr/include/c++/5/bits/basic_string.h ****       }
4092:/usr/include/c++/5/bits/basic_string.h ****       
4093:/usr/include/c++/5/bits/basic_string.h **** #if __cplusplus >= 201103L
4094:/usr/include/c++/5/bits/basic_string.h ****       /**
4095:/usr/include/c++/5/bits/basic_string.h ****        *  @brief  Replace range of characters with initializer_list.
4096:/usr/include/c++/5/bits/basic_string.h ****        *  @param __i1  Iterator referencing start of range to replace.
4097:/usr/include/c++/5/bits/basic_string.h ****        *  @param __i2  Iterator referencing end of range to replace.
4098:/usr/include/c++/5/bits/basic_string.h ****        *  @param __l  The initializer_list of characters to insert.
4099:/usr/include/c++/5/bits/basic_string.h ****        *  @return  Reference to this string.
4100:/usr/include/c++/5/bits/basic_string.h ****        *  @throw  std::length_error  If new length exceeds @c max_size().
4101:/usr/include/c++/5/bits/basic_string.h ****        *
4102:/usr/include/c++/5/bits/basic_string.h ****        *  Removes the characters in the range [__i1,__i2).  In place,
4103:/usr/include/c++/5/bits/basic_string.h ****        *  characters in the range [__k1,__k2) are inserted.  If the
4104:/usr/include/c++/5/bits/basic_string.h ****        *  length of result exceeds max_size(), length_error is thrown.
4105:/usr/include/c++/5/bits/basic_string.h ****        *  The value of the string doesn't change if an error is
4106:/usr/include/c++/5/bits/basic_string.h ****        *  thrown.
4107:/usr/include/c++/5/bits/basic_string.h ****       */
4108:/usr/include/c++/5/bits/basic_string.h ****       basic_string& replace(iterator __i1, iterator __i2,
4109:/usr/include/c++/5/bits/basic_string.h **** 			    initializer_list<_CharT> __l)
4110:/usr/include/c++/5/bits/basic_string.h ****       { return this->replace(__i1, __i2, __l.begin(), __l.end()); }
4111:/usr/include/c++/5/bits/basic_string.h **** #endif // C++11
4112:/usr/include/c++/5/bits/basic_string.h **** 
4113:/usr/include/c++/5/bits/basic_string.h ****     private:
4114:/usr/include/c++/5/bits/basic_string.h ****       template<class _Integer>
4115:/usr/include/c++/5/bits/basic_string.h **** 	basic_string&
4116:/usr/include/c++/5/bits/basic_string.h **** 	_M_replace_dispatch(iterator __i1, iterator __i2, _Integer __n,
4117:/usr/include/c++/5/bits/basic_string.h **** 			    _Integer __val, __true_type)
4118:/usr/include/c++/5/bits/basic_string.h ****         { return _M_replace_aux(__i1 - _M_ibegin(), __i2 - __i1, __n, __val); }
4119:/usr/include/c++/5/bits/basic_string.h **** 
4120:/usr/include/c++/5/bits/basic_string.h ****       template<class _InputIterator>
4121:/usr/include/c++/5/bits/basic_string.h **** 	basic_string&
4122:/usr/include/c++/5/bits/basic_string.h **** 	_M_replace_dispatch(iterator __i1, iterator __i2, _InputIterator __k1,
4123:/usr/include/c++/5/bits/basic_string.h **** 			    _InputIterator __k2, __false_type);
4124:/usr/include/c++/5/bits/basic_string.h **** 
4125:/usr/include/c++/5/bits/basic_string.h ****       basic_string&
4126:/usr/include/c++/5/bits/basic_string.h ****       _M_replace_aux(size_type __pos1, size_type __n1, size_type __n2,
4127:/usr/include/c++/5/bits/basic_string.h **** 		     _CharT __c);
4128:/usr/include/c++/5/bits/basic_string.h **** 
4129:/usr/include/c++/5/bits/basic_string.h ****       basic_string&
4130:/usr/include/c++/5/bits/basic_string.h ****       _M_replace_safe(size_type __pos1, size_type __n1, const _CharT* __s,
4131:/usr/include/c++/5/bits/basic_string.h **** 		      size_type __n2);
4132:/usr/include/c++/5/bits/basic_string.h **** 
4133:/usr/include/c++/5/bits/basic_string.h ****       // _S_construct_aux is used to implement the 21.3.1 para 15 which
4134:/usr/include/c++/5/bits/basic_string.h ****       // requires special behaviour if _InIter is an integral type
4135:/usr/include/c++/5/bits/basic_string.h ****       template<class _InIterator>
GAS LISTING /tmp/ccGYUW7A.s 			page 146


4136:/usr/include/c++/5/bits/basic_string.h ****         static _CharT*
4137:/usr/include/c++/5/bits/basic_string.h ****         _S_construct_aux(_InIterator __beg, _InIterator __end,
4138:/usr/include/c++/5/bits/basic_string.h **** 			 const _Alloc& __a, __false_type)
4139:/usr/include/c++/5/bits/basic_string.h **** 	{
4140:/usr/include/c++/5/bits/basic_string.h ****           typedef typename iterator_traits<_InIterator>::iterator_category _Tag;
4141:/usr/include/c++/5/bits/basic_string.h ****           return _S_construct(__beg, __end, __a, _Tag());
4142:/usr/include/c++/5/bits/basic_string.h **** 	}
4143:/usr/include/c++/5/bits/basic_string.h **** 
4144:/usr/include/c++/5/bits/basic_string.h ****       // _GLIBCXX_RESOLVE_LIB_DEFECTS
4145:/usr/include/c++/5/bits/basic_string.h ****       // 438. Ambiguity in the "do the right thing" clause
4146:/usr/include/c++/5/bits/basic_string.h ****       template<class _Integer>
4147:/usr/include/c++/5/bits/basic_string.h ****         static _CharT*
4148:/usr/include/c++/5/bits/basic_string.h ****         _S_construct_aux(_Integer __beg, _Integer __end,
4149:/usr/include/c++/5/bits/basic_string.h **** 			 const _Alloc& __a, __true_type)
4150:/usr/include/c++/5/bits/basic_string.h ****         { return _S_construct_aux_2(static_cast<size_type>(__beg),
4151:/usr/include/c++/5/bits/basic_string.h **** 				    __end, __a); }
4152:/usr/include/c++/5/bits/basic_string.h **** 
4153:/usr/include/c++/5/bits/basic_string.h ****       static _CharT*
4154:/usr/include/c++/5/bits/basic_string.h ****       _S_construct_aux_2(size_type __req, _CharT __c, const _Alloc& __a)
4155:/usr/include/c++/5/bits/basic_string.h ****       { return _S_construct(__req, __c, __a); }
4156:/usr/include/c++/5/bits/basic_string.h **** 
4157:/usr/include/c++/5/bits/basic_string.h ****       template<class _InIterator>
4158:/usr/include/c++/5/bits/basic_string.h ****         static _CharT*
4159:/usr/include/c++/5/bits/basic_string.h ****         _S_construct(_InIterator __beg, _InIterator __end, const _Alloc& __a)
4160:/usr/include/c++/5/bits/basic_string.h **** 	{
4161:/usr/include/c++/5/bits/basic_string.h **** 	  typedef typename std::__is_integer<_InIterator>::__type _Integral;
4162:/usr/include/c++/5/bits/basic_string.h **** 	  return _S_construct_aux(__beg, __end, __a, _Integral());
4163:/usr/include/c++/5/bits/basic_string.h ****         }
4164:/usr/include/c++/5/bits/basic_string.h **** 
4165:/usr/include/c++/5/bits/basic_string.h ****       // For Input Iterators, used in istreambuf_iterators, etc.
4166:/usr/include/c++/5/bits/basic_string.h ****       template<class _InIterator>
4167:/usr/include/c++/5/bits/basic_string.h ****         static _CharT*
4168:/usr/include/c++/5/bits/basic_string.h ****          _S_construct(_InIterator __beg, _InIterator __end, const _Alloc& __a,
4169:/usr/include/c++/5/bits/basic_string.h **** 		      input_iterator_tag);
4170:/usr/include/c++/5/bits/basic_string.h **** 
4171:/usr/include/c++/5/bits/basic_string.h ****       // For forward_iterators up to random_access_iterators, used for
4172:/usr/include/c++/5/bits/basic_string.h ****       // string::iterator, _CharT*, etc.
4173:/usr/include/c++/5/bits/basic_string.h ****       template<class _FwdIterator>
4174:/usr/include/c++/5/bits/basic_string.h ****         static _CharT*
4175:/usr/include/c++/5/bits/basic_string.h ****         _S_construct(_FwdIterator __beg, _FwdIterator __end, const _Alloc& __a,
4176:/usr/include/c++/5/bits/basic_string.h **** 		     forward_iterator_tag);
4177:/usr/include/c++/5/bits/basic_string.h **** 
4178:/usr/include/c++/5/bits/basic_string.h ****       static _CharT*
4179:/usr/include/c++/5/bits/basic_string.h ****       _S_construct(size_type __req, _CharT __c, const _Alloc& __a);
4180:/usr/include/c++/5/bits/basic_string.h **** 
4181:/usr/include/c++/5/bits/basic_string.h ****     public:
4182:/usr/include/c++/5/bits/basic_string.h **** 
4183:/usr/include/c++/5/bits/basic_string.h ****       /**
4184:/usr/include/c++/5/bits/basic_string.h ****        *  @brief  Copy substring into C string.
4185:/usr/include/c++/5/bits/basic_string.h ****        *  @param __s  C string to copy value into.
4186:/usr/include/c++/5/bits/basic_string.h ****        *  @param __n  Number of characters to copy.
4187:/usr/include/c++/5/bits/basic_string.h ****        *  @param __pos  Index of first character to copy.
4188:/usr/include/c++/5/bits/basic_string.h ****        *  @return  Number of characters actually copied
4189:/usr/include/c++/5/bits/basic_string.h ****        *  @throw  std::out_of_range  If __pos > size().
4190:/usr/include/c++/5/bits/basic_string.h ****        *
4191:/usr/include/c++/5/bits/basic_string.h ****        *  Copies up to @a __n characters starting at @a __pos into the
4192:/usr/include/c++/5/bits/basic_string.h ****        *  C string @a __s.  If @a __pos is %greater than size(),
GAS LISTING /tmp/ccGYUW7A.s 			page 147


4193:/usr/include/c++/5/bits/basic_string.h ****        *  out_of_range is thrown.
4194:/usr/include/c++/5/bits/basic_string.h ****       */
4195:/usr/include/c++/5/bits/basic_string.h ****       size_type
4196:/usr/include/c++/5/bits/basic_string.h ****       copy(_CharT* __s, size_type __n, size_type __pos = 0) const;
4197:/usr/include/c++/5/bits/basic_string.h **** 
4198:/usr/include/c++/5/bits/basic_string.h ****       /**
4199:/usr/include/c++/5/bits/basic_string.h ****        *  @brief  Swap contents with another string.
4200:/usr/include/c++/5/bits/basic_string.h ****        *  @param __s  String to swap with.
4201:/usr/include/c++/5/bits/basic_string.h ****        *
4202:/usr/include/c++/5/bits/basic_string.h ****        *  Exchanges the contents of this string with that of @a __s in constant
4203:/usr/include/c++/5/bits/basic_string.h ****        *  time.
4204:/usr/include/c++/5/bits/basic_string.h ****       */
4205:/usr/include/c++/5/bits/basic_string.h ****       // PR 58265, this should be noexcept.
4206:/usr/include/c++/5/bits/basic_string.h ****       void
4207:/usr/include/c++/5/bits/basic_string.h ****       swap(basic_string& __s);
4208:/usr/include/c++/5/bits/basic_string.h **** 
4209:/usr/include/c++/5/bits/basic_string.h ****       // String operations:
4210:/usr/include/c++/5/bits/basic_string.h ****       /**
4211:/usr/include/c++/5/bits/basic_string.h ****        *  @brief  Return const pointer to null-terminated contents.
4212:/usr/include/c++/5/bits/basic_string.h ****        *
4213:/usr/include/c++/5/bits/basic_string.h ****        *  This is a handle to internal data.  Do not modify or dire things may
4214:/usr/include/c++/5/bits/basic_string.h ****        *  happen.
4215:/usr/include/c++/5/bits/basic_string.h ****       */
4216:/usr/include/c++/5/bits/basic_string.h ****       const _CharT*
4217:/usr/include/c++/5/bits/basic_string.h ****       c_str() const _GLIBCXX_NOEXCEPT
4218:/usr/include/c++/5/bits/basic_string.h ****       { return _M_data(); }
4219:/usr/include/c++/5/bits/basic_string.h **** 
4220:/usr/include/c++/5/bits/basic_string.h ****       /**
4221:/usr/include/c++/5/bits/basic_string.h ****        *  @brief  Return const pointer to contents.
4222:/usr/include/c++/5/bits/basic_string.h ****        *
4223:/usr/include/c++/5/bits/basic_string.h ****        *  This is a handle to internal data.  Do not modify or dire things may
4224:/usr/include/c++/5/bits/basic_string.h ****        *  happen.
4225:/usr/include/c++/5/bits/basic_string.h ****       */
4226:/usr/include/c++/5/bits/basic_string.h ****       const _CharT*
4227:/usr/include/c++/5/bits/basic_string.h ****       data() const _GLIBCXX_NOEXCEPT
4228:/usr/include/c++/5/bits/basic_string.h ****       { return _M_data(); }
4229:/usr/include/c++/5/bits/basic_string.h **** 
4230:/usr/include/c++/5/bits/basic_string.h ****       /**
4231:/usr/include/c++/5/bits/basic_string.h ****        *  @brief  Return copy of allocator used to construct this string.
4232:/usr/include/c++/5/bits/basic_string.h ****       */
4233:/usr/include/c++/5/bits/basic_string.h ****       allocator_type
4234:/usr/include/c++/5/bits/basic_string.h ****       get_allocator() const _GLIBCXX_NOEXCEPT
4235:/usr/include/c++/5/bits/basic_string.h ****       { return _M_dataplus; }
4236:/usr/include/c++/5/bits/basic_string.h **** 
4237:/usr/include/c++/5/bits/basic_string.h ****       /**
4238:/usr/include/c++/5/bits/basic_string.h ****        *  @brief  Find position of a C substring.
4239:/usr/include/c++/5/bits/basic_string.h ****        *  @param __s  C string to locate.
4240:/usr/include/c++/5/bits/basic_string.h ****        *  @param __pos  Index of character to search from.
4241:/usr/include/c++/5/bits/basic_string.h ****        *  @param __n  Number of characters from @a s to search for.
4242:/usr/include/c++/5/bits/basic_string.h ****        *  @return  Index of start of first occurrence.
4243:/usr/include/c++/5/bits/basic_string.h ****        *
4244:/usr/include/c++/5/bits/basic_string.h ****        *  Starting from @a __pos, searches forward for the first @a
4245:/usr/include/c++/5/bits/basic_string.h ****        *  __n characters in @a __s within this string.  If found,
4246:/usr/include/c++/5/bits/basic_string.h ****        *  returns the index where it begins.  If not found, returns
4247:/usr/include/c++/5/bits/basic_string.h ****        *  npos.
4248:/usr/include/c++/5/bits/basic_string.h ****       */
4249:/usr/include/c++/5/bits/basic_string.h ****       size_type
GAS LISTING /tmp/ccGYUW7A.s 			page 148


4250:/usr/include/c++/5/bits/basic_string.h ****       find(const _CharT* __s, size_type __pos, size_type __n) const;
4251:/usr/include/c++/5/bits/basic_string.h **** 
4252:/usr/include/c++/5/bits/basic_string.h ****       /**
4253:/usr/include/c++/5/bits/basic_string.h ****        *  @brief  Find position of a string.
4254:/usr/include/c++/5/bits/basic_string.h ****        *  @param __str  String to locate.
4255:/usr/include/c++/5/bits/basic_string.h ****        *  @param __pos  Index of character to search from (default 0).
4256:/usr/include/c++/5/bits/basic_string.h ****        *  @return  Index of start of first occurrence.
4257:/usr/include/c++/5/bits/basic_string.h ****        *
4258:/usr/include/c++/5/bits/basic_string.h ****        *  Starting from @a __pos, searches forward for value of @a __str within
4259:/usr/include/c++/5/bits/basic_string.h ****        *  this string.  If found, returns the index where it begins.  If not
4260:/usr/include/c++/5/bits/basic_string.h ****        *  found, returns npos.
4261:/usr/include/c++/5/bits/basic_string.h ****       */
4262:/usr/include/c++/5/bits/basic_string.h ****       size_type
4263:/usr/include/c++/5/bits/basic_string.h ****       find(const basic_string& __str, size_type __pos = 0) const
4264:/usr/include/c++/5/bits/basic_string.h **** 	_GLIBCXX_NOEXCEPT
4265:/usr/include/c++/5/bits/basic_string.h ****       { return this->find(__str.data(), __pos, __str.size()); }
4266:/usr/include/c++/5/bits/basic_string.h **** 
4267:/usr/include/c++/5/bits/basic_string.h ****       /**
4268:/usr/include/c++/5/bits/basic_string.h ****        *  @brief  Find position of a C string.
4269:/usr/include/c++/5/bits/basic_string.h ****        *  @param __s  C string to locate.
4270:/usr/include/c++/5/bits/basic_string.h ****        *  @param __pos  Index of character to search from (default 0).
4271:/usr/include/c++/5/bits/basic_string.h ****        *  @return  Index of start of first occurrence.
4272:/usr/include/c++/5/bits/basic_string.h ****        *
4273:/usr/include/c++/5/bits/basic_string.h ****        *  Starting from @a __pos, searches forward for the value of @a
4274:/usr/include/c++/5/bits/basic_string.h ****        *  __s within this string.  If found, returns the index where
4275:/usr/include/c++/5/bits/basic_string.h ****        *  it begins.  If not found, returns npos.
4276:/usr/include/c++/5/bits/basic_string.h ****       */
4277:/usr/include/c++/5/bits/basic_string.h ****       size_type
4278:/usr/include/c++/5/bits/basic_string.h ****       find(const _CharT* __s, size_type __pos = 0) const
4279:/usr/include/c++/5/bits/basic_string.h ****       {
4280:/usr/include/c++/5/bits/basic_string.h **** 	__glibcxx_requires_string(__s);
4281:/usr/include/c++/5/bits/basic_string.h **** 	return this->find(__s, __pos, traits_type::length(__s));
4282:/usr/include/c++/5/bits/basic_string.h ****       }
4283:/usr/include/c++/5/bits/basic_string.h **** 
4284:/usr/include/c++/5/bits/basic_string.h ****       /**
4285:/usr/include/c++/5/bits/basic_string.h ****        *  @brief  Find position of a character.
4286:/usr/include/c++/5/bits/basic_string.h ****        *  @param __c  Character to locate.
4287:/usr/include/c++/5/bits/basic_string.h ****        *  @param __pos  Index of character to search from (default 0).
4288:/usr/include/c++/5/bits/basic_string.h ****        *  @return  Index of first occurrence.
4289:/usr/include/c++/5/bits/basic_string.h ****        *
4290:/usr/include/c++/5/bits/basic_string.h ****        *  Starting from @a __pos, searches forward for @a __c within
4291:/usr/include/c++/5/bits/basic_string.h ****        *  this string.  If found, returns the index where it was
4292:/usr/include/c++/5/bits/basic_string.h ****        *  found.  If not found, returns npos.
4293:/usr/include/c++/5/bits/basic_string.h ****       */
4294:/usr/include/c++/5/bits/basic_string.h ****       size_type
4295:/usr/include/c++/5/bits/basic_string.h ****       find(_CharT __c, size_type __pos = 0) const _GLIBCXX_NOEXCEPT;
4296:/usr/include/c++/5/bits/basic_string.h **** 
4297:/usr/include/c++/5/bits/basic_string.h ****       /**
4298:/usr/include/c++/5/bits/basic_string.h ****        *  @brief  Find last position of a string.
4299:/usr/include/c++/5/bits/basic_string.h ****        *  @param __str  String to locate.
4300:/usr/include/c++/5/bits/basic_string.h ****        *  @param __pos  Index of character to search back from (default end).
4301:/usr/include/c++/5/bits/basic_string.h ****        *  @return  Index of start of last occurrence.
4302:/usr/include/c++/5/bits/basic_string.h ****        *
4303:/usr/include/c++/5/bits/basic_string.h ****        *  Starting from @a __pos, searches backward for value of @a
4304:/usr/include/c++/5/bits/basic_string.h ****        *  __str within this string.  If found, returns the index where
4305:/usr/include/c++/5/bits/basic_string.h ****        *  it begins.  If not found, returns npos.
4306:/usr/include/c++/5/bits/basic_string.h ****       */
GAS LISTING /tmp/ccGYUW7A.s 			page 149


4307:/usr/include/c++/5/bits/basic_string.h ****       size_type
4308:/usr/include/c++/5/bits/basic_string.h ****       rfind(const basic_string& __str, size_type __pos = npos) const
4309:/usr/include/c++/5/bits/basic_string.h **** 	_GLIBCXX_NOEXCEPT
4310:/usr/include/c++/5/bits/basic_string.h ****       { return this->rfind(__str.data(), __pos, __str.size()); }
4311:/usr/include/c++/5/bits/basic_string.h **** 
4312:/usr/include/c++/5/bits/basic_string.h ****       /**
4313:/usr/include/c++/5/bits/basic_string.h ****        *  @brief  Find last position of a C substring.
4314:/usr/include/c++/5/bits/basic_string.h ****        *  @param __s  C string to locate.
4315:/usr/include/c++/5/bits/basic_string.h ****        *  @param __pos  Index of character to search back from.
4316:/usr/include/c++/5/bits/basic_string.h ****        *  @param __n  Number of characters from s to search for.
4317:/usr/include/c++/5/bits/basic_string.h ****        *  @return  Index of start of last occurrence.
4318:/usr/include/c++/5/bits/basic_string.h ****        *
4319:/usr/include/c++/5/bits/basic_string.h ****        *  Starting from @a __pos, searches backward for the first @a
4320:/usr/include/c++/5/bits/basic_string.h ****        *  __n characters in @a __s within this string.  If found,
4321:/usr/include/c++/5/bits/basic_string.h ****        *  returns the index where it begins.  If not found, returns
4322:/usr/include/c++/5/bits/basic_string.h ****        *  npos.
4323:/usr/include/c++/5/bits/basic_string.h ****       */
4324:/usr/include/c++/5/bits/basic_string.h ****       size_type
4325:/usr/include/c++/5/bits/basic_string.h ****       rfind(const _CharT* __s, size_type __pos, size_type __n) const;
4326:/usr/include/c++/5/bits/basic_string.h **** 
4327:/usr/include/c++/5/bits/basic_string.h ****       /**
4328:/usr/include/c++/5/bits/basic_string.h ****        *  @brief  Find last position of a C string.
4329:/usr/include/c++/5/bits/basic_string.h ****        *  @param __s  C string to locate.
4330:/usr/include/c++/5/bits/basic_string.h ****        *  @param __pos  Index of character to start search at (default end).
4331:/usr/include/c++/5/bits/basic_string.h ****        *  @return  Index of start of  last occurrence.
4332:/usr/include/c++/5/bits/basic_string.h ****        *
4333:/usr/include/c++/5/bits/basic_string.h ****        *  Starting from @a __pos, searches backward for the value of
4334:/usr/include/c++/5/bits/basic_string.h ****        *  @a __s within this string.  If found, returns the index
4335:/usr/include/c++/5/bits/basic_string.h ****        *  where it begins.  If not found, returns npos.
4336:/usr/include/c++/5/bits/basic_string.h ****       */
4337:/usr/include/c++/5/bits/basic_string.h ****       size_type
4338:/usr/include/c++/5/bits/basic_string.h ****       rfind(const _CharT* __s, size_type __pos = npos) const
4339:/usr/include/c++/5/bits/basic_string.h ****       {
4340:/usr/include/c++/5/bits/basic_string.h **** 	__glibcxx_requires_string(__s);
4341:/usr/include/c++/5/bits/basic_string.h **** 	return this->rfind(__s, __pos, traits_type::length(__s));
4342:/usr/include/c++/5/bits/basic_string.h ****       }
4343:/usr/include/c++/5/bits/basic_string.h **** 
4344:/usr/include/c++/5/bits/basic_string.h ****       /**
4345:/usr/include/c++/5/bits/basic_string.h ****        *  @brief  Find last position of a character.
4346:/usr/include/c++/5/bits/basic_string.h ****        *  @param __c  Character to locate.
4347:/usr/include/c++/5/bits/basic_string.h ****        *  @param __pos  Index of character to search back from (default end).
4348:/usr/include/c++/5/bits/basic_string.h ****        *  @return  Index of last occurrence.
4349:/usr/include/c++/5/bits/basic_string.h ****        *
4350:/usr/include/c++/5/bits/basic_string.h ****        *  Starting from @a __pos, searches backward for @a __c within
4351:/usr/include/c++/5/bits/basic_string.h ****        *  this string.  If found, returns the index where it was
4352:/usr/include/c++/5/bits/basic_string.h ****        *  found.  If not found, returns npos.
4353:/usr/include/c++/5/bits/basic_string.h ****       */
4354:/usr/include/c++/5/bits/basic_string.h ****       size_type
4355:/usr/include/c++/5/bits/basic_string.h ****       rfind(_CharT __c, size_type __pos = npos) const _GLIBCXX_NOEXCEPT;
4356:/usr/include/c++/5/bits/basic_string.h **** 
4357:/usr/include/c++/5/bits/basic_string.h ****       /**
4358:/usr/include/c++/5/bits/basic_string.h ****        *  @brief  Find position of a character of string.
4359:/usr/include/c++/5/bits/basic_string.h ****        *  @param __str  String containing characters to locate.
4360:/usr/include/c++/5/bits/basic_string.h ****        *  @param __pos  Index of character to search from (default 0).
4361:/usr/include/c++/5/bits/basic_string.h ****        *  @return  Index of first occurrence.
4362:/usr/include/c++/5/bits/basic_string.h ****        *
4363:/usr/include/c++/5/bits/basic_string.h ****        *  Starting from @a __pos, searches forward for one of the
GAS LISTING /tmp/ccGYUW7A.s 			page 150


4364:/usr/include/c++/5/bits/basic_string.h ****        *  characters of @a __str within this string.  If found,
4365:/usr/include/c++/5/bits/basic_string.h ****        *  returns the index where it was found.  If not found, returns
4366:/usr/include/c++/5/bits/basic_string.h ****        *  npos.
4367:/usr/include/c++/5/bits/basic_string.h ****       */
4368:/usr/include/c++/5/bits/basic_string.h ****       size_type
4369:/usr/include/c++/5/bits/basic_string.h ****       find_first_of(const basic_string& __str, size_type __pos = 0) const
4370:/usr/include/c++/5/bits/basic_string.h **** 	_GLIBCXX_NOEXCEPT
4371:/usr/include/c++/5/bits/basic_string.h ****       { return this->find_first_of(__str.data(), __pos, __str.size()); }
4372:/usr/include/c++/5/bits/basic_string.h **** 
4373:/usr/include/c++/5/bits/basic_string.h ****       /**
4374:/usr/include/c++/5/bits/basic_string.h ****        *  @brief  Find position of a character of C substring.
4375:/usr/include/c++/5/bits/basic_string.h ****        *  @param __s  String containing characters to locate.
4376:/usr/include/c++/5/bits/basic_string.h ****        *  @param __pos  Index of character to search from.
4377:/usr/include/c++/5/bits/basic_string.h ****        *  @param __n  Number of characters from s to search for.
4378:/usr/include/c++/5/bits/basic_string.h ****        *  @return  Index of first occurrence.
4379:/usr/include/c++/5/bits/basic_string.h ****        *
4380:/usr/include/c++/5/bits/basic_string.h ****        *  Starting from @a __pos, searches forward for one of the
4381:/usr/include/c++/5/bits/basic_string.h ****        *  first @a __n characters of @a __s within this string.  If
4382:/usr/include/c++/5/bits/basic_string.h ****        *  found, returns the index where it was found.  If not found,
4383:/usr/include/c++/5/bits/basic_string.h ****        *  returns npos.
4384:/usr/include/c++/5/bits/basic_string.h ****       */
4385:/usr/include/c++/5/bits/basic_string.h ****       size_type
4386:/usr/include/c++/5/bits/basic_string.h ****       find_first_of(const _CharT* __s, size_type __pos, size_type __n) const;
4387:/usr/include/c++/5/bits/basic_string.h **** 
4388:/usr/include/c++/5/bits/basic_string.h ****       /**
4389:/usr/include/c++/5/bits/basic_string.h ****        *  @brief  Find position of a character of C string.
4390:/usr/include/c++/5/bits/basic_string.h ****        *  @param __s  String containing characters to locate.
4391:/usr/include/c++/5/bits/basic_string.h ****        *  @param __pos  Index of character to search from (default 0).
4392:/usr/include/c++/5/bits/basic_string.h ****        *  @return  Index of first occurrence.
4393:/usr/include/c++/5/bits/basic_string.h ****        *
4394:/usr/include/c++/5/bits/basic_string.h ****        *  Starting from @a __pos, searches forward for one of the
4395:/usr/include/c++/5/bits/basic_string.h ****        *  characters of @a __s within this string.  If found, returns
4396:/usr/include/c++/5/bits/basic_string.h ****        *  the index where it was found.  If not found, returns npos.
4397:/usr/include/c++/5/bits/basic_string.h ****       */
4398:/usr/include/c++/5/bits/basic_string.h ****       size_type
4399:/usr/include/c++/5/bits/basic_string.h ****       find_first_of(const _CharT* __s, size_type __pos = 0) const
4400:/usr/include/c++/5/bits/basic_string.h ****       {
4401:/usr/include/c++/5/bits/basic_string.h **** 	__glibcxx_requires_string(__s);
4402:/usr/include/c++/5/bits/basic_string.h **** 	return this->find_first_of(__s, __pos, traits_type::length(__s));
4403:/usr/include/c++/5/bits/basic_string.h ****       }
4404:/usr/include/c++/5/bits/basic_string.h **** 
4405:/usr/include/c++/5/bits/basic_string.h ****       /**
4406:/usr/include/c++/5/bits/basic_string.h ****        *  @brief  Find position of a character.
4407:/usr/include/c++/5/bits/basic_string.h ****        *  @param __c  Character to locate.
4408:/usr/include/c++/5/bits/basic_string.h ****        *  @param __pos  Index of character to search from (default 0).
4409:/usr/include/c++/5/bits/basic_string.h ****        *  @return  Index of first occurrence.
4410:/usr/include/c++/5/bits/basic_string.h ****        *
4411:/usr/include/c++/5/bits/basic_string.h ****        *  Starting from @a __pos, searches forward for the character
4412:/usr/include/c++/5/bits/basic_string.h ****        *  @a __c within this string.  If found, returns the index
4413:/usr/include/c++/5/bits/basic_string.h ****        *  where it was found.  If not found, returns npos.
4414:/usr/include/c++/5/bits/basic_string.h ****        *
4415:/usr/include/c++/5/bits/basic_string.h ****        *  Note: equivalent to find(__c, __pos).
4416:/usr/include/c++/5/bits/basic_string.h ****       */
4417:/usr/include/c++/5/bits/basic_string.h ****       size_type
4418:/usr/include/c++/5/bits/basic_string.h ****       find_first_of(_CharT __c, size_type __pos = 0) const _GLIBCXX_NOEXCEPT
4419:/usr/include/c++/5/bits/basic_string.h ****       { return this->find(__c, __pos); }
4420:/usr/include/c++/5/bits/basic_string.h **** 
GAS LISTING /tmp/ccGYUW7A.s 			page 151


4421:/usr/include/c++/5/bits/basic_string.h ****       /**
4422:/usr/include/c++/5/bits/basic_string.h ****        *  @brief  Find last position of a character of string.
4423:/usr/include/c++/5/bits/basic_string.h ****        *  @param __str  String containing characters to locate.
4424:/usr/include/c++/5/bits/basic_string.h ****        *  @param __pos  Index of character to search back from (default end).
4425:/usr/include/c++/5/bits/basic_string.h ****        *  @return  Index of last occurrence.
4426:/usr/include/c++/5/bits/basic_string.h ****        *
4427:/usr/include/c++/5/bits/basic_string.h ****        *  Starting from @a __pos, searches backward for one of the
4428:/usr/include/c++/5/bits/basic_string.h ****        *  characters of @a __str within this string.  If found,
4429:/usr/include/c++/5/bits/basic_string.h ****        *  returns the index where it was found.  If not found, returns
4430:/usr/include/c++/5/bits/basic_string.h ****        *  npos.
4431:/usr/include/c++/5/bits/basic_string.h ****       */
4432:/usr/include/c++/5/bits/basic_string.h ****       size_type
4433:/usr/include/c++/5/bits/basic_string.h ****       find_last_of(const basic_string& __str, size_type __pos = npos) const
4434:/usr/include/c++/5/bits/basic_string.h **** 	_GLIBCXX_NOEXCEPT
4435:/usr/include/c++/5/bits/basic_string.h ****       { return this->find_last_of(__str.data(), __pos, __str.size()); }
4436:/usr/include/c++/5/bits/basic_string.h **** 
4437:/usr/include/c++/5/bits/basic_string.h ****       /**
4438:/usr/include/c++/5/bits/basic_string.h ****        *  @brief  Find last position of a character of C substring.
4439:/usr/include/c++/5/bits/basic_string.h ****        *  @param __s  C string containing characters to locate.
4440:/usr/include/c++/5/bits/basic_string.h ****        *  @param __pos  Index of character to search back from.
4441:/usr/include/c++/5/bits/basic_string.h ****        *  @param __n  Number of characters from s to search for.
4442:/usr/include/c++/5/bits/basic_string.h ****        *  @return  Index of last occurrence.
4443:/usr/include/c++/5/bits/basic_string.h ****        *
4444:/usr/include/c++/5/bits/basic_string.h ****        *  Starting from @a __pos, searches backward for one of the
4445:/usr/include/c++/5/bits/basic_string.h ****        *  first @a __n characters of @a __s within this string.  If
4446:/usr/include/c++/5/bits/basic_string.h ****        *  found, returns the index where it was found.  If not found,
4447:/usr/include/c++/5/bits/basic_string.h ****        *  returns npos.
4448:/usr/include/c++/5/bits/basic_string.h ****       */
4449:/usr/include/c++/5/bits/basic_string.h ****       size_type
4450:/usr/include/c++/5/bits/basic_string.h ****       find_last_of(const _CharT* __s, size_type __pos, size_type __n) const;
4451:/usr/include/c++/5/bits/basic_string.h **** 
4452:/usr/include/c++/5/bits/basic_string.h ****       /**
4453:/usr/include/c++/5/bits/basic_string.h ****        *  @brief  Find last position of a character of C string.
4454:/usr/include/c++/5/bits/basic_string.h ****        *  @param __s  C string containing characters to locate.
4455:/usr/include/c++/5/bits/basic_string.h ****        *  @param __pos  Index of character to search back from (default end).
4456:/usr/include/c++/5/bits/basic_string.h ****        *  @return  Index of last occurrence.
4457:/usr/include/c++/5/bits/basic_string.h ****        *
4458:/usr/include/c++/5/bits/basic_string.h ****        *  Starting from @a __pos, searches backward for one of the
4459:/usr/include/c++/5/bits/basic_string.h ****        *  characters of @a __s within this string.  If found, returns
4460:/usr/include/c++/5/bits/basic_string.h ****        *  the index where it was found.  If not found, returns npos.
4461:/usr/include/c++/5/bits/basic_string.h ****       */
4462:/usr/include/c++/5/bits/basic_string.h ****       size_type
4463:/usr/include/c++/5/bits/basic_string.h ****       find_last_of(const _CharT* __s, size_type __pos = npos) const
4464:/usr/include/c++/5/bits/basic_string.h ****       {
4465:/usr/include/c++/5/bits/basic_string.h **** 	__glibcxx_requires_string(__s);
4466:/usr/include/c++/5/bits/basic_string.h **** 	return this->find_last_of(__s, __pos, traits_type::length(__s));
4467:/usr/include/c++/5/bits/basic_string.h ****       }
4468:/usr/include/c++/5/bits/basic_string.h **** 
4469:/usr/include/c++/5/bits/basic_string.h ****       /**
4470:/usr/include/c++/5/bits/basic_string.h ****        *  @brief  Find last position of a character.
4471:/usr/include/c++/5/bits/basic_string.h ****        *  @param __c  Character to locate.
4472:/usr/include/c++/5/bits/basic_string.h ****        *  @param __pos  Index of character to search back from (default end).
4473:/usr/include/c++/5/bits/basic_string.h ****        *  @return  Index of last occurrence.
4474:/usr/include/c++/5/bits/basic_string.h ****        *
4475:/usr/include/c++/5/bits/basic_string.h ****        *  Starting from @a __pos, searches backward for @a __c within
4476:/usr/include/c++/5/bits/basic_string.h ****        *  this string.  If found, returns the index where it was
4477:/usr/include/c++/5/bits/basic_string.h ****        *  found.  If not found, returns npos.
GAS LISTING /tmp/ccGYUW7A.s 			page 152


4478:/usr/include/c++/5/bits/basic_string.h ****        *
4479:/usr/include/c++/5/bits/basic_string.h ****        *  Note: equivalent to rfind(__c, __pos).
4480:/usr/include/c++/5/bits/basic_string.h ****       */
4481:/usr/include/c++/5/bits/basic_string.h ****       size_type
4482:/usr/include/c++/5/bits/basic_string.h ****       find_last_of(_CharT __c, size_type __pos = npos) const _GLIBCXX_NOEXCEPT
4483:/usr/include/c++/5/bits/basic_string.h ****       { return this->rfind(__c, __pos); }
4484:/usr/include/c++/5/bits/basic_string.h **** 
4485:/usr/include/c++/5/bits/basic_string.h ****       /**
4486:/usr/include/c++/5/bits/basic_string.h ****        *  @brief  Find position of a character not in string.
4487:/usr/include/c++/5/bits/basic_string.h ****        *  @param __str  String containing characters to avoid.
4488:/usr/include/c++/5/bits/basic_string.h ****        *  @param __pos  Index of character to search from (default 0).
4489:/usr/include/c++/5/bits/basic_string.h ****        *  @return  Index of first occurrence.
4490:/usr/include/c++/5/bits/basic_string.h ****        *
4491:/usr/include/c++/5/bits/basic_string.h ****        *  Starting from @a __pos, searches forward for a character not contained
4492:/usr/include/c++/5/bits/basic_string.h ****        *  in @a __str within this string.  If found, returns the index where it
4493:/usr/include/c++/5/bits/basic_string.h ****        *  was found.  If not found, returns npos.
4494:/usr/include/c++/5/bits/basic_string.h ****       */
4495:/usr/include/c++/5/bits/basic_string.h ****       size_type
4496:/usr/include/c++/5/bits/basic_string.h ****       find_first_not_of(const basic_string& __str, size_type __pos = 0) const
4497:/usr/include/c++/5/bits/basic_string.h **** 	_GLIBCXX_NOEXCEPT
4498:/usr/include/c++/5/bits/basic_string.h ****       { return this->find_first_not_of(__str.data(), __pos, __str.size()); }
4499:/usr/include/c++/5/bits/basic_string.h **** 
4500:/usr/include/c++/5/bits/basic_string.h ****       /**
4501:/usr/include/c++/5/bits/basic_string.h ****        *  @brief  Find position of a character not in C substring.
4502:/usr/include/c++/5/bits/basic_string.h ****        *  @param __s  C string containing characters to avoid.
4503:/usr/include/c++/5/bits/basic_string.h ****        *  @param __pos  Index of character to search from.
4504:/usr/include/c++/5/bits/basic_string.h ****        *  @param __n  Number of characters from __s to consider.
4505:/usr/include/c++/5/bits/basic_string.h ****        *  @return  Index of first occurrence.
4506:/usr/include/c++/5/bits/basic_string.h ****        *
4507:/usr/include/c++/5/bits/basic_string.h ****        *  Starting from @a __pos, searches forward for a character not
4508:/usr/include/c++/5/bits/basic_string.h ****        *  contained in the first @a __n characters of @a __s within
4509:/usr/include/c++/5/bits/basic_string.h ****        *  this string.  If found, returns the index where it was
4510:/usr/include/c++/5/bits/basic_string.h ****        *  found.  If not found, returns npos.
4511:/usr/include/c++/5/bits/basic_string.h ****       */
4512:/usr/include/c++/5/bits/basic_string.h ****       size_type
4513:/usr/include/c++/5/bits/basic_string.h ****       find_first_not_of(const _CharT* __s, size_type __pos,
4514:/usr/include/c++/5/bits/basic_string.h **** 			size_type __n) const;
4515:/usr/include/c++/5/bits/basic_string.h **** 
4516:/usr/include/c++/5/bits/basic_string.h ****       /**
4517:/usr/include/c++/5/bits/basic_string.h ****        *  @brief  Find position of a character not in C string.
4518:/usr/include/c++/5/bits/basic_string.h ****        *  @param __s  C string containing characters to avoid.
4519:/usr/include/c++/5/bits/basic_string.h ****        *  @param __pos  Index of character to search from (default 0).
4520:/usr/include/c++/5/bits/basic_string.h ****        *  @return  Index of first occurrence.
4521:/usr/include/c++/5/bits/basic_string.h ****        *
4522:/usr/include/c++/5/bits/basic_string.h ****        *  Starting from @a __pos, searches forward for a character not
4523:/usr/include/c++/5/bits/basic_string.h ****        *  contained in @a __s within this string.  If found, returns
4524:/usr/include/c++/5/bits/basic_string.h ****        *  the index where it was found.  If not found, returns npos.
4525:/usr/include/c++/5/bits/basic_string.h ****       */
4526:/usr/include/c++/5/bits/basic_string.h ****       size_type
4527:/usr/include/c++/5/bits/basic_string.h ****       find_first_not_of(const _CharT* __s, size_type __pos = 0) const
4528:/usr/include/c++/5/bits/basic_string.h ****       {
4529:/usr/include/c++/5/bits/basic_string.h **** 	__glibcxx_requires_string(__s);
4530:/usr/include/c++/5/bits/basic_string.h **** 	return this->find_first_not_of(__s, __pos, traits_type::length(__s));
4531:/usr/include/c++/5/bits/basic_string.h ****       }
4532:/usr/include/c++/5/bits/basic_string.h **** 
4533:/usr/include/c++/5/bits/basic_string.h ****       /**
4534:/usr/include/c++/5/bits/basic_string.h ****        *  @brief  Find position of a different character.
GAS LISTING /tmp/ccGYUW7A.s 			page 153


4535:/usr/include/c++/5/bits/basic_string.h ****        *  @param __c  Character to avoid.
4536:/usr/include/c++/5/bits/basic_string.h ****        *  @param __pos  Index of character to search from (default 0).
4537:/usr/include/c++/5/bits/basic_string.h ****        *  @return  Index of first occurrence.
4538:/usr/include/c++/5/bits/basic_string.h ****        *
4539:/usr/include/c++/5/bits/basic_string.h ****        *  Starting from @a __pos, searches forward for a character
4540:/usr/include/c++/5/bits/basic_string.h ****        *  other than @a __c within this string.  If found, returns the
4541:/usr/include/c++/5/bits/basic_string.h ****        *  index where it was found.  If not found, returns npos.
4542:/usr/include/c++/5/bits/basic_string.h ****       */
4543:/usr/include/c++/5/bits/basic_string.h ****       size_type
4544:/usr/include/c++/5/bits/basic_string.h ****       find_first_not_of(_CharT __c, size_type __pos = 0) const
4545:/usr/include/c++/5/bits/basic_string.h **** 	_GLIBCXX_NOEXCEPT;
4546:/usr/include/c++/5/bits/basic_string.h **** 
4547:/usr/include/c++/5/bits/basic_string.h ****       /**
4548:/usr/include/c++/5/bits/basic_string.h ****        *  @brief  Find last position of a character not in string.
4549:/usr/include/c++/5/bits/basic_string.h ****        *  @param __str  String containing characters to avoid.
4550:/usr/include/c++/5/bits/basic_string.h ****        *  @param __pos  Index of character to search back from (default end).
4551:/usr/include/c++/5/bits/basic_string.h ****        *  @return  Index of last occurrence.
4552:/usr/include/c++/5/bits/basic_string.h ****        *
4553:/usr/include/c++/5/bits/basic_string.h ****        *  Starting from @a __pos, searches backward for a character
4554:/usr/include/c++/5/bits/basic_string.h ****        *  not contained in @a __str within this string.  If found,
4555:/usr/include/c++/5/bits/basic_string.h ****        *  returns the index where it was found.  If not found, returns
4556:/usr/include/c++/5/bits/basic_string.h ****        *  npos.
4557:/usr/include/c++/5/bits/basic_string.h ****       */
4558:/usr/include/c++/5/bits/basic_string.h ****       size_type
4559:/usr/include/c++/5/bits/basic_string.h ****       find_last_not_of(const basic_string& __str, size_type __pos = npos) const
4560:/usr/include/c++/5/bits/basic_string.h **** 	_GLIBCXX_NOEXCEPT
4561:/usr/include/c++/5/bits/basic_string.h ****       { return this->find_last_not_of(__str.data(), __pos, __str.size()); }
4562:/usr/include/c++/5/bits/basic_string.h **** 
4563:/usr/include/c++/5/bits/basic_string.h ****       /**
4564:/usr/include/c++/5/bits/basic_string.h ****        *  @brief  Find last position of a character not in C substring.
4565:/usr/include/c++/5/bits/basic_string.h ****        *  @param __s  C string containing characters to avoid.
4566:/usr/include/c++/5/bits/basic_string.h ****        *  @param __pos  Index of character to search back from.
4567:/usr/include/c++/5/bits/basic_string.h ****        *  @param __n  Number of characters from s to consider.
4568:/usr/include/c++/5/bits/basic_string.h ****        *  @return  Index of last occurrence.
4569:/usr/include/c++/5/bits/basic_string.h ****        *
4570:/usr/include/c++/5/bits/basic_string.h ****        *  Starting from @a __pos, searches backward for a character not
4571:/usr/include/c++/5/bits/basic_string.h ****        *  contained in the first @a __n characters of @a __s within this string.
4572:/usr/include/c++/5/bits/basic_string.h ****        *  If found, returns the index where it was found.  If not found,
4573:/usr/include/c++/5/bits/basic_string.h ****        *  returns npos.
4574:/usr/include/c++/5/bits/basic_string.h ****       */
4575:/usr/include/c++/5/bits/basic_string.h ****       size_type
4576:/usr/include/c++/5/bits/basic_string.h ****       find_last_not_of(const _CharT* __s, size_type __pos,
4577:/usr/include/c++/5/bits/basic_string.h **** 		       size_type __n) const;
4578:/usr/include/c++/5/bits/basic_string.h ****       /**
4579:/usr/include/c++/5/bits/basic_string.h ****        *  @brief  Find last position of a character not in C string.
4580:/usr/include/c++/5/bits/basic_string.h ****        *  @param __s  C string containing characters to avoid.
4581:/usr/include/c++/5/bits/basic_string.h ****        *  @param __pos  Index of character to search back from (default end).
4582:/usr/include/c++/5/bits/basic_string.h ****        *  @return  Index of last occurrence.
4583:/usr/include/c++/5/bits/basic_string.h ****        *
4584:/usr/include/c++/5/bits/basic_string.h ****        *  Starting from @a __pos, searches backward for a character
4585:/usr/include/c++/5/bits/basic_string.h ****        *  not contained in @a __s within this string.  If found,
4586:/usr/include/c++/5/bits/basic_string.h ****        *  returns the index where it was found.  If not found, returns
4587:/usr/include/c++/5/bits/basic_string.h ****        *  npos.
4588:/usr/include/c++/5/bits/basic_string.h ****       */
4589:/usr/include/c++/5/bits/basic_string.h ****       size_type
4590:/usr/include/c++/5/bits/basic_string.h ****       find_last_not_of(const _CharT* __s, size_type __pos = npos) const
4591:/usr/include/c++/5/bits/basic_string.h ****       {
GAS LISTING /tmp/ccGYUW7A.s 			page 154


4592:/usr/include/c++/5/bits/basic_string.h **** 	__glibcxx_requires_string(__s);
4593:/usr/include/c++/5/bits/basic_string.h **** 	return this->find_last_not_of(__s, __pos, traits_type::length(__s));
4594:/usr/include/c++/5/bits/basic_string.h ****       }
4595:/usr/include/c++/5/bits/basic_string.h **** 
4596:/usr/include/c++/5/bits/basic_string.h ****       /**
4597:/usr/include/c++/5/bits/basic_string.h ****        *  @brief  Find last position of a different character.
4598:/usr/include/c++/5/bits/basic_string.h ****        *  @param __c  Character to avoid.
4599:/usr/include/c++/5/bits/basic_string.h ****        *  @param __pos  Index of character to search back from (default end).
4600:/usr/include/c++/5/bits/basic_string.h ****        *  @return  Index of last occurrence.
4601:/usr/include/c++/5/bits/basic_string.h ****        *
4602:/usr/include/c++/5/bits/basic_string.h ****        *  Starting from @a __pos, searches backward for a character other than
4603:/usr/include/c++/5/bits/basic_string.h ****        *  @a __c within this string.  If found, returns the index where it was
4604:/usr/include/c++/5/bits/basic_string.h ****        *  found.  If not found, returns npos.
4605:/usr/include/c++/5/bits/basic_string.h ****       */
4606:/usr/include/c++/5/bits/basic_string.h ****       size_type
4607:/usr/include/c++/5/bits/basic_string.h ****       find_last_not_of(_CharT __c, size_type __pos = npos) const
4608:/usr/include/c++/5/bits/basic_string.h **** 	_GLIBCXX_NOEXCEPT;
4609:/usr/include/c++/5/bits/basic_string.h **** 
4610:/usr/include/c++/5/bits/basic_string.h ****       /**
4611:/usr/include/c++/5/bits/basic_string.h ****        *  @brief  Get a substring.
4612:/usr/include/c++/5/bits/basic_string.h ****        *  @param __pos  Index of first character (default 0).
4613:/usr/include/c++/5/bits/basic_string.h ****        *  @param __n  Number of characters in substring (default remainder).
4614:/usr/include/c++/5/bits/basic_string.h ****        *  @return  The new string.
4615:/usr/include/c++/5/bits/basic_string.h ****        *  @throw  std::out_of_range  If __pos > size().
4616:/usr/include/c++/5/bits/basic_string.h ****        *
4617:/usr/include/c++/5/bits/basic_string.h ****        *  Construct and return a new string using the @a __n
4618:/usr/include/c++/5/bits/basic_string.h ****        *  characters starting at @a __pos.  If the string is too
4619:/usr/include/c++/5/bits/basic_string.h ****        *  short, use the remainder of the characters.  If @a __pos is
4620:/usr/include/c++/5/bits/basic_string.h ****        *  beyond the end of the string, out_of_range is thrown.
4621:/usr/include/c++/5/bits/basic_string.h ****       */
4622:/usr/include/c++/5/bits/basic_string.h ****       basic_string
4623:/usr/include/c++/5/bits/basic_string.h ****       substr(size_type __pos = 0, size_type __n = npos) const
4624:/usr/include/c++/5/bits/basic_string.h ****       { return basic_string(*this,
4625:/usr/include/c++/5/bits/basic_string.h **** 			    _M_check(__pos, "basic_string::substr"), __n); }
4626:/usr/include/c++/5/bits/basic_string.h **** 
4627:/usr/include/c++/5/bits/basic_string.h ****       /**
4628:/usr/include/c++/5/bits/basic_string.h ****        *  @brief  Compare to a string.
4629:/usr/include/c++/5/bits/basic_string.h ****        *  @param __str  String to compare against.
4630:/usr/include/c++/5/bits/basic_string.h ****        *  @return  Integer < 0, 0, or > 0.
4631:/usr/include/c++/5/bits/basic_string.h ****        *
4632:/usr/include/c++/5/bits/basic_string.h ****        *  Returns an integer < 0 if this string is ordered before @a
4633:/usr/include/c++/5/bits/basic_string.h ****        *  __str, 0 if their values are equivalent, or > 0 if this
4634:/usr/include/c++/5/bits/basic_string.h ****        *  string is ordered after @a __str.  Determines the effective
4635:/usr/include/c++/5/bits/basic_string.h ****        *  length rlen of the strings to compare as the smallest of
4636:/usr/include/c++/5/bits/basic_string.h ****        *  size() and str.size().  The function then compares the two
4637:/usr/include/c++/5/bits/basic_string.h ****        *  strings by calling traits::compare(data(), str.data(),rlen).
4638:/usr/include/c++/5/bits/basic_string.h ****        *  If the result of the comparison is nonzero returns it,
4639:/usr/include/c++/5/bits/basic_string.h ****        *  otherwise the shorter one is ordered first.
4640:/usr/include/c++/5/bits/basic_string.h ****       */
4641:/usr/include/c++/5/bits/basic_string.h ****       int
4642:/usr/include/c++/5/bits/basic_string.h ****       compare(const basic_string& __str) const
4643:/usr/include/c++/5/bits/basic_string.h ****       {
4644:/usr/include/c++/5/bits/basic_string.h **** 	const size_type __size = this->size();
4645:/usr/include/c++/5/bits/basic_string.h **** 	const size_type __osize = __str.size();
4646:/usr/include/c++/5/bits/basic_string.h **** 	const size_type __len = std::min(__size, __osize);
4647:/usr/include/c++/5/bits/basic_string.h **** 
4648:/usr/include/c++/5/bits/basic_string.h **** 	int __r = traits_type::compare(_M_data(), __str.data(), __len);
GAS LISTING /tmp/ccGYUW7A.s 			page 155


4649:/usr/include/c++/5/bits/basic_string.h **** 	if (!__r)
4650:/usr/include/c++/5/bits/basic_string.h **** 	  __r = _S_compare(__size, __osize);
4651:/usr/include/c++/5/bits/basic_string.h **** 	return __r;
4652:/usr/include/c++/5/bits/basic_string.h ****       }
4653:/usr/include/c++/5/bits/basic_string.h **** 
4654:/usr/include/c++/5/bits/basic_string.h ****       /**
4655:/usr/include/c++/5/bits/basic_string.h ****        *  @brief  Compare substring to a string.
4656:/usr/include/c++/5/bits/basic_string.h ****        *  @param __pos  Index of first character of substring.
4657:/usr/include/c++/5/bits/basic_string.h ****        *  @param __n  Number of characters in substring.
4658:/usr/include/c++/5/bits/basic_string.h ****        *  @param __str  String to compare against.
4659:/usr/include/c++/5/bits/basic_string.h ****        *  @return  Integer < 0, 0, or > 0.
4660:/usr/include/c++/5/bits/basic_string.h ****        *
4661:/usr/include/c++/5/bits/basic_string.h ****        *  Form the substring of this string from the @a __n characters
4662:/usr/include/c++/5/bits/basic_string.h ****        *  starting at @a __pos.  Returns an integer < 0 if the
4663:/usr/include/c++/5/bits/basic_string.h ****        *  substring is ordered before @a __str, 0 if their values are
4664:/usr/include/c++/5/bits/basic_string.h ****        *  equivalent, or > 0 if the substring is ordered after @a
4665:/usr/include/c++/5/bits/basic_string.h ****        *  __str.  Determines the effective length rlen of the strings
4666:/usr/include/c++/5/bits/basic_string.h ****        *  to compare as the smallest of the length of the substring
4667:/usr/include/c++/5/bits/basic_string.h ****        *  and @a __str.size().  The function then compares the two
4668:/usr/include/c++/5/bits/basic_string.h ****        *  strings by calling
4669:/usr/include/c++/5/bits/basic_string.h ****        *  traits::compare(substring.data(),str.data(),rlen).  If the
4670:/usr/include/c++/5/bits/basic_string.h ****        *  result of the comparison is nonzero returns it, otherwise
4671:/usr/include/c++/5/bits/basic_string.h ****        *  the shorter one is ordered first.
4672:/usr/include/c++/5/bits/basic_string.h ****       */
4673:/usr/include/c++/5/bits/basic_string.h ****       int
4674:/usr/include/c++/5/bits/basic_string.h ****       compare(size_type __pos, size_type __n, const basic_string& __str) const;
4675:/usr/include/c++/5/bits/basic_string.h **** 
4676:/usr/include/c++/5/bits/basic_string.h ****       /**
4677:/usr/include/c++/5/bits/basic_string.h ****        *  @brief  Compare substring to a substring.
4678:/usr/include/c++/5/bits/basic_string.h ****        *  @param __pos1  Index of first character of substring.
4679:/usr/include/c++/5/bits/basic_string.h ****        *  @param __n1  Number of characters in substring.
4680:/usr/include/c++/5/bits/basic_string.h ****        *  @param __str  String to compare against.
4681:/usr/include/c++/5/bits/basic_string.h ****        *  @param __pos2  Index of first character of substring of str.
4682:/usr/include/c++/5/bits/basic_string.h ****        *  @param __n2  Number of characters in substring of str.
4683:/usr/include/c++/5/bits/basic_string.h ****        *  @return  Integer < 0, 0, or > 0.
4684:/usr/include/c++/5/bits/basic_string.h ****        *
4685:/usr/include/c++/5/bits/basic_string.h ****        *  Form the substring of this string from the @a __n1
4686:/usr/include/c++/5/bits/basic_string.h ****        *  characters starting at @a __pos1.  Form the substring of @a
4687:/usr/include/c++/5/bits/basic_string.h ****        *  __str from the @a __n2 characters starting at @a __pos2.
4688:/usr/include/c++/5/bits/basic_string.h ****        *  Returns an integer < 0 if this substring is ordered before
4689:/usr/include/c++/5/bits/basic_string.h ****        *  the substring of @a __str, 0 if their values are equivalent,
4690:/usr/include/c++/5/bits/basic_string.h ****        *  or > 0 if this substring is ordered after the substring of
4691:/usr/include/c++/5/bits/basic_string.h ****        *  @a __str.  Determines the effective length rlen of the
4692:/usr/include/c++/5/bits/basic_string.h ****        *  strings to compare as the smallest of the lengths of the
4693:/usr/include/c++/5/bits/basic_string.h ****        *  substrings.  The function then compares the two strings by
4694:/usr/include/c++/5/bits/basic_string.h ****        *  calling
4695:/usr/include/c++/5/bits/basic_string.h ****        *  traits::compare(substring.data(),str.substr(pos2,n2).data(),rlen).
4696:/usr/include/c++/5/bits/basic_string.h ****        *  If the result of the comparison is nonzero returns it,
4697:/usr/include/c++/5/bits/basic_string.h ****        *  otherwise the shorter one is ordered first.
4698:/usr/include/c++/5/bits/basic_string.h ****       */
4699:/usr/include/c++/5/bits/basic_string.h ****       int
4700:/usr/include/c++/5/bits/basic_string.h ****       compare(size_type __pos1, size_type __n1, const basic_string& __str,
4701:/usr/include/c++/5/bits/basic_string.h **** 	      size_type __pos2, size_type __n2) const;
4702:/usr/include/c++/5/bits/basic_string.h **** 
4703:/usr/include/c++/5/bits/basic_string.h ****       /**
4704:/usr/include/c++/5/bits/basic_string.h ****        *  @brief  Compare to a C string.
4705:/usr/include/c++/5/bits/basic_string.h ****        *  @param __s  C string to compare against.
GAS LISTING /tmp/ccGYUW7A.s 			page 156


4706:/usr/include/c++/5/bits/basic_string.h ****        *  @return  Integer < 0, 0, or > 0.
4707:/usr/include/c++/5/bits/basic_string.h ****        *
4708:/usr/include/c++/5/bits/basic_string.h ****        *  Returns an integer < 0 if this string is ordered before @a __s, 0 if
4709:/usr/include/c++/5/bits/basic_string.h ****        *  their values are equivalent, or > 0 if this string is ordered after
4710:/usr/include/c++/5/bits/basic_string.h ****        *  @a __s.  Determines the effective length rlen of the strings to
4711:/usr/include/c++/5/bits/basic_string.h ****        *  compare as the smallest of size() and the length of a string
4712:/usr/include/c++/5/bits/basic_string.h ****        *  constructed from @a __s.  The function then compares the two strings
4713:/usr/include/c++/5/bits/basic_string.h ****        *  by calling traits::compare(data(),s,rlen).  If the result of the
4714:/usr/include/c++/5/bits/basic_string.h ****        *  comparison is nonzero returns it, otherwise the shorter one is
4715:/usr/include/c++/5/bits/basic_string.h ****        *  ordered first.
4716:/usr/include/c++/5/bits/basic_string.h ****       */
4717:/usr/include/c++/5/bits/basic_string.h ****       int
4718:/usr/include/c++/5/bits/basic_string.h ****       compare(const _CharT* __s) const;
4719:/usr/include/c++/5/bits/basic_string.h **** 
4720:/usr/include/c++/5/bits/basic_string.h ****       // _GLIBCXX_RESOLVE_LIB_DEFECTS
4721:/usr/include/c++/5/bits/basic_string.h ****       // 5 String::compare specification questionable
4722:/usr/include/c++/5/bits/basic_string.h ****       /**
4723:/usr/include/c++/5/bits/basic_string.h ****        *  @brief  Compare substring to a C string.
4724:/usr/include/c++/5/bits/basic_string.h ****        *  @param __pos  Index of first character of substring.
4725:/usr/include/c++/5/bits/basic_string.h ****        *  @param __n1  Number of characters in substring.
4726:/usr/include/c++/5/bits/basic_string.h ****        *  @param __s  C string to compare against.
4727:/usr/include/c++/5/bits/basic_string.h ****        *  @return  Integer < 0, 0, or > 0.
4728:/usr/include/c++/5/bits/basic_string.h ****        *
4729:/usr/include/c++/5/bits/basic_string.h ****        *  Form the substring of this string from the @a __n1
4730:/usr/include/c++/5/bits/basic_string.h ****        *  characters starting at @a pos.  Returns an integer < 0 if
4731:/usr/include/c++/5/bits/basic_string.h ****        *  the substring is ordered before @a __s, 0 if their values
4732:/usr/include/c++/5/bits/basic_string.h ****        *  are equivalent, or > 0 if the substring is ordered after @a
4733:/usr/include/c++/5/bits/basic_string.h ****        *  __s.  Determines the effective length rlen of the strings to
4734:/usr/include/c++/5/bits/basic_string.h ****        *  compare as the smallest of the length of the substring and
4735:/usr/include/c++/5/bits/basic_string.h ****        *  the length of a string constructed from @a __s.  The
4736:/usr/include/c++/5/bits/basic_string.h ****        *  function then compares the two string by calling
4737:/usr/include/c++/5/bits/basic_string.h ****        *  traits::compare(substring.data(),__s,rlen).  If the result of
4738:/usr/include/c++/5/bits/basic_string.h ****        *  the comparison is nonzero returns it, otherwise the shorter
4739:/usr/include/c++/5/bits/basic_string.h ****        *  one is ordered first.
4740:/usr/include/c++/5/bits/basic_string.h ****       */
4741:/usr/include/c++/5/bits/basic_string.h ****       int
4742:/usr/include/c++/5/bits/basic_string.h ****       compare(size_type __pos, size_type __n1, const _CharT* __s) const;
4743:/usr/include/c++/5/bits/basic_string.h **** 
4744:/usr/include/c++/5/bits/basic_string.h ****       /**
4745:/usr/include/c++/5/bits/basic_string.h ****        *  @brief  Compare substring against a character %array.
4746:/usr/include/c++/5/bits/basic_string.h ****        *  @param __pos  Index of first character of substring.
4747:/usr/include/c++/5/bits/basic_string.h ****        *  @param __n1  Number of characters in substring.
4748:/usr/include/c++/5/bits/basic_string.h ****        *  @param __s  character %array to compare against.
4749:/usr/include/c++/5/bits/basic_string.h ****        *  @param __n2  Number of characters of s.
4750:/usr/include/c++/5/bits/basic_string.h ****        *  @return  Integer < 0, 0, or > 0.
4751:/usr/include/c++/5/bits/basic_string.h ****        *
4752:/usr/include/c++/5/bits/basic_string.h ****        *  Form the substring of this string from the @a __n1
4753:/usr/include/c++/5/bits/basic_string.h ****        *  characters starting at @a __pos.  Form a string from the
4754:/usr/include/c++/5/bits/basic_string.h ****        *  first @a __n2 characters of @a __s.  Returns an integer < 0
4755:/usr/include/c++/5/bits/basic_string.h ****        *  if this substring is ordered before the string from @a __s,
4756:/usr/include/c++/5/bits/basic_string.h ****        *  0 if their values are equivalent, or > 0 if this substring
4757:/usr/include/c++/5/bits/basic_string.h ****        *  is ordered after the string from @a __s.  Determines the
4758:/usr/include/c++/5/bits/basic_string.h ****        *  effective length rlen of the strings to compare as the
4759:/usr/include/c++/5/bits/basic_string.h ****        *  smallest of the length of the substring and @a __n2.  The
4760:/usr/include/c++/5/bits/basic_string.h ****        *  function then compares the two strings by calling
4761:/usr/include/c++/5/bits/basic_string.h ****        *  traits::compare(substring.data(),s,rlen).  If the result of
4762:/usr/include/c++/5/bits/basic_string.h ****        *  the comparison is nonzero returns it, otherwise the shorter
GAS LISTING /tmp/ccGYUW7A.s 			page 157


4763:/usr/include/c++/5/bits/basic_string.h ****        *  one is ordered first.
4764:/usr/include/c++/5/bits/basic_string.h ****        *
4765:/usr/include/c++/5/bits/basic_string.h ****        *  NB: s must have at least n2 characters, &apos;\\0&apos; has
4766:/usr/include/c++/5/bits/basic_string.h ****        *  no special meaning.
4767:/usr/include/c++/5/bits/basic_string.h ****       */
4768:/usr/include/c++/5/bits/basic_string.h ****       int
4769:/usr/include/c++/5/bits/basic_string.h ****       compare(size_type __pos, size_type __n1, const _CharT* __s,
4770:/usr/include/c++/5/bits/basic_string.h **** 	      size_type __n2) const;
4771:/usr/include/c++/5/bits/basic_string.h ****   };
4772:/usr/include/c++/5/bits/basic_string.h **** #endif  // !_GLIBCXX_USE_CXX11_ABI
4773:/usr/include/c++/5/bits/basic_string.h **** 
4774:/usr/include/c++/5/bits/basic_string.h ****   // operator+
4775:/usr/include/c++/5/bits/basic_string.h ****   /**
4776:/usr/include/c++/5/bits/basic_string.h ****    *  @brief  Concatenate two strings.
4777:/usr/include/c++/5/bits/basic_string.h ****    *  @param __lhs  First string.
4778:/usr/include/c++/5/bits/basic_string.h ****    *  @param __rhs  Last string.
4779:/usr/include/c++/5/bits/basic_string.h ****    *  @return  New string with value of @a __lhs followed by @a __rhs.
4780:/usr/include/c++/5/bits/basic_string.h ****    */
4781:/usr/include/c++/5/bits/basic_string.h ****   template<typename _CharT, typename _Traits, typename _Alloc>
4782:/usr/include/c++/5/bits/basic_string.h ****     basic_string<_CharT, _Traits, _Alloc>
4783:/usr/include/c++/5/bits/basic_string.h ****     operator+(const basic_string<_CharT, _Traits, _Alloc>& __lhs,
4784:/usr/include/c++/5/bits/basic_string.h **** 	      const basic_string<_CharT, _Traits, _Alloc>& __rhs)
4785:/usr/include/c++/5/bits/basic_string.h ****     {
4786:/usr/include/c++/5/bits/basic_string.h ****       basic_string<_CharT, _Traits, _Alloc> __str(__lhs);
4787:/usr/include/c++/5/bits/basic_string.h ****       __str.append(__rhs);
4788:/usr/include/c++/5/bits/basic_string.h ****       return __str;
4789:/usr/include/c++/5/bits/basic_string.h ****     }
4790:/usr/include/c++/5/bits/basic_string.h **** 
4791:/usr/include/c++/5/bits/basic_string.h ****   /**
4792:/usr/include/c++/5/bits/basic_string.h ****    *  @brief  Concatenate C string and string.
4793:/usr/include/c++/5/bits/basic_string.h ****    *  @param __lhs  First string.
4794:/usr/include/c++/5/bits/basic_string.h ****    *  @param __rhs  Last string.
4795:/usr/include/c++/5/bits/basic_string.h ****    *  @return  New string with value of @a __lhs followed by @a __rhs.
4796:/usr/include/c++/5/bits/basic_string.h ****    */
4797:/usr/include/c++/5/bits/basic_string.h ****   template<typename _CharT, typename _Traits, typename _Alloc>
4798:/usr/include/c++/5/bits/basic_string.h ****     basic_string<_CharT,_Traits,_Alloc>
4799:/usr/include/c++/5/bits/basic_string.h ****     operator+(const _CharT* __lhs,
4800:/usr/include/c++/5/bits/basic_string.h **** 	      const basic_string<_CharT,_Traits,_Alloc>& __rhs);
4801:/usr/include/c++/5/bits/basic_string.h **** 
4802:/usr/include/c++/5/bits/basic_string.h ****   /**
4803:/usr/include/c++/5/bits/basic_string.h ****    *  @brief  Concatenate character and string.
4804:/usr/include/c++/5/bits/basic_string.h ****    *  @param __lhs  First string.
4805:/usr/include/c++/5/bits/basic_string.h ****    *  @param __rhs  Last string.
4806:/usr/include/c++/5/bits/basic_string.h ****    *  @return  New string with @a __lhs followed by @a __rhs.
4807:/usr/include/c++/5/bits/basic_string.h ****    */
4808:/usr/include/c++/5/bits/basic_string.h ****   template<typename _CharT, typename _Traits, typename _Alloc>
4809:/usr/include/c++/5/bits/basic_string.h ****     basic_string<_CharT,_Traits,_Alloc>
4810:/usr/include/c++/5/bits/basic_string.h ****     operator+(_CharT __lhs, const basic_string<_CharT,_Traits,_Alloc>& __rhs);
4811:/usr/include/c++/5/bits/basic_string.h **** 
4812:/usr/include/c++/5/bits/basic_string.h ****   /**
4813:/usr/include/c++/5/bits/basic_string.h ****    *  @brief  Concatenate string and C string.
4814:/usr/include/c++/5/bits/basic_string.h ****    *  @param __lhs  First string.
4815:/usr/include/c++/5/bits/basic_string.h ****    *  @param __rhs  Last string.
4816:/usr/include/c++/5/bits/basic_string.h ****    *  @return  New string with @a __lhs followed by @a __rhs.
4817:/usr/include/c++/5/bits/basic_string.h ****    */
4818:/usr/include/c++/5/bits/basic_string.h ****   template<typename _CharT, typename _Traits, typename _Alloc>
4819:/usr/include/c++/5/bits/basic_string.h ****     inline basic_string<_CharT, _Traits, _Alloc>
GAS LISTING /tmp/ccGYUW7A.s 			page 158


4820:/usr/include/c++/5/bits/basic_string.h ****     operator+(const basic_string<_CharT, _Traits, _Alloc>& __lhs,
 2753              		.loc 8 4820 0
 2754              		.cfi_startproc
 2755              		.cfi_personality 0x3,__gxx_personality_v0
 2756              		.cfi_lsda 0x3,.LLSDA2264
 2757 0000 55       		pushq	%rbp
 2758              		.cfi_def_cfa_offset 16
 2759              		.cfi_offset 6, -16
 2760 0001 4889E5   		movq	%rsp, %rbp
 2761              		.cfi_def_cfa_register 6
 2762 0004 53       		pushq	%rbx
 2763 0005 4883EC38 		subq	$56, %rsp
 2764              		.cfi_offset 3, -24
 2765 0009 48897DD8 		movq	%rdi, -40(%rbp)
 2766 000d 488975D0 		movq	%rsi, -48(%rbp)
 2767 0011 488955C8 		movq	%rdx, -56(%rbp)
 2768              		.loc 8 4820 0
 2769 0015 64488B04 		movq	%fs:40, %rax
 2769      25280000 
 2769      00
 2770 001e 488945E8 		movq	%rax, -24(%rbp)
 2771 0022 31C0     		xorl	%eax, %eax
4821:/usr/include/c++/5/bits/basic_string.h **** 	      const _CharT* __rhs)
4822:/usr/include/c++/5/bits/basic_string.h ****     {
4823:/usr/include/c++/5/bits/basic_string.h ****       basic_string<_CharT, _Traits, _Alloc> __str(__lhs);
 2772              		.loc 8 4823 0
 2773 0024 488B55D0 		movq	-48(%rbp), %rdx
 2774 0028 488B45D8 		movq	-40(%rbp), %rax
 2775 002c 4889D6   		movq	%rdx, %rsi
 2776 002f 4889C7   		movq	%rax, %rdi
 2777              	.LEHB60:
 2778 0032 E8000000 		call	_ZNSt7__cxx1112basic_stringIcSt11char_traitsIcESaIcEEC1ERKS4_
 2778      00
 2779              	.LEHE60:
4824:/usr/include/c++/5/bits/basic_string.h ****       __str.append(__rhs);
 2780              		.loc 8 4824 0
 2781 0037 488B55C8 		movq	-56(%rbp), %rdx
 2782 003b 488B45D8 		movq	-40(%rbp), %rax
 2783 003f 4889D6   		movq	%rdx, %rsi
 2784 0042 4889C7   		movq	%rax, %rdi
 2785              	.LEHB61:
 2786 0045 E8000000 		call	_ZNSt7__cxx1112basic_stringIcSt11char_traitsIcESaIcEE6appendEPKc
 2786      00
 2787              	.LEHE61:
4825:/usr/include/c++/5/bits/basic_string.h ****       return __str;
 2788              		.loc 8 4825 0
 2789 004a EB1A     		jmp	.L129
 2790              	.L128:
 2791 004c 4889C3   		movq	%rax, %rbx
 2792 004f 488B45D8 		movq	-40(%rbp), %rax
 2793 0053 4889C7   		movq	%rax, %rdi
 2794 0056 E8000000 		call	_ZNSt7__cxx1112basic_stringIcSt11char_traitsIcESaIcEED1Ev
 2794      00
 2795 005b 4889D8   		movq	%rbx, %rax
 2796 005e 4889C7   		movq	%rax, %rdi
 2797              	.LEHB62:
 2798 0061 E8000000 		call	_Unwind_Resume
GAS LISTING /tmp/ccGYUW7A.s 			page 159


 2798      00
 2799              	.LEHE62:
 2800              	.L129:
4826:/usr/include/c++/5/bits/basic_string.h ****     }
 2801              		.loc 8 4826 0
 2802 0066 488B45D8 		movq	-40(%rbp), %rax
 2803 006a 488B4DE8 		movq	-24(%rbp), %rcx
 2804 006e 6448330C 		xorq	%fs:40, %rcx
 2804      25280000 
 2804      00
 2805 0077 7405     		je	.L127
 2806 0079 E8000000 		call	__stack_chk_fail
 2806      00
 2807              	.L127:
 2808 007e 4883C438 		addq	$56, %rsp
 2809 0082 5B       		popq	%rbx
 2810 0083 5D       		popq	%rbp
 2811              		.cfi_def_cfa 7, 8
 2812 0084 C3       		ret
 2813              		.cfi_endproc
 2814              	.LFE2264:
 2815              		.section	.gcc_except_table
 2816              	.LLSDA2264:
 2817 014f FF       		.byte	0xff
 2818 0150 FF       		.byte	0xff
 2819 0151 01       		.byte	0x1
 2820 0152 0C       		.uleb128 .LLSDACSE2264-.LLSDACSB2264
 2821              	.LLSDACSB2264:
 2822 0153 32       		.uleb128 .LEHB60-.LFB2264
 2823 0154 05       		.uleb128 .LEHE60-.LEHB60
 2824 0155 00       		.uleb128 0
 2825 0156 00       		.uleb128 0
 2826 0157 45       		.uleb128 .LEHB61-.LFB2264
 2827 0158 05       		.uleb128 .LEHE61-.LEHB61
 2828 0159 4C       		.uleb128 .L128-.LFB2264
 2829 015a 00       		.uleb128 0
 2830 015b 61       		.uleb128 .LEHB62-.LFB2264
 2831 015c 05       		.uleb128 .LEHE62-.LEHB62
 2832 015d 00       		.uleb128 0
 2833 015e 00       		.uleb128 0
 2834              	.LLSDACSE2264:
 2835              		.section	.text._ZStplIcSt11char_traitsIcESaIcEENSt7__cxx1112basic_stringIT_T0_T1_EERKS8_PKS5_,"axG
 2837              		.weak	_ZTV7program
 2838              		.section	.rodata._ZTV7program,"aG",@progbits,_ZTV7program,comdat
 2839              		.align 8
 2842              	_ZTV7program:
 2843 0000 00000000 		.quad	0
 2843      00000000 
 2844 0008 00000000 		.quad	_ZTI7program
 2844      00000000 
 2845 0010 00000000 		.quad	_ZN7programD1Ev
 2845      00000000 
 2846 0018 00000000 		.quad	_ZN7programD0Ev
 2846      00000000 
 2847              		.weak	_ZTV10vector_var
 2848              		.section	.rodata._ZTV10vector_var,"aG",@progbits,_ZTV10vector_var,comdat
 2849              		.align 8
GAS LISTING /tmp/ccGYUW7A.s 			page 160


 2852              	_ZTV10vector_var:
 2853 0000 00000000 		.quad	0
 2853      00000000 
 2854 0008 00000000 		.quad	_ZTI10vector_var
 2854      00000000 
 2855 0010 00000000 		.quad	_ZN10vector_varD1Ev
 2855      00000000 
 2856 0018 00000000 		.quad	_ZN10vector_varD0Ev
 2856      00000000 
 2857              		.weak	_ZTI7program
 2858              		.section	.rodata._ZTI7program,"aG",@progbits,_ZTI7program,comdat
 2859              		.align 8
 2862              	_ZTI7program:
 2863 0000 00000000 		.quad	_ZTVN10__cxxabiv117__class_type_infoE+16
 2863      00000000 
 2864 0008 00000000 		.quad	_ZTS7program
 2864      00000000 
 2865              		.weak	_ZTS7program
 2866              		.section	.rodata._ZTS7program,"aG",@progbits,_ZTS7program,comdat
 2867              		.align 8
 2870              	_ZTS7program:
 2871 0000 3770726F 		.string	"7program"
 2871      6772616D 
 2871      00
 2872              		.weak	_ZTI10vector_var
 2873              		.section	.rodata._ZTI10vector_var,"aG",@progbits,_ZTI10vector_var,comdat
 2874              		.align 8
 2877              	_ZTI10vector_var:
 2878 0000 00000000 		.quad	_ZTVN10__cxxabiv117__class_type_infoE+16
 2878      00000000 
 2879 0008 00000000 		.quad	_ZTS10vector_var
 2879      00000000 
 2880              		.weak	_ZTS10vector_var
 2881              		.section	.rodata._ZTS10vector_var,"aG",@progbits,_ZTS10vector_var,comdat
 2882              		.align 8
 2885              	_ZTS10vector_var:
 2886 0000 31307665 		.string	"10vector_var"
 2886      63746F72 
 2886      5F766172 
 2886      00
 2887              		.text
 2889              	_Z41__static_initialization_and_destruction_0ii:
 2890              	.LFB2489:
 2891              		.loc 4 385 0
 2892              		.cfi_startproc
 2893 17f2 55       		pushq	%rbp
 2894              		.cfi_def_cfa_offset 16
 2895              		.cfi_offset 6, -16
 2896 17f3 4889E5   		movq	%rsp, %rbp
 2897              		.cfi_def_cfa_register 6
 2898 17f6 4883EC10 		subq	$16, %rsp
 2899 17fa 897DFC   		movl	%edi, -4(%rbp)
 2900 17fd 8975F8   		movl	%esi, -8(%rbp)
 2901              		.loc 4 385 0
 2902 1800 837DFC01 		cmpl	$1, -4(%rbp)
 2903 1804 7527     		jne	.L132
 2904              		.loc 4 385 0 is_stmt 0 discriminator 1
GAS LISTING /tmp/ccGYUW7A.s 			page 161


 2905 1806 817DF8FF 		cmpl	$65535, -8(%rbp)
 2905      FF0000
 2906 180d 751E     		jne	.L132
 2907              		.file 9 "/usr/include/c++/5/iostream"
   1:/usr/include/c++/5/iostream **** // Standard iostream objects -*- C++ -*-
   2:/usr/include/c++/5/iostream **** 
   3:/usr/include/c++/5/iostream **** // Copyright (C) 1997-2015 Free Software Foundation, Inc.
   4:/usr/include/c++/5/iostream **** //
   5:/usr/include/c++/5/iostream **** // This file is part of the GNU ISO C++ Library.  This library is free
   6:/usr/include/c++/5/iostream **** // software; you can redistribute it and/or modify it under the
   7:/usr/include/c++/5/iostream **** // terms of the GNU General Public License as published by the
   8:/usr/include/c++/5/iostream **** // Free Software Foundation; either version 3, or (at your option)
   9:/usr/include/c++/5/iostream **** // any later version.
  10:/usr/include/c++/5/iostream **** 
  11:/usr/include/c++/5/iostream **** // This library is distributed in the hope that it will be useful,
  12:/usr/include/c++/5/iostream **** // but WITHOUT ANY WARRANTY; without even the implied warranty of
  13:/usr/include/c++/5/iostream **** // MERCHANTABILITY or FITNESS FOR A PARTICULAR PURPOSE.  See the
  14:/usr/include/c++/5/iostream **** // GNU General Public License for more details.
  15:/usr/include/c++/5/iostream **** 
  16:/usr/include/c++/5/iostream **** // Under Section 7 of GPL version 3, you are granted additional
  17:/usr/include/c++/5/iostream **** // permissions described in the GCC Runtime Library Exception, version
  18:/usr/include/c++/5/iostream **** // 3.1, as published by the Free Software Foundation.
  19:/usr/include/c++/5/iostream **** 
  20:/usr/include/c++/5/iostream **** // You should have received a copy of the GNU General Public License and
  21:/usr/include/c++/5/iostream **** // a copy of the GCC Runtime Library Exception along with this program;
  22:/usr/include/c++/5/iostream **** // see the files COPYING3 and COPYING.RUNTIME respectively.  If not, see
  23:/usr/include/c++/5/iostream **** // <http://www.gnu.org/licenses/>.
  24:/usr/include/c++/5/iostream **** 
  25:/usr/include/c++/5/iostream **** /** @file include/iostream
  26:/usr/include/c++/5/iostream ****  *  This is a Standard C++ Library header.
  27:/usr/include/c++/5/iostream ****  */
  28:/usr/include/c++/5/iostream **** 
  29:/usr/include/c++/5/iostream **** //
  30:/usr/include/c++/5/iostream **** // ISO C++ 14882: 27.3  Standard iostream objects
  31:/usr/include/c++/5/iostream **** //
  32:/usr/include/c++/5/iostream **** 
  33:/usr/include/c++/5/iostream **** #ifndef _GLIBCXX_IOSTREAM
  34:/usr/include/c++/5/iostream **** #define _GLIBCXX_IOSTREAM 1
  35:/usr/include/c++/5/iostream **** 
  36:/usr/include/c++/5/iostream **** #pragma GCC system_header
  37:/usr/include/c++/5/iostream **** 
  38:/usr/include/c++/5/iostream **** #include <bits/c++config.h>
  39:/usr/include/c++/5/iostream **** #include <ostream>
  40:/usr/include/c++/5/iostream **** #include <istream>
  41:/usr/include/c++/5/iostream **** 
  42:/usr/include/c++/5/iostream **** namespace std _GLIBCXX_VISIBILITY(default)
  43:/usr/include/c++/5/iostream **** {
  44:/usr/include/c++/5/iostream **** _GLIBCXX_BEGIN_NAMESPACE_VERSION
  45:/usr/include/c++/5/iostream **** 
  46:/usr/include/c++/5/iostream ****   /**
  47:/usr/include/c++/5/iostream ****    *  @name Standard Stream Objects
  48:/usr/include/c++/5/iostream ****    *
  49:/usr/include/c++/5/iostream ****    *  The &lt;iostream&gt; header declares the eight <em>standard stream
  50:/usr/include/c++/5/iostream ****    *  objects</em>.  For other declarations, see
  51:/usr/include/c++/5/iostream ****    *  http://gcc.gnu.org/onlinedocs/libstdc++/manual/io.html
  52:/usr/include/c++/5/iostream ****    *  and the @link iosfwd I/O forward declarations @endlink
  53:/usr/include/c++/5/iostream ****    *
GAS LISTING /tmp/ccGYUW7A.s 			page 162


  54:/usr/include/c++/5/iostream ****    *  They are required by default to cooperate with the global C
  55:/usr/include/c++/5/iostream ****    *  library's @c FILE streams, and to be available during program
  56:/usr/include/c++/5/iostream ****    *  startup and termination. For more information, see the section of the
  57:/usr/include/c++/5/iostream ****    *  manual linked to above.
  58:/usr/include/c++/5/iostream ****   */
  59:/usr/include/c++/5/iostream ****   //@{
  60:/usr/include/c++/5/iostream ****   extern istream cin;		/// Linked to standard input
  61:/usr/include/c++/5/iostream ****   extern ostream cout;		/// Linked to standard output
  62:/usr/include/c++/5/iostream ****   extern ostream cerr;		/// Linked to standard error (unbuffered)
  63:/usr/include/c++/5/iostream ****   extern ostream clog;		/// Linked to standard error (buffered)
  64:/usr/include/c++/5/iostream **** 
  65:/usr/include/c++/5/iostream **** #ifdef _GLIBCXX_USE_WCHAR_T
  66:/usr/include/c++/5/iostream ****   extern wistream wcin;		/// Linked to standard input
  67:/usr/include/c++/5/iostream ****   extern wostream wcout;	/// Linked to standard output
  68:/usr/include/c++/5/iostream ****   extern wostream wcerr;	/// Linked to standard error (unbuffered)
  69:/usr/include/c++/5/iostream ****   extern wostream wclog;	/// Linked to standard error (buffered)
  70:/usr/include/c++/5/iostream **** #endif
  71:/usr/include/c++/5/iostream ****   //@}
  72:/usr/include/c++/5/iostream **** 
  73:/usr/include/c++/5/iostream ****   // For construction of filebuffers for cout, cin, cerr, clog et. al.
  74:/usr/include/c++/5/iostream ****   static ios_base::Init __ioinit;
 2908              		.loc 9 74 0 is_stmt 1
 2909 180f BF000000 		movl	$_ZStL8__ioinit, %edi
 2909      00
 2910 1814 E8000000 		call	_ZNSt8ios_base4InitC1Ev
 2910      00
 2911 1819 BA000000 		movl	$__dso_handle, %edx
 2911      00
 2912 181e BE000000 		movl	$_ZStL8__ioinit, %esi
 2912      00
 2913 1823 BF000000 		movl	$_ZNSt8ios_base4InitD1Ev, %edi
 2913      00
 2914 1828 E8000000 		call	__cxa_atexit
 2914      00
 2915              	.L132:
 2916              		.loc 4 385 0
 2917 182d 90       		nop
 2918 182e C9       		leave
 2919              		.cfi_def_cfa 7, 8
 2920 182f C3       		ret
 2921              		.cfi_endproc
 2922              	.LFE2489:
 2925              	_GLOBAL__sub_I__ZN7programC2Ev:
 2926              	.LFB2490:
 2927              		.loc 4 385 0
 2928              		.cfi_startproc
 2929 1830 55       		pushq	%rbp
 2930              		.cfi_def_cfa_offset 16
 2931              		.cfi_offset 6, -16
 2932 1831 4889E5   		movq	%rsp, %rbp
 2933              		.cfi_def_cfa_register 6
 2934              		.loc 4 385 0
 2935 1834 BEFFFF00 		movl	$65535, %esi
 2935      00
 2936 1839 BF010000 		movl	$1, %edi
 2936      00
 2937 183e E8AFFFFF 		call	_Z41__static_initialization_and_destruction_0ii
GAS LISTING /tmp/ccGYUW7A.s 			page 163


 2937      FF
 2938 1843 5D       		popq	%rbp
 2939              		.cfi_def_cfa 7, 8
 2940 1844 C3       		ret
 2941              		.cfi_endproc
 2942              	.LFE2490:
 2944              		.section	.init_array,"aw"
 2945              		.align 8
 2946 0000 00000000 		.quad	_GLOBAL__sub_I__ZN7programC2Ev
 2946      00000000 
 2947              		.section	.rodata
 2948              		.align 8
 2949              	.LC1:
 2950 0070 00000000 		.long	0
 2951 0074 80842E41 		.long	1093567616
 2952              		.text
 2953              	.Letext0:
 2954              		.file 10 "/usr/include/c++/5/bits/stringfwd.h"
 2955              		.file 11 "/usr/include/c++/5/type_traits"
 2956              		.file 12 "/usr/include/c++/5/cwchar"
 2957              		.file 13 "/usr/include/c++/5/bits/char_traits.h"
 2958              		.file 14 "/usr/include/x86_64-linux-gnu/c++/5/bits/c++config.h"
 2959              		.file 15 "/usr/include/c++/5/cstdint"
 2960              		.file 16 "/usr/include/c++/5/bits/exception_ptr.h"
 2961              		.file 17 "/usr/include/c++/5/bits/allocator.h"
 2962              		.file 18 "/usr/include/c++/5/clocale"
 2963              		.file 19 "/usr/include/c++/5/cstdlib"
 2964              		.file 20 "/usr/include/c++/5/cstdio"
 2965              		.file 21 "/usr/include/c++/5/bits/alloc_traits.h"
 2966              		.file 22 "/usr/include/c++/5/initializer_list"
 2967              		.file 23 "/usr/include/c++/5/cstring"
 2968              		.file 24 "/usr/include/c++/5/ctime"
 2969              		.file 25 "/usr/include/c++/5/system_error"
 2970              		.file 26 "/usr/include/c++/5/bits/ios_base.h"
 2971              		.file 27 "/usr/include/c++/5/cwctype"
 2972              		.file 28 "/usr/include/c++/5/bits/stl_iterator_base_types.h"
 2973              		.file 29 "/usr/include/c++/5/iosfwd"
 2974              		.file 30 "/usr/include/c++/5/debug/debug.h"
 2975              		.file 31 "/usr/include/c++/5/bits/predefined_ops.h"
 2976              		.file 32 "/usr/include/c++/5/ext/new_allocator.h"
 2977              		.file 33 "/usr/include/c++/5/ext/numeric_traits.h"
 2978              		.file 34 "/usr/include/c++/5/ext/alloc_traits.h"
 2979              		.file 35 "/usr/include/c++/5/bits/stl_iterator.h"
 2980              		.file 36 "/usr/include/stdio.h"
 2981              		.file 37 "/usr/include/libio.h"
 2982              		.file 38 "<built-in>"
 2983              		.file 39 "/usr/lib/gcc/x86_64-linux-gnu/5/include/stddef.h"
 2984              		.file 40 "/usr/include/wchar.h"
 2985              		.file 41 "/usr/include/time.h"
 2986              		.file 42 "/usr/include/stdint.h"
 2987              		.file 43 "/usr/include/locale.h"
 2988              		.file 44 "/usr/include/x86_64-linux-gnu/bits/types.h"
 2989              		.file 45 "/usr/include/x86_64-linux-gnu/c++/5/bits/atomic_word.h"
 2990              		.file 46 "/usr/include/stdlib.h"
 2991              		.file 47 "/usr/include/_G_config.h"
 2992              		.file 48 "include/program.h"
 2993              		.file 49 "/usr/include/string.h"
GAS LISTING /tmp/ccGYUW7A.s 			page 164


 2994              		.file 50 "include/tinyxml2.h"
 2995              		.file 51 "include/preprocessor.h"
 2996              		.file 52 "include/Solver.h"
 2997              		.file 53 "/usr/include/wctype.h"
 2998              		.file 54 "/usr/local/tecplot/360ex_2017r2/include/StandardIntegralTypes.h"
 2999              		.file 55 "/usr/local/tecplot/360ex_2017r2/include/TECIO.h"
 3000              		.file 56 "/usr/include/c++/5/bits/stl_pair.h"
GAS LISTING /tmp/ccGYUW7A.s 			page 165


DEFINED SYMBOLS
                            *ABS*:0000000000000000 program.cpp
     /tmp/ccGYUW7A.s:7      .rodata:0000000000000000 _ZStL19piecewise_construct
     /tmp/ccGYUW7A.s:13     .text._ZN4Mesh9get_num_xEv:0000000000000000 _ZN4Mesh9get_num_xEv
     /tmp/ccGYUW7A.s:37     .text._ZN4Mesh9get_num_yEv:0000000000000000 _ZN4Mesh9get_num_yEv
     /tmp/ccGYUW7A.s:60     .text._ZN4Mesh15get_total_cellsEv:0000000000000000 _ZN4Mesh15get_total_cellsEv
     /tmp/ccGYUW7A.s:83     .text._ZN10vector_varD2Ev:0000000000000000 _ZN10vector_varD2Ev
     /tmp/ccGYUW7A.s:2852   .rodata._ZTV10vector_var:0000000000000000 _ZTV10vector_var
     /tmp/ccGYUW7A.s:83     .text._ZN10vector_varD2Ev:0000000000000000 _ZN10vector_varD1Ev
     /tmp/ccGYUW7A.s:122    .text._ZN10vector_varD0Ev:0000000000000000 _ZN10vector_varD0Ev
     /tmp/ccGYUW7A.s:150    .text._ZN8Solution15set_average_rhoEd:0000000000000000 _ZN8Solution15set_average_rhoEd
     /tmp/ccGYUW7A.s:177    .rodata:0000000000000004 _ZL20TIXML2_MAJOR_VERSION
     /tmp/ccGYUW7A.s:182    .rodata:0000000000000008 _ZL20TIXML2_MINOR_VERSION
     /tmp/ccGYUW7A.s:187    .rodata:000000000000000c _ZL20TIXML2_PATCH_VERSION
                             .bss:0000000000000000 _ZStL8__ioinit
     /tmp/ccGYUW7A.s:194    .rodata:0000000000000010 _ZL16InvalidEnumValue
     /tmp/ccGYUW7A.s:199    .rodata:0000000000000014 _ZL14FILEFORMAT_PLT
     /tmp/ccGYUW7A.s:204    .rodata:0000000000000018 _ZL14FILEFORMAT_SZL
     /tmp/ccGYUW7A.s:209    .rodata:000000000000001c _ZL13FILETYPE_FULL
     /tmp/ccGYUW7A.s:214    .rodata:0000000000000020 _ZL13FILETYPE_GRID
     /tmp/ccGYUW7A.s:219    .rodata:0000000000000024 _ZL17FILETYPE_SOLUTION
     /tmp/ccGYUW7A.s:225    .text:0000000000000000 _ZN7programC2Ev
     /tmp/ccGYUW7A.s:2842   .rodata._ZTV7program:0000000000000000 _ZTV7program
     /tmp/ccGYUW7A.s:225    .text:0000000000000000 _ZN7programC1Ev
     /tmp/ccGYUW7A.s:255    .text:0000000000000018 _ZN7programD2Ev
     /tmp/ccGYUW7A.s:255    .text:0000000000000018 _ZN7programD1Ev
     /tmp/ccGYUW7A.s:293    .text:0000000000000048 _ZN7programD0Ev
     /tmp/ccGYUW7A.s:321    .text._ZN15domain_geometryC2ERKS_:0000000000000000 _ZN15domain_geometryC2ERKS_
     /tmp/ccGYUW7A.s:321    .text._ZN15domain_geometryC2ERKS_:0000000000000000 _ZN15domain_geometryC1ERKS_
     /tmp/ccGYUW7A.s:376    .text._ZN16global_variablesC2ERKS_:0000000000000000 _ZN16global_variablesC2ERKS_
     /tmp/ccGYUW7A.s:376    .text._ZN16global_variablesC2ERKS_:0000000000000000 _ZN16global_variablesC1ERKS_
     /tmp/ccGYUW7A.s:600    .text._ZN13quad_bcs_plusC2ERKS_:0000000000000000 _ZN13quad_bcs_plusC2ERKS_
     /tmp/ccGYUW7A.s:600    .text._ZN13quad_bcs_plusC2ERKS_:0000000000000000 _ZN13quad_bcs_plusC1ERKS_
     /tmp/ccGYUW7A.s:731    .text._ZN10vector_varC2ERKS_:0000000000000000 _ZN10vector_varC2ERKS_
     /tmp/ccGYUW7A.s:731    .text._ZN10vector_varC2ERKS_:0000000000000000 _ZN10vector_varC1ERKS_
     /tmp/ccGYUW7A.s:776    .text:000000000000006e _ZN7program3runEPc
     /tmp/ccGYUW7A.s:1932   .text:0000000000000e3e _ZN7program8copyfileEPcNSt7__cxx1112basic_stringIcSt11char_traitsIcESaIcEEE
     /tmp/ccGYUW7A.s:2060   .text:0000000000000f52 _ZN7program9fmg_cycleERiR8SolutionS2_R4MeshR13quad_bcs_plusR18initial_conditions16global_variablesR15domain_geometryR19Boundary_Conditions
     /tmp/ccGYUW7A.s:1607   .text:0000000000000a48 _ZN7program14output_globalsE16global_variablesd
     /tmp/ccGYUW7A.s:2750   .text._ZStplIcSt11char_traitsIcESaIcEENSt7__cxx1112basic_stringIT_T0_T1_EERKS8_PKS5_:0000000000000000 _ZStplIcSt11char_traitsIcESaIcEENSt7__cxx1112basic_stringIT_T0_T1_EERKS8_PKS5_
     /tmp/ccGYUW7A.s:2862   .rodata._ZTI7program:0000000000000000 _ZTI7program
     /tmp/ccGYUW7A.s:2877   .rodata._ZTI10vector_var:0000000000000000 _ZTI10vector_var
     /tmp/ccGYUW7A.s:2870   .rodata._ZTS7program:0000000000000000 _ZTS7program
     /tmp/ccGYUW7A.s:2885   .rodata._ZTS10vector_var:0000000000000000 _ZTS10vector_var
     /tmp/ccGYUW7A.s:2889   .text:00000000000017f2 _Z41__static_initialization_and_destruction_0ii
     /tmp/ccGYUW7A.s:2925   .text:0000000000001830 _GLOBAL__sub_I__ZN7programC2Ev
                           .group:0000000000000000 _ZN10vector_varD5Ev
                           .group:0000000000000000 _ZN15domain_geometryC5ERKS_
                           .group:0000000000000000 _ZN16global_variablesC5ERKS_
                           .group:0000000000000000 _ZN13quad_bcs_plusC5ERKS_
                           .group:0000000000000000 _ZN10vector_varC5ERKS_

UNDEFINED SYMBOLS
_ZdlPv
_ZTV15domain_geometry
__gxx_personality_v0
_ZTV16global_variables
GAS LISTING /tmp/ccGYUW7A.s 			page 166


_ZNSt7__cxx1112basic_stringIcSt11char_traitsIcESaIcEEC1ERKS4_
_ZNSt7__cxx1112basic_stringIcSt11char_traitsIcESaIcEED1Ev
_Unwind_Resume
_ZTV13quad_bcs_plus
_ZN13quad_bcs_plusC1Ev
_ZN16global_variablesC1Ev
_ZN15domain_geometryC1Ev
_ZN18initial_conditionsC1Ev
clock
_ZN12preprocessorC1Ev
_ZN12preprocessor28initialise_program_variablesEPcR16global_variablesR15domain_geometryR18initial_conditionsR13quad_bcs_plus
_ZN4MeshC1E15domain_geometry16global_variables
_ZN15domain_geometryD1Ev
_ZN16global_variablesD1Ev
_ZN19Boundary_ConditionsC1Eii
_ZN19Boundary_Conditions26assign_boundary_conditionsEii13quad_bcs_plus
_ZN13quad_bcs_plusD1Ev
_ZN15external_forcesC1Ei
_ZN15external_forces17set_uniform_forceEd
_ZN8SolutionC1Ei
_ZN8Solution24assign_pressure_gradientE10vector_varS0_S0_R4Mesh
_ZN8Solution24assign_velocity_gradientE10vector_varS0_S0_R4Mesh
_ZN6SolverC1Ev
_ZN14tecplot_outputC1ER16global_variablesR4MeshR8SolutionR19Boundary_Conditionsid
_ZN6Solver25Uniform_Mesh_Solver_CleanER4MeshR8SolutionR19Boundary_ConditionsR15external_forcesR16global_variablesR15domain_geometryR18initial_conditionsR13quad_bcs_plusiS3_i
_ZN8Solution12post_processEdR4MeshR16global_variablesR18initial_conditions
_ZN8Solution6outputENSt7__cxx1112basic_stringIcSt11char_traitsIcESaIcEEER16global_variablesR15domain_geometry
_ZSt4cout
_ZNSolsEd
_ZSt4endlIcSt11char_traitsIcEERSt13basic_ostreamIT_T0_ES6_
_ZNSolsEPFRSoS_E
_ZStlsISt11char_traitsIcEERSt13basic_ostreamIcT_ES5_PKc
_ZN14tecplot_outputD1Ev
_ZN6SolverD1Ev
_ZN8SolutionD1Ev
_ZN15external_forcesD1Ev
_ZN19Boundary_ConditionsD1Ev
_ZN4MeshD1Ev
_ZN12preprocessorD1Ev
_ZN18initial_conditionsD1Ev
__stack_chk_fail
_ZNSt7__cxx1112basic_stringIcSt11char_traitsIcESaIcEEC1Ev
_ZNSt14basic_ofstreamIcSt11char_traitsIcEEC1Ev
_ZNSt7__cxx1112basic_stringIcSt11char_traitsIcESaIcEEaSERKS4_
_ZNSt7__cxx1112basic_stringIcSt11char_traitsIcESaIcEEaSEOS4_
_ZNKSt7__cxx1112basic_stringIcSt11char_traitsIcESaIcEE5c_strEv
_ZNSt14basic_ofstreamIcSt11char_traitsIcEE4openEPKcSt13_Ios_Openmode
_ZNSt7__cxx1112basic_stringIcSt11char_traitsIcESaIcEEaSEc
_ZNSt14basic_ofstreamIcSt11char_traitsIcEE5closeEv
_ZNSt14basic_ofstreamIcSt11char_traitsIcEED1Ev
_ZNSt7__cxx1112basic_stringIcSt11char_traitsIcESaIcEE6appendEPKc
_ZNSt14basic_ifstreamIcSt11char_traitsIcEEC1EPKcSt13_Ios_Openmode
_ZNSt14basic_ofstreamIcSt11char_traitsIcEEC1ERKNSt7__cxx1112basic_stringIcS1_SaIcEEESt13_Ios_Openmode
_ZNKSt14basic_ifstreamIcSt11char_traitsIcEE5rdbufEv
_ZNSolsEPSt15basic_streambufIcSt11char_traitsIcEE
_ZNSt14basic_ifstreamIcSt11char_traitsIcEED1Ev
_ZN4Mesh25create_coarse_mesh_domainEv
GAS LISTING /tmp/ccGYUW7A.s 			page 167


_ZN16global_variables10update_tauE15domain_geometry
_ZN16global_variables17magnify_time_stepEv
_ZN6Solver17Mesh_Solver_CleanER4MeshR8SolutionR19Boundary_ConditionsR15external_forcesR16global_variablesR15domain_geometryR18initial_conditionsR13quad_bcs_plusiS3_i
_ZN8Solution10update_bcsER19Boundary_ConditionsR4MeshR15domain_geometry
_ZN8Solution12prolongationERS_S0_S0_R4MeshS2_R19Boundary_Conditionsb
_ZN16global_variables16reduce_time_stepEv
_ZTVN10__cxxabiv117__class_type_infoE
_ZNSt8ios_base4InitC1Ev
__dso_handle
_ZNSt8ios_base4InitD1Ev
__cxa_atexit
