GAS LISTING /tmp/ccgO5yh4.s 			page 1


   1              		.file	"residuals.cpp"
   2              		.text
   3              	.Ltext0:
   4              		.section	.rodata
   7              	_ZStL19piecewise_construct:
   8 0000 00       		.zero	1
   9              		.text
  10              		.align 2
  11              		.globl	_ZN9residualsC2Ev
  13              	_ZN9residualsC2Ev:
  14              	.LFB875:
  15              		.file 1 "/home/brendan/Dropbox/PhD/Code/LBM/2D LBFS/src/residuals.cpp"
   1:/home/brendan/Dropbox/PhD/Code/LBM/2D LBFS/src/residuals.cpp **** #include "residuals.h"
   2:/home/brendan/Dropbox/PhD/Code/LBM/2D LBFS/src/residuals.cpp **** #include <math.h>
   3:/home/brendan/Dropbox/PhD/Code/LBM/2D LBFS/src/residuals.cpp **** 
   4:/home/brendan/Dropbox/PhD/Code/LBM/2D LBFS/src/residuals.cpp **** #include "global_variables.h"
   5:/home/brendan/Dropbox/PhD/Code/LBM/2D LBFS/src/residuals.cpp **** residuals::residuals()
  16              		.loc 1 5 0
  17              		.cfi_startproc
  18 0000 55       		pushq	%rbp
  19              		.cfi_def_cfa_offset 16
  20              		.cfi_offset 6, -16
  21 0001 4889E5   		movq	%rsp, %rbp
  22              		.cfi_def_cfa_register 6
  23 0004 48897DF8 		movq	%rdi, -8(%rbp)
  24              	.LBB2:
  25              		.loc 1 5 0
  26 0008 BA000000 		movl	$_ZTV9residuals+16, %edx
  26      00
  27 000d 488B45F8 		movq	-8(%rbp), %rax
  28 0011 488910   		movq	%rdx, (%rax)
   6:/home/brendan/Dropbox/PhD/Code/LBM/2D LBFS/src/residuals.cpp **** {
   7:/home/brendan/Dropbox/PhD/Code/LBM/2D LBFS/src/residuals.cpp ****     //ctor
   8:/home/brendan/Dropbox/PhD/Code/LBM/2D LBFS/src/residuals.cpp ****     max_rho = 0;
  29              		.loc 1 8 0
  30 0014 488B45F8 		movq	-8(%rbp), %rax
  31 0018 660FEFC0 		pxor	%xmm0, %xmm0
  32 001c F20F1140 		movsd	%xmm0, 112(%rax)
  32      70
   9:/home/brendan/Dropbox/PhD/Code/LBM/2D LBFS/src/residuals.cpp ****     max_u = 0;
  33              		.loc 1 9 0
  34 0021 488B45F8 		movq	-8(%rbp), %rax
  35 0025 660FEFC0 		pxor	%xmm0, %xmm0
  36 0029 F20F1140 		movsd	%xmm0, 120(%rax)
  36      78
  10:/home/brendan/Dropbox/PhD/Code/LBM/2D LBFS/src/residuals.cpp ****     max_v = 0;
  37              		.loc 1 10 0
  38 002e 488B45F8 		movq	-8(%rbp), %rax
  39 0032 660FEFC0 		pxor	%xmm0, %xmm0
  40 0036 F20F1180 		movsd	%xmm0, 128(%rax)
  40      80000000 
  41              	.LBE2:
  11:/home/brendan/Dropbox/PhD/Code/LBM/2D LBFS/src/residuals.cpp **** }
  42              		.loc 1 11 0
  43 003e 90       		nop
  44 003f 5D       		popq	%rbp
  45              		.cfi_def_cfa 7, 8
GAS LISTING /tmp/ccgO5yh4.s 			page 2


  46 0040 C3       		ret
  47              		.cfi_endproc
  48              	.LFE875:
  50              		.globl	_ZN9residualsC1Ev
  51              		.set	_ZN9residualsC1Ev,_ZN9residualsC2Ev
  52 0041 90       		.align 2
  53              		.globl	_ZN9residualsD2Ev
  55              	_ZN9residualsD2Ev:
  56              	.LFB878:
  12:/home/brendan/Dropbox/PhD/Code/LBM/2D LBFS/src/residuals.cpp **** 
  13:/home/brendan/Dropbox/PhD/Code/LBM/2D LBFS/src/residuals.cpp **** residuals::~residuals()
  57              		.loc 1 13 0
  58              		.cfi_startproc
  59 0042 55       		pushq	%rbp
  60              		.cfi_def_cfa_offset 16
  61              		.cfi_offset 6, -16
  62 0043 4889E5   		movq	%rsp, %rbp
  63              		.cfi_def_cfa_register 6
  64 0046 4883EC10 		subq	$16, %rsp
  65 004a 48897DF8 		movq	%rdi, -8(%rbp)
  66              	.LBB3:
  67              		.loc 1 13 0
  68 004e BA000000 		movl	$_ZTV9residuals+16, %edx
  68      00
  69 0053 488B45F8 		movq	-8(%rbp), %rax
  70 0057 488910   		movq	%rdx, (%rax)
  71              	.LBE3:
  14:/home/brendan/Dropbox/PhD/Code/LBM/2D LBFS/src/residuals.cpp **** {
  15:/home/brendan/Dropbox/PhD/Code/LBM/2D LBFS/src/residuals.cpp ****     //dtor
  16:/home/brendan/Dropbox/PhD/Code/LBM/2D LBFS/src/residuals.cpp **** }
  72              		.loc 1 16 0
  73 005a B8000000 		movl	$0, %eax
  73      00
  74 005f 85C0     		testl	%eax, %eax
  75 0061 740C     		je	.L2
  76              		.loc 1 16 0 is_stmt 0 discriminator 1
  77 0063 488B45F8 		movq	-8(%rbp), %rax
  78 0067 4889C7   		movq	%rax, %rdi
  79 006a E8000000 		call	_ZdlPv
  79      00
  80              	.L2:
  81              		.loc 1 16 0
  82 006f C9       		leave
  83              		.cfi_def_cfa 7, 8
  84 0070 C3       		ret
  85              		.cfi_endproc
  86              	.LFE878:
  88              		.globl	_ZN9residualsD1Ev
  89              		.set	_ZN9residualsD1Ev,_ZN9residualsD2Ev
  90 0071 90       		.align 2
  91              		.globl	_ZN9residualsD0Ev
  93              	_ZN9residualsD0Ev:
  94              	.LFB880:
  13:/home/brendan/Dropbox/PhD/Code/LBM/2D LBFS/src/residuals.cpp **** {
  95              		.loc 1 13 0 is_stmt 1
  96              		.cfi_startproc
  97 0072 55       		pushq	%rbp
GAS LISTING /tmp/ccgO5yh4.s 			page 3


  98              		.cfi_def_cfa_offset 16
  99              		.cfi_offset 6, -16
 100 0073 4889E5   		movq	%rsp, %rbp
 101              		.cfi_def_cfa_register 6
 102 0076 4883EC10 		subq	$16, %rsp
 103 007a 48897DF8 		movq	%rdi, -8(%rbp)
 104              		.loc 1 16 0
 105 007e 488B45F8 		movq	-8(%rbp), %rax
 106 0082 4889C7   		movq	%rax, %rdi
 107 0085 E8000000 		call	_ZN9residualsD1Ev
 107      00
 108 008a 488B45F8 		movq	-8(%rbp), %rax
 109 008e 4889C7   		movq	%rax, %rdi
 110 0091 E8000000 		call	_ZdlPv
 110      00
 111 0096 C9       		leave
 112              		.cfi_def_cfa 7, 8
 113 0097 C3       		ret
 114              		.cfi_endproc
 115              	.LFE880:
 117              		.align 2
 118              		.globl	_ZN9residuals5resetEv
 120              	_ZN9residuals5resetEv:
 121              	.LFB881:
  17:/home/brendan/Dropbox/PhD/Code/LBM/2D LBFS/src/residuals.cpp **** 
  18:/home/brendan/Dropbox/PhD/Code/LBM/2D LBFS/src/residuals.cpp **** void residuals::reset(){
 122              		.loc 1 18 0
 123              		.cfi_startproc
 124 0098 55       		pushq	%rbp
 125              		.cfi_def_cfa_offset 16
 126              		.cfi_offset 6, -16
 127 0099 4889E5   		movq	%rsp, %rbp
 128              		.cfi_def_cfa_register 6
 129 009c 48897DF8 		movq	%rdi, -8(%rbp)
  19:/home/brendan/Dropbox/PhD/Code/LBM/2D LBFS/src/residuals.cpp **** 
  20:/home/brendan/Dropbox/PhD/Code/LBM/2D LBFS/src/residuals.cpp ****         rho_rms = 0;
 130              		.loc 1 20 0
 131 00a0 488B45F8 		movq	-8(%rbp), %rax
 132 00a4 660FEFC0 		pxor	%xmm0, %xmm0
 133 00a8 F20F1140 		movsd	%xmm0, 8(%rax)
 133      08
  21:/home/brendan/Dropbox/PhD/Code/LBM/2D LBFS/src/residuals.cpp ****         u_rms =0;
 134              		.loc 1 21 0
 135 00ad 488B45F8 		movq	-8(%rbp), %rax
 136 00b1 660FEFC0 		pxor	%xmm0, %xmm0
 137 00b5 F20F1140 		movsd	%xmm0, 16(%rax)
 137      10
  22:/home/brendan/Dropbox/PhD/Code/LBM/2D LBFS/src/residuals.cpp ****         v_rms = 0;
 138              		.loc 1 22 0
 139 00ba 488B45F8 		movq	-8(%rbp), %rax
 140 00be 660FEFC0 		pxor	%xmm0, %xmm0
 141 00c2 F20F1140 		movsd	%xmm0, 24(%rax)
 141      18
  23:/home/brendan/Dropbox/PhD/Code/LBM/2D LBFS/src/residuals.cpp ****         w_rms = 0;
 142              		.loc 1 23 0
 143 00c7 488B45F8 		movq	-8(%rbp), %rax
 144 00cb 660FEFC0 		pxor	%xmm0, %xmm0
GAS LISTING /tmp/ccgO5yh4.s 			page 4


 145 00cf F20F1140 		movsd	%xmm0, 32(%rax)
 145      20
  24:/home/brendan/Dropbox/PhD/Code/LBM/2D LBFS/src/residuals.cpp ****         rho_rms_num =0 ;
 146              		.loc 1 24 0
 147 00d4 488B45F8 		movq	-8(%rbp), %rax
 148 00d8 660FEFC0 		pxor	%xmm0, %xmm0
 149 00dc F20F1140 		movsd	%xmm0, 40(%rax)
 149      28
  25:/home/brendan/Dropbox/PhD/Code/LBM/2D LBFS/src/residuals.cpp ****         u_rms_num =0;
 150              		.loc 1 25 0
 151 00e1 488B45F8 		movq	-8(%rbp), %rax
 152 00e5 660FEFC0 		pxor	%xmm0, %xmm0
 153 00e9 F20F1140 		movsd	%xmm0, 48(%rax)
 153      30
  26:/home/brendan/Dropbox/PhD/Code/LBM/2D LBFS/src/residuals.cpp ****         v_rms_num = 0;
 154              		.loc 1 26 0
 155 00ee 488B45F8 		movq	-8(%rbp), %rax
 156 00f2 660FEFC0 		pxor	%xmm0, %xmm0
 157 00f6 F20F1140 		movsd	%xmm0, 56(%rax)
 157      38
  27:/home/brendan/Dropbox/PhD/Code/LBM/2D LBFS/src/residuals.cpp ****         w_rms_num = 0;
 158              		.loc 1 27 0
 159 00fb 488B45F8 		movq	-8(%rbp), %rax
 160 00ff 660FEFC0 		pxor	%xmm0, %xmm0
 161 0103 F20F1140 		movsd	%xmm0, 64(%rax)
 161      40
  28:/home/brendan/Dropbox/PhD/Code/LBM/2D LBFS/src/residuals.cpp ****         rho_rms_den =0;
 162              		.loc 1 28 0
 163 0108 488B45F8 		movq	-8(%rbp), %rax
 164 010c 660FEFC0 		pxor	%xmm0, %xmm0
 165 0110 F20F1140 		movsd	%xmm0, 80(%rax)
 165      50
  29:/home/brendan/Dropbox/PhD/Code/LBM/2D LBFS/src/residuals.cpp ****         u_rms_den = 0;
 166              		.loc 1 29 0
 167 0115 488B45F8 		movq	-8(%rbp), %rax
 168 0119 660FEFC0 		pxor	%xmm0, %xmm0
 169 011d F20F1140 		movsd	%xmm0, 88(%rax)
 169      58
  30:/home/brendan/Dropbox/PhD/Code/LBM/2D LBFS/src/residuals.cpp ****         v_rms_den = 0;
 170              		.loc 1 30 0
 171 0122 488B45F8 		movq	-8(%rbp), %rax
 172 0126 660FEFC0 		pxor	%xmm0, %xmm0
 173 012a F20F1140 		movsd	%xmm0, 96(%rax)
 173      60
  31:/home/brendan/Dropbox/PhD/Code/LBM/2D LBFS/src/residuals.cpp ****         w_rms_den = 0;
 174              		.loc 1 31 0
 175 012f 488B45F8 		movq	-8(%rbp), %rax
 176 0133 660FEFC0 		pxor	%xmm0, %xmm0
 177 0137 F20F1140 		movsd	%xmm0, 104(%rax)
 177      68
  32:/home/brendan/Dropbox/PhD/Code/LBM/2D LBFS/src/residuals.cpp **** 
  33:/home/brendan/Dropbox/PhD/Code/LBM/2D LBFS/src/residuals.cpp **** }
 178              		.loc 1 33 0
 179 013c 90       		nop
 180 013d 5D       		popq	%rbp
 181              		.cfi_def_cfa 7, 8
 182 013e C3       		ret
GAS LISTING /tmp/ccgO5yh4.s 			page 5


 183              		.cfi_endproc
 184              	.LFE881:
 186 013f 90       		.align 2
 187              		.globl	_ZN9residuals21add_l2_norm_residualsEdddddd
 189              	_ZN9residuals21add_l2_norm_residualsEdddddd:
 190              	.LFB882:
  34:/home/brendan/Dropbox/PhD/Code/LBM/2D LBFS/src/residuals.cpp **** void residuals::add_l2_norm_residuals(double f1, double rho, double f2, double u,
  35:/home/brendan/Dropbox/PhD/Code/LBM/2D LBFS/src/residuals.cpp ****         double f3, double v){
 191              		.loc 1 35 0
 192              		.cfi_startproc
 193 0140 55       		pushq	%rbp
 194              		.cfi_def_cfa_offset 16
 195              		.cfi_offset 6, -16
 196 0141 4889E5   		movq	%rsp, %rbp
 197              		.cfi_def_cfa_register 6
 198 0144 4883EC50 		subq	$80, %rsp
 199 0148 48897DF8 		movq	%rdi, -8(%rbp)
 200 014c F20F1145 		movsd	%xmm0, -16(%rbp)
 200      F0
 201 0151 F20F114D 		movsd	%xmm1, -24(%rbp)
 201      E8
 202 0156 F20F1155 		movsd	%xmm2, -32(%rbp)
 202      E0
 203 015b F20F115D 		movsd	%xmm3, -40(%rbp)
 203      D8
 204 0160 F20F1165 		movsd	%xmm4, -48(%rbp)
 204      D0
 205 0165 F20F116D 		movsd	%xmm5, -56(%rbp)
 205      C8
  36:/home/brendan/Dropbox/PhD/Code/LBM/2D LBFS/src/residuals.cpp **** 
  37:/home/brendan/Dropbox/PhD/Code/LBM/2D LBFS/src/residuals.cpp ****             rho_rms_num = rho_rms_num + pow( f1 -rho ,2.0 );
 206              		.loc 1 37 0
 207 016a 488B45F8 		movq	-8(%rbp), %rax
 208 016e F20F1070 		movsd	40(%rax), %xmm6
 208      28
 209 0173 F20F1175 		movsd	%xmm6, -64(%rbp)
 209      C0
 210 0178 F20F1045 		movsd	-16(%rbp), %xmm0
 210      F0
 211 017d F20F5C45 		subsd	-24(%rbp), %xmm0
 211      E8
 212 0182 F20F100D 		movsd	.LC1(%rip), %xmm1
 212      00000000 
 213 018a E8000000 		call	pow
 213      00
 214 018f F20F5845 		addsd	-64(%rbp), %xmm0
 214      C0
 215 0194 488B45F8 		movq	-8(%rbp), %rax
 216 0198 F20F1140 		movsd	%xmm0, 40(%rax)
 216      28
  38:/home/brendan/Dropbox/PhD/Code/LBM/2D LBFS/src/residuals.cpp ****             if( f1 < pow(1,-8)){
 217              		.loc 1 38 0
 218 019d F20F1005 		movsd	.LC2(%rip), %xmm0
 218      00000000 
 219 01a5 660F2E45 		ucomisd	-16(%rbp), %xmm0
 219      F0
 220 01aa 7620     		jbe	.L11
GAS LISTING /tmp/ccgO5yh4.s 			page 6


  39:/home/brendan/Dropbox/PhD/Code/LBM/2D LBFS/src/residuals.cpp ****                 rho_rms_den = rho_rms_den + pow(1,5) ;
 221              		.loc 1 39 0
 222 01ac 488B45F8 		movq	-8(%rbp), %rax
 223 01b0 F20F1048 		movsd	80(%rax), %xmm1
 223      50
 224 01b5 F20F1005 		movsd	.LC2(%rip), %xmm0
 224      00000000 
 225 01bd F20F58C1 		addsd	%xmm1, %xmm0
 226 01c1 488B45F8 		movq	-8(%rbp), %rax
 227 01c5 F20F1140 		movsd	%xmm0, 80(%rax)
 227      50
 228 01ca EB3A     		jmp	.L9
 229              	.L11:
  40:/home/brendan/Dropbox/PhD/Code/LBM/2D LBFS/src/residuals.cpp **** 
  41:/home/brendan/Dropbox/PhD/Code/LBM/2D LBFS/src/residuals.cpp ****             }else{
  42:/home/brendan/Dropbox/PhD/Code/LBM/2D LBFS/src/residuals.cpp ****                 rho_rms_den = rho_rms_den + pow(f1,2) ;
 230              		.loc 1 42 0
 231 01cc 488B45F8 		movq	-8(%rbp), %rax
 232 01d0 F20F1078 		movsd	80(%rax), %xmm7
 232      50
 233 01d5 F20F117D 		movsd	%xmm7, -64(%rbp)
 233      C0
 234 01da F20F1005 		movsd	.LC1(%rip), %xmm0
 234      00000000 
 235 01e2 488B45F0 		movq	-16(%rbp), %rax
 236 01e6 660F28C8 		movapd	%xmm0, %xmm1
 237 01ea 488945B8 		movq	%rax, -72(%rbp)
 238 01ee F20F1045 		movsd	-72(%rbp), %xmm0
 238      B8
 239 01f3 E8000000 		call	pow
 239      00
 240 01f8 F20F5845 		addsd	-64(%rbp), %xmm0
 240      C0
 241 01fd 488B45F8 		movq	-8(%rbp), %rax
 242 0201 F20F1140 		movsd	%xmm0, 80(%rax)
 242      50
 243              	.L9:
  43:/home/brendan/Dropbox/PhD/Code/LBM/2D LBFS/src/residuals.cpp **** 
  44:/home/brendan/Dropbox/PhD/Code/LBM/2D LBFS/src/residuals.cpp ****             }
  45:/home/brendan/Dropbox/PhD/Code/LBM/2D LBFS/src/residuals.cpp ****             u_rms_num = u_rms_num + pow( f2 -u,2.0 );
 244              		.loc 1 45 0
 245 0206 488B45F8 		movq	-8(%rbp), %rax
 246 020a F20F1050 		movsd	48(%rax), %xmm2
 246      30
 247 020f F20F1155 		movsd	%xmm2, -64(%rbp)
 247      C0
 248 0214 F20F1045 		movsd	-32(%rbp), %xmm0
 248      E0
 249 0219 F20F5C45 		subsd	-40(%rbp), %xmm0
 249      D8
 250 021e F20F100D 		movsd	.LC1(%rip), %xmm1
 250      00000000 
 251 0226 E8000000 		call	pow
 251      00
 252 022b F20F5845 		addsd	-64(%rbp), %xmm0
 252      C0
 253 0230 488B45F8 		movq	-8(%rbp), %rax
GAS LISTING /tmp/ccgO5yh4.s 			page 7


 254 0234 F20F1140 		movsd	%xmm0, 48(%rax)
 254      30
  46:/home/brendan/Dropbox/PhD/Code/LBM/2D LBFS/src/residuals.cpp ****             u_rms_den = u_rms_den + pow(f2,2) ;
 255              		.loc 1 46 0
 256 0239 488B45F8 		movq	-8(%rbp), %rax
 257 023d F20F1058 		movsd	88(%rax), %xmm3
 257      58
 258 0242 F20F115D 		movsd	%xmm3, -64(%rbp)
 258      C0
 259 0247 F20F1005 		movsd	.LC1(%rip), %xmm0
 259      00000000 
 260 024f 488B45E0 		movq	-32(%rbp), %rax
 261 0253 660F28C8 		movapd	%xmm0, %xmm1
 262 0257 488945B8 		movq	%rax, -72(%rbp)
 263 025b F20F1045 		movsd	-72(%rbp), %xmm0
 263      B8
 264 0260 E8000000 		call	pow
 264      00
 265 0265 F20F5845 		addsd	-64(%rbp), %xmm0
 265      C0
 266 026a 488B45F8 		movq	-8(%rbp), %rax
 267 026e F20F1140 		movsd	%xmm0, 88(%rax)
 267      58
  47:/home/brendan/Dropbox/PhD/Code/LBM/2D LBFS/src/residuals.cpp **** 
  48:/home/brendan/Dropbox/PhD/Code/LBM/2D LBFS/src/residuals.cpp ****             v_rms_num = v_rms_num + pow( f3 -v ,2.0 ) ;
 268              		.loc 1 48 0
 269 0273 488B45F8 		movq	-8(%rbp), %rax
 270 0277 F20F1060 		movsd	56(%rax), %xmm4
 270      38
 271 027c F20F1165 		movsd	%xmm4, -64(%rbp)
 271      C0
 272 0281 F20F1045 		movsd	-48(%rbp), %xmm0
 272      D0
 273 0286 F20F5C45 		subsd	-56(%rbp), %xmm0
 273      C8
 274 028b F20F100D 		movsd	.LC1(%rip), %xmm1
 274      00000000 
 275 0293 E8000000 		call	pow
 275      00
 276 0298 F20F5845 		addsd	-64(%rbp), %xmm0
 276      C0
 277 029d 488B45F8 		movq	-8(%rbp), %rax
 278 02a1 F20F1140 		movsd	%xmm0, 56(%rax)
 278      38
  49:/home/brendan/Dropbox/PhD/Code/LBM/2D LBFS/src/residuals.cpp ****             v_rms_den = v_rms_den +pow(f3,2);
 279              		.loc 1 49 0
 280 02a6 488B45F8 		movq	-8(%rbp), %rax
 281 02aa F20F1068 		movsd	96(%rax), %xmm5
 281      60
 282 02af F20F116D 		movsd	%xmm5, -64(%rbp)
 282      C0
 283 02b4 F20F1005 		movsd	.LC1(%rip), %xmm0
 283      00000000 
 284 02bc 488B45D0 		movq	-48(%rbp), %rax
 285 02c0 660F28C8 		movapd	%xmm0, %xmm1
 286 02c4 488945B8 		movq	%rax, -72(%rbp)
 287 02c8 F20F1045 		movsd	-72(%rbp), %xmm0
GAS LISTING /tmp/ccgO5yh4.s 			page 8


 287      B8
 288 02cd E8000000 		call	pow
 288      00
 289 02d2 F20F5845 		addsd	-64(%rbp), %xmm0
 289      C0
 290 02d7 488B45F8 		movq	-8(%rbp), %rax
 291 02db F20F1140 		movsd	%xmm0, 96(%rax)
 291      60
  50:/home/brendan/Dropbox/PhD/Code/LBM/2D LBFS/src/residuals.cpp ****             v_rms_den = v_rms_den + 1;
 292              		.loc 1 50 0
 293 02e0 488B45F8 		movq	-8(%rbp), %rax
 294 02e4 F20F1048 		movsd	96(%rax), %xmm1
 294      60
 295 02e9 F20F1005 		movsd	.LC2(%rip), %xmm0
 295      00000000 
 296 02f1 F20F58C1 		addsd	%xmm1, %xmm0
 297 02f5 488B45F8 		movq	-8(%rbp), %rax
 298 02f9 F20F1140 		movsd	%xmm0, 96(%rax)
 298      60
  51:/home/brendan/Dropbox/PhD/Code/LBM/2D LBFS/src/residuals.cpp **** 
  52:/home/brendan/Dropbox/PhD/Code/LBM/2D LBFS/src/residuals.cpp ****     };
 299              		.loc 1 52 0
 300 02fe 90       		nop
 301 02ff C9       		leave
 302              		.cfi_def_cfa 7, 8
 303 0300 C3       		ret
 304              		.cfi_endproc
 305              	.LFE882:
 307 0301 90       		.align 2
 308              		.globl	_ZN9residuals11l2_norm_rmsEv
 310              	_ZN9residuals11l2_norm_rmsEv:
 311              	.LFB883:
  53:/home/brendan/Dropbox/PhD/Code/LBM/2D LBFS/src/residuals.cpp **** 
  54:/home/brendan/Dropbox/PhD/Code/LBM/2D LBFS/src/residuals.cpp **** void residuals::l2_norm_rms(){
 312              		.loc 1 54 0
 313              		.cfi_startproc
 314 0302 55       		pushq	%rbp
 315              		.cfi_def_cfa_offset 16
 316              		.cfi_offset 6, -16
 317 0303 4889E5   		movq	%rsp, %rbp
 318              		.cfi_def_cfa_register 6
 319 0306 4881EC30 		subq	$304, %rsp
 319      010000
 320 030d 4889BDD8 		movq	%rdi, -296(%rbp)
 320      FEFFFF
 321              		.loc 1 54 0
 322 0314 64488B04 		movq	%fs:40, %rax
 322      25280000 
 322      00
 323 031d 488945F8 		movq	%rax, -8(%rbp)
 324 0321 31C0     		xorl	%eax, %eax
  55:/home/brendan/Dropbox/PhD/Code/LBM/2D LBFS/src/residuals.cpp **** 
  56:/home/brendan/Dropbox/PhD/Code/LBM/2D LBFS/src/residuals.cpp ****         global_variables globals;
 325              		.loc 1 56 0
 326 0323 488D85E0 		leaq	-288(%rbp), %rax
 326      FEFFFF
 327 032a 4889C7   		movq	%rax, %rdi
GAS LISTING /tmp/ccgO5yh4.s 			page 9


 328 032d E8000000 		call	_ZN16global_variablesC1Ev
 328      00
  57:/home/brendan/Dropbox/PhD/Code/LBM/2D LBFS/src/residuals.cpp ****         if (rho_rms_den < globals.small_number){
 329              		.loc 1 57 0
 330 0332 488B85D8 		movq	-296(%rbp), %rax
 330      FEFFFF
 331 0339 F20F1048 		movsd	80(%rax), %xmm1
 331      50
 332 033e F20F1085 		movsd	-264(%rbp), %xmm0
 332      F8FEFFFF 
 333 0346 660F2EC1 		ucomisd	%xmm1, %xmm0
 334 034a 7612     		jbe	.L26
  58:/home/brendan/Dropbox/PhD/Code/LBM/2D LBFS/src/residuals.cpp ****             rho_rms = 0 ;
 335              		.loc 1 58 0
 336 034c 488B85D8 		movq	-296(%rbp), %rax
 336      FEFFFF
 337 0353 660FEFC0 		pxor	%xmm0, %xmm0
 338 0357 F20F1140 		movsd	%xmm0, 8(%rax)
 338      08
 339 035c EB31     		jmp	.L15
 340              	.L26:
  59:/home/brendan/Dropbox/PhD/Code/LBM/2D LBFS/src/residuals.cpp ****         }else{
  60:/home/brendan/Dropbox/PhD/Code/LBM/2D LBFS/src/residuals.cpp ****             rho_rms = sqrt(rho_rms_num / rho_rms_den);
 341              		.loc 1 60 0
 342 035e 488B85D8 		movq	-296(%rbp), %rax
 342      FEFFFF
 343 0365 F20F1040 		movsd	40(%rax), %xmm0
 343      28
 344 036a 488B85D8 		movq	-296(%rbp), %rax
 344      FEFFFF
 345 0371 F20F1048 		movsd	80(%rax), %xmm1
 345      50
 346 0376 F20F5EC1 		divsd	%xmm1, %xmm0
 347 037a E8000000 		call	sqrt
 347      00
 348 037f 66480F7E 		movq	%xmm0, %rdx
 348      C2
 349 0384 488B85D8 		movq	-296(%rbp), %rax
 349      FEFFFF
 350 038b 48895008 		movq	%rdx, 8(%rax)
 351              	.L15:
  61:/home/brendan/Dropbox/PhD/Code/LBM/2D LBFS/src/residuals.cpp ****         }
  62:/home/brendan/Dropbox/PhD/Code/LBM/2D LBFS/src/residuals.cpp **** 
  63:/home/brendan/Dropbox/PhD/Code/LBM/2D LBFS/src/residuals.cpp ****         if (u_rms_den < globals.small_number){
 352              		.loc 1 63 0
 353 038f 488B85D8 		movq	-296(%rbp), %rax
 353      FEFFFF
 354 0396 F20F1048 		movsd	88(%rax), %xmm1
 354      58
 355 039b F20F1085 		movsd	-264(%rbp), %xmm0
 355      F8FEFFFF 
 356 03a3 660F2EC1 		ucomisd	%xmm1, %xmm0
 357 03a7 761A     		jbe	.L27
  64:/home/brendan/Dropbox/PhD/Code/LBM/2D LBFS/src/residuals.cpp ****             u_rms = u_rms ;
 358              		.loc 1 64 0
 359 03a9 488B85D8 		movq	-296(%rbp), %rax
 359      FEFFFF
GAS LISTING /tmp/ccgO5yh4.s 			page 10


 360 03b0 F20F1040 		movsd	16(%rax), %xmm0
 360      10
 361 03b5 488B85D8 		movq	-296(%rbp), %rax
 361      FEFFFF
 362 03bc F20F1140 		movsd	%xmm0, 16(%rax)
 362      10
 363 03c1 EB31     		jmp	.L18
 364              	.L27:
  65:/home/brendan/Dropbox/PhD/Code/LBM/2D LBFS/src/residuals.cpp ****         }else{
  66:/home/brendan/Dropbox/PhD/Code/LBM/2D LBFS/src/residuals.cpp ****             u_rms = sqrt(u_rms_num / u_rms_den);
 365              		.loc 1 66 0
 366 03c3 488B85D8 		movq	-296(%rbp), %rax
 366      FEFFFF
 367 03ca F20F1040 		movsd	48(%rax), %xmm0
 367      30
 368 03cf 488B85D8 		movq	-296(%rbp), %rax
 368      FEFFFF
 369 03d6 F20F1048 		movsd	88(%rax), %xmm1
 369      58
 370 03db F20F5EC1 		divsd	%xmm1, %xmm0
 371 03df E8000000 		call	sqrt
 371      00
 372 03e4 66480F7E 		movq	%xmm0, %rdx
 372      C2
 373 03e9 488B85D8 		movq	-296(%rbp), %rax
 373      FEFFFF
 374 03f0 48895010 		movq	%rdx, 16(%rax)
 375              	.L18:
  67:/home/brendan/Dropbox/PhD/Code/LBM/2D LBFS/src/residuals.cpp ****         }
  68:/home/brendan/Dropbox/PhD/Code/LBM/2D LBFS/src/residuals.cpp **** 
  69:/home/brendan/Dropbox/PhD/Code/LBM/2D LBFS/src/residuals.cpp ****         if (v_rms_den < globals.small_number){
 376              		.loc 1 69 0
 377 03f4 488B85D8 		movq	-296(%rbp), %rax
 377      FEFFFF
 378 03fb F20F1048 		movsd	96(%rax), %xmm1
 378      60
 379 0400 F20F1085 		movsd	-264(%rbp), %xmm0
 379      F8FEFFFF 
 380 0408 660F2EC1 		ucomisd	%xmm1, %xmm0
 381 040c 761A     		jbe	.L28
  70:/home/brendan/Dropbox/PhD/Code/LBM/2D LBFS/src/residuals.cpp ****             v_rms = v_rms;
 382              		.loc 1 70 0
 383 040e 488B85D8 		movq	-296(%rbp), %rax
 383      FEFFFF
 384 0415 F20F1040 		movsd	24(%rax), %xmm0
 384      18
 385 041a 488B85D8 		movq	-296(%rbp), %rax
 385      FEFFFF
 386 0421 F20F1140 		movsd	%xmm0, 24(%rax)
 386      18
 387 0426 EB31     		jmp	.L21
 388              	.L28:
  71:/home/brendan/Dropbox/PhD/Code/LBM/2D LBFS/src/residuals.cpp ****         }else{
  72:/home/brendan/Dropbox/PhD/Code/LBM/2D LBFS/src/residuals.cpp ****             v_rms = sqrt(v_rms_num / v_rms_den) ;
 389              		.loc 1 72 0
 390 0428 488B85D8 		movq	-296(%rbp), %rax
 390      FEFFFF
GAS LISTING /tmp/ccgO5yh4.s 			page 11


 391 042f F20F1040 		movsd	56(%rax), %xmm0
 391      38
 392 0434 488B85D8 		movq	-296(%rbp), %rax
 392      FEFFFF
 393 043b F20F1048 		movsd	96(%rax), %xmm1
 393      60
 394 0440 F20F5EC1 		divsd	%xmm1, %xmm0
 395 0444 E8000000 		call	sqrt
 395      00
 396 0449 66480F7E 		movq	%xmm0, %rdx
 396      C2
 397 044e 488B85D8 		movq	-296(%rbp), %rax
 397      FEFFFF
 398 0455 48895018 		movq	%rdx, 24(%rax)
 399              	.L21:
  56:/home/brendan/Dropbox/PhD/Code/LBM/2D LBFS/src/residuals.cpp ****         if (rho_rms_den < globals.small_number){
 400              		.loc 1 56 0
 401 0459 488D85E0 		leaq	-288(%rbp), %rax
 401      FEFFFF
 402 0460 4889C7   		movq	%rax, %rdi
 403 0463 E8000000 		call	_ZN16global_variablesD1Ev
 403      00
  73:/home/brendan/Dropbox/PhD/Code/LBM/2D LBFS/src/residuals.cpp ****         }
  74:/home/brendan/Dropbox/PhD/Code/LBM/2D LBFS/src/residuals.cpp **** 
  75:/home/brendan/Dropbox/PhD/Code/LBM/2D LBFS/src/residuals.cpp **** }
 404              		.loc 1 75 0
 405 0468 90       		nop
 406 0469 488B45F8 		movq	-8(%rbp), %rax
 407 046d 64483304 		xorq	%fs:40, %rax
 407      25280000 
 407      00
 408 0476 7405     		je	.L22
 409 0478 E8000000 		call	__stack_chk_fail
 409      00
 410              	.L22:
 411 047d C9       		leave
 412              		.cfi_def_cfa 7, 8
 413 047e C3       		ret
 414              		.cfi_endproc
 415              	.LFE883:
 417 047f 90       		.align 2
 418              		.globl	_ZN9residuals9max_errorEv
 420              	_ZN9residuals9max_errorEv:
 421              	.LFB884:
  76:/home/brendan/Dropbox/PhD/Code/LBM/2D LBFS/src/residuals.cpp **** 
  77:/home/brendan/Dropbox/PhD/Code/LBM/2D LBFS/src/residuals.cpp **** double residuals::max_error (){
 422              		.loc 1 77 0
 423              		.cfi_startproc
 424 0480 55       		pushq	%rbp
 425              		.cfi_def_cfa_offset 16
 426              		.cfi_offset 6, -16
 427 0481 4889E5   		movq	%rsp, %rbp
 428              		.cfi_def_cfa_register 6
 429 0484 4883EC20 		subq	$32, %rsp
 430 0488 48897DE8 		movq	%rdi, -24(%rbp)
  78:/home/brendan/Dropbox/PhD/Code/LBM/2D LBFS/src/residuals.cpp **** 
  79:/home/brendan/Dropbox/PhD/Code/LBM/2D LBFS/src/residuals.cpp ****     double temp;
GAS LISTING /tmp/ccgO5yh4.s 			page 12


  80:/home/brendan/Dropbox/PhD/Code/LBM/2D LBFS/src/residuals.cpp ****     temp = fmax(rho_rms, u_rms);
 431              		.loc 1 80 0
 432 048c 488B45E8 		movq	-24(%rbp), %rax
 433 0490 F20F1040 		movsd	16(%rax), %xmm0
 433      10
 434 0495 488B45E8 		movq	-24(%rbp), %rax
 435 0499 488B4008 		movq	8(%rax), %rax
 436 049d 660F28C8 		movapd	%xmm0, %xmm1
 437 04a1 488945E0 		movq	%rax, -32(%rbp)
 438 04a5 F20F1045 		movsd	-32(%rbp), %xmm0
 438      E0
 439 04aa E8000000 		call	fmax
 439      00
 440 04af 66480F7E 		movq	%xmm0, %rax
 440      C0
 441 04b4 488945F8 		movq	%rax, -8(%rbp)
  81:/home/brendan/Dropbox/PhD/Code/LBM/2D LBFS/src/residuals.cpp ****     return fmax(temp, v_rms);
 442              		.loc 1 81 0
 443 04b8 488B45E8 		movq	-24(%rbp), %rax
 444 04bc F20F1040 		movsd	24(%rax), %xmm0
 444      18
 445 04c1 488B45F8 		movq	-8(%rbp), %rax
 446 04c5 660F28C8 		movapd	%xmm0, %xmm1
 447 04c9 488945E0 		movq	%rax, -32(%rbp)
 448 04cd F20F1045 		movsd	-32(%rbp), %xmm0
 448      E0
 449 04d2 E8000000 		call	fmax
 449      00
 450 04d7 66480F7E 		movq	%xmm0, %rax
 450      C0
 451 04dc 488945E0 		movq	%rax, -32(%rbp)
 452 04e0 F20F1045 		movsd	-32(%rbp), %xmm0
 452      E0
  82:/home/brendan/Dropbox/PhD/Code/LBM/2D LBFS/src/residuals.cpp **** 
  83:/home/brendan/Dropbox/PhD/Code/LBM/2D LBFS/src/residuals.cpp **** }
 453              		.loc 1 83 0
 454 04e5 C9       		leave
 455              		.cfi_def_cfa 7, 8
 456 04e6 C3       		ret
 457              		.cfi_endproc
 458              	.LFE884:
 460 04e7 90       		.align 2
 461              		.globl	_ZN9residuals27add_ansys_l2_norm_residualsEddddddd
 463              	_ZN9residuals27add_ansys_l2_norm_residualsEddddddd:
 464              	.LFB885:
  84:/home/brendan/Dropbox/PhD/Code/LBM/2D LBFS/src/residuals.cpp **** 
  85:/home/brendan/Dropbox/PhD/Code/LBM/2D LBFS/src/residuals.cpp **** void residuals::add_ansys_l2_norm_residuals(double f1, double rho, double f2, double u, double f3, 
 465              		.loc 1 85 0
 466              		.cfi_startproc
 467 04e8 55       		pushq	%rbp
 468              		.cfi_def_cfa_offset 16
 469              		.cfi_offset 6, -16
 470 04e9 4889E5   		movq	%rsp, %rbp
 471              		.cfi_def_cfa_register 6
 472 04ec 4883EC50 		subq	$80, %rsp
 473 04f0 48897DF8 		movq	%rdi, -8(%rbp)
 474 04f4 F20F1145 		movsd	%xmm0, -16(%rbp)
GAS LISTING /tmp/ccgO5yh4.s 			page 13


 474      F0
 475 04f9 F20F114D 		movsd	%xmm1, -24(%rbp)
 475      E8
 476 04fe F20F1155 		movsd	%xmm2, -32(%rbp)
 476      E0
 477 0503 F20F115D 		movsd	%xmm3, -40(%rbp)
 477      D8
 478 0508 F20F1165 		movsd	%xmm4, -48(%rbp)
 478      D0
 479 050d F20F116D 		movsd	%xmm5, -56(%rbp)
 479      C8
 480 0512 F20F1175 		movsd	%xmm6, -64(%rbp)
 480      C0
  86:/home/brendan/Dropbox/PhD/Code/LBM/2D LBFS/src/residuals.cpp **** 
  87:/home/brendan/Dropbox/PhD/Code/LBM/2D LBFS/src/residuals.cpp ****     rho_rms_num = rho_rms_num + pow( (f1 -rho)/delta_t ,2.0 );
 481              		.loc 1 87 0
 482 0517 488B45F8 		movq	-8(%rbp), %rax
 483 051b F20F1078 		movsd	40(%rax), %xmm7
 483      28
 484 0520 F20F117D 		movsd	%xmm7, -72(%rbp)
 484      B8
 485 0525 F20F1045 		movsd	-16(%rbp), %xmm0
 485      F0
 486 052a F20F5C45 		subsd	-24(%rbp), %xmm0
 486      E8
 487 052f F20F5E45 		divsd	-64(%rbp), %xmm0
 487      C0
 488 0534 F20F100D 		movsd	.LC1(%rip), %xmm1
 488      00000000 
 489 053c E8000000 		call	pow
 489      00
 490 0541 F20F5845 		addsd	-72(%rbp), %xmm0
 490      B8
 491 0546 488B45F8 		movq	-8(%rbp), %rax
 492 054a F20F1140 		movsd	%xmm0, 40(%rax)
 492      28
  88:/home/brendan/Dropbox/PhD/Code/LBM/2D LBFS/src/residuals.cpp ****     u_rms_num = u_rms_num + pow( (f2 - u)/delta_t ,2.0 );
 493              		.loc 1 88 0
 494 054f 488B45F8 		movq	-8(%rbp), %rax
 495 0553 F20F1050 		movsd	48(%rax), %xmm2
 495      30
 496 0558 F20F1155 		movsd	%xmm2, -72(%rbp)
 496      B8
 497 055d F20F1045 		movsd	-32(%rbp), %xmm0
 497      E0
 498 0562 F20F5C45 		subsd	-40(%rbp), %xmm0
 498      D8
 499 0567 F20F5E45 		divsd	-64(%rbp), %xmm0
 499      C0
 500 056c F20F100D 		movsd	.LC1(%rip), %xmm1
 500      00000000 
 501 0574 E8000000 		call	pow
 501      00
 502 0579 F20F5845 		addsd	-72(%rbp), %xmm0
 502      B8
 503 057e 488B45F8 		movq	-8(%rbp), %rax
 504 0582 F20F1140 		movsd	%xmm0, 48(%rax)
GAS LISTING /tmp/ccgO5yh4.s 			page 14


 504      30
  89:/home/brendan/Dropbox/PhD/Code/LBM/2D LBFS/src/residuals.cpp ****     v_rms_num = v_rms_num + pow( (f3 - v)/delta_t ,2.0 ) ;
 505              		.loc 1 89 0
 506 0587 488B45F8 		movq	-8(%rbp), %rax
 507 058b F20F1058 		movsd	56(%rax), %xmm3
 507      38
 508 0590 F20F115D 		movsd	%xmm3, -72(%rbp)
 508      B8
 509 0595 F20F1045 		movsd	-48(%rbp), %xmm0
 509      D0
 510 059a F20F5C45 		subsd	-56(%rbp), %xmm0
 510      C8
 511 059f F20F5E45 		divsd	-64(%rbp), %xmm0
 511      C0
 512 05a4 F20F100D 		movsd	.LC1(%rip), %xmm1
 512      00000000 
 513 05ac E8000000 		call	pow
 513      00
 514 05b1 F20F5845 		addsd	-72(%rbp), %xmm0
 514      B8
 515 05b6 488B45F8 		movq	-8(%rbp), %rax
 516 05ba F20F1140 		movsd	%xmm0, 56(%rax)
 516      38
  90:/home/brendan/Dropbox/PhD/Code/LBM/2D LBFS/src/residuals.cpp **** 
  91:/home/brendan/Dropbox/PhD/Code/LBM/2D LBFS/src/residuals.cpp **** 
  92:/home/brendan/Dropbox/PhD/Code/LBM/2D LBFS/src/residuals.cpp **** };
 517              		.loc 1 92 0
 518 05bf 90       		nop
 519 05c0 C9       		leave
 520              		.cfi_def_cfa 7, 8
 521 05c1 C3       		ret
 522              		.cfi_endproc
 523              	.LFE885:
 525              		.align 2
 526              		.globl	_ZN9residuals16ansys_5_iter_rmsEi
 528              	_ZN9residuals16ansys_5_iter_rmsEi:
 529              	.LFB886:
  93:/home/brendan/Dropbox/PhD/Code/LBM/2D LBFS/src/residuals.cpp **** 
  94:/home/brendan/Dropbox/PhD/Code/LBM/2D LBFS/src/residuals.cpp **** 
  95:/home/brendan/Dropbox/PhD/Code/LBM/2D LBFS/src/residuals.cpp **** // get max residual from first 5 timesteps and use this to scale subsequent timesteps
  96:/home/brendan/Dropbox/PhD/Code/LBM/2D LBFS/src/residuals.cpp **** void residuals::ansys_5_iter_rms(int timestep){
 530              		.loc 1 96 0
 531              		.cfi_startproc
 532 05c2 55       		pushq	%rbp
 533              		.cfi_def_cfa_offset 16
 534              		.cfi_offset 6, -16
 535 05c3 4889E5   		movq	%rsp, %rbp
 536              		.cfi_def_cfa_register 6
 537 05c6 4881EC40 		subq	$320, %rsp
 537      010000
 538 05cd 4889BDD8 		movq	%rdi, -296(%rbp)
 538      FEFFFF
 539 05d4 89B5D4FE 		movl	%esi, -300(%rbp)
 539      FFFF
 540              		.loc 1 96 0
 541 05da 64488B04 		movq	%fs:40, %rax
 541      25280000 
GAS LISTING /tmp/ccgO5yh4.s 			page 15


 541      00
 542 05e3 488945F8 		movq	%rax, -8(%rbp)
 543 05e7 31C0     		xorl	%eax, %eax
  97:/home/brendan/Dropbox/PhD/Code/LBM/2D LBFS/src/residuals.cpp **** 
  98:/home/brendan/Dropbox/PhD/Code/LBM/2D LBFS/src/residuals.cpp ****     if (timestep < 5){
 544              		.loc 1 98 0
 545 05e9 83BDD4FE 		cmpl	$4, -300(%rbp)
 545      FFFF04
 546 05f0 0F8FC300 		jg	.L33
 546      0000
  99:/home/brendan/Dropbox/PhD/Code/LBM/2D LBFS/src/residuals.cpp **** 
 100:/home/brendan/Dropbox/PhD/Code/LBM/2D LBFS/src/residuals.cpp ****         max_rho = fmax(rho_rms_num,max_rho);
 547              		.loc 1 100 0
 548 05f6 488B85D8 		movq	-296(%rbp), %rax
 548      FEFFFF
 549 05fd F20F1040 		movsd	112(%rax), %xmm0
 549      70
 550 0602 488B85D8 		movq	-296(%rbp), %rax
 550      FEFFFF
 551 0609 488B4028 		movq	40(%rax), %rax
 552 060d 660F28C8 		movapd	%xmm0, %xmm1
 553 0611 488985C8 		movq	%rax, -312(%rbp)
 553      FEFFFF
 554 0618 F20F1085 		movsd	-312(%rbp), %xmm0
 554      C8FEFFFF 
 555 0620 E8000000 		call	fmax
 555      00
 556 0625 66480F7E 		movq	%xmm0, %rdx
 556      C2
 557 062a 488B85D8 		movq	-296(%rbp), %rax
 557      FEFFFF
 558 0631 48895070 		movq	%rdx, 112(%rax)
 101:/home/brendan/Dropbox/PhD/Code/LBM/2D LBFS/src/residuals.cpp ****         max_u = fmax(u_rms_num, max_u);
 559              		.loc 1 101 0
 560 0635 488B85D8 		movq	-296(%rbp), %rax
 560      FEFFFF
 561 063c F20F1040 		movsd	120(%rax), %xmm0
 561      78
 562 0641 488B85D8 		movq	-296(%rbp), %rax
 562      FEFFFF
 563 0648 488B4030 		movq	48(%rax), %rax
 564 064c 660F28C8 		movapd	%xmm0, %xmm1
 565 0650 488985C8 		movq	%rax, -312(%rbp)
 565      FEFFFF
 566 0657 F20F1085 		movsd	-312(%rbp), %xmm0
 566      C8FEFFFF 
 567 065f E8000000 		call	fmax
 567      00
 568 0664 66480F7E 		movq	%xmm0, %rdx
 568      C2
 569 0669 488B85D8 		movq	-296(%rbp), %rax
 569      FEFFFF
 570 0670 48895078 		movq	%rdx, 120(%rax)
 102:/home/brendan/Dropbox/PhD/Code/LBM/2D LBFS/src/residuals.cpp ****         max_v = fmax(v_rms_num, max_v);
 571              		.loc 1 102 0
 572 0674 488B85D8 		movq	-296(%rbp), %rax
 572      FEFFFF
GAS LISTING /tmp/ccgO5yh4.s 			page 16


 573 067b F20F1080 		movsd	128(%rax), %xmm0
 573      80000000 
 574 0683 488B85D8 		movq	-296(%rbp), %rax
 574      FEFFFF
 575 068a 488B4038 		movq	56(%rax), %rax
 576 068e 660F28C8 		movapd	%xmm0, %xmm1
 577 0692 488985C8 		movq	%rax, -312(%rbp)
 577      FEFFFF
 578 0699 F20F1085 		movsd	-312(%rbp), %xmm0
 578      C8FEFFFF 
 579 06a1 E8000000 		call	fmax
 579      00
 580 06a6 66480F7E 		movq	%xmm0, %rdx
 580      C2
 581 06ab 488B85D8 		movq	-296(%rbp), %rax
 581      FEFFFF
 582 06b2 48899080 		movq	%rdx, 128(%rax)
 582      000000
 583              	.L33:
 103:/home/brendan/Dropbox/PhD/Code/LBM/2D LBFS/src/residuals.cpp **** 
 104:/home/brendan/Dropbox/PhD/Code/LBM/2D LBFS/src/residuals.cpp ****     }
 105:/home/brendan/Dropbox/PhD/Code/LBM/2D LBFS/src/residuals.cpp **** 
 106:/home/brendan/Dropbox/PhD/Code/LBM/2D LBFS/src/residuals.cpp ****      global_variables globals;
 584              		.loc 1 106 0
 585 06b9 488D85E0 		leaq	-288(%rbp), %rax
 585      FEFFFF
 586 06c0 4889C7   		movq	%rax, %rdi
 587 06c3 E8000000 		call	_ZN16global_variablesC1Ev
 587      00
 107:/home/brendan/Dropbox/PhD/Code/LBM/2D LBFS/src/residuals.cpp **** 
 108:/home/brendan/Dropbox/PhD/Code/LBM/2D LBFS/src/residuals.cpp ****     if (max_rho < globals.small_number){
 588              		.loc 1 108 0
 589 06c8 488B85D8 		movq	-296(%rbp), %rax
 589      FEFFFF
 590 06cf F20F1048 		movsd	112(%rax), %xmm1
 590      70
 591 06d4 F20F1085 		movsd	-264(%rbp), %xmm0
 591      F8FEFFFF 
 592 06dc 660F2EC1 		ucomisd	%xmm1, %xmm0
 593 06e0 761A     		jbe	.L47
 109:/home/brendan/Dropbox/PhD/Code/LBM/2D LBFS/src/residuals.cpp ****         rho_rms = rho_rms ;
 594              		.loc 1 109 0
 595 06e2 488B85D8 		movq	-296(%rbp), %rax
 595      FEFFFF
 596 06e9 F20F1040 		movsd	8(%rax), %xmm0
 596      08
 597 06ee 488B85D8 		movq	-296(%rbp), %rax
 597      FEFFFF
 598 06f5 F20F1140 		movsd	%xmm0, 8(%rax)
 598      08
 599 06fa EB31     		jmp	.L36
 600              	.L47:
 110:/home/brendan/Dropbox/PhD/Code/LBM/2D LBFS/src/residuals.cpp ****     }else{
 111:/home/brendan/Dropbox/PhD/Code/LBM/2D LBFS/src/residuals.cpp ****         rho_rms = sqrt(rho_rms_num / max_rho);
 601              		.loc 1 111 0
 602 06fc 488B85D8 		movq	-296(%rbp), %rax
 602      FEFFFF
GAS LISTING /tmp/ccgO5yh4.s 			page 17


 603 0703 F20F1040 		movsd	40(%rax), %xmm0
 603      28
 604 0708 488B85D8 		movq	-296(%rbp), %rax
 604      FEFFFF
 605 070f F20F1048 		movsd	112(%rax), %xmm1
 605      70
 606 0714 F20F5EC1 		divsd	%xmm1, %xmm0
 607 0718 E8000000 		call	sqrt
 607      00
 608 071d 66480F7E 		movq	%xmm0, %rdx
 608      C2
 609 0722 488B85D8 		movq	-296(%rbp), %rax
 609      FEFFFF
 610 0729 48895008 		movq	%rdx, 8(%rax)
 611              	.L36:
 112:/home/brendan/Dropbox/PhD/Code/LBM/2D LBFS/src/residuals.cpp ****     }
 113:/home/brendan/Dropbox/PhD/Code/LBM/2D LBFS/src/residuals.cpp **** 
 114:/home/brendan/Dropbox/PhD/Code/LBM/2D LBFS/src/residuals.cpp ****     if (max_u < globals.small_number){
 612              		.loc 1 114 0
 613 072d 488B85D8 		movq	-296(%rbp), %rax
 613      FEFFFF
 614 0734 F20F1048 		movsd	120(%rax), %xmm1
 614      78
 615 0739 F20F1085 		movsd	-264(%rbp), %xmm0
 615      F8FEFFFF 
 616 0741 660F2EC1 		ucomisd	%xmm1, %xmm0
 617 0745 761A     		jbe	.L48
 115:/home/brendan/Dropbox/PhD/Code/LBM/2D LBFS/src/residuals.cpp ****         u_rms = u_rms ;
 618              		.loc 1 115 0
 619 0747 488B85D8 		movq	-296(%rbp), %rax
 619      FEFFFF
 620 074e F20F1040 		movsd	16(%rax), %xmm0
 620      10
 621 0753 488B85D8 		movq	-296(%rbp), %rax
 621      FEFFFF
 622 075a F20F1140 		movsd	%xmm0, 16(%rax)
 622      10
 623 075f EB31     		jmp	.L39
 624              	.L48:
 116:/home/brendan/Dropbox/PhD/Code/LBM/2D LBFS/src/residuals.cpp ****     }else{
 117:/home/brendan/Dropbox/PhD/Code/LBM/2D LBFS/src/residuals.cpp ****         u_rms = sqrt(u_rms_num / max_u);
 625              		.loc 1 117 0
 626 0761 488B85D8 		movq	-296(%rbp), %rax
 626      FEFFFF
 627 0768 F20F1040 		movsd	48(%rax), %xmm0
 627      30
 628 076d 488B85D8 		movq	-296(%rbp), %rax
 628      FEFFFF
 629 0774 F20F1048 		movsd	120(%rax), %xmm1
 629      78
 630 0779 F20F5EC1 		divsd	%xmm1, %xmm0
 631 077d E8000000 		call	sqrt
 631      00
 632 0782 66480F7E 		movq	%xmm0, %rdx
 632      C2
 633 0787 488B85D8 		movq	-296(%rbp), %rax
 633      FEFFFF
GAS LISTING /tmp/ccgO5yh4.s 			page 18


 634 078e 48895010 		movq	%rdx, 16(%rax)
 635              	.L39:
 118:/home/brendan/Dropbox/PhD/Code/LBM/2D LBFS/src/residuals.cpp ****     }
 119:/home/brendan/Dropbox/PhD/Code/LBM/2D LBFS/src/residuals.cpp **** 
 120:/home/brendan/Dropbox/PhD/Code/LBM/2D LBFS/src/residuals.cpp ****     if (max_v < globals.small_number){
 636              		.loc 1 120 0
 637 0792 488B85D8 		movq	-296(%rbp), %rax
 637      FEFFFF
 638 0799 F20F1088 		movsd	128(%rax), %xmm1
 638      80000000 
 639 07a1 F20F1085 		movsd	-264(%rbp), %xmm0
 639      F8FEFFFF 
 640 07a9 660F2EC1 		ucomisd	%xmm1, %xmm0
 641 07ad 761A     		jbe	.L49
 121:/home/brendan/Dropbox/PhD/Code/LBM/2D LBFS/src/residuals.cpp ****         v_rms = v_rms;
 642              		.loc 1 121 0
 643 07af 488B85D8 		movq	-296(%rbp), %rax
 643      FEFFFF
 644 07b6 F20F1040 		movsd	24(%rax), %xmm0
 644      18
 645 07bb 488B85D8 		movq	-296(%rbp), %rax
 645      FEFFFF
 646 07c2 F20F1140 		movsd	%xmm0, 24(%rax)
 646      18
 647 07c7 EB34     		jmp	.L42
 648              	.L49:
 122:/home/brendan/Dropbox/PhD/Code/LBM/2D LBFS/src/residuals.cpp ****     }else{
 123:/home/brendan/Dropbox/PhD/Code/LBM/2D LBFS/src/residuals.cpp ****         v_rms = sqrt(v_rms_num / max_v) ;
 649              		.loc 1 123 0
 650 07c9 488B85D8 		movq	-296(%rbp), %rax
 650      FEFFFF
 651 07d0 F20F1040 		movsd	56(%rax), %xmm0
 651      38
 652 07d5 488B85D8 		movq	-296(%rbp), %rax
 652      FEFFFF
 653 07dc F20F1088 		movsd	128(%rax), %xmm1
 653      80000000 
 654 07e4 F20F5EC1 		divsd	%xmm1, %xmm0
 655 07e8 E8000000 		call	sqrt
 655      00
 656 07ed 66480F7E 		movq	%xmm0, %rdx
 656      C2
 657 07f2 488B85D8 		movq	-296(%rbp), %rax
 657      FEFFFF
 658 07f9 48895018 		movq	%rdx, 24(%rax)
 659              	.L42:
 106:/home/brendan/Dropbox/PhD/Code/LBM/2D LBFS/src/residuals.cpp **** 
 660              		.loc 1 106 0
 661 07fd 488D85E0 		leaq	-288(%rbp), %rax
 661      FEFFFF
 662 0804 4889C7   		movq	%rax, %rdi
 663 0807 E8000000 		call	_ZN16global_variablesD1Ev
 663      00
 124:/home/brendan/Dropbox/PhD/Code/LBM/2D LBFS/src/residuals.cpp ****     }
 125:/home/brendan/Dropbox/PhD/Code/LBM/2D LBFS/src/residuals.cpp **** 
 126:/home/brendan/Dropbox/PhD/Code/LBM/2D LBFS/src/residuals.cpp **** 
 127:/home/brendan/Dropbox/PhD/Code/LBM/2D LBFS/src/residuals.cpp **** 
GAS LISTING /tmp/ccgO5yh4.s 			page 19


 128:/home/brendan/Dropbox/PhD/Code/LBM/2D LBFS/src/residuals.cpp **** }
 664              		.loc 1 128 0
 665 080c 90       		nop
 666 080d 488B45F8 		movq	-8(%rbp), %rax
 667 0811 64483304 		xorq	%fs:40, %rax
 667      25280000 
 667      00
 668 081a 7405     		je	.L43
 669 081c E8000000 		call	__stack_chk_fail
 669      00
 670              	.L43:
 671 0821 C9       		leave
 672              		.cfi_def_cfa 7, 8
 673 0822 C3       		ret
 674              		.cfi_endproc
 675              	.LFE886:
 677              		.weak	_ZTV9residuals
 678              		.section	.rodata._ZTV9residuals,"aG",@progbits,_ZTV9residuals,comdat
 679              		.align 8
 682              	_ZTV9residuals:
 683 0000 00000000 		.quad	0
 683      00000000 
 684 0008 00000000 		.quad	_ZTI9residuals
 684      00000000 
 685 0010 00000000 		.quad	_ZN9residualsD1Ev
 685      00000000 
 686 0018 00000000 		.quad	_ZN9residualsD0Ev
 686      00000000 
 687              		.weak	_ZTI9residuals
 688              		.section	.rodata._ZTI9residuals,"aG",@progbits,_ZTI9residuals,comdat
 689              		.align 8
 692              	_ZTI9residuals:
 693 0000 00000000 		.quad	_ZTVN10__cxxabiv117__class_type_infoE+16
 693      00000000 
 694 0008 00000000 		.quad	_ZTS9residuals
 694      00000000 
 695              		.weak	_ZTS9residuals
 696              		.section	.rodata._ZTS9residuals,"aG",@progbits,_ZTS9residuals,comdat
 697              		.align 8
 700              	_ZTS9residuals:
 701 0000 39726573 		.string	"9residuals"
 701      69647561 
 701      6C7300
 702              		.section	.rodata
 703 0001 00000000 		.align 8
 703      000000
 704              	.LC1:
 705 0008 00000000 		.long	0
 706 000c 00000040 		.long	1073741824
 707              		.align 8
 708              	.LC2:
 709 0010 00000000 		.long	0
 710 0014 0000F03F 		.long	1072693248
 711              		.text
 712              	.Letext0:
 713              		.file 2 "/usr/include/c++/5/type_traits"
 714              		.file 3 "/usr/include/x86_64-linux-gnu/c++/5/bits/c++config.h"
GAS LISTING /tmp/ccgO5yh4.s 			page 20


 715              		.file 4 "/usr/include/c++/5/debug/debug.h"
 716              		.file 5 "/usr/include/c++/5/cwchar"
 717              		.file 6 "/usr/include/c++/5/cstdint"
 718              		.file 7 "/usr/include/c++/5/bits/exception_ptr.h"
 719              		.file 8 "/usr/include/c++/5/clocale"
 720              		.file 9 "/usr/include/c++/5/cstdlib"
 721              		.file 10 "/usr/include/c++/5/cstdio"
 722              		.file 11 "/usr/include/c++/5/bits/predefined_ops.h"
 723              		.file 12 "/usr/include/c++/5/ext/new_allocator.h"
 724              		.file 13 "/usr/include/c++/5/ext/numeric_traits.h"
 725              		.file 14 "/usr/include/stdio.h"
 726              		.file 15 "/usr/include/libio.h"
 727              		.file 16 "<built-in>"
 728              		.file 17 "/usr/lib/gcc/x86_64-linux-gnu/5/include/stddef.h"
 729              		.file 18 "/usr/include/wchar.h"
 730              		.file 19 "/usr/include/time.h"
 731              		.file 20 "/usr/include/stdint.h"
 732              		.file 21 "/usr/include/locale.h"
 733              		.file 22 "/usr/include/x86_64-linux-gnu/bits/types.h"
 734              		.file 23 "/usr/include/stdlib.h"
 735              		.file 24 "/usr/include/_G_config.h"
 736              		.file 25 "include/residuals.h"
 737              		.file 26 "/usr/include/c++/5/bits/stl_pair.h"
GAS LISTING /tmp/ccgO5yh4.s 			page 21


DEFINED SYMBOLS
                            *ABS*:0000000000000000 residuals.cpp
     /tmp/ccgO5yh4.s:7      .rodata:0000000000000000 _ZStL19piecewise_construct
     /tmp/ccgO5yh4.s:13     .text:0000000000000000 _ZN9residualsC2Ev
     /tmp/ccgO5yh4.s:682    .rodata._ZTV9residuals:0000000000000000 _ZTV9residuals
     /tmp/ccgO5yh4.s:13     .text:0000000000000000 _ZN9residualsC1Ev
     /tmp/ccgO5yh4.s:55     .text:0000000000000042 _ZN9residualsD2Ev
     /tmp/ccgO5yh4.s:55     .text:0000000000000042 _ZN9residualsD1Ev
     /tmp/ccgO5yh4.s:93     .text:0000000000000072 _ZN9residualsD0Ev
     /tmp/ccgO5yh4.s:120    .text:0000000000000098 _ZN9residuals5resetEv
     /tmp/ccgO5yh4.s:189    .text:0000000000000140 _ZN9residuals21add_l2_norm_residualsEdddddd
     /tmp/ccgO5yh4.s:310    .text:0000000000000302 _ZN9residuals11l2_norm_rmsEv
     /tmp/ccgO5yh4.s:420    .text:0000000000000480 _ZN9residuals9max_errorEv
     /tmp/ccgO5yh4.s:463    .text:00000000000004e8 _ZN9residuals27add_ansys_l2_norm_residualsEddddddd
     /tmp/ccgO5yh4.s:528    .text:00000000000005c2 _ZN9residuals16ansys_5_iter_rmsEi
     /tmp/ccgO5yh4.s:692    .rodata._ZTI9residuals:0000000000000000 _ZTI9residuals
     /tmp/ccgO5yh4.s:700    .rodata._ZTS9residuals:0000000000000000 _ZTS9residuals

UNDEFINED SYMBOLS
_ZdlPv
pow
_ZN16global_variablesC1Ev
sqrt
_ZN16global_variablesD1Ev
__stack_chk_fail
fmax
_ZTVN10__cxxabiv117__class_type_infoE
