GAS LISTING /tmp/cce5yULP.s 			page 1


   1              		.file	"Solver.cpp"
   2              		.section	.text.unlikely._ZN10vector_varD2Ev,"axG",@progbits,_ZN10vector_varD5Ev,comdat
   3              		.align 2
   4              	.LCOLDB0:
   5              		.section	.text._ZN10vector_varD2Ev,"axG",@progbits,_ZN10vector_varD5Ev,comdat
   6              	.LHOTB0:
   7              		.align 2
   8              		.p2align 4,,15
   9              		.weak	_ZN10vector_varD2Ev
  11              	_ZN10vector_varD2Ev:
  12              	.LFB1220:
  13              		.cfi_startproc
  14 0000 F3C3     		rep ret
  15              		.cfi_endproc
  16              	.LFE1220:
  18              		.section	.text.unlikely._ZN10vector_varD2Ev,"axG",@progbits,_ZN10vector_varD5Ev,comdat
  19              	.LCOLDE0:
  20              		.section	.text._ZN10vector_varD2Ev,"axG",@progbits,_ZN10vector_varD5Ev,comdat
  21              	.LHOTE0:
  22              		.weak	_ZN10vector_varD1Ev
  23              		.set	_ZN10vector_varD1Ev,_ZN10vector_varD2Ev
  24              		.section	.text.unlikely._ZNKSt5ctypeIcE8do_widenEc,"axG",@progbits,_ZNKSt5ctypeIcE8do_widenEc,comd
  25              		.align 2
  26              	.LCOLDB1:
  27              		.section	.text._ZNKSt5ctypeIcE8do_widenEc,"axG",@progbits,_ZNKSt5ctypeIcE8do_widenEc,comdat
  28              	.LHOTB1:
  29              		.align 2
  30              		.p2align 4,,15
  31              		.weak	_ZNKSt5ctypeIcE8do_widenEc
  33              	_ZNKSt5ctypeIcE8do_widenEc:
  34              	.LFB1834:
  35              		.cfi_startproc
  36 0000 89F0     		movl	%esi, %eax
  37 0002 C3       		ret
  38              		.cfi_endproc
  39              	.LFE1834:
  41              		.section	.text.unlikely._ZNKSt5ctypeIcE8do_widenEc,"axG",@progbits,_ZNKSt5ctypeIcE8do_widenEc,comd
  42              	.LCOLDE1:
  43              		.section	.text._ZNKSt5ctypeIcE8do_widenEc,"axG",@progbits,_ZNKSt5ctypeIcE8do_widenEc,comdat
  44              	.LHOTE1:
  45              		.section	.text.unlikely,"ax",@progbits
  46              		.align 2
  47              	.LCOLDB2:
  48              		.text
  49              	.LHOTB2:
  50              		.align 2
  51              		.p2align 4,,15
  52              		.globl	_ZN6SolverD2Ev
  54              	_ZN6SolverD2Ev:
  55              	.LFB8441:
  56              		.cfi_startproc
  57 0000 F3C3     		rep ret
  58              		.cfi_endproc
  59              	.LFE8441:
  61              		.section	.text.unlikely
  62              	.LCOLDE2:
  63              		.text
GAS LISTING /tmp/cce5yULP.s 			page 2


  64              	.LHOTE2:
  65              		.globl	_ZN6SolverD1Ev
  66              		.set	_ZN6SolverD1Ev,_ZN6SolverD2Ev
  67              		.section	.text.unlikely
  68              		.align 2
  69              	.LCOLDB3:
  70              		.text
  71              	.LHOTB3:
  72              		.align 2
  73 0002 0F1F4000 		.p2align 4,,15
  73      662E0F1F 
  73      84000000 
  73      0000
  74              		.globl	_ZN6SolverD0Ev
  76              	_ZN6SolverD0Ev:
  77              	.LFB8443:
  78              		.cfi_startproc
  79 0010 E9000000 		jmp	_ZdlPv
  79      00
  80              		.cfi_endproc
  81              	.LFE8443:
  83              		.section	.text.unlikely
  84              	.LCOLDE3:
  85              		.text
  86              	.LHOTE3:
  87              		.section	.text.unlikely._ZN10vector_varD0Ev,"axG",@progbits,_ZN10vector_varD5Ev,comdat
  88              		.align 2
  89              	.LCOLDB4:
  90              		.section	.text._ZN10vector_varD0Ev,"axG",@progbits,_ZN10vector_varD5Ev,comdat
  91              	.LHOTB4:
  92              		.align 2
  93              		.p2align 4,,15
  94              		.weak	_ZN10vector_varD0Ev
  96              	_ZN10vector_varD0Ev:
  97              	.LFB1222:
  98              		.cfi_startproc
  99 0000 E9000000 		jmp	_ZdlPv
  99      00
 100              		.cfi_endproc
 101              	.LFE1222:
 103              		.section	.text.unlikely._ZN10vector_varD0Ev,"axG",@progbits,_ZN10vector_varD5Ev,comdat
 104              	.LCOLDE4:
 105              		.section	.text._ZN10vector_varD0Ev,"axG",@progbits,_ZN10vector_varD5Ev,comdat
 106              	.LHOTE4:
 107              		.section	.text.unlikely
 108              		.align 2
 109              	.LCOLDB5:
 110              		.text
 111              	.LHOTB5:
 112 0015 90       		.align 2
 113 0016 662E0F1F 		.p2align 4,,15
 113      84000000 
 113      0000
 115              	_ZN6Solver24cell_interface_variablesEiiR10vector_varRiRdS1_R19Boundary_ConditionsRNS_6bc_varER4Mesh
 116              	.LFB8941:
 117              		.cfi_startproc
 118 0020 83FF01   		cmpl	$1, %edi
GAS LISTING /tmp/cce5yULP.s 			page 3


 119 0023 488B4424 		movq	8(%rsp), %rax
 119      08
 120 0028 4C8B5424 		movq	16(%rsp), %r10
 120      10
 121 002d 0F840D02 		je	.L8
 121      0000
 122 0033 0F8E5701 		jle	.L15
 122      0000
 123 0039 83FF02   		cmpl	$2, %edi
 124 003c 0F84BE00 		je	.L11
 124      0000
 125 0042 83FF03   		cmpl	$3, %edi
 126 0045 0F85E501 		jne	.L7
 126      0000
 127 004b 488B7858 		movq	88(%rax), %rdi
 128 004f 4863F6   		movslq	%esi, %rsi
 129 0052 F20F1004 		movsd	(%rdi,%rsi,8), %xmm0
 129      F7
 130 0057 488B7860 		movq	96(%rax), %rdi
 131 005b F20F1142 		movsd	%xmm0, 8(%rdx)
 131      08
 132 0060 F20F1004 		movsd	(%rdi,%rsi,8), %xmm0
 132      F7
 133 0065 488B7868 		movq	104(%rax), %rdi
 134 0069 F20F1142 		movsd	%xmm0, 16(%rdx)
 134      10
 135 006e F20F1004 		movsd	(%rdi,%rsi,8), %xmm0
 135      F7
 136 0073 F20F1142 		movsd	%xmm0, 24(%rdx)
 136      18
 137 0078 488B9050 		movq	336(%rax), %rdx
 137      010000
 138 007f 486314B2 		movslq	(%rdx,%rsi,4), %rdx
 139 0083 8911     		movl	%edx, (%rcx)
 140 0085 488B88B8 		movq	184(%rax), %rcx
 140      000000
 141 008c F20F1004 		movsd	(%rcx,%rsi,8), %xmm0
 141      F1
 142 0091 488B88E8 		movq	232(%rax), %rcx
 142      000000
 143 0098 F2410F11 		movsd	%xmm0, (%r8)
 143      00
 144 009d F20F1004 		movsd	(%rcx,%rsi,8), %xmm0
 144      F1
 145 00a2 488B88F0 		movq	240(%rax), %rcx
 145      000000
 146 00a9 F2410F11 		movsd	%xmm0, 8(%r9)
 146      4108
 147 00af F20F1004 		movsd	(%rcx,%rsi,8), %xmm0
 147      F1
 148 00b4 488B88F8 		movq	248(%rax), %rcx
 148      000000
 149 00bb F2410F11 		movsd	%xmm0, 16(%r9)
 149      4110
 150 00c1 F20F1004 		movsd	(%rcx,%rsi,8), %xmm0
 150      F1
 151 00c6 F2410F11 		movsd	%xmm0, 24(%r9)
GAS LISTING /tmp/cce5yULP.s 			page 4


 151      4118
 152              	.L13:
 153 00cc 488B4840 		movq	64(%rax), %rcx
 154 00d0 F20F1004 		movsd	(%rcx,%rdx,8), %xmm0
 154      D1
 155 00d5 488B4848 		movq	72(%rax), %rcx
 156 00d9 488B4050 		movq	80(%rax), %rax
 157 00dd F2410F11 		movsd	%xmm0, 8(%r10)
 157      4208
 158 00e3 F20F1004 		movsd	(%rcx,%rdx,8), %xmm0
 158      D1
 159 00e8 F2410F11 		movsd	%xmm0, 16(%r10)
 159      4210
 160 00ee F20F1004 		movsd	(%rax,%rdx,8), %xmm0
 160      D0
 161 00f3 F2410F11 		movsd	%xmm0, 24(%r10)
 161      4218
 162 00f9 C3       		ret
 163 00fa 660F1F44 		.p2align 4,,10
 163      0000
 164              		.p2align 3
 165              	.L11:
 166 0100 488B7870 		movq	112(%rax), %rdi
 167 0104 4863F6   		movslq	%esi, %rsi
 168 0107 F20F1004 		movsd	(%rdi,%rsi,8), %xmm0
 168      F7
 169 010c 488B7878 		movq	120(%rax), %rdi
 170 0110 F20F1142 		movsd	%xmm0, 8(%rdx)
 170      08
 171 0115 F20F1004 		movsd	(%rdi,%rsi,8), %xmm0
 171      F7
 172 011a 488BB880 		movq	128(%rax), %rdi
 172      000000
 173 0121 F20F1142 		movsd	%xmm0, 16(%rdx)
 173      10
 174 0126 F20F1004 		movsd	(%rdi,%rsi,8), %xmm0
 174      F7
 175 012b F20F1142 		movsd	%xmm0, 24(%rdx)
 175      18
 176 0130 488B90D0 		movq	208(%rax), %rdx
 176      000000
 177 0137 F20F1004 		movsd	(%rdx,%rsi,8), %xmm0
 177      F2
 178 013c 488B9060 		movq	352(%rax), %rdx
 178      010000
 179 0143 F2410F11 		movsd	%xmm0, (%r8)
 179      00
 180 0148 486314B2 		movslq	(%rdx,%rsi,4), %rdx
 181 014c 8911     		movl	%edx, (%rcx)
 182 014e 488B8830 		movq	304(%rax), %rcx
 182      010000
 183 0155 F20F1004 		movsd	(%rcx,%rsi,8), %xmm0
 183      F1
 184 015a 488B8838 		movq	312(%rax), %rcx
 184      010000
 185 0161 F2410F11 		movsd	%xmm0, 8(%r9)
 185      4108
GAS LISTING /tmp/cce5yULP.s 			page 5


 186 0167 F20F1004 		movsd	(%rcx,%rsi,8), %xmm0
 186      F1
 187 016c 488B8840 		movq	320(%rax), %rcx
 187      010000
 188 0173 F2410F11 		movsd	%xmm0, 16(%r9)
 188      4110
 189 0179 F20F1004 		movsd	(%rcx,%rsi,8), %xmm0
 189      F1
 190 017e F2410F11 		movsd	%xmm0, 24(%r9)
 190      4118
 191 0184 E943FFFF 		jmp	.L13
 191      FF
 192 0189 0F1F8000 		.p2align 4,,10
 192      000000
 193              		.p2align 3
 194              	.L15:
 195 0190 85FF     		testl	%edi, %edi
 196 0192 0F859800 		jne	.L7
 196      0000
 197 0198 488BB888 		movq	136(%rax), %rdi
 197      000000
 198 019f 4863F6   		movslq	%esi, %rsi
 199 01a2 F20F1004 		movsd	(%rdi,%rsi,8), %xmm0
 199      F7
 200 01a7 488BB890 		movq	144(%rax), %rdi
 200      000000
 201 01ae F20F1142 		movsd	%xmm0, 8(%rdx)
 201      08
 202 01b3 F20F1004 		movsd	(%rdi,%rsi,8), %xmm0
 202      F7
 203 01b8 488BB898 		movq	152(%rax), %rdi
 203      000000
 204 01bf F20F1142 		movsd	%xmm0, 16(%rdx)
 204      10
 205 01c4 F20F1004 		movsd	(%rdi,%rsi,8), %xmm0
 205      F7
 206 01c9 F20F1142 		movsd	%xmm0, 24(%rdx)
 206      18
 207 01ce 488B9068 		movq	360(%rax), %rdx
 207      010000
 208 01d5 486314B2 		movslq	(%rdx,%rsi,4), %rdx
 209 01d9 8911     		movl	%edx, (%rcx)
 210 01db 488B88C8 		movq	200(%rax), %rcx
 210      000000
 211 01e2 F20F1004 		movsd	(%rcx,%rsi,8), %xmm0
 211      F1
 212 01e7 488B8818 		movq	280(%rax), %rcx
 212      010000
 213 01ee F2410F11 		movsd	%xmm0, (%r8)
 213      00
 214 01f3 F20F1004 		movsd	(%rcx,%rsi,8), %xmm0
 214      F1
 215 01f8 488B8820 		movq	288(%rax), %rcx
 215      010000
 216 01ff F2410F11 		movsd	%xmm0, 8(%r9)
 216      4108
 217 0205 F20F1004 		movsd	(%rcx,%rsi,8), %xmm0
GAS LISTING /tmp/cce5yULP.s 			page 6


 217      F1
 218 020a 488B8828 		movq	296(%rax), %rcx
 218      010000
 219 0211 F2410F11 		movsd	%xmm0, 16(%r9)
 219      4110
 220 0217 F20F1004 		movsd	(%rcx,%rsi,8), %xmm0
 220      F1
 221 021c F2410F11 		movsd	%xmm0, 24(%r9)
 221      4118
 222 0222 E9A5FEFF 		jmp	.L13
 222      FF
 223 0227 660F1F84 		.p2align 4,,10
 223      00000000 
 223      00
 224              		.p2align 3
 225              	.L7:
 226 0230 486311   		movslq	(%rcx), %rdx
 227 0233 E994FEFF 		jmp	.L13
 227      FF
 228 0238 0F1F8400 		.p2align 4,,10
 228      00000000 
 229              		.p2align 3
 230              	.L8:
 231 0240 488BB8A0 		movq	160(%rax), %rdi
 231      000000
 232 0247 4863F6   		movslq	%esi, %rsi
 233 024a F20F1004 		movsd	(%rdi,%rsi,8), %xmm0
 233      F7
 234 024f 488BB8A8 		movq	168(%rax), %rdi
 234      000000
 235 0256 F20F1142 		movsd	%xmm0, 8(%rdx)
 235      08
 236 025b F20F1004 		movsd	(%rdi,%rsi,8), %xmm0
 236      F7
 237 0260 488BB8B0 		movq	176(%rax), %rdi
 237      000000
 238 0267 F20F1142 		movsd	%xmm0, 16(%rdx)
 238      10
 239 026c F20F1004 		movsd	(%rdi,%rsi,8), %xmm0
 239      F7
 240 0271 F20F1142 		movsd	%xmm0, 24(%rdx)
 240      18
 241 0276 488B9058 		movq	344(%rax), %rdx
 241      010000
 242 027d 486314B2 		movslq	(%rdx,%rsi,4), %rdx
 243 0281 8911     		movl	%edx, (%rcx)
 244 0283 488B88C0 		movq	192(%rax), %rcx
 244      000000
 245 028a F20F1004 		movsd	(%rcx,%rsi,8), %xmm0
 245      F1
 246 028f 488B8800 		movq	256(%rax), %rcx
 246      010000
 247 0296 F2410F11 		movsd	%xmm0, (%r8)
 247      00
 248 029b F20F1004 		movsd	(%rcx,%rsi,8), %xmm0
 248      F1
 249 02a0 488B8808 		movq	264(%rax), %rcx
GAS LISTING /tmp/cce5yULP.s 			page 7


 249      010000
 250 02a7 F2410F11 		movsd	%xmm0, 8(%r9)
 250      4108
 251 02ad F20F1004 		movsd	(%rcx,%rsi,8), %xmm0
 251      F1
 252 02b2 488B8810 		movq	272(%rax), %rcx
 252      010000
 253 02b9 F2410F11 		movsd	%xmm0, 16(%r9)
 253      4110
 254 02bf F20F1004 		movsd	(%rcx,%rsi,8), %xmm0
 254      F1
 255 02c4 F2410F11 		movsd	%xmm0, 24(%r9)
 255      4118
 256 02ca E9FDFDFF 		jmp	.L13
 256      FF
 257              		.cfi_endproc
 258              	.LFE8941:
 260              		.section	.text.unlikely
 261              	.LCOLDE5:
 262              		.text
 263              	.LHOTE5:
 264              		.section	.text.unlikely
 265              		.align 2
 266              	.LCOLDB6:
 267              		.text
 268              	.LHOTB6:
 269 02cf 90       		.align 2
 270              		.p2align 4,,15
 271              		.globl	_ZN6SolverC2Ev
 273              	_ZN6SolverC2Ev:
 274              	.LFB8438:
 275              		.cfi_startproc
 276 02d0 48C70700 		movq	$_ZTV6Solver+16, (%rdi)
 276      000000
 277 02d7 C3       		ret
 278              		.cfi_endproc
 279              	.LFE8438:
 281              		.section	.text.unlikely
 282              	.LCOLDE6:
 283              		.text
 284              	.LHOTE6:
 285              		.globl	_ZN6SolverC1Ev
 286              		.set	_ZN6SolverC1Ev,_ZN6SolverC2Ev
 287              		.section	.text.unlikely
 288              		.align 2
 289              	.LCOLDB8:
 290              		.text
 291              	.LHOTB8:
 292              		.align 2
 293 02d8 0F1F8400 		.p2align 4,,15
 293      00000000 
 294              		.globl	_ZN6Solver26cell_interface_initialiserERdR10vector_varR8flux_varS4_
 296              	_ZN6Solver26cell_interface_initialiserERdR10vector_varR8flux_varS4_:
 297              	.LFB8444:
 298              		.cfi_startproc
 299 02e0 660FEFC0 		pxor	%xmm0, %xmm0
 300 02e4 F20F1106 		movsd	%xmm0, (%rsi)
GAS LISTING /tmp/cce5yULP.s 			page 8


 301 02e8 F20F1142 		movsd	%xmm0, 8(%rdx)
 301      08
 302 02ed F20F1142 		movsd	%xmm0, 16(%rdx)
 302      10
 303 02f2 F20F1142 		movsd	%xmm0, 24(%rdx)
 303      18
 304 02f7 F20F1141 		movsd	%xmm0, 8(%rcx)
 304      08
 305 02fc F20F1141 		movsd	%xmm0, 16(%rcx)
 305      10
 306 0301 F20F1141 		movsd	%xmm0, 24(%rcx)
 306      18
 307 0306 F20F1141 		movsd	%xmm0, 32(%rcx)
 307      20
 308 030b F2410F11 		movsd	%xmm0, 8(%r8)
 308      4008
 309 0311 F2410F11 		movsd	%xmm0, 16(%r8)
 309      4010
 310 0317 F2410F11 		movsd	%xmm0, 24(%r8)
 310      4018
 311 031d F2410F11 		movsd	%xmm0, 32(%r8)
 311      4020
 312 0323 C3       		ret
 313              		.cfi_endproc
 314              	.LFE8444:
 316              		.section	.text.unlikely
 317              	.LCOLDE8:
 318              		.text
 319              	.LHOTE8:
 320              		.section	.text.unlikely
 321              		.align 2
 322              	.LCOLDB11:
 323              		.text
 324              	.LHOTB11:
 325              		.align 2
 326 0324 6690662E 		.p2align 4,,15
 326      0F1F8400 
 326      00000000 
 327              		.globl	_ZN6Solver15feq_calc_incompEd10vector_varS0_ddddi
 329              	_ZN6Solver15feq_calc_incompEd10vector_varS0_ddddi:
 330              	.LFB8445:
 331              		.cfi_startproc
 332 0330 55       		pushq	%rbp
 333              		.cfi_def_cfa_offset 16
 334              		.cfi_offset 6, -16
 335 0331 53       		pushq	%rbx
 336              		.cfi_def_cfa_offset 24
 337              		.cfi_offset 3, -24
 338 0332 4889F5   		movq	%rsi, %rbp
 339 0335 4889EF   		movq	%rbp, %rdi
 340 0338 4889D3   		movq	%rdx, %rbx
 341 033b 4883EC68 		subq	$104, %rsp
 342              		.cfi_def_cfa_offset 128
 343 033f F20F1144 		movsd	%xmm0, 40(%rsp)
 343      2428
 344 0345 488D7424 		leaq	48(%rsp), %rsi
 344      30
GAS LISTING /tmp/cce5yULP.s 			page 9


 345 034a 48C74424 		movq	$_ZTV10vector_var+16, 48(%rsp)
 345      30000000 
 345      00
 346 0353 F20F1042 		movsd	8(%rdx), %xmm0
 346      08
 347 0358 F20F114C 		movsd	%xmm1, 32(%rsp)
 347      2420
 348 035e F20F1144 		movsd	%xmm0, 56(%rsp)
 348      2438
 349 0364 F20F1042 		movsd	16(%rdx), %xmm0
 349      10
 350 0369 F20F1154 		movsd	%xmm2, 24(%rsp)
 350      2418
 351 036f F20F1144 		movsd	%xmm0, 64(%rsp)
 351      2440
 352 0375 F20F1042 		movsd	24(%rdx), %xmm0
 352      18
 353 037a F20F115C 		movsd	%xmm3, 16(%rsp)
 353      2410
 354 0380 F20F1164 		movsd	%xmm4, 8(%rsp)
 354      2408
 355 0386 64488B04 		movq	%fs:40, %rax
 355      25280000 
 355      00
 356 038f 48894424 		movq	%rax, 88(%rsp)
 356      58
 357 0394 31C0     		xorl	%eax, %eax
 358 0396 F20F1144 		movsd	%xmm0, 72(%rsp)
 358      2448
 359 039c E8000000 		call	_ZN10vector_var11Dot_ProductES_
 359      00
 360 03a1 F20F5905 		mulsd	.LC9(%rip), %xmm0
 360      00000000 
 361 03a9 488D7424 		leaq	48(%rsp), %rsi
 361      30
 362 03ae 4889EF   		movq	%rbp, %rdi
 363 03b1 48C74424 		movq	$_ZTV10vector_var+16, 48(%rsp)
 363      30000000 
 363      00
 364 03ba F20F1104 		movsd	%xmm0, (%rsp)
 364      24
 365 03bf F20F1043 		movsd	8(%rbx), %xmm0
 365      08
 366 03c4 F20F1144 		movsd	%xmm0, 56(%rsp)
 366      2438
 367 03ca F20F1043 		movsd	16(%rbx), %xmm0
 367      10
 368 03cf F20F1144 		movsd	%xmm0, 64(%rsp)
 368      2440
 369 03d5 F20F1043 		movsd	24(%rbx), %xmm0
 369      18
 370 03da F20F1144 		movsd	%xmm0, 72(%rsp)
 370      2448
 371 03e0 E8000000 		call	_ZN10vector_var11Dot_ProductES_
 371      00
 372 03e5 F20F1054 		movsd	24(%rsp), %xmm2
 372      2418
GAS LISTING /tmp/cce5yULP.s 			page 10


 373 03eb F20F104C 		movsd	32(%rsp), %xmm1
 373      2420
 374 03f1 F20F59C0 		mulsd	%xmm0, %xmm0
 375 03f5 F20F59D1 		mulsd	%xmm1, %xmm2
 376 03f9 F20F106C 		movsd	40(%rsp), %xmm5
 376      2428
 377 03ff F20F1064 		movsd	8(%rsp), %xmm4
 377      2408
 378 0405 F20F105C 		movsd	16(%rsp), %xmm3
 378      2410
 379 040b F20F59D2 		mulsd	%xmm2, %xmm2
 380 040f F20F59DD 		mulsd	%xmm5, %xmm3
 381 0413 488B4424 		movq	88(%rsp), %rax
 381      58
 382 0418 64483304 		xorq	%fs:40, %rax
 382      25280000 
 382      00
 383 0421 F20F5CC2 		subsd	%xmm2, %xmm0
 384 0425 F20F5905 		mulsd	.LC10(%rip), %xmm0
 384      00000000 
 385 042d F20F5804 		addsd	(%rsp), %xmm0
 385      24
 386 0432 F20F59C5 		mulsd	%xmm5, %xmm0
 387 0436 F20F59E0 		mulsd	%xmm0, %xmm4
 388 043a F20F58DC 		addsd	%xmm4, %xmm3
 389 043e 750B     		jne	.L21
 390 0440 4883C468 		addq	$104, %rsp
 391              		.cfi_remember_state
 392              		.cfi_def_cfa_offset 24
 393 0444 660F28C3 		movapd	%xmm3, %xmm0
 394 0448 5B       		popq	%rbx
 395              		.cfi_def_cfa_offset 16
 396 0449 5D       		popq	%rbp
 397              		.cfi_def_cfa_offset 8
 398 044a C3       		ret
 399              	.L21:
 400              		.cfi_restore_state
 401 044b E8000000 		call	__stack_chk_fail
 401      00
 402              		.cfi_endproc
 403              	.LFE8445:
 405              		.section	.text.unlikely
 406              	.LCOLDE11:
 407              		.text
 408              	.LHOTE11:
 409              		.section	.text.unlikely
 410              		.align 2
 411              	.LCOLDB13:
 412              		.text
 413              	.LHOTB13:
 414              		.align 2
 415              		.p2align 4,,15
 416              		.globl	_ZN6Solver8feq_calcEd10vector_varS0_ddd
 418              	_ZN6Solver8feq_calcEd10vector_varS0_ddd:
 419              	.LFB8450:
 420              		.cfi_startproc
 421 0450 55       		pushq	%rbp
GAS LISTING /tmp/cce5yULP.s 			page 11


 422              		.cfi_def_cfa_offset 16
 423              		.cfi_offset 6, -16
 424 0451 53       		pushq	%rbx
 425              		.cfi_def_cfa_offset 24
 426              		.cfi_offset 3, -24
 427 0452 4889F5   		movq	%rsi, %rbp
 428 0455 4889EF   		movq	%rbp, %rdi
 429 0458 4889D3   		movq	%rdx, %rbx
 430 045b 4883EC68 		subq	$104, %rsp
 431              		.cfi_def_cfa_offset 128
 432 045f F20F1144 		movsd	%xmm0, 16(%rsp)
 432      2410
 433 0465 488D7424 		leaq	48(%rsp), %rsi
 433      30
 434 046a 48C74424 		movq	$_ZTV10vector_var+16, 48(%rsp)
 434      30000000 
 434      00
 435 0473 F20F1042 		movsd	8(%rdx), %xmm0
 435      08
 436 0478 F20F114C 		movsd	%xmm1, 40(%rsp)
 436      2428
 437 047e F20F1144 		movsd	%xmm0, 56(%rsp)
 437      2438
 438 0484 F20F1042 		movsd	16(%rdx), %xmm0
 438      10
 439 0489 F20F1154 		movsd	%xmm2, 32(%rsp)
 439      2420
 440 048f F20F1144 		movsd	%xmm0, 64(%rsp)
 440      2440
 441 0495 F20F1042 		movsd	24(%rdx), %xmm0
 441      18
 442 049a F20F115C 		movsd	%xmm3, 24(%rsp)
 442      2418
 443 04a0 64488B04 		movq	%fs:40, %rax
 443      25280000 
 443      00
 444 04a9 48894424 		movq	%rax, 88(%rsp)
 444      58
 445 04ae 31C0     		xorl	%eax, %eax
 446 04b0 F20F1144 		movsd	%xmm0, 72(%rsp)
 446      2448
 447 04b6 E8000000 		call	_ZN10vector_var11Dot_ProductES_
 447      00
 448 04bb F20F5905 		mulsd	.LC9(%rip), %xmm0
 448      00000000 
 449 04c3 488D7424 		leaq	48(%rsp), %rsi
 449      30
 450 04c8 4889EF   		movq	%rbp, %rdi
 451 04cb F20F1025 		movsd	.LC12(%rip), %xmm4
 451      00000000 
 452 04d3 48C74424 		movq	$_ZTV10vector_var+16, 48(%rsp)
 452      30000000 
 452      00
 453 04dc F20F58E0 		addsd	%xmm0, %xmm4
 454 04e0 F20F1043 		movsd	8(%rbx), %xmm0
 454      08
 455 04e5 F20F1144 		movsd	%xmm0, 56(%rsp)
GAS LISTING /tmp/cce5yULP.s 			page 12


 455      2438
 456 04eb F20F1043 		movsd	16(%rbx), %xmm0
 456      10
 457 04f0 F20F1164 		movsd	%xmm4, 8(%rsp)
 457      2408
 458 04f6 F20F1144 		movsd	%xmm0, 64(%rsp)
 458      2440
 459 04fc F20F1043 		movsd	24(%rbx), %xmm0
 459      18
 460 0501 F20F1144 		movsd	%xmm0, 72(%rsp)
 460      2448
 461 0507 E8000000 		call	_ZN10vector_var11Dot_ProductES_
 461      00
 462 050c F20F1054 		movsd	32(%rsp), %xmm2
 462      2420
 463 0512 F20F104C 		movsd	40(%rsp), %xmm1
 463      2428
 464 0518 F20F59C0 		mulsd	%xmm0, %xmm0
 465 051c F20F59D1 		mulsd	%xmm1, %xmm2
 466 0520 F20F105C 		movsd	24(%rsp), %xmm3
 466      2418
 467 0526 488B4424 		movq	88(%rsp), %rax
 467      58
 468 052b 64483304 		xorq	%fs:40, %rax
 468      25280000 
 468      00
 469 0534 F20F59D2 		mulsd	%xmm2, %xmm2
 470 0538 F20F5CC2 		subsd	%xmm2, %xmm0
 471 053c F20F5905 		mulsd	.LC10(%rip), %xmm0
 471      00000000 
 472 0544 F20F5844 		addsd	8(%rsp), %xmm0
 472      2408
 473 054a F20F5944 		mulsd	16(%rsp), %xmm0
 473      2410
 474 0550 F20F59C3 		mulsd	%xmm3, %xmm0
 475 0554 7507     		jne	.L25
 476 0556 4883C468 		addq	$104, %rsp
 477              		.cfi_remember_state
 478              		.cfi_def_cfa_offset 24
 479 055a 5B       		popq	%rbx
 480              		.cfi_def_cfa_offset 16
 481 055b 5D       		popq	%rbp
 482              		.cfi_def_cfa_offset 8
 483 055c C3       		ret
 484              	.L25:
 485              		.cfi_restore_state
 486 055d E8000000 		call	__stack_chk_fail
 486      00
 487              		.cfi_endproc
 488              	.LFE8450:
 490              		.section	.text.unlikely
 491              	.LCOLDE13:
 492              		.text
 493              	.LHOTE13:
 494              		.section	.text.unlikely
 495              		.align 2
 496              	.LCOLDB18:
GAS LISTING /tmp/cce5yULP.s 			page 13


 497              		.text
 498              	.LHOTB18:
 499              		.align 2
 500 0562 0F1F4000 		.p2align 4,,15
 500      662E0F1F 
 500      84000000 
 500      0000
 501              		.globl	_ZN6Solver13truncate_fluxER8flux_var
 503              	_ZN6Solver13truncate_fluxER8flux_var:
 504              	.LFB8468:
 505              		.cfi_startproc
 506 0570 53       		pushq	%rbx
 507              		.cfi_def_cfa_offset 16
 508              		.cfi_offset 3, -16
 509 0571 4889F3   		movq	%rsi, %rbx
 510 0574 4883EC20 		subq	$32, %rsp
 511              		.cfi_def_cfa_offset 48
 512 0578 F20F1056 		movsd	8(%rsi), %xmm2
 512      08
 513 057d F20F100D 		movsd	.LC15(%rip), %xmm1
 513      00000000 
 514 0585 660F28C2 		movapd	%xmm2, %xmm0
 515 0589 660F5405 		andpd	.LC14(%rip), %xmm0
 515      00000000 
 516 0591 660F2EC8 		ucomisd	%xmm0, %xmm1
 517 0595 0F873D01 		ja	.L35
 517      0000
 518 059b F20F100D 		movsd	.LC16(%rip), %xmm1
 518      00000000 
 519 05a3 660F28C2 		movapd	%xmm2, %xmm0
 520 05a7 F20F1154 		movsd	%xmm2, 16(%rsp)
 520      2410
 521 05ad F20F59C1 		mulsd	%xmm1, %xmm0
 522 05b1 F20F114C 		movsd	%xmm1, 8(%rsp)
 522      2408
 523 05b7 660F5405 		andpd	.LC14(%rip), %xmm0
 523      00000000 
 524 05bf E8000000 		call	trunc
 524      00
 525 05c4 660FEFF6 		pxor	%xmm6, %xmm6
 526 05c8 F20F1054 		movsd	16(%rsp), %xmm2
 526      2410
 527 05ce F20F104C 		movsd	8(%rsp), %xmm1
 527      2408
 528 05d4 660F2EF2 		ucomisd	%xmm2, %xmm6
 529 05d8 F20F5EC1 		divsd	%xmm1, %xmm0
 530 05dc F20F1174 		movsd	%xmm6, 8(%rsp)
 530      2408
 531 05e2 760C     		jbe	.L27
 532 05e4 F20F1015 		movsd	.LC17(%rip), %xmm2
 532      00000000 
 533 05ec 660F57C2 		xorpd	%xmm2, %xmm0
 534              	.L27:
 535 05f0 F20F1053 		movsd	16(%rbx), %xmm2
 535      10
 536 05f5 F20F1143 		movsd	%xmm0, 8(%rbx)
 536      08
GAS LISTING /tmp/cce5yULP.s 			page 14


 537 05fa 660F28C2 		movapd	%xmm2, %xmm0
 538 05fe F20F1154 		movsd	%xmm2, 24(%rsp)
 538      2418
 539 0604 F20F114C 		movsd	%xmm1, 16(%rsp)
 539      2410
 540 060a F20F59C1 		mulsd	%xmm1, %xmm0
 541 060e 660F5405 		andpd	.LC14(%rip), %xmm0
 541      00000000 
 542 0616 E8000000 		call	trunc
 542      00
 543 061b F20F105C 		movsd	8(%rsp), %xmm3
 543      2408
 544 0621 F20F1054 		movsd	24(%rsp), %xmm2
 544      2418
 545 0627 F20F104C 		movsd	16(%rsp), %xmm1
 545      2410
 546 062d 660F2EDA 		ucomisd	%xmm2, %xmm3
 547 0631 F20F5EC1 		divsd	%xmm1, %xmm0
 548 0635 0F87D500 		ja	.L49
 548      0000
 549              	.L29:
 550 063b F20F1143 		movsd	%xmm0, 16(%rbx)
 550      10
 551 0640 F20F114C 		movsd	%xmm1, 16(%rsp)
 551      2410
 552 0646 F20F1053 		movsd	24(%rbx), %xmm2
 552      18
 553 064b 660F28C2 		movapd	%xmm2, %xmm0
 554 064f F20F1154 		movsd	%xmm2, 24(%rsp)
 554      2418
 555 0655 F20F59C1 		mulsd	%xmm1, %xmm0
 556 0659 660F5405 		andpd	.LC14(%rip), %xmm0
 556      00000000 
 557 0661 E8000000 		call	trunc
 557      00
 558 0666 F20F1064 		movsd	8(%rsp), %xmm4
 558      2408
 559 066c F20F1054 		movsd	24(%rsp), %xmm2
 559      2418
 560 0672 F20F104C 		movsd	16(%rsp), %xmm1
 560      2410
 561 0678 660F2EE2 		ucomisd	%xmm2, %xmm4
 562 067c F20F5EC1 		divsd	%xmm1, %xmm0
 563 0680 7776     		ja	.L50
 564              	.L31:
 565 0682 F20F1143 		movsd	%xmm0, 24(%rbx)
 565      18
 566 0687 F20F114C 		movsd	%xmm1, 16(%rsp)
 566      2410
 567 068d F20F1053 		movsd	32(%rbx), %xmm2
 567      20
 568 0692 660F28C2 		movapd	%xmm2, %xmm0
 569 0696 F20F1154 		movsd	%xmm2, 24(%rsp)
 569      2418
 570 069c F20F59C1 		mulsd	%xmm1, %xmm0
 571 06a0 660F5405 		andpd	.LC14(%rip), %xmm0
 571      00000000 
GAS LISTING /tmp/cce5yULP.s 			page 15


 572 06a8 E8000000 		call	trunc
 572      00
 573 06ad F20F106C 		movsd	8(%rsp), %xmm5
 573      2408
 574 06b3 F20F1054 		movsd	24(%rsp), %xmm2
 574      2418
 575 06b9 F20F104C 		movsd	16(%rsp), %xmm1
 575      2410
 576 06bf 660F2EEA 		ucomisd	%xmm2, %xmm5
 577 06c3 F20F5EC1 		divsd	%xmm1, %xmm0
 578 06c7 775F     		ja	.L51
 579 06c9 F20F1143 		movsd	%xmm0, 32(%rbx)
 579      20
 580 06ce 4883C420 		addq	$32, %rsp
 581              		.cfi_remember_state
 582              		.cfi_def_cfa_offset 16
 583 06d2 5B       		popq	%rbx
 584              		.cfi_def_cfa_offset 8
 585 06d3 C3       		ret
 586              		.p2align 4,,10
 587 06d4 0F1F4000 		.p2align 3
 588              	.L35:
 589              		.cfi_restore_state
 590 06d8 660FEFFF 		pxor	%xmm7, %xmm7
 591 06dc F20F100D 		movsd	.LC16(%rip), %xmm1
 591      00000000 
 592 06e4 F20F117C 		movsd	%xmm7, 8(%rsp)
 592      2408
 593 06ea 660F28C7 		movapd	%xmm7, %xmm0
 594 06ee E9FDFEFF 		jmp	.L27
 594      FF
 595              		.p2align 4,,10
 596 06f3 0F1F4400 		.p2align 3
 596      00
 597              	.L50:
 598 06f8 F20F1015 		movsd	.LC17(%rip), %xmm2
 598      00000000 
 599 0700 660F57C2 		xorpd	%xmm2, %xmm0
 600 0704 E979FFFF 		jmp	.L31
 600      FF
 601 0709 0F1F8000 		.p2align 4,,10
 601      000000
 602              		.p2align 3
 603              	.L49:
 604 0710 F20F1015 		movsd	.LC17(%rip), %xmm2
 604      00000000 
 605 0718 660F57C2 		xorpd	%xmm2, %xmm0
 606 071c E91AFFFF 		jmp	.L29
 606      FF
 607              		.p2align 4,,10
 608 0721 0F1F8000 		.p2align 3
 608      000000
 609              	.L51:
 610 0728 F20F100D 		movsd	.LC17(%rip), %xmm1
 610      00000000 
 611 0730 660F57C1 		xorpd	%xmm1, %xmm0
 612 0734 F20F1143 		movsd	%xmm0, 32(%rbx)
GAS LISTING /tmp/cce5yULP.s 			page 16


 612      20
 613 0739 4883C420 		addq	$32, %rsp
 614              		.cfi_def_cfa_offset 16
 615 073d 5B       		popq	%rbx
 616              		.cfi_def_cfa_offset 8
 617 073e C3       		ret
 618              		.cfi_endproc
 619              	.LFE8468:
 621              		.section	.text.unlikely
 622              	.LCOLDE18:
 623              		.text
 624              	.LHOTE18:
 625              		.section	.text.unlikely
 626              		.align 2
 627              	.LCOLDB19:
 628              		.text
 629              	.LHOTB19:
 630 073f 90       		.align 2
 631              		.p2align 4,,15
 632              		.globl	_ZN6Solver13truncate_fluxERd
 634              	_ZN6Solver13truncate_fluxERd:
 635              	.LFB8470:
 636              		.cfi_startproc
 637 0740 53       		pushq	%rbx
 638              		.cfi_def_cfa_offset 16
 639              		.cfi_offset 3, -16
 640 0741 660FEFC9 		pxor	%xmm1, %xmm1
 641 0745 4889F3   		movq	%rsi, %rbx
 642 0748 4883EC10 		subq	$16, %rsp
 643              		.cfi_def_cfa_offset 32
 644 074c F20F1016 		movsd	(%rsi), %xmm2
 645 0750 F20F1005 		movsd	.LC14(%rip), %xmm0
 645      00000000 
 646 0758 660F28DA 		movapd	%xmm2, %xmm3
 647 075c F20F1025 		movsd	.LC15(%rip), %xmm4
 647      00000000 
 648 0764 660F54D8 		andpd	%xmm0, %xmm3
 649 0768 660F2EE3 		ucomisd	%xmm3, %xmm4
 650 076c 773D     		ja	.L53
 651 076e F20F101D 		movsd	.LC16(%rip), %xmm3
 651      00000000 
 652 0776 F20F114C 		movsd	%xmm1, 8(%rsp)
 652      2408
 653 077c F20F59DA 		mulsd	%xmm2, %xmm3
 654 0780 F20F1114 		movsd	%xmm2, (%rsp)
 654      24
 655 0785 660F54C3 		andpd	%xmm3, %xmm0
 656 0789 E8000000 		call	trunc
 656      00
 657 078e F20F1014 		movsd	(%rsp), %xmm2
 657      24
 658 0793 F20F104C 		movsd	8(%rsp), %xmm1
 658      2408
 659 0799 F20F5E05 		divsd	.LC16(%rip), %xmm0
 659      00000000 
 660 07a1 660F2ECA 		ucomisd	%xmm2, %xmm1
 661 07a5 7711     		ja	.L60
GAS LISTING /tmp/cce5yULP.s 			page 17


 662 07a7 660F28C8 		movapd	%xmm0, %xmm1
 663              	.L53:
 664 07ab F20F110B 		movsd	%xmm1, (%rbx)
 665 07af 4883C410 		addq	$16, %rsp
 666              		.cfi_remember_state
 667              		.cfi_def_cfa_offset 16
 668 07b3 5B       		popq	%rbx
 669              		.cfi_def_cfa_offset 8
 670 07b4 C3       		ret
 671              		.p2align 4,,10
 672 07b5 0F1F00   		.p2align 3
 673              	.L60:
 674              		.cfi_restore_state
 675 07b8 F20F100D 		movsd	.LC17(%rip), %xmm1
 675      00000000 
 676 07c0 660F57C8 		xorpd	%xmm0, %xmm1
 677 07c4 F20F110B 		movsd	%xmm1, (%rbx)
 678 07c8 4883C410 		addq	$16, %rsp
 679              		.cfi_def_cfa_offset 16
 680 07cc 5B       		popq	%rbx
 681              		.cfi_def_cfa_offset 8
 682 07cd C3       		ret
 683              		.cfi_endproc
 684              	.LFE8470:
 686              		.section	.text.unlikely
 687              	.LCOLDE19:
 688              		.text
 689              	.LHOTE19:
 690              		.section	.text.unlikely
 691              		.align 2
 692              	.LCOLDB26:
 693              		.text
 694              	.LHOTB26:
 695              		.align 2
 696 07ce 6690     		.p2align 4,,15
 697              		.globl	_ZN6Solver11get_e_alphaEiRddd
 699              	_ZN6Solver11get_e_alphaEiRddd:
 700              	.LFB8471:
 701              		.cfi_startproc
 702 07d0 4154     		pushq	%r12
 703              		.cfi_def_cfa_offset 16
 704              		.cfi_offset 12, -16
 705 07d2 55       		pushq	%rbp
 706              		.cfi_def_cfa_offset 24
 707              		.cfi_offset 6, -24
 708 07d3 89D5     		movl	%edx, %ebp
 709 07d5 53       		pushq	%rbx
 710              		.cfi_def_cfa_offset 32
 711              		.cfi_offset 3, -32
 712 07d6 4989CC   		movq	%rcx, %r12
 713 07d9 4889FB   		movq	%rdi, %rbx
 714 07dc 4883EC30 		subq	$48, %rsp
 715              		.cfi_def_cfa_offset 80
 716 07e0 F20F114C 		movsd	%xmm1, 16(%rsp)
 716      2410
 717 07e6 F20F1144 		movsd	%xmm0, 8(%rsp)
 717      2408
GAS LISTING /tmp/cce5yULP.s 			page 18


 718 07ec E8000000 		call	_ZN10vector_varC1Ev
 718      00
 719 07f1 8D45FF   		leal	-1(%rbp), %eax
 720 07f4 F20F104C 		movsd	16(%rsp), %xmm1
 720      2410
 721 07fa 83F803   		cmpl	$3, %eax
 722 07fd 0F86ED00 		jbe	.L67
 722      0000
 723 0803 83FD04   		cmpl	$4, %ebp
 724 0806 7F38     		jg	.L68
 725 0808 660FEFC0 		pxor	%xmm0, %xmm0
 726 080c F20F1035 		movsd	.LC25(%rip), %xmm6
 726      00000000 
 727 0814 660F28C8 		movapd	%xmm0, %xmm1
 728 0818 F2410F11 		movsd	%xmm6, (%r12)
 728      3424
 729              	.L63:
 730 081e F20F114B 		movsd	%xmm1, 8(%rbx)
 730      08
 731 0823 48C74318 		movq	$0, 24(%rbx)
 731      00000000 
 732 082b 4889D8   		movq	%rbx, %rax
 733 082e F20F1143 		movsd	%xmm0, 16(%rbx)
 733      10
 734 0833 4883C430 		addq	$48, %rsp
 735              		.cfi_remember_state
 736              		.cfi_def_cfa_offset 32
 737 0837 5B       		popq	%rbx
 738              		.cfi_def_cfa_offset 24
 739 0838 5D       		popq	%rbp
 740              		.cfi_def_cfa_offset 16
 741 0839 415C     		popq	%r12
 742              		.cfi_def_cfa_offset 8
 743 083b C3       		ret
 744 083c 0F1F4000 		.p2align 4,,10
 745              		.p2align 3
 746              	.L68:
 747              		.cfi_restore_state
 748 0840 660FEFD2 		pxor	%xmm2, %xmm2
 749 0844 83ED05   		subl	$5, %ebp
 750 0847 488D7424 		leaq	32(%rsp), %rsi
 750      20
 751 084c 488D7C24 		leaq	40(%rsp), %rdi
 751      28
 752 0851 F20F2AD5 		cvtsi2sd	%ebp, %xmm2
 753 0855 F20F59D1 		mulsd	%xmm1, %xmm2
 754 0859 F20F590D 		mulsd	.LC22(%rip), %xmm1
 754      00000000 
 755 0861 F20F5915 		mulsd	.LC20(%rip), %xmm2
 755      00000000 
 756 0869 F20F58D1 		addsd	%xmm1, %xmm2
 757 086d 660F28C2 		movapd	%xmm2, %xmm0
 758 0871 E8000000 		call	sincos
 758      00
 759 0876 F20F1005 		movsd	.LC23(%rip), %xmm0
 759      00000000 
 760 087e F20F1074 		movsd	40(%rsp), %xmm6
GAS LISTING /tmp/cce5yULP.s 			page 19


 760      2428
 761 0884 F20F5944 		mulsd	32(%rsp), %xmm0
 761      2420
 762 088a F20F1174 		movsd	%xmm6, 16(%rsp)
 762      2410
 763 0890 F20F5944 		mulsd	8(%rsp), %xmm0
 763      2408
 764 0896 E8000000 		call	round
 764      00
 765 089b F20F1144 		movsd	%xmm0, 24(%rsp)
 765      2418
 766 08a1 F20F1005 		movsd	.LC23(%rip), %xmm0
 766      00000000 
 767 08a9 F20F5944 		mulsd	16(%rsp), %xmm0
 767      2410
 768 08af F20F5944 		mulsd	8(%rsp), %xmm0
 768      2408
 769 08b5 E8000000 		call	round
 769      00
 770 08ba F20F101D 		movsd	.LC24(%rip), %xmm3
 770      00000000 
 771 08c2 F2410F11 		movsd	%xmm3, (%r12)
 771      1C24
 772              	.L66:
 773 08c8 F20F104C 		movsd	24(%rsp), %xmm1
 773      2418
 774 08ce F20F2CC1 		cvttsd2si	%xmm1, %eax
 775 08d2 660FEFC9 		pxor	%xmm1, %xmm1
 776 08d6 F20F2AC8 		cvtsi2sd	%eax, %xmm1
 777 08da F20F2CC0 		cvttsd2si	%xmm0, %eax
 778 08de 660FEFC0 		pxor	%xmm0, %xmm0
 779 08e2 F20F2AC0 		cvtsi2sd	%eax, %xmm0
 780 08e6 E933FFFF 		jmp	.L63
 780      FF
 781 08eb 0F1F4400 		.p2align 4,,10
 781      00
 782              		.p2align 3
 783              	.L67:
 784 08f0 660FEFC0 		pxor	%xmm0, %xmm0
 785 08f4 488D7424 		leaq	32(%rsp), %rsi
 785      20
 786 08f9 488D7C24 		leaq	40(%rsp), %rdi
 786      28
 787 08fe F20F2AC0 		cvtsi2sd	%eax, %xmm0
 788 0902 F20F59C8 		mulsd	%xmm0, %xmm1
 789 0906 F20F590D 		mulsd	.LC20(%rip), %xmm1
 789      00000000 
 790 090e 660F28C1 		movapd	%xmm1, %xmm0
 791 0912 E8000000 		call	sincos
 791      00
 792 0917 F20F1044 		movsd	8(%rsp), %xmm0
 792      2408
 793 091d F20F1064 		movsd	40(%rsp), %xmm4
 793      2428
 794 0923 F20F5944 		mulsd	32(%rsp), %xmm0
 794      2420
 795 0929 F20F1164 		movsd	%xmm4, 16(%rsp)
GAS LISTING /tmp/cce5yULP.s 			page 20


 795      2410
 796 092f E8000000 		call	round
 796      00
 797 0934 F20F1064 		movsd	16(%rsp), %xmm4
 797      2410
 798 093a F20F1144 		movsd	%xmm0, 24(%rsp)
 798      2418
 799 0940 F20F5964 		mulsd	8(%rsp), %xmm4
 799      2408
 800 0946 660F28C4 		movapd	%xmm4, %xmm0
 801 094a E8000000 		call	round
 801      00
 802 094f F20F102D 		movsd	.LC21(%rip), %xmm5
 802      00000000 
 803 0957 F2410F11 		movsd	%xmm5, (%r12)
 803      2C24
 804 095d E966FFFF 		jmp	.L66
 804      FF
 805              		.cfi_endproc
 806              	.LFE8471:
 808              		.section	.text.unlikely
 809              	.LCOLDE26:
 810              		.text
 811              	.LHOTE26:
 812              		.section	.text.unlikely
 813              		.align 2
 814              	.LCOLDB27:
 815              		.text
 816              	.LHOTB27:
 817              		.align 2
 818 0962 0F1F4000 		.p2align 4,,15
 818      662E0F1F 
 818      84000000 
 818      0000
 819              		.globl	_ZN6Solver24cell_interface_variablesEiiR10vector_varRiRdS1_R19Boundary_ConditionsRNS_6bc_va
 821              	_ZN6Solver24cell_interface_variablesEiiR10vector_varRiRdS1_R19Boundary_ConditionsRNS_6bc_varER4Mesh
 822              	.LFB8473:
 823              		.cfi_startproc
 824 0970 83FE01   		cmpl	$1, %esi
 825 0973 4C8B5424 		movq	8(%rsp), %r10
 825      08
 826 0978 488B4424 		movq	32(%rsp), %rax
 826      20
 827 097d 488B7C24 		movq	40(%rsp), %rdi
 827      28
 828 0982 0F840802 		je	.L71
 828      0000
 829 0988 0F8E5201 		jle	.L77
 829      0000
 830 098e 83FE02   		cmpl	$2, %esi
 831 0991 0F84B900 		je	.L74
 831      0000
 832 0997 83FE03   		cmpl	$3, %esi
 833 099a 0F85E001 		jne	.L70
 833      0000
 834 09a0 488B7058 		movq	88(%rax), %rsi
 835 09a4 4863D2   		movslq	%edx, %rdx
GAS LISTING /tmp/cce5yULP.s 			page 21


 836 09a7 F20F1004 		movsd	(%rsi,%rdx,8), %xmm0
 836      D6
 837 09ac 488B7060 		movq	96(%rax), %rsi
 838 09b0 F20F1141 		movsd	%xmm0, 8(%rcx)
 838      08
 839 09b5 F20F1004 		movsd	(%rsi,%rdx,8), %xmm0
 839      D6
 840 09ba 488B7068 		movq	104(%rax), %rsi
 841 09be F20F1141 		movsd	%xmm0, 16(%rcx)
 841      10
 842 09c3 F20F1004 		movsd	(%rsi,%rdx,8), %xmm0
 842      D6
 843 09c8 488BB0B8 		movq	184(%rax), %rsi
 843      000000
 844 09cf F20F1141 		movsd	%xmm0, 24(%rcx)
 844      18
 845 09d4 488B8850 		movq	336(%rax), %rcx
 845      010000
 846 09db F20F1004 		movsd	(%rsi,%rdx,8), %xmm0
 846      D6
 847 09e0 8B0C91   		movl	(%rcx,%rdx,4), %ecx
 848 09e3 488BB0E8 		movq	232(%rax), %rsi
 848      000000
 849 09ea 418908   		movl	%ecx, (%r8)
 850 09ed F2410F11 		movsd	%xmm0, (%r9)
 850      01
 851 09f2 F20F1004 		movsd	(%rsi,%rdx,8), %xmm0
 851      D6
 852 09f7 488BB0F0 		movq	240(%rax), %rsi
 852      000000
 853 09fe F2410F11 		movsd	%xmm0, 8(%r10)
 853      4208
 854 0a04 F20F1004 		movsd	(%rsi,%rdx,8), %xmm0
 854      D6
 855 0a09 488BB0F8 		movq	248(%rax), %rsi
 855      000000
 856 0a10 F2410F11 		movsd	%xmm0, 16(%r10)
 856      4210
 857 0a16 F20F1004 		movsd	(%rsi,%rdx,8), %xmm0
 857      D6
 858 0a1b F2410F11 		movsd	%xmm0, 24(%r10)
 858      4218
 859              	.L76:
 860 0a21 4863D1   		movslq	%ecx, %rdx
 861 0a24 488B4840 		movq	64(%rax), %rcx
 862 0a28 F20F1004 		movsd	(%rcx,%rdx,8), %xmm0
 862      D1
 863 0a2d 488B4848 		movq	72(%rax), %rcx
 864 0a31 488B4050 		movq	80(%rax), %rax
 865 0a35 F20F1147 		movsd	%xmm0, 8(%rdi)
 865      08
 866 0a3a F20F1004 		movsd	(%rcx,%rdx,8), %xmm0
 866      D1
 867 0a3f F20F1147 		movsd	%xmm0, 16(%rdi)
 867      10
 868 0a44 F20F1004 		movsd	(%rax,%rdx,8), %xmm0
 868      D0
GAS LISTING /tmp/cce5yULP.s 			page 22


 869 0a49 F20F1147 		movsd	%xmm0, 24(%rdi)
 869      18
 870 0a4e C3       		ret
 871 0a4f 90       		.p2align 4,,10
 872              		.p2align 3
 873              	.L74:
 874 0a50 488B7070 		movq	112(%rax), %rsi
 875 0a54 4863D2   		movslq	%edx, %rdx
 876 0a57 F20F1004 		movsd	(%rsi,%rdx,8), %xmm0
 876      D6
 877 0a5c 488B7078 		movq	120(%rax), %rsi
 878 0a60 F20F1141 		movsd	%xmm0, 8(%rcx)
 878      08
 879 0a65 F20F1004 		movsd	(%rsi,%rdx,8), %xmm0
 879      D6
 880 0a6a 488BB080 		movq	128(%rax), %rsi
 880      000000
 881 0a71 F20F1141 		movsd	%xmm0, 16(%rcx)
 881      10
 882 0a76 F20F1004 		movsd	(%rsi,%rdx,8), %xmm0
 882      D6
 883 0a7b 488BB030 		movq	304(%rax), %rsi
 883      010000
 884 0a82 F20F1141 		movsd	%xmm0, 24(%rcx)
 884      18
 885 0a87 488B88D0 		movq	208(%rax), %rcx
 885      000000
 886 0a8e F20F1004 		movsd	(%rcx,%rdx,8), %xmm0
 886      D1
 887 0a93 488B8860 		movq	352(%rax), %rcx
 887      010000
 888 0a9a F2410F11 		movsd	%xmm0, (%r9)
 888      01
 889 0a9f 8B0C91   		movl	(%rcx,%rdx,4), %ecx
 890 0aa2 F20F1004 		movsd	(%rsi,%rdx,8), %xmm0
 890      D6
 891 0aa7 488BB038 		movq	312(%rax), %rsi
 891      010000
 892 0aae 418908   		movl	%ecx, (%r8)
 893 0ab1 F2410F11 		movsd	%xmm0, 8(%r10)
 893      4208
 894 0ab7 F20F1004 		movsd	(%rsi,%rdx,8), %xmm0
 894      D6
 895 0abc 488BB040 		movq	320(%rax), %rsi
 895      010000
 896 0ac3 F2410F11 		movsd	%xmm0, 16(%r10)
 896      4210
 897 0ac9 F20F1004 		movsd	(%rsi,%rdx,8), %xmm0
 897      D6
 898 0ace F2410F11 		movsd	%xmm0, 24(%r10)
 898      4218
 899 0ad4 E948FFFF 		jmp	.L76
 899      FF
 900 0ad9 0F1F8000 		.p2align 4,,10
 900      000000
 901              		.p2align 3
 902              	.L77:
GAS LISTING /tmp/cce5yULP.s 			page 23


 903 0ae0 85F6     		testl	%esi, %esi
 904 0ae2 0F859800 		jne	.L70
 904      0000
 905 0ae8 488BB088 		movq	136(%rax), %rsi
 905      000000
 906 0aef 4863D2   		movslq	%edx, %rdx
 907 0af2 F20F1004 		movsd	(%rsi,%rdx,8), %xmm0
 907      D6
 908 0af7 488BB090 		movq	144(%rax), %rsi
 908      000000
 909 0afe F20F1141 		movsd	%xmm0, 8(%rcx)
 909      08
 910 0b03 F20F1004 		movsd	(%rsi,%rdx,8), %xmm0
 910      D6
 911 0b08 488BB098 		movq	152(%rax), %rsi
 911      000000
 912 0b0f F20F1141 		movsd	%xmm0, 16(%rcx)
 912      10
 913 0b14 F20F1004 		movsd	(%rsi,%rdx,8), %xmm0
 913      D6
 914 0b19 488BB0C8 		movq	200(%rax), %rsi
 914      000000
 915 0b20 F20F1141 		movsd	%xmm0, 24(%rcx)
 915      18
 916 0b25 488B8868 		movq	360(%rax), %rcx
 916      010000
 917 0b2c F20F1004 		movsd	(%rsi,%rdx,8), %xmm0
 917      D6
 918 0b31 8B0C91   		movl	(%rcx,%rdx,4), %ecx
 919 0b34 488BB018 		movq	280(%rax), %rsi
 919      010000
 920 0b3b 418908   		movl	%ecx, (%r8)
 921 0b3e F2410F11 		movsd	%xmm0, (%r9)
 921      01
 922 0b43 F20F1004 		movsd	(%rsi,%rdx,8), %xmm0
 922      D6
 923 0b48 488BB020 		movq	288(%rax), %rsi
 923      010000
 924 0b4f F2410F11 		movsd	%xmm0, 8(%r10)
 924      4208
 925 0b55 F20F1004 		movsd	(%rsi,%rdx,8), %xmm0
 925      D6
 926 0b5a 488BB028 		movq	296(%rax), %rsi
 926      010000
 927 0b61 F2410F11 		movsd	%xmm0, 16(%r10)
 927      4210
 928 0b67 F20F1004 		movsd	(%rsi,%rdx,8), %xmm0
 928      D6
 929 0b6c F2410F11 		movsd	%xmm0, 24(%r10)
 929      4218
 930 0b72 E9AAFEFF 		jmp	.L76
 930      FF
 931 0b77 660F1F84 		.p2align 4,,10
 931      00000000 
 931      00
 932              		.p2align 3
 933              	.L70:
GAS LISTING /tmp/cce5yULP.s 			page 24


 934 0b80 418B08   		movl	(%r8), %ecx
 935 0b83 E999FEFF 		jmp	.L76
 935      FF
 936 0b88 0F1F8400 		.p2align 4,,10
 936      00000000 
 937              		.p2align 3
 938              	.L71:
 939 0b90 488BB0A0 		movq	160(%rax), %rsi
 939      000000
 940 0b97 4863D2   		movslq	%edx, %rdx
 941 0b9a F20F1004 		movsd	(%rsi,%rdx,8), %xmm0
 941      D6
 942 0b9f 488BB0A8 		movq	168(%rax), %rsi
 942      000000
 943 0ba6 F20F1141 		movsd	%xmm0, 8(%rcx)
 943      08
 944 0bab F20F1004 		movsd	(%rsi,%rdx,8), %xmm0
 944      D6
 945 0bb0 488BB0B0 		movq	176(%rax), %rsi
 945      000000
 946 0bb7 F20F1141 		movsd	%xmm0, 16(%rcx)
 946      10
 947 0bbc F20F1004 		movsd	(%rsi,%rdx,8), %xmm0
 947      D6
 948 0bc1 488BB0C0 		movq	192(%rax), %rsi
 948      000000
 949 0bc8 F20F1141 		movsd	%xmm0, 24(%rcx)
 949      18
 950 0bcd 488B8858 		movq	344(%rax), %rcx
 950      010000
 951 0bd4 F20F1004 		movsd	(%rsi,%rdx,8), %xmm0
 951      D6
 952 0bd9 8B0C91   		movl	(%rcx,%rdx,4), %ecx
 953 0bdc 488BB000 		movq	256(%rax), %rsi
 953      010000
 954 0be3 418908   		movl	%ecx, (%r8)
 955 0be6 F2410F11 		movsd	%xmm0, (%r9)
 955      01
 956 0beb F20F1004 		movsd	(%rsi,%rdx,8), %xmm0
 956      D6
 957 0bf0 488BB008 		movq	264(%rax), %rsi
 957      010000
 958 0bf7 F2410F11 		movsd	%xmm0, 8(%r10)
 958      4208
 959 0bfd F20F1004 		movsd	(%rsi,%rdx,8), %xmm0
 959      D6
 960 0c02 488BB010 		movq	272(%rax), %rsi
 960      010000
 961 0c09 F2410F11 		movsd	%xmm0, 16(%r10)
 961      4210
 962 0c0f F20F1004 		movsd	(%rsi,%rdx,8), %xmm0
 962      D6
 963 0c14 F2410F11 		movsd	%xmm0, 24(%r10)
 963      4218
 964 0c1a E902FEFF 		jmp	.L76
 964      FF
 965              		.cfi_endproc
GAS LISTING /tmp/cce5yULP.s 			page 25


 966              	.LFE8473:
 968              		.section	.text.unlikely
 969              	.LCOLDE27:
 970              		.text
 971              	.LHOTE27:
 972              		.section	.text.unlikely._ZNSt6vectorI10vector_varSaIS0_EE19_M_emplace_back_auxIJRKS0_EEEvDpOT_,"ax
 973              		.align 2
 974              	.LCOLDB28:
 975              		.section	.text._ZNSt6vectorI10vector_varSaIS0_EE19_M_emplace_back_auxIJRKS0_EEEvDpOT_,"axG",@progb
 976              	.LHOTB28:
 977              		.align 2
 978              		.p2align 4,,15
 979              		.weak	_ZNSt6vectorI10vector_varSaIS0_EE19_M_emplace_back_auxIJRKS0_EEEvDpOT_
 981              	_ZNSt6vectorI10vector_varSaIS0_EE19_M_emplace_back_auxIJRKS0_EEEvDpOT_:
 982              	.LFB8697:
 983              		.cfi_startproc
 984 0000 4157     		pushq	%r15
 985              		.cfi_def_cfa_offset 16
 986              		.cfi_offset 15, -16
 987 0002 4156     		pushq	%r14
 988              		.cfi_def_cfa_offset 24
 989              		.cfi_offset 14, -24
 990 0004 4989FE   		movq	%rdi, %r14
 991 0007 4155     		pushq	%r13
 992              		.cfi_def_cfa_offset 32
 993              		.cfi_offset 13, -32
 994 0009 4154     		pushq	%r12
 995              		.cfi_def_cfa_offset 40
 996              		.cfi_offset 12, -40
 997 000b 55       		pushq	%rbp
 998              		.cfi_def_cfa_offset 48
 999              		.cfi_offset 6, -48
 1000 000c 53       		pushq	%rbx
 1001              		.cfi_def_cfa_offset 56
 1002              		.cfi_offset 3, -56
 1003 000d 4889F3   		movq	%rsi, %rbx
 1004 0010 4883EC08 		subq	$8, %rsp
 1005              		.cfi_def_cfa_offset 64
 1006 0014 498B6E08 		movq	8(%r14), %rbp
 1007 0018 488B3F   		movq	(%rdi), %rdi
 1008 001b 4889EA   		movq	%rbp, %rdx
 1009 001e 4829FA   		subq	%rdi, %rdx
 1010 0021 4889D0   		movq	%rdx, %rax
 1011 0024 48C1F805 		sarq	$5, %rax
 1012 0028 4885C0   		testq	%rax, %rax
 1013 002b 0F840F01 		je	.L89
 1013      0000
 1014 0031 488D0C00 		leaq	(%rax,%rax), %rcx
 1015 0035 4839C8   		cmpq	%rcx, %rax
 1016 0038 0F860D01 		jbe	.L109
 1016      0000
 1017              	.L90:
 1018 003e 49C7C4E0 		movq	$-32, %r12
 1018      FFFFFF
 1019              	.L79:
 1020 0045 4C89E7   		movq	%r12, %rdi
 1021 0048 E8000000 		call	_Znwm
GAS LISTING /tmp/cce5yULP.s 			page 26


 1021      00
 1022 004d 498B6E08 		movq	8(%r14), %rbp
 1023 0051 498B3E   		movq	(%r14), %rdi
 1024 0054 4C8D6820 		leaq	32(%rax), %r13
 1025 0058 4989C7   		movq	%rax, %r15
 1026 005b 4901C4   		addq	%rax, %r12
 1027 005e 4889EA   		movq	%rbp, %rdx
 1028 0061 4829FA   		subq	%rdi, %rdx
 1029              	.L88:
 1030 0064 4C01FA   		addq	%r15, %rdx
 1031 0067 7425     		je	.L81
 1032 0069 F20F1043 		movsd	8(%rbx), %xmm0
 1032      08
 1033 006e 48C70200 		movq	$_ZTV10vector_var+16, (%rdx)
 1033      000000
 1034 0075 F20F1142 		movsd	%xmm0, 8(%rdx)
 1034      08
 1035 007a F20F1043 		movsd	16(%rbx), %xmm0
 1035      10
 1036 007f F20F1142 		movsd	%xmm0, 16(%rdx)
 1036      10
 1037 0084 F20F1043 		movsd	24(%rbx), %xmm0
 1037      18
 1038 0089 F20F1142 		movsd	%xmm0, 24(%rdx)
 1038      18
 1039              	.L81:
 1040 008e 4839EF   		cmpq	%rbp, %rdi
 1041 0091 0F848100 		je	.L82
 1041      0000
 1042 0097 4C89FA   		movq	%r15, %rdx
 1043 009a 4889F9   		movq	%rdi, %rcx
 1044 009d 0F1F00   		.p2align 4,,10
 1045              		.p2align 3
 1046              	.L84:
 1047 00a0 4885D2   		testq	%rdx, %rdx
 1048 00a3 7425     		je	.L83
 1049 00a5 F20F1041 		movsd	8(%rcx), %xmm0
 1049      08
 1050 00aa 48C70200 		movq	$_ZTV10vector_var+16, (%rdx)
 1050      000000
 1051 00b1 F20F1142 		movsd	%xmm0, 8(%rdx)
 1051      08
 1052 00b6 F20F1041 		movsd	16(%rcx), %xmm0
 1052      10
 1053 00bb F20F1142 		movsd	%xmm0, 16(%rdx)
 1053      10
 1054 00c0 F20F1041 		movsd	24(%rcx), %xmm0
 1054      18
 1055 00c5 F20F1142 		movsd	%xmm0, 24(%rdx)
 1055      18
 1056              	.L83:
 1057 00ca 4883C120 		addq	$32, %rcx
 1058 00ce 4883C220 		addq	$32, %rdx
 1059 00d2 4839E9   		cmpq	%rbp, %rcx
 1060 00d5 75C9     		jne	.L84
 1061 00d7 488D5F20 		leaq	32(%rdi), %rbx
 1062 00db 4889E8   		movq	%rbp, %rax
GAS LISTING /tmp/cce5yULP.s 			page 27


 1063 00de 4829D8   		subq	%rbx, %rax
 1064 00e1 4883E0E0 		andq	$-32, %rax
 1065 00e5 4D8D6C07 		leaq	64(%r15,%rax), %r13
 1065      40
 1066 00ea EB10     		jmp	.L86
 1067 00ec 0F1F4000 		.p2align 4,,10
 1068              		.p2align 3
 1069              	.L85:
 1070 00f0 4839EB   		cmpq	%rbp, %rbx
 1071 00f3 4889DF   		movq	%rbx, %rdi
 1072 00f6 741D     		je	.L106
 1073              	.L110:
 1074 00f8 4883C320 		addq	$32, %rbx
 1075              	.L86:
 1076 00fc 488B17   		movq	(%rdi), %rdx
 1077 00ff 488B12   		movq	(%rdx), %rdx
 1078 0102 4881FA00 		cmpq	$_ZN10vector_varD2Ev, %rdx
 1078      000000
 1079 0109 74E5     		je	.L85
 1080 010b FFD2     		call	*%rdx
 1081 010d 4839EB   		cmpq	%rbp, %rbx
 1082 0110 4889DF   		movq	%rbx, %rdi
 1083 0113 75E3     		jne	.L110
 1084              	.L106:
 1085 0115 498B2E   		movq	(%r14), %rbp
 1086              	.L82:
 1087 0118 4885ED   		testq	%rbp, %rbp
 1088 011b 7408     		je	.L87
 1089 011d 4889EF   		movq	%rbp, %rdi
 1090 0120 E8000000 		call	_ZdlPv
 1090      00
 1091              	.L87:
 1092 0125 4D893E   		movq	%r15, (%r14)
 1093 0128 4D896E08 		movq	%r13, 8(%r14)
 1094 012c 4D896610 		movq	%r12, 16(%r14)
 1095 0130 4883C408 		addq	$8, %rsp
 1096              		.cfi_remember_state
 1097              		.cfi_def_cfa_offset 56
 1098 0134 5B       		popq	%rbx
 1099              		.cfi_def_cfa_offset 48
 1100 0135 5D       		popq	%rbp
 1101              		.cfi_def_cfa_offset 40
 1102 0136 415C     		popq	%r12
 1103              		.cfi_def_cfa_offset 32
 1104 0138 415D     		popq	%r13
 1105              		.cfi_def_cfa_offset 24
 1106 013a 415E     		popq	%r14
 1107              		.cfi_def_cfa_offset 16
 1108 013c 415F     		popq	%r15
 1109              		.cfi_def_cfa_offset 8
 1110 013e C3       		ret
 1111 013f 90       		.p2align 4,,10
 1112              		.p2align 3
 1113              	.L89:
 1114              		.cfi_restore_state
 1115 0140 41BC2000 		movl	$32, %r12d
 1115      0000
GAS LISTING /tmp/cce5yULP.s 			page 28


 1116 0146 E9FAFEFF 		jmp	.L79
 1116      FF
 1117              	.L109:
 1118 014b 48BEFFFF 		movabsq	$576460752303423487, %rsi
 1118      FFFFFFFF 
 1118      FF07
 1119 0155 4839F1   		cmpq	%rsi, %rcx
 1120 0158 0F87E0FE 		ja	.L90
 1120      FFFF
 1121 015e 4885C9   		testq	%rcx, %rcx
 1122 0161 7511     		jne	.L111
 1123 0163 41BD2000 		movl	$32, %r13d
 1123      0000
 1124 0169 4531E4   		xorl	%r12d, %r12d
 1125 016c 4531FF   		xorl	%r15d, %r15d
 1126 016f E9F0FEFF 		jmp	.L88
 1126      FF
 1127              	.L111:
 1128 0174 48C1E006 		salq	$6, %rax
 1129 0178 4989C4   		movq	%rax, %r12
 1130 017b E9C5FEFF 		jmp	.L79
 1130      FF
 1131              		.cfi_endproc
 1132              	.LFE8697:
 1134              		.section	.text.unlikely._ZNSt6vectorI10vector_varSaIS0_EE19_M_emplace_back_auxIJRKS0_EEEvDpOT_,"ax
 1135              	.LCOLDE28:
 1136              		.section	.text._ZNSt6vectorI10vector_varSaIS0_EE19_M_emplace_back_auxIJRKS0_EEEvDpOT_,"axG",@progb
 1137              	.LHOTE28:
 1138              		.weak	_ZNSt6vectorI10vector_varSaIS0_EE19_M_emplace_back_auxIIRKS0_EEEvDpOT_
 1139              		.set	_ZNSt6vectorI10vector_varSaIS0_EE19_M_emplace_back_auxIIRKS0_EEEvDpOT_,_ZNSt6vectorI10vector_
 1140              		.section	.text.unlikely
 1141              		.align 2
 1142              	.LCOLDB29:
 1143              		.text
 1144              	.LHOTB29:
 1145 0c1f 90       		.align 2
 1146              		.p2align 4,,15
 1147              		.globl	_ZN6Solver16populate_e_alphaERSt6vectorI10vector_varSaIS1_EEPdddi
 1149              	_ZN6Solver16populate_e_alphaERSt6vectorI10vector_varSaIS1_EEPdddi:
 1150              	.LFB8472:
 1151              		.cfi_startproc
 1152 0c20 4156     		pushq	%r14
 1153              		.cfi_def_cfa_offset 16
 1154              		.cfi_offset 14, -16
 1155 0c22 4155     		pushq	%r13
 1156              		.cfi_def_cfa_offset 24
 1157              		.cfi_offset 13, -24
 1158 0c24 4989F5   		movq	%rsi, %r13
 1159 0c27 4154     		pushq	%r12
 1160              		.cfi_def_cfa_offset 32
 1161              		.cfi_offset 12, -32
 1162 0c29 55       		pushq	%rbp
 1163              		.cfi_def_cfa_offset 40
 1164              		.cfi_offset 6, -40
 1165 0c2a 89CD     		movl	%ecx, %ebp
 1166 0c2c 53       		pushq	%rbx
 1167              		.cfi_def_cfa_offset 48
GAS LISTING /tmp/cce5yULP.s 			page 29


 1168              		.cfi_offset 3, -48
 1169 0c2d 4989D4   		movq	%rdx, %r12
 1170 0c30 4883EC60 		subq	$96, %rsp
 1171              		.cfi_def_cfa_offset 144
 1172 0c34 488D7C24 		leaq	48(%rsp), %rdi
 1172      30
 1173 0c39 F20F1104 		movsd	%xmm0, (%rsp)
 1173      24
 1174 0c3e 64488B04 		movq	%fs:40, %rax
 1174      25280000 
 1174      00
 1175 0c47 48894424 		movq	%rax, 88(%rsp)
 1175      58
 1176 0c4c 31C0     		xorl	%eax, %eax
 1177 0c4e F20F114C 		movsd	%xmm1, 24(%rsp)
 1177      2418
 1178 0c54 E8000000 		call	_ZN10vector_varC1Ev
 1178      00
 1179 0c59 85ED     		testl	%ebp, %ebp
 1180 0c5b 0F8E2501 		jle	.L112
 1180      0000
 1181 0c61 83ED01   		subl	$1, %ebp
 1182 0c64 BBFFFFFF 		movl	$-1, %ebx
 1182      FF
 1183 0c69 0F1F8000 		.p2align 4,,10
 1183      000000
 1184              		.p2align 3
 1185              	.L121:
 1186 0c70 83FB03   		cmpl	$3, %ebx
 1187 0c73 0F864601 		jbe	.L127
 1187      0000
 1188 0c79 448D7301 		leal	1(%rbx), %r14d
 1189 0c7d 4183FE04 		cmpl	$4, %r14d
 1190 0c81 0F8EC801 		jle	.L116
 1190      0000
 1191 0c87 660FEFC0 		pxor	%xmm0, %xmm0
 1192 0c8b 83EB04   		subl	$4, %ebx
 1193 0c8e 488D7424 		leaq	32(%rsp), %rsi
 1193      20
 1194 0c93 F20F105C 		movsd	24(%rsp), %xmm3
 1194      2418
 1195 0c99 488D7C24 		leaq	40(%rsp), %rdi
 1195      28
 1196 0c9e F20F100D 		movsd	.LC22(%rip), %xmm1
 1196      00000000 
 1197 0ca6 F20F2AC3 		cvtsi2sd	%ebx, %xmm0
 1198 0caa F20F59CB 		mulsd	%xmm3, %xmm1
 1199 0cae F20F59C3 		mulsd	%xmm3, %xmm0
 1200 0cb2 F20F5905 		mulsd	.LC20(%rip), %xmm0
 1200      00000000 
 1201 0cba F20F58C1 		addsd	%xmm1, %xmm0
 1202 0cbe E8000000 		call	sincos
 1202      00
 1203 0cc3 F20F1005 		movsd	.LC23(%rip), %xmm0
 1203      00000000 
 1204 0ccb F20F106C 		movsd	40(%rsp), %xmm5
 1204      2428
GAS LISTING /tmp/cce5yULP.s 			page 30


 1205 0cd1 F20F5944 		mulsd	32(%rsp), %xmm0
 1205      2420
 1206 0cd7 F20F116C 		movsd	%xmm5, 8(%rsp)
 1206      2408
 1207 0cdd F20F5904 		mulsd	(%rsp), %xmm0
 1207      24
 1208 0ce2 E8000000 		call	round
 1208      00
 1209 0ce7 F20F1144 		movsd	%xmm0, 16(%rsp)
 1209      2410
 1210 0ced F20F1005 		movsd	.LC23(%rip), %xmm0
 1210      00000000 
 1211 0cf5 F20F5944 		mulsd	8(%rsp), %xmm0
 1211      2408
 1212 0cfb F20F5904 		mulsd	(%rsp), %xmm0
 1212      24
 1213 0d00 E8000000 		call	round
 1213      00
 1214 0d05 F20F104C 		movsd	16(%rsp), %xmm1
 1214      2410
 1215 0d0b F20F1035 		movsd	.LC24(%rip), %xmm6
 1215      00000000 
 1216 0d13 F20F2CC1 		cvttsd2si	%xmm1, %eax
 1217 0d17 660FEFC9 		pxor	%xmm1, %xmm1
 1218 0d1b F2410F11 		movsd	%xmm6, (%r12)
 1218      3424
 1219 0d21 F20F2AC8 		cvtsi2sd	%eax, %xmm1
 1220 0d25 F20F2CC0 		cvttsd2si	%xmm0, %eax
 1221 0d29 660FEFC0 		pxor	%xmm0, %xmm0
 1222 0d2d F20F2AC0 		cvtsi2sd	%eax, %xmm0
 1223              	.L115:
 1224 0d31 498B4508 		movq	8(%r13), %rax
 1225 0d35 493B4510 		cmpq	16(%r13), %rax
 1226 0d39 F20F114C 		movsd	%xmm1, 56(%rsp)
 1226      2438
 1227 0d3f F20F1144 		movsd	%xmm0, 64(%rsp)
 1227      2440
 1228 0d45 48C74424 		movq	$0, 72(%rsp)
 1228      48000000 
 1228      00
 1229 0d4e 7460     		je	.L117
 1230 0d50 4885C0   		testq	%rax, %rax
 1231 0d53 7419     		je	.L118
 1232 0d55 F20F1148 		movsd	%xmm1, 8(%rax)
 1232      08
 1233 0d5a 48C70000 		movq	$_ZTV10vector_var+16, (%rax)
 1233      000000
 1234 0d61 48C74018 		movq	$0, 24(%rax)
 1234      00000000 
 1235 0d69 F20F1140 		movsd	%xmm0, 16(%rax)
 1235      10
 1236              	.L118:
 1237 0d6e 4883C020 		addq	$32, %rax
 1238 0d72 49894508 		movq	%rax, 8(%r13)
 1239              	.L119:
 1240 0d76 4983C408 		addq	$8, %r12
 1241 0d7a 4139EE   		cmpl	%ebp, %r14d
GAS LISTING /tmp/cce5yULP.s 			page 31


 1242 0d7d 4489F3   		movl	%r14d, %ebx
 1243 0d80 0F85EAFE 		jne	.L121
 1243      FFFF
 1244              	.L112:
 1245 0d86 488B4424 		movq	88(%rsp), %rax
 1245      58
 1246 0d8b 64483304 		xorq	%fs:40, %rax
 1246      25280000 
 1246      00
 1247 0d94 0F85D000 		jne	.L128
 1247      0000
 1248 0d9a 4883C460 		addq	$96, %rsp
 1249              		.cfi_remember_state
 1250              		.cfi_def_cfa_offset 48
 1251 0d9e 5B       		popq	%rbx
 1252              		.cfi_def_cfa_offset 40
 1253 0d9f 5D       		popq	%rbp
 1254              		.cfi_def_cfa_offset 32
 1255 0da0 415C     		popq	%r12
 1256              		.cfi_def_cfa_offset 24
 1257 0da2 415D     		popq	%r13
 1258              		.cfi_def_cfa_offset 16
 1259 0da4 415E     		popq	%r14
 1260              		.cfi_def_cfa_offset 8
 1261 0da6 C3       		ret
 1262 0da7 660F1F84 		.p2align 4,,10
 1262      00000000 
 1262      00
 1263              		.p2align 3
 1264              	.L117:
 1265              		.cfi_restore_state
 1266 0db0 488D7424 		leaq	48(%rsp), %rsi
 1266      30
 1267 0db5 4C89EF   		movq	%r13, %rdi
 1268 0db8 E8000000 		call	_ZNSt6vectorI10vector_varSaIS0_EE19_M_emplace_back_auxIJRKS0_EEEvDpOT_
 1268      00
 1269 0dbd EBB7     		jmp	.L119
 1270              	.L127:
 1271 0dbf 660FEFC0 		pxor	%xmm0, %xmm0
 1272 0dc3 488D7424 		leaq	32(%rsp), %rsi
 1272      20
 1273 0dc8 488D7C24 		leaq	40(%rsp), %rdi
 1273      28
 1274 0dcd 448D7301 		leal	1(%rbx), %r14d
 1275 0dd1 F20F2AC3 		cvtsi2sd	%ebx, %xmm0
 1276 0dd5 F20F5944 		mulsd	24(%rsp), %xmm0
 1276      2418
 1277 0ddb F20F5905 		mulsd	.LC20(%rip), %xmm0
 1277      00000000 
 1278 0de3 E8000000 		call	sincos
 1278      00
 1279 0de8 F20F1004 		movsd	(%rsp), %xmm0
 1279      24
 1280 0ded F20F1054 		movsd	40(%rsp), %xmm2
 1280      2428
 1281 0df3 F20F5944 		mulsd	32(%rsp), %xmm0
 1281      2420
GAS LISTING /tmp/cce5yULP.s 			page 32


 1282 0df9 F20F1154 		movsd	%xmm2, 16(%rsp)
 1282      2410
 1283 0dff E8000000 		call	round
 1283      00
 1284 0e04 F20F1054 		movsd	16(%rsp), %xmm2
 1284      2410
 1285 0e0a F20F1144 		movsd	%xmm0, 8(%rsp)
 1285      2408
 1286 0e10 F20F5914 		mulsd	(%rsp), %xmm2
 1286      24
 1287 0e15 660F28C2 		movapd	%xmm2, %xmm0
 1288 0e19 E8000000 		call	round
 1288      00
 1289 0e1e F20F104C 		movsd	8(%rsp), %xmm1
 1289      2408
 1290 0e24 F20F103D 		movsd	.LC21(%rip), %xmm7
 1290      00000000 
 1291 0e2c F20F2CC1 		cvttsd2si	%xmm1, %eax
 1292 0e30 660FEFC9 		pxor	%xmm1, %xmm1
 1293 0e34 F2410F11 		movsd	%xmm7, (%r12)
 1293      3C24
 1294 0e3a F20F2AC8 		cvtsi2sd	%eax, %xmm1
 1295 0e3e F20F2CC0 		cvttsd2si	%xmm0, %eax
 1296 0e42 660FEFC0 		pxor	%xmm0, %xmm0
 1297 0e46 F20F2AC0 		cvtsi2sd	%eax, %xmm0
 1298 0e4a E9E2FEFF 		jmp	.L115
 1298      FF
 1299              	.L116:
 1300 0e4f 660FEFC0 		pxor	%xmm0, %xmm0
 1301 0e53 F20F103D 		movsd	.LC25(%rip), %xmm7
 1301      00000000 
 1302 0e5b 660F28C8 		movapd	%xmm0, %xmm1
 1303 0e5f F2410F11 		movsd	%xmm7, (%r12)
 1303      3C24
 1304 0e65 E9C7FEFF 		jmp	.L115
 1304      FF
 1305              	.L128:
 1306 0e6a E8000000 		call	__stack_chk_fail
 1306      00
 1307              		.cfi_endproc
 1308              	.LFE8472:
 1310              		.section	.text.unlikely
 1311              	.LCOLDE29:
 1312              		.text
 1313              	.LHOTE29:
 1314              		.section	.text.unlikely
 1315              		.align 2
 1316              	.LCOLDB30:
 1317              		.text
 1318              	.LHOTB30:
 1319 0e6f 90       		.align 2
 1320              		.p2align 4,,15
 1322              	_ZN6Solver16populate_e_alphaERSt6vectorI10vector_varSaIS1_EEPdddi.constprop.93:
 1323              	.LFB8943:
 1324              		.cfi_startproc
 1325 0e70 4155     		pushq	%r13
 1326              		.cfi_def_cfa_offset 16
GAS LISTING /tmp/cce5yULP.s 			page 33


 1327              		.cfi_offset 13, -16
 1328 0e72 4154     		pushq	%r12
 1329              		.cfi_def_cfa_offset 24
 1330              		.cfi_offset 12, -24
 1331 0e74 4989FC   		movq	%rdi, %r12
 1332 0e77 55       		pushq	%rbp
 1333              		.cfi_def_cfa_offset 32
 1334              		.cfi_offset 6, -32
 1335 0e78 53       		pushq	%rbx
 1336              		.cfi_def_cfa_offset 40
 1337              		.cfi_offset 3, -40
 1338 0e79 BBFFFFFF 		movl	$-1, %ebx
 1338      FF
 1339 0e7e 4889F5   		movq	%rsi, %rbp
 1340 0e81 4883EC68 		subq	$104, %rsp
 1341              		.cfi_def_cfa_offset 144
 1342 0e85 488D7C24 		leaq	48(%rsp), %rdi
 1342      30
 1343 0e8a F20F1104 		movsd	%xmm0, (%rsp)
 1343      24
 1344 0e8f F20F114C 		movsd	%xmm1, 24(%rsp)
 1344      2418
 1345 0e95 64488B04 		movq	%fs:40, %rax
 1345      25280000 
 1345      00
 1346 0e9e 48894424 		movq	%rax, 88(%rsp)
 1346      58
 1347 0ea3 31C0     		xorl	%eax, %eax
 1348 0ea5 E8000000 		call	_ZN10vector_varC1Ev
 1348      00
 1349 0eaa 660F1F44 		.p2align 4,,10
 1349      0000
 1350              		.p2align 3
 1351              	.L136:
 1352 0eb0 83FB03   		cmpl	$3, %ebx
 1353 0eb3 0F864601 		jbe	.L143
 1353      0000
 1354 0eb9 448D6B01 		leal	1(%rbx), %r13d
 1355 0ebd 4183FD04 		cmpl	$4, %r13d
 1356 0ec1 0F8EC701 		jle	.L132
 1356      0000
 1357 0ec7 660FEFC0 		pxor	%xmm0, %xmm0
 1358 0ecb 83EB04   		subl	$4, %ebx
 1359 0ece 488D7424 		leaq	32(%rsp), %rsi
 1359      20
 1360 0ed3 F20F105C 		movsd	24(%rsp), %xmm3
 1360      2418
 1361 0ed9 488D7C24 		leaq	40(%rsp), %rdi
 1361      28
 1362 0ede F20F100D 		movsd	.LC22(%rip), %xmm1
 1362      00000000 
 1363 0ee6 F20F2AC3 		cvtsi2sd	%ebx, %xmm0
 1364 0eea F20F59CB 		mulsd	%xmm3, %xmm1
 1365 0eee F20F59C3 		mulsd	%xmm3, %xmm0
 1366 0ef2 F20F5905 		mulsd	.LC20(%rip), %xmm0
 1366      00000000 
 1367 0efa F20F58C1 		addsd	%xmm1, %xmm0
GAS LISTING /tmp/cce5yULP.s 			page 34


 1368 0efe E8000000 		call	sincos
 1368      00
 1369 0f03 F20F1005 		movsd	.LC23(%rip), %xmm0
 1369      00000000 
 1370 0f0b F20F106C 		movsd	40(%rsp), %xmm5
 1370      2428
 1371 0f11 F20F5944 		mulsd	32(%rsp), %xmm0
 1371      2420
 1372 0f17 F20F116C 		movsd	%xmm5, 8(%rsp)
 1372      2408
 1373 0f1d F20F5904 		mulsd	(%rsp), %xmm0
 1373      24
 1374 0f22 E8000000 		call	round
 1374      00
 1375 0f27 F20F1144 		movsd	%xmm0, 16(%rsp)
 1375      2410
 1376 0f2d F20F1005 		movsd	.LC23(%rip), %xmm0
 1376      00000000 
 1377 0f35 F20F5944 		mulsd	8(%rsp), %xmm0
 1377      2408
 1378 0f3b F20F5904 		mulsd	(%rsp), %xmm0
 1378      24
 1379 0f40 E8000000 		call	round
 1379      00
 1380 0f45 F20F104C 		movsd	16(%rsp), %xmm1
 1380      2410
 1381 0f4b F20F1035 		movsd	.LC24(%rip), %xmm6
 1381      00000000 
 1382 0f53 F20F2CC1 		cvttsd2si	%xmm1, %eax
 1383 0f57 660FEFC9 		pxor	%xmm1, %xmm1
 1384 0f5b F20F1175 		movsd	%xmm6, 0(%rbp)
 1384      00
 1385 0f60 F20F2AC8 		cvtsi2sd	%eax, %xmm1
 1386 0f64 F20F2CC0 		cvttsd2si	%xmm0, %eax
 1387 0f68 660FEFC0 		pxor	%xmm0, %xmm0
 1388 0f6c F20F2AC0 		cvtsi2sd	%eax, %xmm0
 1389              	.L131:
 1390 0f70 498B4424 		movq	8(%r12), %rax
 1390      08
 1391 0f75 493B4424 		cmpq	16(%r12), %rax
 1391      10
 1392 0f7a F20F114C 		movsd	%xmm1, 56(%rsp)
 1392      2438
 1393 0f80 F20F1144 		movsd	%xmm0, 64(%rsp)
 1393      2440
 1394 0f86 48C74424 		movq	$0, 72(%rsp)
 1394      48000000 
 1394      00
 1395 0f8f 745F     		je	.L133
 1396 0f91 4885C0   		testq	%rax, %rax
 1397 0f94 7419     		je	.L134
 1398 0f96 F20F1148 		movsd	%xmm1, 8(%rax)
 1398      08
 1399 0f9b 48C70000 		movq	$_ZTV10vector_var+16, (%rax)
 1399      000000
 1400 0fa2 48C74018 		movq	$0, 24(%rax)
 1400      00000000 
GAS LISTING /tmp/cce5yULP.s 			page 35


 1401 0faa F20F1140 		movsd	%xmm0, 16(%rax)
 1401      10
 1402              	.L134:
 1403 0faf 4883C020 		addq	$32, %rax
 1404 0fb3 49894424 		movq	%rax, 8(%r12)
 1404      08
 1405              	.L135:
 1406 0fb8 4883C508 		addq	$8, %rbp
 1407 0fbc 4183FD08 		cmpl	$8, %r13d
 1408 0fc0 4489EB   		movl	%r13d, %ebx
 1409 0fc3 0F85E7FE 		jne	.L136
 1409      FFFF
 1410 0fc9 488B4424 		movq	88(%rsp), %rax
 1410      58
 1411 0fce 64483304 		xorq	%fs:40, %rax
 1411      25280000 
 1411      00
 1412 0fd7 0F85CB00 		jne	.L144
 1412      0000
 1413 0fdd 4883C468 		addq	$104, %rsp
 1414              		.cfi_remember_state
 1415              		.cfi_def_cfa_offset 40
 1416 0fe1 5B       		popq	%rbx
 1417              		.cfi_def_cfa_offset 32
 1418 0fe2 5D       		popq	%rbp
 1419              		.cfi_def_cfa_offset 24
 1420 0fe3 415C     		popq	%r12
 1421              		.cfi_def_cfa_offset 16
 1422 0fe5 415D     		popq	%r13
 1423              		.cfi_def_cfa_offset 8
 1424 0fe7 C3       		ret
 1425 0fe8 0F1F8400 		.p2align 4,,10
 1425      00000000 
 1426              		.p2align 3
 1427              	.L133:
 1428              		.cfi_restore_state
 1429 0ff0 488D7424 		leaq	48(%rsp), %rsi
 1429      30
 1430 0ff5 4C89E7   		movq	%r12, %rdi
 1431 0ff8 E8000000 		call	_ZNSt6vectorI10vector_varSaIS0_EE19_M_emplace_back_auxIJRKS0_EEEvDpOT_
 1431      00
 1432 0ffd EBB9     		jmp	.L135
 1433              	.L143:
 1434 0fff 660FEFC0 		pxor	%xmm0, %xmm0
 1435 1003 488D7424 		leaq	32(%rsp), %rsi
 1435      20
 1436 1008 488D7C24 		leaq	40(%rsp), %rdi
 1436      28
 1437 100d 448D6B01 		leal	1(%rbx), %r13d
 1438 1011 F20F2AC3 		cvtsi2sd	%ebx, %xmm0
 1439 1015 F20F5944 		mulsd	24(%rsp), %xmm0
 1439      2418
 1440 101b F20F5905 		mulsd	.LC20(%rip), %xmm0
 1440      00000000 
 1441 1023 E8000000 		call	sincos
 1441      00
 1442 1028 F20F1004 		movsd	(%rsp), %xmm0
GAS LISTING /tmp/cce5yULP.s 			page 36


 1442      24
 1443 102d F20F1054 		movsd	40(%rsp), %xmm2
 1443      2428
 1444 1033 F20F5944 		mulsd	32(%rsp), %xmm0
 1444      2420
 1445 1039 F20F1154 		movsd	%xmm2, 16(%rsp)
 1445      2410
 1446 103f E8000000 		call	round
 1446      00
 1447 1044 F20F1054 		movsd	16(%rsp), %xmm2
 1447      2410
 1448 104a F20F1144 		movsd	%xmm0, 8(%rsp)
 1448      2408
 1449 1050 F20F5914 		mulsd	(%rsp), %xmm2
 1449      24
 1450 1055 660F28C2 		movapd	%xmm2, %xmm0
 1451 1059 E8000000 		call	round
 1451      00
 1452 105e F20F104C 		movsd	8(%rsp), %xmm1
 1452      2408
 1453 1064 F20F103D 		movsd	.LC21(%rip), %xmm7
 1453      00000000 
 1454 106c F20F2CC1 		cvttsd2si	%xmm1, %eax
 1455 1070 660FEFC9 		pxor	%xmm1, %xmm1
 1456 1074 F20F117D 		movsd	%xmm7, 0(%rbp)
 1456      00
 1457 1079 F20F2AC8 		cvtsi2sd	%eax, %xmm1
 1458 107d F20F2CC0 		cvttsd2si	%xmm0, %eax
 1459 1081 660FEFC0 		pxor	%xmm0, %xmm0
 1460 1085 F20F2AC0 		cvtsi2sd	%eax, %xmm0
 1461 1089 E9E2FEFF 		jmp	.L131
 1461      FF
 1462              	.L132:
 1463 108e 660FEFC0 		pxor	%xmm0, %xmm0
 1464 1092 F20F103D 		movsd	.LC25(%rip), %xmm7
 1464      00000000 
 1465 109a 660F28C8 		movapd	%xmm0, %xmm1
 1466 109e F20F117D 		movsd	%xmm7, 0(%rbp)
 1466      00
 1467 10a3 E9C8FEFF 		jmp	.L131
 1467      FF
 1468              	.L144:
 1469 10a8 E8000000 		call	__stack_chk_fail
 1469      00
 1470              		.cfi_endproc
 1471              	.LFE8943:
 1473              		.section	.text.unlikely
 1474              	.LCOLDE30:
 1475              		.text
 1476              	.LHOTE30:
 1477              		.section	.text.unlikely
 1478              	.LCOLDB31:
 1479              		.section	.text.startup,"ax",@progbits
 1480              	.LHOTB31:
 1481              		.p2align 4,,15
 1483              	_GLOBAL__sub_I__ZN6SolverC2Ev:
 1484              	.LFB8845:
GAS LISTING /tmp/cce5yULP.s 			page 37


 1485              		.cfi_startproc
 1486 0000 4883EC08 		subq	$8, %rsp
 1487              		.cfi_def_cfa_offset 16
 1488 0004 BF000000 		movl	$_ZStL8__ioinit, %edi
 1488      00
 1489 0009 E8000000 		call	_ZNSt8ios_base4InitC1Ev
 1489      00
 1490 000e BA000000 		movl	$__dso_handle, %edx
 1490      00
 1491 0013 BE000000 		movl	$_ZStL8__ioinit, %esi
 1491      00
 1492 0018 BF000000 		movl	$_ZNSt8ios_base4InitD1Ev, %edi
 1492      00
 1493 001d 4883C408 		addq	$8, %rsp
 1494              		.cfi_def_cfa_offset 8
 1495 0021 E9000000 		jmp	__cxa_atexit
 1495      00
 1496              		.cfi_endproc
 1497              	.LFE8845:
 1499              		.section	.text.unlikely
 1500              	.LCOLDE31:
 1501              		.section	.text.startup
 1502              	.LHOTE31:
 1503              		.section	.init_array,"aw"
 1504              		.align 8
 1505 0000 00000000 		.quad	_GLOBAL__sub_I__ZN6SolverC2Ev
 1505      00000000 
 1506              		.section	.rodata.str1.1,"aMS",@progbits,1
 1507              	.LC33:
 1508 0000 62617369 		.string	"basic_string::append"
 1508      635F7374 
 1508      72696E67 
 1508      3A3A6170 
 1508      70656E64 
 1509              	.LC34:
 1510 0015 2F657272 		.string	"/error.txt"
 1510      6F722E74 
 1510      787400
 1511              	.LC35:
 1512 0020 2C2000   		.string	", "
 1513              	.LC36:
 1514 0023 202C2046 		.string	" , FMG cycle: "
 1514      4D472063 
 1514      79636C65 
 1514      3A2000
 1515              	.LC37:
 1516 0032 74696D65 		.string	"time t="
 1516      20743D00 
 1517              	.LC38:
 1518 003a 20657272 		.string	" error e ="
 1518      6F722065 
 1518      203D00
 1519              		.section	.rodata.str1.8,"aMS",@progbits,1
 1520              		.align 8
 1521              	.LC39:
 1522 0000 62617369 		.string	"basic_string::_M_construct null not valid"
 1522      635F7374 
GAS LISTING /tmp/cce5yULP.s 			page 38


 1522      72696E67 
 1522      3A3A5F4D 
 1522      5F636F6E 
 1523              		.section	.text.unlikely
 1524              		.align 2
 1525              	.LCOLDB40:
 1526              		.text
 1527              	.LHOTB40:
 1528 10ad 90       		.align 2
 1529 10ae 6690     		.p2align 4,,15
 1530              		.globl	_ZN6Solver17Mesh_Solver_CleanER4MeshR8SolutionR19Boundary_ConditionsR15external_forcesR16gl
 1532              	_ZN6Solver17Mesh_Solver_CleanER4MeshR8SolutionR19Boundary_ConditionsR15external_forcesR16global_var
 1533              	.LFB8451:
 1534              		.cfi_startproc
 1535              		.cfi_personality 0x3,__gxx_personality_v0
 1536              		.cfi_lsda 0x3,.LLSDA8451
 1537 10b0 4157     		pushq	%r15
 1538              		.cfi_def_cfa_offset 16
 1539              		.cfi_offset 15, -16
 1540 10b2 4156     		pushq	%r14
 1541              		.cfi_def_cfa_offset 24
 1542              		.cfi_offset 14, -24
 1543 10b4 4989F6   		movq	%rsi, %r14
 1544 10b7 4155     		pushq	%r13
 1545              		.cfi_def_cfa_offset 32
 1546              		.cfi_offset 13, -32
 1547 10b9 4154     		pushq	%r12
 1548              		.cfi_def_cfa_offset 40
 1549              		.cfi_offset 12, -40
 1550 10bb 55       		pushq	%rbp
 1551              		.cfi_def_cfa_offset 48
 1552              		.cfi_offset 6, -48
 1553 10bc 53       		pushq	%rbx
 1554              		.cfi_def_cfa_offset 56
 1555              		.cfi_offset 3, -56
 1556 10bd 4889FD   		movq	%rdi, %rbp
 1557 10c0 4C89CB   		movq	%r9, %rbx
 1558 10c3 4881EC68 		subq	$3432, %rsp
 1558      0D0000
 1559              		.cfi_def_cfa_offset 3488
 1560 10ca 488B8424 		movq	3488(%rsp), %rax
 1560      A00D0000 
 1561 10d2 488DBC24 		leaq	1728(%rsp), %rdi
 1561      C0060000 
 1562 10da 48895424 		movq	%rdx, 104(%rsp)
 1562      68
 1563 10df 48894C24 		movq	%rcx, 88(%rsp)
 1563      58
 1564 10e4 4C898C24 		movq	%r9, 128(%rsp)
 1564      80000000 
 1565 10ec 48898424 		movq	%rax, 144(%rsp)
 1565      90000000 
 1566 10f4 64488B04 		movq	%fs:40, %rax
 1566      25280000 
 1566      00
 1567 10fd 48898424 		movq	%rax, 3416(%rsp)
 1567      580D0000 
GAS LISTING /tmp/cce5yULP.s 			page 39


 1568 1105 31C0     		xorl	%eax, %eax
 1569              	.LEHB0:
 1570 1107 E8000000 		call	_ZN10RungeKuttaC1Ev
 1570      00
 1571              	.LEHE0:
 1572 110c 418B7610 		movl	16(%r14), %esi
 1573 1110 488DBC24 		leaq	960(%rsp), %rdi
 1573      C0030000 
 1574              	.LEHB1:
 1575 1118 E8000000 		call	_ZN8SolutionC1Ei
 1575      00
 1576              	.LEHE1:
 1577 111d 418B7610 		movl	16(%r14), %esi
 1578 1121 488DBC24 		leaq	1040(%rsp), %rdi
 1578      10040000 
 1579              	.LEHB2:
 1580 1129 E8000000 		call	_ZN8SolutionC1Ei
 1580      00
 1581              	.LEHE2:
 1582 112e 418B7610 		movl	16(%r14), %esi
 1583 1132 488DBC24 		leaq	1120(%rsp), %rdi
 1583      60040000 
 1584              	.LEHB3:
 1585 113a E8000000 		call	_ZN8SolutionC1Ei
 1585      00
 1586              	.LEHE3:
 1587 113f 418B7610 		movl	16(%r14), %esi
 1588 1143 488DBC24 		leaq	1200(%rsp), %rdi
 1588      B0040000 
 1589              	.LEHB4:
 1590 114b E8000000 		call	_ZN8SolutionC1Ei
 1590      00
 1591              	.LEHE4:
 1592 1150 418B7610 		movl	16(%r14), %esi
 1593 1154 488DBC24 		leaq	1280(%rsp), %rdi
 1593      00050000 
 1594              	.LEHB5:
 1595 115c E8000000 		call	_ZN8SolutionC1Ei
 1595      00
 1596              	.LEHE5:
 1597 1161 488DBC24 		leaq	768(%rsp), %rdi
 1597      00030000 
 1598              	.LEHB6:
 1599 1169 E8000000 		call	_ZN8flux_varC1Ev
 1599      00
 1600              	.LEHE6:
 1601 116e F20F1063 		movsd	64(%rbx), %xmm4
 1601      40
 1602 1173 488DBC24 		leaq	3144(%rsp), %rdi
 1602      480C0000 
 1603 117b F20F1164 		movsd	%xmm4, 96(%rsp)
 1603      2460
 1604 1181 E8000000 		call	_ZNSt8ios_baseC2Ev
 1604      00
 1605 1186 488B0500 		movq	_ZTTSt14basic_ofstreamIcSt11char_traitsIcEE+8(%rip), %rax
 1605      000000
 1606 118d 488DBC24 		leaq	2896(%rsp), %rdi
GAS LISTING /tmp/cce5yULP.s 			page 40


 1606      500B0000 
 1607 1195 31F6     		xorl	%esi, %esi
 1608 1197 C6842428 		movb	$0, 3368(%rsp)
 1608      0D000000 
 1609 119f 48C78424 		movq	$_ZTVSt9basic_iosIcSt11char_traitsIcEE+16, 3144(%rsp)
 1609      480C0000 
 1609      00000000 
 1610 11ab 48C78424 		movq	$0, 3360(%rsp)
 1610      200D0000 
 1610      00000000 
 1611 11b7 C6842429 		movb	$0, 3369(%rsp)
 1611      0D000000 
 1612 11bf 480378E8 		addq	-24(%rax), %rdi
 1613 11c3 48898424 		movq	%rax, 2896(%rsp)
 1613      500B0000 
 1614 11cb 488B0500 		movq	_ZTTSt14basic_ofstreamIcSt11char_traitsIcEE+16(%rip), %rax
 1614      000000
 1615 11d2 48C78424 		movq	$0, 3376(%rsp)
 1615      300D0000 
 1615      00000000 
 1616 11de 48C78424 		movq	$0, 3384(%rsp)
 1616      380D0000 
 1616      00000000 
 1617 11ea 48C78424 		movq	$0, 3392(%rsp)
 1617      400D0000 
 1617      00000000 
 1618 11f6 48C78424 		movq	$0, 3400(%rsp)
 1618      480D0000 
 1618      00000000 
 1619 1202 488907   		movq	%rax, (%rdi)
 1620              	.LEHB7:
 1621 1205 E8000000 		call	_ZNSt9basic_iosIcSt11char_traitsIcEE4initEPSt15basic_streambufIcS1_E
 1621      00
 1622              	.LEHE7:
 1623 120a 488D8424 		leaq	2896(%rsp), %rax
 1623      500B0000 
 1624 1212 48C78424 		movq	$_ZTVSt14basic_ofstreamIcSt11char_traitsIcEE+24, 2896(%rsp)
 1624      500B0000 
 1624      00000000 
 1625 121e 48C78424 		movq	$_ZTVSt14basic_ofstreamIcSt11char_traitsIcEE+64, 3144(%rsp)
 1625      480C0000 
 1625      00000000 
 1626 122a 488D7808 		leaq	8(%rax), %rdi
 1627              	.LEHB8:
 1628 122e E8000000 		call	_ZNSt13basic_filebufIcSt11char_traitsIcEEC1Ev
 1628      00
 1629              	.LEHE8:
 1630 1233 488D8424 		leaq	2896(%rsp), %rax
 1630      500B0000 
 1631 123b 488DB424 		leaq	2904(%rsp), %rsi
 1631      580B0000 
 1632 1243 488DB8F8 		leaq	248(%rax), %rdi
 1632      000000
 1633              	.LEHB9:
 1634 124a E8000000 		call	_ZNSt9basic_iosIcSt11char_traitsIcEE4initEPSt15basic_streambufIcS1_E
 1634      00
 1635              	.LEHE9:
GAS LISTING /tmp/cce5yULP.s 			page 41


 1636 124f 488D8424 		leaq	1520(%rsp), %rax
 1636      F0050000 
 1637 1257 488DBC24 		leaq	224(%rsp), %rdi
 1637      E0000000 
 1638 125f 48C78424 		movq	$0, 1512(%rsp)
 1638      E8050000 
 1638      00000000 
 1639 126b C68424F0 		movb	$0, 1520(%rsp)
 1639      05000000 
 1640 1273 48898424 		movq	%rax, 1504(%rsp)
 1640      E0050000 
 1641              	.LEHB10:
 1642 127b E8000000 		call	_ZN10vector_varC1Ev
 1642      00
 1643              	.LEHE10:
 1644 1280 488DBC24 		leaq	256(%rsp), %rdi
 1644      00010000 
 1645              	.LEHB11:
 1646 1288 E8000000 		call	_ZN10vector_varC1Ev
 1646      00
 1647              	.LEHE11:
 1648 128d 488DBC24 		leaq	288(%rsp), %rdi
 1648      20010000 
 1649              	.LEHB12:
 1650 1295 E8000000 		call	_ZN10vector_varC1Ev
 1650      00
 1651              	.LEHE12:
 1652 129a 488DBC24 		leaq	320(%rsp), %rdi
 1652      40010000 
 1653              	.LEHB13:
 1654 12a2 E8000000 		call	_ZN10vector_varC1Ev
 1654      00
 1655              	.LEHE13:
 1656 12a7 488DBC24 		leaq	352(%rsp), %rdi
 1656      60010000 
 1657              	.LEHB14:
 1658 12af E8000000 		call	_ZN10vector_varC1Ev
 1658      00
 1659              	.LEHE14:
 1660 12b4 488DBC24 		leaq	384(%rsp), %rdi
 1660      80010000 
 1661              	.LEHB15:
 1662 12bc E8000000 		call	_ZN10vector_varC1Ev
 1662      00
 1663              	.LEHE15:
 1664 12c1 488DBC24 		leaq	416(%rsp), %rdi
 1664      A0010000 
 1665              	.LEHB16:
 1666 12c9 E8000000 		call	_ZN10vector_varC1Ev
 1666      00
 1667              	.LEHE16:
 1668 12ce 488DBC24 		leaq	448(%rsp), %rdi
 1668      C0010000 
 1669              	.LEHB17:
 1670 12d6 E8000000 		call	_ZN10vector_varC1Ev
 1670      00
 1671              	.LEHE17:
GAS LISTING /tmp/cce5yULP.s 			page 42


 1672 12db 488DBC24 		leaq	480(%rsp), %rdi
 1672      E0010000 
 1673              	.LEHB18:
 1674 12e3 E8000000 		call	_ZN10vector_varC1Ev
 1674      00
 1675              	.LEHE18:
 1676 12e8 488DBC24 		leaq	512(%rsp), %rdi
 1676      00020000 
 1677              	.LEHB19:
 1678 12f0 E8000000 		call	_ZN10vector_varC1Ev
 1678      00
 1679              	.LEHE19:
 1680 12f5 488DBC24 		leaq	544(%rsp), %rdi
 1680      20020000 
 1681              	.LEHB20:
 1682 12fd E8000000 		call	_ZN10vector_varC1Ev
 1682      00
 1683              	.LEHE20:
 1684 1302 488DBC24 		leaq	576(%rsp), %rdi
 1684      40020000 
 1685              	.LEHB21:
 1686 130a E8000000 		call	_ZN10vector_varC1Ev
 1686      00
 1687              	.LEHE21:
 1688 130f 488DBC24 		leaq	608(%rsp), %rdi
 1688      60020000 
 1689              	.LEHB22:
 1690 1317 E8000000 		call	_ZN10vector_varC1Ev
 1690      00
 1691              	.LEHE22:
 1692 131c 4C8DA424 		leaq	2608(%rsp), %r12
 1692      300A0000 
 1693 1324 BB080000 		movl	$8, %ebx
 1693      00
 1694              	.L180:
 1695 1329 4C89E7   		movq	%r12, %rdi
 1696              	.LEHB23:
 1697 132c E8000000 		call	_ZN10vector_varC1Ev
 1697      00
 1698              	.LEHE23:
 1699 1331 4883EB01 		subq	$1, %rbx
 1700 1335 4983C420 		addq	$32, %r12
 1701 1339 4883FBFF 		cmpq	$-1, %rbx
 1702 133d 75EA     		jne	.L180
 1703 133f 488DBC24 		leaq	1360(%rsp), %rdi
 1703      50050000 
 1704 1347 48C78424 		movq	$0, 192(%rsp)
 1704      C0000000 
 1704      00000000 
 1705 1353 48C78424 		movq	$0, 200(%rsp)
 1705      C8000000 
 1705      00000000 
 1706 135f 48C78424 		movq	$0, 208(%rsp)
 1706      D0000000 
 1706      00000000 
 1707              	.LEHB24:
 1708 136b E8000000 		call	_ZN9residualsC1Ev
GAS LISTING /tmp/cce5yULP.s 			page 43


 1708      00
 1709              	.LEHE24:
 1710 1370 488DBC24 		leaq	816(%rsp), %rdi
 1710      30030000 
 1711              	.LEHB25:
 1712 1378 E8000000 		call	_ZN8flux_varC1Ev
 1712      00
 1713              	.LEHE25:
 1714 137d 488DBC24 		leaq	864(%rsp), %rdi
 1714      60030000 
 1715              	.LEHB26:
 1716 1385 E8000000 		call	_ZN8flux_varC1Ev
 1716      00
 1717              	.LEHE26:
 1718 138a 488DBC24 		leaq	912(%rsp), %rdi
 1718      90030000 
 1719              	.LEHB27:
 1720 1392 E8000000 		call	_ZN8flux_varC1Ev
 1720      00
 1721              	.LEHE27:
 1722 1397 488DBC24 		leaq	1808(%rsp), %rdi
 1722      10070000 
 1723              	.LEHB28:
 1724 139f E8000000 		call	_ZN8flux_varC1Ev
 1724      00
 1725              	.LEHE28:
 1726 13a4 488D8424 		leaq	1808(%rsp), %rax
 1726      10070000 
 1727 13ac 488D7828 		leaq	40(%rax), %rdi
 1728              	.LEHB29:
 1729 13b0 E8000000 		call	_ZN8flux_varC1Ev
 1729      00
 1730              	.LEHE29:
 1731 13b5 488D8424 		leaq	1808(%rsp), %rax
 1731      10070000 
 1732 13bd 488D7850 		leaq	80(%rax), %rdi
 1733              	.LEHB30:
 1734 13c1 E8000000 		call	_ZN8flux_varC1Ev
 1734      00
 1735              	.LEHE30:
 1736 13c6 488D8424 		leaq	1808(%rsp), %rax
 1736      10070000 
 1737 13ce 488D7878 		leaq	120(%rax), %rdi
 1738              	.LEHB31:
 1739 13d2 E8000000 		call	_ZN8flux_varC1Ev
 1739      00
 1740              	.LEHE31:
 1741 13d7 488DBC24 		leaq	1968(%rsp), %rdi
 1741      B0070000 
 1742              	.LEHB32:
 1743 13df E8000000 		call	_ZN8flux_varC1Ev
 1743      00
 1744              	.LEHE32:
 1745 13e4 488D8424 		leaq	1968(%rsp), %rax
 1745      B0070000 
 1746 13ec 488D7828 		leaq	40(%rax), %rdi
 1747              	.LEHB33:
GAS LISTING /tmp/cce5yULP.s 			page 44


 1748 13f0 E8000000 		call	_ZN8flux_varC1Ev
 1748      00
 1749              	.LEHE33:
 1750 13f5 488D8424 		leaq	1968(%rsp), %rax
 1750      B0070000 
 1751 13fd 488D7850 		leaq	80(%rax), %rdi
 1752              	.LEHB34:
 1753 1401 E8000000 		call	_ZN8flux_varC1Ev
 1753      00
 1754              	.LEHE34:
 1755 1406 488D8424 		leaq	1968(%rsp), %rax
 1755      B0070000 
 1756 140e 488D7878 		leaq	120(%rax), %rdi
 1757              	.LEHB35:
 1758 1412 E8000000 		call	_ZN8flux_varC1Ev
 1758      00
 1759              	.LEHE35:
 1760 1417 488DBC24 		leaq	2128(%rsp), %rdi
 1760      50080000 
 1761              	.LEHB36:
 1762 141f E8000000 		call	_ZN8flux_varC1Ev
 1762      00
 1763              	.LEHE36:
 1764 1424 488D8424 		leaq	2128(%rsp), %rax
 1764      50080000 
 1765 142c 488D7828 		leaq	40(%rax), %rdi
 1766              	.LEHB37:
 1767 1430 E8000000 		call	_ZN8flux_varC1Ev
 1767      00
 1768              	.LEHE37:
 1769 1435 488D8424 		leaq	2128(%rsp), %rax
 1769      50080000 
 1770 143d 488D7850 		leaq	80(%rax), %rdi
 1771              	.LEHB38:
 1772 1441 E8000000 		call	_ZN8flux_varC1Ev
 1772      00
 1773              	.LEHE38:
 1774 1446 488D8424 		leaq	2128(%rsp), %rax
 1774      50080000 
 1775 144e 488D7878 		leaq	120(%rax), %rdi
 1776              	.LEHB39:
 1777 1452 E8000000 		call	_ZN8flux_varC1Ev
 1777      00
 1778              	.LEHE39:
 1779 1457 488DBC24 		leaq	2288(%rsp), %rdi
 1779      F0080000 
 1780              	.LEHB40:
 1781 145f E8000000 		call	_ZN8flux_varC1Ev
 1781      00
 1782              	.LEHE40:
 1783 1464 488D8424 		leaq	2288(%rsp), %rax
 1783      F0080000 
 1784 146c 488D7828 		leaq	40(%rax), %rdi
 1785              	.LEHB41:
 1786 1470 E8000000 		call	_ZN8flux_varC1Ev
 1786      00
 1787              	.LEHE41:
GAS LISTING /tmp/cce5yULP.s 			page 45


 1788 1475 488D8424 		leaq	2288(%rsp), %rax
 1788      F0080000 
 1789 147d 488D7850 		leaq	80(%rax), %rdi
 1790              	.LEHB42:
 1791 1481 E8000000 		call	_ZN8flux_varC1Ev
 1791      00
 1792              	.LEHE42:
 1793 1486 488D8424 		leaq	2288(%rsp), %rax
 1793      F0080000 
 1794 148e 488D7878 		leaq	120(%rax), %rdi
 1795              	.LEHB43:
 1796 1492 E8000000 		call	_ZN8flux_varC1Ev
 1796      00
 1797              	.LEHE43:
 1798 1497 488DBC24 		leaq	2448(%rsp), %rdi
 1798      90090000 
 1799              	.LEHB44:
 1800 149f E8000000 		call	_ZN8flux_varC1Ev
 1800      00
 1801              	.LEHE44:
 1802 14a4 488D8424 		leaq	2448(%rsp), %rax
 1802      90090000 
 1803 14ac 488D7828 		leaq	40(%rax), %rdi
 1804              	.LEHB45:
 1805 14b0 E8000000 		call	_ZN8flux_varC1Ev
 1805      00
 1806              	.LEHE45:
 1807 14b5 488D8424 		leaq	2448(%rsp), %rax
 1807      90090000 
 1808 14bd 488D7850 		leaq	80(%rax), %rdi
 1809              	.LEHB46:
 1810 14c1 E8000000 		call	_ZN8flux_varC1Ev
 1810      00
 1811              	.LEHE46:
 1812 14c6 488D8424 		leaq	2448(%rsp), %rax
 1812      90090000 
 1813 14ce 488D7878 		leaq	120(%rax), %rdi
 1814              	.LEHB47:
 1815 14d2 E8000000 		call	_ZN8flux_varC1Ev
 1815      00
 1816              	.LEHE47:
 1817 14d7 488B9C24 		movq	128(%rsp), %rbx
 1817      80000000 
 1818 14df F20F1025 		movsd	.LC12(%rip), %xmm4
 1818      00000000 
 1819 14e7 4C8B7C24 		movq	104(%rsp), %r15
 1819      68
 1820 14ec 488DBC24 		leaq	960(%rsp), %rdi
 1820      C0030000 
 1821 14f4 F20F1165 		movsd	%xmm4, 8(%rbp)
 1821      08
 1822 14f9 F20F1165 		movsd	%xmm4, 32(%rbp)
 1822      20
 1823 14fe F20F1043 		movsd	96(%rbx), %xmm0
 1823      60
 1824 1503 4C89FE   		movq	%r15, %rsi
 1825 1506 F20F1025 		movsd	.LC32(%rip), %xmm4
GAS LISTING /tmp/cce5yULP.s 			page 46


 1825      00000000 
 1826 150e F20F1145 		movsd	%xmm0, 16(%rbp)
 1826      10
 1827 1513 F20F1165 		movsd	%xmm4, 40(%rbp)
 1827      28
 1828              	.LEHB48:
 1829 1518 E8000000 		call	_ZN8Solution5cloneERS_
 1829      00
 1830 151d 488DBC24 		leaq	1040(%rsp), %rdi
 1830      10040000 
 1831 1525 4C89FE   		movq	%r15, %rsi
 1832 1528 E8000000 		call	_ZN8Solution5cloneERS_
 1832      00
 1833 152d F20F1043 		movsd	56(%rbx), %xmm0
 1833      38
 1834 1532 F20F1063 		movsd	40(%rbx), %xmm4
 1834      28
 1835 1537 F20F5E44 		divsd	96(%rsp), %xmm0
 1835      2460
 1836 153d F20F11A4 		movsd	%xmm4, 152(%rsp)
 1836      24980000 
 1836      00
 1837 1546 E8000000 		call	ceil
 1837      00
 1838 154b F20F2CC0 		cvttsd2si	%xmm0, %eax
 1839 154f 4C8BA3D8 		movq	216(%rbx), %r12
 1839      000000
 1840 1556 488B9BE0 		movq	224(%rbx), %rbx
 1840      000000
 1841 155d 8984248C 		movl	%eax, 140(%rsp)
 1841      000000
 1842 1564 488D8424 		leaq	1552(%rsp), %rax
 1842      10060000 
 1843 156c 48898424 		movq	%rax, 1536(%rsp)
 1843      00060000 
 1844 1574 4C89E0   		movq	%r12, %rax
 1845 1577 4801D8   		addq	%rbx, %rax
 1846 157a 0F847301 		je	.L230
 1846      0000
 1847 1580 4D85E4   		testq	%r12, %r12
 1848 1583 0F856A01 		jne	.L230
 1848      0000
 1849 1589 BF000000 		movl	$.LC39, %edi
 1849      00
 1850 158e E8000000 		call	_ZSt19__throw_logic_errorPKc
 1850      00
 1851              	.LEHE48:
 1852              	.L408:
 1853 1593 4889C3   		movq	%rax, %rbx
 1854              	.L399:
 1855 1596 488DBC24 		leaq	1728(%rsp), %rdi
 1855      C0060000 
 1856 159e E8000000 		call	_ZN10RungeKuttaD1Ev
 1856      00
 1857 15a3 4889DF   		movq	%rbx, %rdi
 1858              	.LEHB49:
 1859 15a6 E8000000 		call	_Unwind_Resume
GAS LISTING /tmp/cce5yULP.s 			page 47


 1859      00
 1860              	.LEHE49:
 1861              	.L415:
 1862 15ab 4889C5   		movq	%rax, %rbp
 1863 15ae B8080000 		movl	$8, %eax
 1863      00
 1864 15b3 4829D8   		subq	%rbx, %rax
 1865 15b6 4889C3   		movq	%rax, %rbx
 1866 15b9 488D8424 		leaq	2608(%rsp), %rax
 1866      300A0000 
 1867 15c1 48C1E305 		salq	$5, %rbx
 1868 15c5 4801C3   		addq	%rax, %rbx
 1869 15c8 4839C3   		cmpq	%rax, %rbx
 1870 15cb 7424     		je	.L346
 1871              	.L348:
 1872 15cd 4883EB20 		subq	$32, %rbx
 1873 15d1 488B03   		movq	(%rbx), %rax
 1874 15d4 488B00   		movq	(%rax), %rax
 1875 15d7 483D0000 		cmpq	$_ZN10vector_varD2Ev, %rax
 1875      0000
 1876 15dd 7405     		je	.L349
 1877 15df 4889DF   		movq	%rbx, %rdi
 1878 15e2 FFD0     		call	*%rax
 1879              	.L349:
 1880 15e4 488D8424 		leaq	2608(%rsp), %rax
 1880      300A0000 
 1881 15ec 4839C3   		cmpq	%rax, %rbx
 1882 15ef 75DC     		jne	.L348
 1883              	.L346:
 1884 15f1 4889EB   		movq	%rbp, %rbx
 1885              	.L155:
 1886 15f4 488BBC24 		movq	1504(%rsp), %rdi
 1886      E0050000 
 1887 15fc 488D8424 		leaq	1520(%rsp), %rax
 1887      F0050000 
 1888 1604 4839C7   		cmpq	%rax, %rdi
 1889 1607 7405     		je	.L393
 1890 1609 E8000000 		call	_ZdlPv
 1890      00
 1891              	.L393:
 1892 160e 488DBC24 		leaq	2904(%rsp), %rdi
 1892      580B0000 
 1893 1616 48C78424 		movq	$_ZTVSt14basic_ofstreamIcSt11char_traitsIcEE+24, 2896(%rsp)
 1893      500B0000 
 1893      00000000 
 1894 1622 48C78424 		movq	$_ZTVSt14basic_ofstreamIcSt11char_traitsIcEE+64, 3144(%rsp)
 1894      480C0000 
 1894      00000000 
 1895 162e 48C78424 		movq	$_ZTVSt13basic_filebufIcSt11char_traitsIcEE+16, 2904(%rsp)
 1895      580B0000 
 1895      00000000 
 1896 163a E8000000 		call	_ZNSt13basic_filebufIcSt11char_traitsIcEE5closeEv
 1896      00
 1897 163f 488DBC24 		leaq	3008(%rsp), %rdi
 1897      C00B0000 
 1898 1647 E8000000 		call	_ZNSt12__basic_fileIcED1Ev
 1898      00
GAS LISTING /tmp/cce5yULP.s 			page 48


 1899 164c 488DBC24 		leaq	2960(%rsp), %rdi
 1899      900B0000 
 1900 1654 48C78424 		movq	$_ZTVSt15basic_streambufIcSt11char_traitsIcEE+16, 2904(%rsp)
 1900      580B0000 
 1900      00000000 
 1901 1660 E8000000 		call	_ZNSt6localeD1Ev
 1901      00
 1902              	.L636:
 1903 1665 488B0500 		movq	_ZTTSt14basic_ofstreamIcSt11char_traitsIcEE+8(%rip), %rax
 1903      000000
 1904 166c 488B0D00 		movq	_ZTTSt14basic_ofstreamIcSt11char_traitsIcEE+16(%rip), %rcx
 1904      000000
 1905 1673 488B40E8 		movq	-24(%rax), %rax
 1906 1677 48898C04 		movq	%rcx, 2896(%rsp,%rax)
 1906      500B0000 
 1907              	.L632:
 1908 167f 488DBC24 		leaq	3144(%rsp), %rdi
 1908      480C0000 
 1909 1687 48C78424 		movq	$_ZTVSt9basic_iosIcSt11char_traitsIcEE+16, 3144(%rsp)
 1909      480C0000 
 1909      00000000 
 1910 1693 E8000000 		call	_ZNSt8ios_baseD2Ev
 1910      00
 1911 1698 488DBC24 		leaq	768(%rsp), %rdi
 1911      00030000 
 1912 16a0 E8000000 		call	_ZN8flux_varD1Ev
 1912      00
 1913              	.L394:
 1914 16a5 488DBC24 		leaq	1280(%rsp), %rdi
 1914      00050000 
 1915 16ad E8000000 		call	_ZN8SolutionD1Ev
 1915      00
 1916              	.L395:
 1917 16b2 488DBC24 		leaq	1200(%rsp), %rdi
 1917      B0040000 
 1918 16ba E8000000 		call	_ZN8SolutionD1Ev
 1918      00
 1919              	.L396:
 1920 16bf 488DBC24 		leaq	1120(%rsp), %rdi
 1920      60040000 
 1921 16c7 E8000000 		call	_ZN8SolutionD1Ev
 1921      00
 1922              	.L397:
 1923 16cc 488DBC24 		leaq	1040(%rsp), %rdi
 1923      10040000 
 1924 16d4 E8000000 		call	_ZN8SolutionD1Ev
 1924      00
 1925              	.L398:
 1926 16d9 488DBC24 		leaq	960(%rsp), %rdi
 1926      C0030000 
 1927 16e1 E8000000 		call	_ZN8SolutionD1Ev
 1927      00
 1928 16e6 E9ABFEFF 		jmp	.L399
 1928      FF
 1929              	.L449:
 1930              	.L631:
 1931 16eb 4889C3   		movq	%rax, %rbx
GAS LISTING /tmp/cce5yULP.s 			page 49


 1932 16ee E901FFFF 		jmp	.L155
 1932      FF
 1933              	.L230:
 1934 16f3 4883FB0F 		cmpq	$15, %rbx
 1935 16f7 48899C24 		movq	%rbx, 184(%rsp)
 1935      B8000000 
 1936 16ff 0F87311D 		ja	.L688
 1936      0000
 1937 1705 4883FB01 		cmpq	$1, %rbx
 1938 1709 0F847A1E 		je	.L689
 1938      0000
 1939 170f 4885DB   		testq	%rbx, %rbx
 1940 1712 488D8424 		leaq	1552(%rsp), %rax
 1940      10060000 
 1941 171a 0F85451D 		jne	.L231
 1941      0000
 1942              	.L233:
 1943 1720 48899C24 		movq	%rbx, 1544(%rsp)
 1943      08060000 
 1944 1728 C6041800 		movb	$0, (%rax,%rbx)
 1945 172c 48B8FFFF 		movabsq	$9223372036854775807, %rax
 1945      FFFFFFFF 
 1945      FF7F
 1946 1736 482B8424 		subq	1544(%rsp), %rax
 1946      08060000 
 1947 173e 4883F809 		cmpq	$9, %rax
 1948 1742 0F86B71C 		jbe	.L690
 1948      0000
 1949 1748 488DBC24 		leaq	1536(%rsp), %rdi
 1949      00060000 
 1950 1750 BA0A0000 		movl	$10, %edx
 1950      00
 1951 1755 BE000000 		movl	$.LC34, %esi
 1951      00
 1952              	.LEHB50:
 1953 175a E8000000 		call	_ZNSt7__cxx1112basic_stringIcSt11char_traitsIcESaIcEE9_M_appendEPKcm
 1953      00
 1954              	.LEHE50:
 1955 175f 488DBC24 		leaq	1504(%rsp), %rdi
 1955      E0050000 
 1956 1767 488DB424 		leaq	1536(%rsp), %rsi
 1956      00060000 
 1957 176f E8000000 		call	_ZNSt7__cxx1112basic_stringIcSt11char_traitsIcESaIcEE4swapERS4_
 1957      00
 1958 1774 488BBC24 		movq	1536(%rsp), %rdi
 1958      00060000 
 1959 177c 488D8424 		leaq	1552(%rsp), %rax
 1959      10060000 
 1960 1784 4839C7   		cmpq	%rax, %rdi
 1961 1787 7405     		je	.L236
 1962 1789 E8000000 		call	_ZdlPv
 1962      00
 1963              	.L236:
 1964 178e 488D8424 		leaq	2896(%rsp), %rax
 1964      500B0000 
 1965 1796 488BB424 		movq	1504(%rsp), %rsi
 1965      E0050000 
GAS LISTING /tmp/cce5yULP.s 			page 50


 1966 179e BA100000 		movl	$16, %edx
 1966      00
 1967 17a3 488D7808 		leaq	8(%rax), %rdi
 1968              	.LEHB51:
 1969 17a7 E8000000 		call	_ZNSt13basic_filebufIcSt11char_traitsIcEE4openEPKcSt13_Ios_Openmode
 1969      00
 1970 17ac 4885C0   		testq	%rax, %rax
 1971 17af 488DBC24 		leaq	2896(%rsp), %rdi
 1971      500B0000 
 1972 17b7 488B8424 		movq	2896(%rsp), %rax
 1972      500B0000 
 1973 17bf 0F84DC1B 		je	.L691
 1973      0000
 1974 17c5 480378E8 		addq	-24(%rax), %rdi
 1975 17c9 31F6     		xorl	%esi, %esi
 1976 17cb E8000000 		call	_ZNSt9basic_iosIcSt11char_traitsIcEE5clearESt12_Ios_Iostate
 1976      00
 1977              	.L242:
 1978 17d0 488B8424 		movq	128(%rsp), %rax
 1978      80000000 
 1979 17d8 F20F1045 		movsd	32(%rbp), %xmm0
 1979      20
 1980 17dd 488DB424 		leaq	1648(%rsp), %rsi
 1980      70060000 
 1981 17e5 488DBC24 		leaq	192(%rsp), %rdi
 1981      C0000000 
 1982 17ed F20F1048 		movsd	32(%rax), %xmm1
 1982      20
 1983 17f2 E879F6FF 		call	_ZN6Solver16populate_e_alphaERSt6vectorI10vector_varSaIS1_EEPdddi.constprop.93
 1983      FF
 1984 17f7 448B8424 		movl	140(%rsp), %r8d
 1984      8C000000 
 1985 17ff 4585C0   		testl	%r8d, %r8d
 1986 1802 0F8EFA10 		jle	.L277
 1986      0000
 1987 1808 C744247C 		movl	$0, 124(%rsp)
 1987      00000000 
 1988              	.L278:
 1989 1810 488B5C24 		movq	104(%rsp), %rbx
 1989      68
 1990 1815 488DBC24 		leaq	1040(%rsp), %rdi
 1990      10040000 
 1991 181d 4889DE   		movq	%rbx, %rsi
 1992 1820 E8000000 		call	_ZN8Solution5cloneERS_
 1992      00
 1993 1825 488DBC24 		leaq	960(%rsp), %rdi
 1993      C0030000 
 1994 182d 4889DE   		movq	%rbx, %rsi
 1995 1830 E8000000 		call	_ZN8Solution5cloneERS_
 1995      00
 1996 1835 488DBC24 		leaq	1360(%rsp), %rdi
 1996      50050000 
 1997 183d E8000000 		call	_ZN9residuals5resetEv
 1997      00
 1998 1842 8BBC2408 		movl	1800(%rsp), %edi
 1998      070000
 1999 1849 85FF     		testl	%edi, %edi
GAS LISTING /tmp/cce5yULP.s 			page 51


 2000 184b 0F8EDC1B 		jle	.L692
 2000      0000
 2001 1851 488D8424 		leaq	1728(%rsp), %rax
 2001      C0060000 
 2002 1859 C7842488 		movl	$1, 136(%rsp)
 2002      00000001 
 2002      000000
 2003 1864 48894424 		movq	%rax, 112(%rsp)
 2003      70
 2004              	.L261:
 2005 1869 488B8C24 		movq	144(%rsp), %rcx
 2005      90000000 
 2006 1871 488B7424 		movq	88(%rsp), %rsi
 2006      58
 2007 1876 488DBC24 		leaq	960(%rsp), %rdi
 2007      C0030000 
 2008 187e 4C89F2   		movq	%r14, %rdx
 2009 1881 E8000000 		call	_ZN8Solution10update_bcsER19Boundary_ConditionsR4MeshR15domain_geometry
 2009      00
 2010 1886 488DBC24 		leaq	1120(%rsp), %rdi
 2010      60040000 
 2011 188e E8000000 		call	_ZN8Solution10InitialiseEv
 2011      00
 2012 1893 418B4610 		movl	16(%r14), %eax
 2013 1897 85C0     		testl	%eax, %eax
 2014 1899 0F8E6A1B 		jle	.L693
 2014      0000
 2015 189f 4531ED   		xorl	%r13d, %r13d
 2016              		.p2align 4,,10
 2017 18a2 660F1F44 		.p2align 3
 2017      0000
 2018              	.L256:
 2019 18a8 488B5424 		movq	88(%rsp), %rdx
 2019      58
 2020 18ad 44896C24 		movl	%r13d, 120(%rsp)
 2020      78
 2021 18b2 488B5210 		movq	16(%rdx), %rdx
 2022 18b6 42803C2A 		cmpb	$0, (%rdx,%r13)
 2022      00
 2023 18bb 0F84530D 		je	.L251
 2023      0000
 2024 18c1 498B4640 		movq	64(%r14), %rax
 2025 18c5 48C78424 		movq	$0, 176(%rsp)
 2025      B0000000 
 2025      00000000 
 2026 18d1 4E8D24ED 		leaq	0(,%r13,8), %r12
 2026      00000000 
 2027 18d9 C7442454 		movl	$2, 84(%rsp)
 2027      02000000 
 2028 18e1 F2420F10 		movsd	(%rax,%r13,8), %xmm0
 2028      04E8
 2029 18e7 498B4648 		movq	72(%r14), %rax
 2030 18eb F20F1184 		movsd	%xmm0, 232(%rsp)
 2030      24E80000 
 2030      00
 2031 18f4 F2420F10 		movsd	(%rax,%r13,8), %xmm0
 2031      04E8
GAS LISTING /tmp/cce5yULP.s 			page 52


 2032 18fa 498B4650 		movq	80(%r14), %rax
 2033 18fe F20F1184 		movsd	%xmm0, 240(%rsp)
 2033      24F00000 
 2033      00
 2034 1907 F2420F10 		movsd	(%rax,%r13,8), %xmm0
 2034      04E8
 2035 190d 48C78424 		movq	$0, 920(%rsp)
 2035      98030000 
 2035      00000000 
 2036 1919 48C78424 		movq	$0, 928(%rsp)
 2036      A0030000 
 2036      00000000 
 2037 1925 F20F1184 		movsd	%xmm0, 248(%rsp)
 2037      24F80000 
 2037      00
 2038 192e 48C78424 		movq	$0, 936(%rsp)
 2038      A8030000 
 2038      00000000 
 2039 193a 48C78424 		movq	$0, 944(%rsp)
 2039      B0030000 
 2039      00000000 
 2040              	.L255:
 2041 1946 488D8424 		leaq	256(%rsp), %rax
 2041      00010000 
 2042 194e 50       		pushq	%rax
 2043              		.cfi_def_cfa_offset 3496
 2044 194f 4156     		pushq	%r14
 2045              		.cfi_def_cfa_offset 3504
 2046 1951 8BB42488 		movl	136(%rsp), %esi
 2046      000000
 2047 1958 8B7C2464 		movl	100(%rsp), %edi
 2048 195c 488D9424 		leaq	304(%rsp), %rdx
 2048      30010000 
 2049 1964 4C8D8C24 		leaq	624(%rsp), %r9
 2049      70020000 
 2050 196c 4C8D8424 		leaq	192(%rsp), %r8
 2050      C0000000 
 2051 1974 488D8C24 		leaq	188(%rsp), %rcx
 2051      BC000000 
 2052 197c E89FE6FF 		call	_ZN6Solver24cell_interface_variablesEiiR10vector_varRiRdS1_R19Boundary_ConditionsRNS_6bc_varE
 2052      FF
 2053 1981 F20F1084 		movsd	280(%rsp), %xmm0
 2053      24180100 
 2053      00
 2054 198a 48C78424 		movq	$0, 568(%rsp)
 2054      38020000 
 2054      00000000 
 2055 1996 48C78424 		movq	$0, 576(%rsp)
 2055      40020000 
 2055      00000000 
 2056 19a2 48C78424 		movq	$0, 584(%rsp)
 2056      48020000 
 2056      00000000 
 2057 19ae F20F1184 		movsd	%xmm0, 760(%rsp)
 2057      24F80200 
 2057      00
 2058 19b7 48C78424 		movq	$0, 840(%rsp)
GAS LISTING /tmp/cce5yULP.s 			page 53


 2058      48030000 
 2058      00000000 
 2059 19c3 48C78424 		movq	$0, 848(%rsp)
 2059      50030000 
 2059      00000000 
 2060 19cf F20F1084 		movsd	288(%rsp), %xmm0
 2060      24200100 
 2060      00
 2061 19d8 48C78424 		movq	$0, 856(%rsp)
 2061      58030000 
 2061      00000000 
 2062 19e4 48C78424 		movq	$0, 864(%rsp)
 2062      60030000 
 2062      00000000 
 2063 19f0 F20F1184 		movsd	%xmm0, 768(%rsp)
 2063      24000300 
 2063      00
 2064 19f9 48C78424 		movq	$0, 888(%rsp)
 2064      78030000 
 2064      00000000 
 2065 1a05 48C78424 		movq	$0, 896(%rsp)
 2065      80030000 
 2065      00000000 
 2066 1a11 F20F1084 		movsd	296(%rsp), %xmm0
 2066      24280100 
 2066      00
 2067 1a1a 48C78424 		movq	$0, 904(%rsp)
 2067      88030000 
 2067      00000000 
 2068 1a26 48C78424 		movq	$0, 912(%rsp)
 2068      90030000 
 2068      00000000 
 2069 1a32 F20F1184 		movsd	%xmm0, 776(%rsp)
 2069      24080300 
 2069      00
 2070 1a3b 488B8424 		movq	984(%rsp), %rax
 2070      D8030000 
 2071 1a43 48C78424 		movq	$_ZTV10vector_var+16, 752(%rsp)
 2071      F0020000 
 2071      00000000 
 2072 1a4f F20F1084 		movsd	248(%rsp), %xmm0
 2072      24F80000 
 2072      00
 2073 1a58 48C78424 		movq	$_ZTV10vector_var+16, 720(%rsp)
 2073      D0020000 
 2073      00000000 
 2074 1a64 F20F1184 		movsd	%xmm0, 728(%rsp)
 2074      24D80200 
 2074      00
 2075 1a6d F20F1084 		movsd	256(%rsp), %xmm0
 2075      24000100 
 2075      00
 2076 1a76 F20F1184 		movsd	%xmm0, 736(%rsp)
 2076      24E00200 
 2076      00
 2077 1a7f F20F1084 		movsd	264(%rsp), %xmm0
 2077      24080100 
GAS LISTING /tmp/cce5yULP.s 			page 54


 2077      00
 2078 1a88 F20F1184 		movsd	%xmm0, 744(%rsp)
 2078      24E80200 
 2078      00
 2079 1a91 59       		popq	%rcx
 2080              		.cfi_def_cfa_offset 3496
 2081 1a92 5E       		popq	%rsi
 2082              		.cfi_def_cfa_offset 3488
 2083 1a93 48638C24 		movslq	172(%rsp), %rcx
 2083      AC000000 
 2084 1a9b F2420F10 		movsd	(%rax,%r12), %xmm0
 2084      0420
 2085 1aa1 488D9424 		leaq	736(%rsp), %rdx
 2085      E0020000 
 2086 1aa9 488DB424 		leaq	704(%rsp), %rsi
 2086      C0020000 
 2087 1ab1 488DBC24 		leaq	448(%rsp), %rdi
 2087      C0010000 
 2088 1ab9 F20F100C 		movsd	(%rax,%rcx,8), %xmm1
 2088      C8
 2089 1abe E8000000 		call	_ZN10vector_var12Get_GradientEddS_S_
 2089      00
 2090 1ac3 F20F1084 		movsd	264(%rsp), %xmm0
 2090      24080100 
 2090      00
 2091 1acc 48638C24 		movslq	172(%rsp), %rcx
 2091      AC000000 
 2092 1ad4 488B8424 		movq	976(%rsp), %rax
 2092      D0030000 
 2093 1adc 488D9424 		leaq	736(%rsp), %rdx
 2093      E0020000 
 2094 1ae4 488DB424 		leaq	704(%rsp), %rsi
 2094      C0020000 
 2095 1aec F20F1184 		movsd	%xmm0, 744(%rsp)
 2095      24E80200 
 2095      00
 2096 1af5 488DBC24 		leaq	352(%rsp), %rdi
 2096      60010000 
 2097 1afd 48C78424 		movq	$_ZTV10vector_var+16, 736(%rsp)
 2097      E0020000 
 2097      00000000 
 2098 1b09 F20F1084 		movsd	272(%rsp), %xmm0
 2098      24100100 
 2098      00
 2099 1b12 48C78424 		movq	$_ZTV10vector_var+16, 704(%rsp)
 2099      C0020000 
 2099      00000000 
 2100 1b1e F20F1184 		movsd	%xmm0, 752(%rsp)
 2100      24F00200 
 2100      00
 2101 1b27 F20F1084 		movsd	280(%rsp), %xmm0
 2101      24180100 
 2101      00
 2102 1b30 F20F1184 		movsd	%xmm0, 760(%rsp)
 2102      24F80200 
 2102      00
 2103 1b39 F20F1084 		movsd	232(%rsp), %xmm0
GAS LISTING /tmp/cce5yULP.s 			page 55


 2103      24E80000 
 2103      00
 2104 1b42 F20F1184 		movsd	%xmm0, 712(%rsp)
 2104      24C80200 
 2104      00
 2105 1b4b F20F1084 		movsd	240(%rsp), %xmm0
 2105      24F00000 
 2105      00
 2106 1b54 F20F1184 		movsd	%xmm0, 720(%rsp)
 2106      24D00200 
 2106      00
 2107 1b5d F20F1084 		movsd	248(%rsp), %xmm0
 2107      24F80000 
 2107      00
 2108 1b66 F20F1184 		movsd	%xmm0, 728(%rsp)
 2108      24D80200 
 2108      00
 2109 1b6f F2420F10 		movsd	(%rax,%r12), %xmm0
 2109      0420
 2110 1b75 F20F100C 		movsd	(%rax,%rcx,8), %xmm1
 2110      C8
 2111 1b7a E8000000 		call	_ZN10vector_var12Get_GradientEddS_S_
 2111      00
 2112 1b7f F20F1084 		movsd	264(%rsp), %xmm0
 2112      24080100 
 2112      00
 2113 1b88 48638C24 		movslq	172(%rsp), %rcx
 2113      AC000000 
 2114 1b90 488B8424 		movq	984(%rsp), %rax
 2114      D8030000 
 2115 1b98 488D9424 		leaq	736(%rsp), %rdx
 2115      E0020000 
 2116 1ba0 488DB424 		leaq	704(%rsp), %rsi
 2116      C0020000 
 2117 1ba8 F20F1184 		movsd	%xmm0, 744(%rsp)
 2117      24E80200 
 2117      00
 2118 1bb1 488DBC24 		leaq	384(%rsp), %rdi
 2118      80010000 
 2119 1bb9 48C78424 		movq	$_ZTV10vector_var+16, 736(%rsp)
 2119      E0020000 
 2119      00000000 
 2120 1bc5 F20F1084 		movsd	272(%rsp), %xmm0
 2120      24100100 
 2120      00
 2121 1bce 48C78424 		movq	$_ZTV10vector_var+16, 704(%rsp)
 2121      C0020000 
 2121      00000000 
 2122 1bda F20F1184 		movsd	%xmm0, 752(%rsp)
 2122      24F00200 
 2122      00
 2123 1be3 F20F1084 		movsd	280(%rsp), %xmm0
 2123      24180100 
 2123      00
 2124 1bec F20F1184 		movsd	%xmm0, 760(%rsp)
 2124      24F80200 
 2124      00
GAS LISTING /tmp/cce5yULP.s 			page 56


 2125 1bf5 F20F1084 		movsd	232(%rsp), %xmm0
 2125      24E80000 
 2125      00
 2126 1bfe F20F1184 		movsd	%xmm0, 712(%rsp)
 2126      24C80200 
 2126      00
 2127 1c07 F20F1084 		movsd	240(%rsp), %xmm0
 2127      24F00000 
 2127      00
 2128 1c10 F20F1184 		movsd	%xmm0, 720(%rsp)
 2128      24D00200 
 2128      00
 2129 1c19 F20F1084 		movsd	248(%rsp), %xmm0
 2129      24F80000 
 2129      00
 2130 1c22 F20F1184 		movsd	%xmm0, 728(%rsp)
 2130      24D80200 
 2130      00
 2131 1c2b F2420F10 		movsd	(%rax,%r12), %xmm0
 2131      0420
 2132 1c31 F20F100C 		movsd	(%rax,%rcx,8), %xmm1
 2132      C8
 2133 1c36 E8000000 		call	_ZN10vector_var12Get_GradientEddS_S_
 2133      00
 2134 1c3b 660FEFC0 		pxor	%xmm0, %xmm0
 2135 1c3f 488B8424 		movq	192(%rsp), %rax
 2135      C0000000 
 2136 1c47 4531FF   		xorl	%r15d, %r15d
 2137 1c4a F20F1184 		movsd	%xmm0, 424(%rsp)
 2137      24A80100 
 2137      00
 2138 1c53 F20F1184 		movsd	%xmm0, 432(%rsp)
 2138      24B00100 
 2138      00
 2139 1c5c F20F1184 		movsd	%xmm0, 440(%rsp)
 2139      24B80100 
 2139      00
 2140 1c65 F20F1104 		movsd	%xmm0, (%rsp)
 2140      24
 2141 1c6a 660F1F44 		.p2align 4,,10
 2141      0000
 2142              		.p2align 3
 2143              	.L252:
 2144 1c70 4A8D1CBD 		leaq	0(,%r15,4), %rbx
 2144      00000000 
 2145 1c78 488D8C24 		leaq	736(%rsp), %rcx
 2145      E0020000 
 2146 1c80 488D9424 		leaq	704(%rsp), %rdx
 2146      C0020000 
 2147 1c88 488DB424 		leaq	672(%rsp), %rsi
 2147      A0020000 
 2148 1c90 488DBC24 		leaq	320(%rsp), %rdi
 2148      40010000 
 2149 1c98 48C78424 		movq	$_ZTV10vector_var+16, 736(%rsp)
 2149      E0020000 
 2149      00000000 
 2150 1ca4 4801D8   		addq	%rbx, %rax
GAS LISTING /tmp/cce5yULP.s 			page 57


 2151 1ca7 F20F1040 		movsd	8(%rax), %xmm0
 2151      08
 2152 1cac F20F1184 		movsd	%xmm0, 744(%rsp)
 2152      24E80200 
 2152      00
 2153 1cb5 F20F1040 		movsd	16(%rax), %xmm0
 2153      10
 2154 1cba F20F1184 		movsd	%xmm0, 752(%rsp)
 2154      24F00200 
 2154      00
 2155 1cc3 F20F1040 		movsd	24(%rax), %xmm0
 2155      18
 2156 1cc8 48C78424 		movq	$_ZTV10vector_var+16, 704(%rsp)
 2156      C0020000 
 2156      00000000 
 2157 1cd4 48C78424 		movq	$_ZTV10vector_var+16, 672(%rsp)
 2157      A0020000 
 2157      00000000 
 2158 1ce0 F20F1184 		movsd	%xmm0, 760(%rsp)
 2158      24F80200 
 2158      00
 2159 1ce9 F20F1084 		movsd	232(%rsp), %xmm0
 2159      24E80000 
 2159      00
 2160 1cf2 F20F1184 		movsd	%xmm0, 712(%rsp)
 2160      24C80200 
 2160      00
 2161 1cfb F20F1084 		movsd	240(%rsp), %xmm0
 2161      24F00000 
 2161      00
 2162 1d04 F20F1184 		movsd	%xmm0, 720(%rsp)
 2162      24D00200 
 2162      00
 2163 1d0d F20F1084 		movsd	248(%rsp), %xmm0
 2163      24F80000 
 2163      00
 2164 1d16 F20F1184 		movsd	%xmm0, 728(%rsp)
 2164      24D80200 
 2164      00
 2165 1d1f F20F1084 		movsd	296(%rsp), %xmm0
 2165      24280100 
 2165      00
 2166 1d28 F20F1184 		movsd	%xmm0, 680(%rsp)
 2166      24A80200 
 2166      00
 2167 1d31 F20F1084 		movsd	304(%rsp), %xmm0
 2167      24300100 
 2167      00
 2168 1d3a F20F1184 		movsd	%xmm0, 688(%rsp)
 2168      24B00200 
 2168      00
 2169 1d43 F20F1084 		movsd	312(%rsp), %xmm0
 2169      24380100 
 2169      00
 2170 1d4c F20F1184 		movsd	%xmm0, 696(%rsp)
 2170      24B80200 
 2170      00
GAS LISTING /tmp/cce5yULP.s 			page 58


 2171 1d55 F20F1045 		movsd	8(%rbp), %xmm0
 2171      08
 2172 1d5a E8000000 		call	_ZN10vector_var16relative_vectorsES_S_S_d
 2172      00
 2173 1d5f 4889D8   		movq	%rbx, %rax
 2174 1d62 48038424 		addq	192(%rsp), %rax
 2174      C0000000 
 2175 1d6a 488D8C24 		leaq	736(%rsp), %rcx
 2175      E0020000 
 2176 1d72 488D9424 		leaq	704(%rsp), %rdx
 2176      C0020000 
 2177 1d7a 488DB424 		leaq	672(%rsp), %rsi
 2177      A0020000 
 2178 1d82 488DBC24 		leaq	480(%rsp), %rdi
 2178      E0010000 
 2179 1d8a 48C78424 		movq	$_ZTV10vector_var+16, 736(%rsp)
 2179      E0020000 
 2179      00000000 
 2180 1d96 F20F1040 		movsd	8(%rax), %xmm0
 2180      08
 2181 1d9b F20F1184 		movsd	%xmm0, 744(%rsp)
 2181      24E80200 
 2181      00
 2182 1da4 F20F1040 		movsd	16(%rax), %xmm0
 2182      10
 2183 1da9 F20F1184 		movsd	%xmm0, 752(%rsp)
 2183      24F00200 
 2183      00
 2184 1db2 F20F1040 		movsd	24(%rax), %xmm0
 2184      18
 2185 1db7 48C78424 		movq	$_ZTV10vector_var+16, 704(%rsp)
 2185      C0020000 
 2185      00000000 
 2186 1dc3 48C78424 		movq	$_ZTV10vector_var+16, 672(%rsp)
 2186      A0020000 
 2186      00000000 
 2187 1dcf F20F1184 		movsd	%xmm0, 760(%rsp)
 2187      24F80200 
 2187      00
 2188 1dd8 F20F1084 		movsd	232(%rsp), %xmm0
 2188      24E80000 
 2188      00
 2189 1de1 F20F1184 		movsd	%xmm0, 712(%rsp)
 2189      24C80200 
 2189      00
 2190 1dea F20F1084 		movsd	240(%rsp), %xmm0
 2190      24F00000 
 2190      00
 2191 1df3 F20F1184 		movsd	%xmm0, 720(%rsp)
 2191      24D00200 
 2191      00
 2192 1dfc F20F1084 		movsd	248(%rsp), %xmm0
 2192      24F80000 
 2192      00
 2193 1e05 F20F1184 		movsd	%xmm0, 728(%rsp)
 2193      24D80200 
 2193      00
GAS LISTING /tmp/cce5yULP.s 			page 59


 2194 1e0e F20F1084 		movsd	296(%rsp), %xmm0
 2194      24280100 
 2194      00
 2195 1e17 F20F1184 		movsd	%xmm0, 680(%rsp)
 2195      24A80200 
 2195      00
 2196 1e20 F20F1084 		movsd	304(%rsp), %xmm0
 2196      24300100 
 2196      00
 2197 1e29 F20F1184 		movsd	%xmm0, 688(%rsp)
 2197      24B00200 
 2197      00
 2198 1e32 F20F1084 		movsd	312(%rsp), %xmm0
 2198      24380100 
 2198      00
 2199 1e3b F20F1184 		movsd	%xmm0, 696(%rsp)
 2199      24B80200 
 2199      00
 2200 1e44 660FEFC0 		pxor	%xmm0, %xmm0
 2201 1e48 E8000000 		call	_ZN10vector_var16relative_vectorsES_S_S_d
 2201      00
 2202 1e4d F20F1084 		movsd	328(%rsp), %xmm0
 2202      24480100 
 2202      00
 2203 1e56 488DB424 		leaq	736(%rsp), %rsi
 2203      E0020000 
 2204 1e5e 488DBC24 		leaq	448(%rsp), %rdi
 2204      C0010000 
 2205 1e66 48C78424 		movq	$_ZTV10vector_var+16, 736(%rsp)
 2205      E0020000 
 2205      00000000 
 2206 1e72 F20F1184 		movsd	%xmm0, 744(%rsp)
 2206      24E80200 
 2206      00
 2207 1e7b F20F1084 		movsd	336(%rsp), %xmm0
 2207      24500100 
 2207      00
 2208 1e84 F20F1184 		movsd	%xmm0, 752(%rsp)
 2208      24F00200 
 2208      00
 2209 1e8d F20F1084 		movsd	344(%rsp), %xmm0
 2209      24580100 
 2209      00
 2210 1e96 F20F1184 		movsd	%xmm0, 760(%rsp)
 2210      24F80200 
 2210      00
 2211 1e9f E8000000 		call	_ZN10vector_var11Dot_ProductES_
 2211      00
 2212 1ea4 488B8424 		movq	968(%rsp), %rax
 2212      C8030000 
 2213 1eac 488DB424 		leaq	736(%rsp), %rsi
 2213      E0020000 
 2214 1eb4 488DBC24 		leaq	352(%rsp), %rdi
 2214      60010000 
 2215 1ebc F2420F58 		addsd	(%rax,%r12), %xmm0
 2215      0420
 2216 1ec2 48C78424 		movq	$_ZTV10vector_var+16, 736(%rsp)
GAS LISTING /tmp/cce5yULP.s 			page 60


 2216      E0020000 
 2216      00000000 
 2217 1ece F20F1144 		movsd	%xmm0, 8(%rsp)
 2217      2408
 2218 1ed4 F20F1084 		movsd	328(%rsp), %xmm0
 2218      24480100 
 2218      00
 2219 1edd F20F1184 		movsd	%xmm0, 744(%rsp)
 2219      24E80200 
 2219      00
 2220 1ee6 F20F1084 		movsd	336(%rsp), %xmm0
 2220      24500100 
 2220      00
 2221 1eef F20F1184 		movsd	%xmm0, 752(%rsp)
 2221      24F00200 
 2221      00
 2222 1ef8 F20F1084 		movsd	344(%rsp), %xmm0
 2222      24580100 
 2222      00
 2223 1f01 F20F1184 		movsd	%xmm0, 760(%rsp)
 2223      24F80200 
 2223      00
 2224 1f0a E8000000 		call	_ZN10vector_var11Dot_ProductES_
 2224      00
 2225 1f0f 488B8424 		movq	976(%rsp), %rax
 2225      D0030000 
 2226 1f17 488DB424 		leaq	736(%rsp), %rsi
 2226      E0020000 
 2227 1f1f 488DBC24 		leaq	384(%rsp), %rdi
 2227      80010000 
 2228 1f27 F2420F58 		addsd	(%rax,%r12), %xmm0
 2228      0420
 2229 1f2d 48C78424 		movq	$_ZTV10vector_var+16, 736(%rsp)
 2229      E0020000 
 2229      00000000 
 2230 1f39 F20F1184 		movsd	%xmm0, 520(%rsp)
 2230      24080200 
 2230      00
 2231 1f42 F20F1084 		movsd	328(%rsp), %xmm0
 2231      24480100 
 2231      00
 2232 1f4b F20F1184 		movsd	%xmm0, 744(%rsp)
 2232      24E80200 
 2232      00
 2233 1f54 F20F1084 		movsd	336(%rsp), %xmm0
 2233      24500100 
 2233      00
 2234 1f5d F20F1184 		movsd	%xmm0, 752(%rsp)
 2234      24F00200 
 2234      00
 2235 1f66 F20F1084 		movsd	344(%rsp), %xmm0
 2235      24580100 
 2235      00
 2236 1f6f F20F1184 		movsd	%xmm0, 760(%rsp)
 2236      24F80200 
 2236      00
 2237 1f78 E8000000 		call	_ZN10vector_var11Dot_ProductES_
GAS LISTING /tmp/cce5yULP.s 			page 61


 2237      00
 2238 1f7d 488B8424 		movq	984(%rsp), %rax
 2238      D8030000 
 2239 1f85 488DBC24 		leaq	512(%rsp), %rdi
 2239      00020000 
 2240 1f8d F2420F58 		addsd	(%rax,%r12), %xmm0
 2240      0420
 2241 1f93 48C78424 		movq	$0, 536(%rsp)
 2241      18020000 
 2241      00000000 
 2242 1f9f F20F1184 		movsd	%xmm0, 528(%rsp)
 2242      24100200 
 2242      00
 2243 1fa8 E8000000 		call	_ZN10vector_var9MagnitudeEv
 2243      00
 2244              	.LEHE51:
 2245 1fad 4889D8   		movq	%rbx, %rax
 2246 1fb0 48038424 		addq	192(%rsp), %rax
 2246      C0000000 
 2247 1fb8 F20F1144 		movsd	%xmm0, 16(%rsp)
 2247      2410
 2248 1fbe F20F10BC 		movsd	1104(%rsp), %xmm7
 2248      24500400 
 2248      00
 2249 1fc7 488DB424 		leaq	640(%rsp), %rsi
 2249      80020000 
 2250 1fcf F20F10B4 		movsd	520(%rsp), %xmm6
 2250      24080200 
 2250      00
 2251 1fd8 488DBC24 		leaq	736(%rsp), %rdi
 2251      E0020000 
 2252 1fe0 F20F10AC 		movsd	528(%rsp), %xmm5
 2252      24100200 
 2252      00
 2253 1fe9 48C78424 		movq	$_ZTV10vector_var+16, 736(%rsp)
 2253      E0020000 
 2253      00000000 
 2254 1ff5 F20F1040 		movsd	8(%rax), %xmm0
 2254      08
 2255 1ffa 48C78424 		movq	$_ZTV10vector_var+16, 640(%rsp)
 2255      80020000 
 2255      00000000 
 2256 2006 F20F10A4 		movsd	536(%rsp), %xmm4
 2256      24180200 
 2256      00
 2257 200f F20F1184 		movsd	%xmm0, 744(%rsp)
 2257      24E80200 
 2257      00
 2258 2018 F20F1040 		movsd	16(%rax), %xmm0
 2258      10
 2259 201d F20F117C 		movsd	%xmm7, 40(%rsp)
 2259      2428
 2260 2023 F20F105D 		movsd	40(%rbp), %xmm3
 2260      28
 2261 2028 F20F1184 		movsd	%xmm0, 752(%rsp)
 2261      24F00200 
 2261      00
GAS LISTING /tmp/cce5yULP.s 			page 62


 2262 2031 F2420F10 		movsd	1648(%rsp,%r15), %xmm7
 2262      BC3C7006 
 2262      0000
 2263 203b F20F1040 		movsd	24(%rax), %xmm0
 2263      18
 2264 2040 F20F115C 		movsd	%xmm3, 24(%rsp)
 2264      2418
 2265 2046 F20F1184 		movsd	%xmm0, 760(%rsp)
 2265      24F80200 
 2265      00
 2266 204f F20F117C 		movsd	%xmm7, 32(%rsp)
 2266      2420
 2267 2055 F20F1174 		movsd	%xmm6, 48(%rsp)
 2267      2430
 2268 205b F20F11B4 		movsd	%xmm6, 648(%rsp)
 2268      24880200 
 2268      00
 2269 2064 F20F116C 		movsd	%xmm5, 56(%rsp)
 2269      2438
 2270 206a F20F11AC 		movsd	%xmm5, 656(%rsp)
 2270      24900200 
 2270      00
 2271 2073 F20F1164 		movsd	%xmm4, 64(%rsp)
 2271      2440
 2272 2079 F20F11A4 		movsd	%xmm4, 664(%rsp)
 2272      24980200 
 2272      00
 2273              	.LEHB52:
 2274 2082 E8000000 		call	_ZN10vector_var11Dot_ProductES_
 2274      00
 2275 2087 F20F101D 		movsd	.LC9(%rip), %xmm3
 2275      00000000 
 2276 208f 488DB424 		leaq	672(%rsp), %rsi
 2276      A0020000 
 2277 2097 F20F1074 		movsd	48(%rsp), %xmm6
 2277      2430
 2278 209d 488DBC24 		leaq	736(%rsp), %rdi
 2278      E0020000 
 2279 20a5 F20F59D8 		mulsd	%xmm0, %xmm3
 2280 20a9 48C78424 		movq	$_ZTV10vector_var+16, 672(%rsp)
 2280      A0020000 
 2280      00000000 
 2281 20b5 F20F106C 		movsd	56(%rsp), %xmm5
 2281      2438
 2282 20bb F20F1064 		movsd	64(%rsp), %xmm4
 2282      2440
 2283 20c1 F20F11B4 		movsd	%xmm6, 680(%rsp)
 2283      24A80200 
 2283      00
 2284 20ca F20F115C 		movsd	%xmm3, 72(%rsp)
 2284      2448
 2285 20d0 F20F11AC 		movsd	%xmm5, 688(%rsp)
 2285      24B00200 
 2285      00
 2286 20d9 F20F11A4 		movsd	%xmm4, 696(%rsp)
 2286      24B80200 
 2286      00
GAS LISTING /tmp/cce5yULP.s 			page 63


 2287 20e2 E8000000 		call	_ZN10vector_var11Dot_ProductES_
 2287      00
 2288              	.LEHE52:
 2289 20e7 F20F1074 		movsd	16(%rsp), %xmm6
 2289      2410
 2290 20ed F20F59C0 		mulsd	%xmm0, %xmm0
 2291 20f1 488B8424 		movq	192(%rsp), %rax
 2291      C0000000 
 2292 20f9 F20F5974 		mulsd	24(%rsp), %xmm6
 2292      2418
 2293 20ff F20F107C 		movsd	32(%rsp), %xmm7
 2293      2420
 2294 2105 4801C3   		addq	%rax, %rbx
 2295 2108 F20F102C 		movsd	(%rsp), %xmm5
 2295      24
 2296 210d F20F1053 		movsd	8(%rbx), %xmm2
 2296      08
 2297 2112 660F28CE 		movapd	%xmm6, %xmm1
 2298 2116 F20F59CE 		mulsd	%xmm6, %xmm1
 2299 211a F20F5CC1 		subsd	%xmm1, %xmm0
 2300 211e F20F104C 		movsd	8(%rsp), %xmm1
 2300      2408
 2301 2124 F20F59CF 		mulsd	%xmm7, %xmm1
 2302 2128 F20F5905 		mulsd	.LC10(%rip), %xmm0
 2302      00000000 
 2303 2130 F20F5844 		addsd	72(%rsp), %xmm0
 2303      2448
 2304 2136 F20F59C7 		mulsd	%xmm7, %xmm0
 2305 213a F20F5944 		mulsd	40(%rsp), %xmm0
 2305      2428
 2306 2140 F20F58C1 		addsd	%xmm1, %xmm0
 2307 2144 F20F104B 		movsd	16(%rbx), %xmm1
 2307      10
 2308 2149 F2420F11 		movsd	%xmm0, 1568(%rsp,%r15)
 2308      843C2006 
 2308      0000
 2309 2153 F20F58E8 		addsd	%xmm0, %xmm5
 2310 2157 F20F59D0 		mulsd	%xmm0, %xmm2
 2311 215b F20F59C8 		mulsd	%xmm0, %xmm1
 2312 215f 4983C708 		addq	$8, %r15
 2313 2163 F20F5943 		mulsd	24(%rbx), %xmm0
 2313      18
 2314 2168 4983FF48 		cmpq	$72, %r15
 2315 216c F20F5894 		addsd	552(%rsp), %xmm2
 2315      24280200 
 2315      00
 2316 2175 F20F112C 		movsd	%xmm5, (%rsp)
 2316      24
 2317 217a F20F588C 		addsd	560(%rsp), %xmm1
 2317      24300200 
 2317      00
 2318 2183 F20F5884 		addsd	568(%rsp), %xmm0
 2318      24380200 
 2318      00
 2319 218c F20F1194 		movsd	%xmm2, 552(%rsp)
 2319      24280200 
 2319      00
GAS LISTING /tmp/cce5yULP.s 			page 64


 2320 2195 F20F118C 		movsd	%xmm1, 560(%rsp)
 2320      24300200 
 2320      00
 2321 219e F20F1184 		movsd	%xmm0, 568(%rsp)
 2321      24380200 
 2321      00
 2322 21a7 0F85C3FA 		jne	.L252
 2322      FFFF
 2323 21ad F20F109C 		movsd	1104(%rsp), %xmm3
 2323      24500400 
 2323      00
 2324 21b6 488DBC24 		leaq	576(%rsp), %rdi
 2324      40020000 
 2325 21be F20F5ED3 		divsd	%xmm3, %xmm2
 2326 21c2 F20F5ECB 		divsd	%xmm3, %xmm1
 2327 21c6 F20F1194 		movsd	%xmm2, 584(%rsp)
 2327      24480200 
 2327      00
 2328 21cf F20F5EC3 		divsd	%xmm3, %xmm0
 2329 21d3 F20F118C 		movsd	%xmm1, 592(%rsp)
 2329      24500200 
 2329      00
 2330 21dc F20F1184 		movsd	%xmm0, 600(%rsp)
 2330      24580200 
 2330      00
 2331              	.LEHB53:
 2332 21e5 E8000000 		call	_ZN10vector_var9MagnitudeEv
 2332      00
 2333              	.LEHE53:
 2334 21ea 488B8424 		movq	192(%rsp), %rax
 2334      C0000000 
 2335 21f2 F20F1144 		movsd	%xmm0, 64(%rsp)
 2335      2440
 2336 21f8 31DB     		xorl	%ebx, %ebx
 2337 21fa 660F1F44 		.p2align 4,,10
 2337      0000
 2338              		.p2align 3
 2339              	.L253:
 2340 2200 4C8D3C9D 		leaq	0(,%rbx,4), %r15
 2340      00000000 
 2341 2208 F20F10BC 		movsd	1104(%rsp), %xmm7
 2341      24500400 
 2341      00
 2342 2211 F20F109C 		movsd	584(%rsp), %xmm3
 2342      24480200 
 2342      00
 2343 221a 488DB424 		leaq	704(%rsp), %rsi
 2343      C0020000 
 2344 2222 4C01F8   		addq	%r15, %rax
 2345 2225 F20F10A4 		movsd	592(%rsp), %xmm4
 2345      24500200 
 2345      00
 2346 222e F20F1040 		movsd	8(%rax), %xmm0
 2346      08
 2347 2233 488DBC24 		leaq	672(%rsp), %rdi
 2347      A0020000 
 2348 223b F20F10AC 		movsd	600(%rsp), %xmm5
GAS LISTING /tmp/cce5yULP.s 			page 65


 2348      24580200 
 2348      00
 2349 2244 48C78424 		movq	$_ZTV10vector_var+16, 672(%rsp)
 2349      A0020000 
 2349      00000000 
 2350 2250 F20F1184 		movsd	%xmm0, 680(%rsp)
 2350      24A80200 
 2350      00
 2351 2259 F20F1040 		movsd	16(%rax), %xmm0
 2351      10
 2352 225e F20F117C 		movsd	%xmm7, 24(%rsp)
 2352      2418
 2353 2264 F20F1075 		movsd	40(%rbp), %xmm6
 2353      28
 2354 2269 F20F1184 		movsd	%xmm0, 688(%rsp)
 2354      24B00200 
 2354      00
 2355 2272 F20F10BC 		movsd	1648(%rsp,%rbx), %xmm7
 2355      1C700600 
 2355      00
 2356 227b F20F1040 		movsd	24(%rax), %xmm0
 2356      18
 2357 2280 F20F1174 		movsd	%xmm6, 8(%rsp)
 2357      2408
 2358 2286 48C78424 		movq	$_ZTV10vector_var+16, 704(%rsp)
 2358      C0020000 
 2358      00000000 
 2359 2292 F20F1184 		movsd	%xmm0, 696(%rsp)
 2359      24B80200 
 2359      00
 2360 229b F20F117C 		movsd	%xmm7, 16(%rsp)
 2360      2410
 2361 22a1 F20F115C 		movsd	%xmm3, 32(%rsp)
 2361      2420
 2362 22a7 F20F119C 		movsd	%xmm3, 712(%rsp)
 2362      24C80200 
 2362      00
 2363 22b0 F20F1164 		movsd	%xmm4, 40(%rsp)
 2363      2428
 2364 22b6 F20F11A4 		movsd	%xmm4, 720(%rsp)
 2364      24D00200 
 2364      00
 2365 22bf F20F116C 		movsd	%xmm5, 48(%rsp)
 2365      2430
 2366 22c5 F20F11AC 		movsd	%xmm5, 728(%rsp)
 2366      24D80200 
 2366      00
 2367              	.LEHB54:
 2368 22ce E8000000 		call	_ZN10vector_var11Dot_ProductES_
 2368      00
 2369 22d3 F20F5905 		mulsd	.LC9(%rip), %xmm0
 2369      00000000 
 2370 22db 488DB424 		leaq	736(%rsp), %rsi
 2370      E0020000 
 2371 22e3 488DBC24 		leaq	672(%rsp), %rdi
 2371      A0020000 
 2372 22eb F20F105C 		movsd	32(%rsp), %xmm3
GAS LISTING /tmp/cce5yULP.s 			page 66


 2372      2420
 2373 22f1 48C78424 		movq	$_ZTV10vector_var+16, 736(%rsp)
 2373      E0020000 
 2373      00000000 
 2374 22fd F20F1064 		movsd	40(%rsp), %xmm4
 2374      2428
 2375 2303 F20F106C 		movsd	48(%rsp), %xmm5
 2375      2430
 2376 2309 F20F119C 		movsd	%xmm3, 744(%rsp)
 2376      24E80200 
 2376      00
 2377 2312 F20F11A4 		movsd	%xmm4, 752(%rsp)
 2377      24F00200 
 2377      00
 2378 231b F20F1144 		movsd	%xmm0, 56(%rsp)
 2378      2438
 2379 2321 F20F11AC 		movsd	%xmm5, 760(%rsp)
 2379      24F80200 
 2379      00
 2380 232a E8000000 		call	_ZN10vector_var11Dot_ProductES_
 2380      00
 2381              	.LEHE54:
 2382 232f F20F1074 		movsd	8(%rsp), %xmm6
 2382      2408
 2383 2335 F20F59C0 		mulsd	%xmm0, %xmm0
 2384 2339 488B8424 		movq	192(%rsp), %rax
 2384      C0000000 
 2385 2341 F20F5974 		mulsd	64(%rsp), %xmm6
 2385      2440
 2386 2347 F20F107C 		movsd	16(%rsp), %xmm7
 2386      2410
 2387 234d F20F1055 		movsd	16(%rbp), %xmm2
 2387      10
 2388 2352 4901C7   		addq	%rax, %r15
 2389 2355 660F28CE 		movapd	%xmm6, %xmm1
 2390 2359 F20F59CE 		mulsd	%xmm6, %xmm1
 2391 235d F20F10B4 		movsd	840(%rsp), %xmm6
 2391      24480300 
 2391      00
 2392 2366 F20F5CC1 		subsd	%xmm1, %xmm0
 2393 236a F20F100C 		movsd	(%rsp), %xmm1
 2393      24
 2394 236f F20F59CF 		mulsd	%xmm7, %xmm1
 2395 2373 F20F5905 		mulsd	.LC10(%rip), %xmm0
 2395      00000000 
 2396 237b F20F5844 		addsd	56(%rsp), %xmm0
 2396      2438
 2397 2381 F20F59C7 		mulsd	%xmm7, %xmm0
 2398 2385 F20F103D 		movsd	.LC12(%rip), %xmm7
 2398      00000000 
 2399 238d F20F5944 		mulsd	24(%rsp), %xmm0
 2399      2418
 2400 2393 F20F58C1 		addsd	%xmm1, %xmm0
 2401 2397 660F28CA 		movapd	%xmm2, %xmm1
 2402 239b F20F58D2 		addsd	%xmm2, %xmm2
 2403 239f 660F570D 		xorpd	.LC17(%rip), %xmm1
 2403      00000000 
GAS LISTING /tmp/cce5yULP.s 			page 67


 2404 23a7 660F28D8 		movapd	%xmm0, %xmm3
 2405 23ab F20F5EFA 		divsd	%xmm2, %xmm7
 2406 23af F20F5C9C 		subsd	1568(%rsp,%rbx), %xmm3
 2406      1C200600 
 2406      00
 2407 23b8 4883C308 		addq	$8, %rbx
 2408 23bc 4883FB48 		cmpq	$72, %rbx
 2409 23c0 F20F59CB 		mulsd	%xmm3, %xmm1
 2410 23c4 F2410F10 		movsd	16(%r15), %xmm3
 2410      5F10
 2411 23ca 660F28D7 		movapd	%xmm7, %xmm2
 2412 23ce F20F103D 		movsd	.LC12(%rip), %xmm7
 2412      00000000 
 2413 23d6 F20F5CFA 		subsd	%xmm2, %xmm7
 2414 23da F2410F10 		movsd	8(%r15), %xmm2
 2414      5708
 2415 23e0 660F28EA 		movapd	%xmm2, %xmm5
 2416 23e4 660F28E2 		movapd	%xmm2, %xmm4
 2417 23e8 F20F59CF 		mulsd	%xmm7, %xmm1
 2418 23ec F20F59E8 		mulsd	%xmm0, %xmm5
 2419 23f0 F20F59E2 		mulsd	%xmm2, %xmm4
 2420 23f4 F20F59D3 		mulsd	%xmm3, %xmm2
 2421 23f8 F20F58C8 		addsd	%xmm0, %xmm1
 2422 23fc F20F59C3 		mulsd	%xmm3, %xmm0
 2423 2400 F20F59DB 		mulsd	%xmm3, %xmm3
 2424 2404 F20F58AC 		addsd	824(%rsp), %xmm5
 2424      24380300 
 2424      00
 2425 240d F20F59D1 		mulsd	%xmm1, %xmm2
 2426 2411 F20F5884 		addsd	872(%rsp), %xmm0
 2426      24680300 
 2426      00
 2427 241a F20F59E1 		mulsd	%xmm1, %xmm4
 2428 241e F20F59CB 		mulsd	%xmm3, %xmm1
 2429 2422 F20F11AC 		movsd	%xmm5, 824(%rsp)
 2429      24380300 
 2429      00
 2430 242b F20F58F2 		addsd	%xmm2, %xmm6
 2431 242f F20F58A4 		addsd	832(%rsp), %xmm4
 2431      24400300 
 2431      00
 2432 2438 F20F5894 		addsd	880(%rsp), %xmm2
 2432      24700300 
 2432      00
 2433 2441 F20F1184 		movsd	%xmm0, 872(%rsp)
 2433      24680300 
 2433      00
 2434 244a F20F588C 		addsd	888(%rsp), %xmm1
 2434      24780300 
 2434      00
 2435 2453 F20F11B4 		movsd	%xmm6, 840(%rsp)
 2435      24480300 
 2435      00
 2436 245c F20F11A4 		movsd	%xmm4, 832(%rsp)
 2436      24400300 
 2436      00
 2437 2465 F20F1194 		movsd	%xmm2, 880(%rsp)
GAS LISTING /tmp/cce5yULP.s 			page 68


 2437      24700300 
 2437      00
 2438 246e F20F118C 		movsd	%xmm1, 888(%rsp)
 2438      24780300 
 2438      00
 2439 2477 0F8583FD 		jne	.L253
 2439      FFFF
 2440 247d F2440F10 		movsd	616(%rsp), %xmm8
 2440      84246802 
 2440      0000
 2441 2487 F20F10BC 		movsd	624(%rsp), %xmm7
 2441      24700200 
 2441      00
 2442 2490 F2410F59 		mulsd	%xmm8, %xmm5
 2442      E8
 2443 2495 498B96D8 		movq	216(%r14), %rdx
 2443      000000
 2444 249c 488B8C24 		movq	1128(%rsp), %rcx
 2444      68040000 
 2445 24a4 F20F59C7 		mulsd	%xmm7, %xmm0
 2446 24a8 F2410F59 		mulsd	%xmm8, %xmm4
 2446      E0
 2447 24ad F20F59D7 		mulsd	%xmm7, %xmm2
 2448 24b1 4A8D3422 		leaq	(%rdx,%r12), %rsi
 2449 24b5 4A8D0421 		leaq	(%rcx,%r12), %rax
 2450 24b9 F2410F59 		mulsd	%xmm8, %xmm6
 2450      F0
 2451 24be F20F59CF 		mulsd	%xmm7, %xmm1
 2452 24c2 F20F58C5 		addsd	%xmm5, %xmm0
 2453 24c6 F20F109C 		movsd	176(%rsp), %xmm3
 2453      24B00000 
 2453      00
 2454 24cf F20F58D4 		addsd	%xmm4, %xmm2
 2455 24d3 660F571D 		xorpd	.LC17(%rip), %xmm3
 2455      00000000 
 2456 24db F20F58CE 		addsd	%xmm6, %xmm1
 2457 24df F20F59C3 		mulsd	%xmm3, %xmm0
 2458 24e3 F20F59D3 		mulsd	%xmm3, %xmm2
 2459 24e7 F20F59CB 		mulsd	%xmm3, %xmm1
 2460 24eb 660FEFDB 		pxor	%xmm3, %xmm3
 2461 24ef F20F1184 		movsd	%xmm0, 920(%rsp)
 2461      24980300 
 2461      00
 2462 24f8 F20F1194 		movsd	%xmm2, 928(%rsp)
 2462      24A00300 
 2462      00
 2463 2501 F20F118C 		movsd	%xmm1, 936(%rsp)
 2463      24A80300 
 2463      00
 2464 250a F20F5E06 		divsd	(%rsi), %xmm0
 2465 250e F20F5800 		addsd	(%rax), %xmm0
 2466 2512 F20F1100 		movsd	%xmm0, (%rax)
 2467 2516 48638424 		movslq	172(%rsp), %rax
 2467      AC000000 
 2468 251e F20F1084 		movsd	920(%rsp), %xmm0
 2468      24980300 
 2468      00
GAS LISTING /tmp/cce5yULP.s 			page 69


 2469 2527 660F5705 		xorpd	.LC17(%rip), %xmm0
 2469      00000000 
 2470 252f 48C1E003 		salq	$3, %rax
 2471 2533 4801C2   		addq	%rax, %rdx
 2472 2536 4801C1   		addq	%rax, %rcx
 2473 2539 F20F5E02 		divsd	(%rdx), %xmm0
 2474 253d F20F5801 		addsd	(%rcx), %xmm0
 2475 2541 F20F1101 		movsd	%xmm0, (%rcx)
 2476 2545 488B8C24 		movq	1136(%rsp), %rcx
 2476      70040000 
 2477 254d F20F1084 		movsd	928(%rsp), %xmm0
 2477      24A00300 
 2477      00
 2478 2556 4A8D3C21 		leaq	(%rcx,%r12), %rdi
 2479 255a 4801C1   		addq	%rax, %rcx
 2480 255d F20F5E06 		divsd	(%rsi), %xmm0
 2481 2561 F20F5807 		addsd	(%rdi), %xmm0
 2482 2565 F20F1107 		movsd	%xmm0, (%rdi)
 2483 2569 F20F1084 		movsd	928(%rsp), %xmm0
 2483      24A00300 
 2483      00
 2484 2572 660F5705 		xorpd	.LC17(%rip), %xmm0
 2484      00000000 
 2485 257a F20F5E02 		divsd	(%rdx), %xmm0
 2486 257e F20F5801 		addsd	(%rcx), %xmm0
 2487 2582 F20F1101 		movsd	%xmm0, (%rcx)
 2488 2586 488B8C24 		movq	1144(%rsp), %rcx
 2488      78040000 
 2489 258e F20F1084 		movsd	936(%rsp), %xmm0
 2489      24A80300 
 2489      00
 2490 2597 4A8D3C21 		leaq	(%rcx,%r12), %rdi
 2491 259b 4801C8   		addq	%rcx, %rax
 2492 259e F20F5E06 		divsd	(%rsi), %xmm0
 2493 25a2 F20F5807 		addsd	(%rdi), %xmm0
 2494 25a6 F20F1107 		movsd	%xmm0, (%rdi)
 2495 25aa 837C2454 		cmpl	$2, 84(%rsp)
 2495      02
 2496 25af 8B742478 		movl	120(%rsp), %esi
 2497 25b3 F20F1084 		movsd	936(%rsp), %xmm0
 2497      24A80300 
 2497      00
 2498 25bc 660F5705 		xorpd	.LC17(%rip), %xmm0
 2498      00000000 
 2499 25c4 F20F5E02 		divsd	(%rdx), %xmm0
 2500 25c8 F20F5800 		addsd	(%rax), %xmm0
 2501 25cc F20F1100 		movsd	%xmm0, (%rax)
 2502 25d0 F20F1094 		movsd	936(%rsp), %xmm2
 2502      24A80300 
 2502      00
 2503 25d9 F20F108C 		movsd	928(%rsp), %xmm1
 2503      24A00300 
 2503      00
 2504 25e2 F20F1084 		movsd	920(%rsp), %xmm0
 2504      24980300 
 2504      00
 2505 25eb 0F842A0E 		je	.L694
GAS LISTING /tmp/cce5yULP.s 			page 70


 2505      0000
 2506 25f1 488DBC24 		leaq	1280(%rsp), %rdi
 2506      00050000 
 2507              	.LEHB55:
 2508 25f9 E8000000 		call	_ZN8Solution6updateEddddi
 2508      00
 2509              	.L402:
 2510 25fe 83442454 		addl	$1, 84(%rsp)
 2510      01
 2511 2603 8B442454 		movl	84(%rsp), %eax
 2512 2607 83F804   		cmpl	$4, %eax
 2513 260a 0F8536F3 		jne	.L255
 2513      FFFF
 2514 2610 418B4610 		movl	16(%r14), %eax
 2515              	.L251:
 2516 2614 418D5501 		leal	1(%r13), %edx
 2517 2618 4983C501 		addq	$1, %r13
 2518 261c 39C2     		cmpl	%eax, %edx
 2519 261e 0F8C84F2 		jl	.L256
 2519      FFFF
 2520 2624 4C63AC24 		movslq	136(%rsp), %r13
 2520      88000000 
 2521 262c 31DB     		xorl	%ebx, %ebx
 2522 262e 85C0     		testl	%eax, %eax
 2523 2630 4589EF   		movl	%r13d, %r15d
 2524 2633 7F1A     		jg	.L525
 2525 2635 E9590100 		jmp	.L249
 2525      00
 2526 263a 660F1F44 		.p2align 4,,10
 2526      0000
 2527              		.p2align 3
 2528              	.L258:
 2529 2640 8D5301   		leal	1(%rbx), %edx
 2530 2643 4883C301 		addq	$1, %rbx
 2531 2647 39C2     		cmpl	%eax, %edx
 2532 2649 0F8D4401 		jge	.L249
 2532      0000
 2533              	.L525:
 2534 264f 488B4C24 		movq	88(%rsp), %rcx
 2534      58
 2535 2654 488B5108 		movq	8(%rcx), %rdx
 2536 2658 803C1A00 		cmpb	$0, (%rdx,%rbx)
 2537 265c 75E2     		jne	.L258
 2538 265e 488B8424 		movq	1136(%rsp), %rax
 2538      70040000 
 2539 2666 F20F1074 		movsd	96(%rsp), %xmm6
 2539      2460
 2540 266c F2420F10 		movsd	1736(%rsp,%r13,8), %xmm0
 2540      84ECC806 
 2540      0000
 2541 2676 488DBC24 		leaq	960(%rsp), %rdi
 2541      C0030000 
 2542 267e F20F10A4 		movsd	1104(%rsp), %xmm4
 2542      24500400 
 2542      00
 2543 2687 89DE     		movl	%ebx, %esi
 2544 2689 F20F100C 		movsd	(%rax,%rbx,8), %xmm1
GAS LISTING /tmp/cce5yULP.s 			page 71


 2544      D8
 2545 268e 488B8424 		movq	1056(%rsp), %rax
 2545      20040000 
 2546 2696 4C8D24DD 		leaq	0(,%rbx,8), %r12
 2546      00000000 
 2547 269e F20F59CE 		mulsd	%xmm6, %xmm1
 2548 26a2 F20F59C8 		mulsd	%xmm0, %xmm1
 2549 26a6 F20F580C 		addsd	(%rax,%rbx,8), %xmm1
 2549      D8
 2550 26ab 488B8424 		movq	1144(%rsp), %rax
 2550      78040000 
 2551 26b3 F20F1014 		movsd	(%rax,%rbx,8), %xmm2
 2551      D8
 2552 26b8 488B8424 		movq	1064(%rsp), %rax
 2552      28040000 
 2553 26c0 F20F59D6 		mulsd	%xmm6, %xmm2
 2554 26c4 F20F5ECC 		divsd	%xmm4, %xmm1
 2555 26c8 F20F59D0 		mulsd	%xmm0, %xmm2
 2556 26cc F20F5814 		addsd	(%rax,%rbx,8), %xmm2
 2556      D8
 2557 26d1 488B8424 		movq	1128(%rsp), %rax
 2557      68040000 
 2558 26d9 F20F101C 		movsd	(%rax,%rbx,8), %xmm3
 2558      D8
 2559 26de 488B8424 		movq	1048(%rsp), %rax
 2559      18040000 
 2560 26e6 F20F59DE 		mulsd	%xmm6, %xmm3
 2561 26ea F20F5ED4 		divsd	%xmm4, %xmm2
 2562 26ee F20F59C3 		mulsd	%xmm3, %xmm0
 2563 26f2 660FEFDB 		pxor	%xmm3, %xmm3
 2564 26f6 F20F5804 		addsd	(%rax,%rbx,8), %xmm0
 2564      D8
 2565 26fb E8000000 		call	_ZN8Solution6updateEddddi
 2565      00
 2566 2700 488B7424 		movq	112(%rsp), %rsi
 2566      70
 2567 2705 F20F105C 		movsd	96(%rsp), %xmm3
 2567      2460
 2568 270b 488B9424 		movq	1128(%rsp), %rdx
 2568      68040000 
 2569 2713 488B4C24 		movq	104(%rsp), %rcx
 2569      68
 2570 2718 4C89E0   		movq	%r12, %rax
 2571 271b F20F1046 		movsd	40(%rsi), %xmm0
 2571      28
 2572 2720 48034108 		addq	8(%rcx), %rax
 2573 2724 F20F59C3 		mulsd	%xmm3, %xmm0
 2574 2728 F20F5904 		mulsd	(%rdx,%rbx,8), %xmm0
 2574      DA
 2575 272d 488B9424 		movq	1136(%rsp), %rdx
 2575      70040000 
 2576 2735 F20F5800 		addsd	(%rax), %xmm0
 2577 2739 F20F1100 		movsd	%xmm0, (%rax)
 2578 273d 4C89E0   		movq	%r12, %rax
 2579 2740 48034110 		addq	16(%rcx), %rax
 2580 2744 4C036118 		addq	24(%rcx), %r12
 2581 2748 F20F1046 		movsd	40(%rsi), %xmm0
GAS LISTING /tmp/cce5yULP.s 			page 72


 2581      28
 2582 274d F20F59C3 		mulsd	%xmm3, %xmm0
 2583 2751 F20F5904 		mulsd	(%rdx,%rbx,8), %xmm0
 2583      DA
 2584 2756 8D5301   		leal	1(%rbx), %edx
 2585 2759 F20F5800 		addsd	(%rax), %xmm0
 2586 275d F20F1100 		movsd	%xmm0, (%rax)
 2587 2761 488B8424 		movq	1144(%rsp), %rax
 2587      78040000 
 2588 2769 F20F1046 		movsd	40(%rsi), %xmm0
 2588      28
 2589 276e F20F59C3 		mulsd	%xmm3, %xmm0
 2590 2772 F20F5904 		mulsd	(%rax,%rbx,8), %xmm0
 2590      D8
 2591 2777 418B4610 		movl	16(%r14), %eax
 2592 277b 4883C301 		addq	$1, %rbx
 2593 277f 39C2     		cmpl	%eax, %edx
 2594 2781 F2410F58 		addsd	(%r12), %xmm0
 2594      0424
 2595 2787 F2410F11 		movsd	%xmm0, (%r12)
 2595      0424
 2596 278d 0F8CBCFE 		jl	.L525
 2596      FFFF
 2597              	.L249:
 2598 2793 83842488 		addl	$1, 136(%rsp)
 2598      00000001 
 2599 279b 48834424 		addq	$8, 112(%rsp)
 2599      7008
 2600 27a1 4439BC24 		cmpl	%r15d, 1800(%rsp)
 2600      08070000 
 2601 27a9 0F8FBAF0 		jg	.L261
 2601      FFFF
 2602              	.L260:
 2603 27af 31DB     		xorl	%ebx, %ebx
 2604 27b1 85C0     		testl	%eax, %eax
 2605 27b3 7F1A     		jg	.L524
 2606 27b5 E9C80000 		jmp	.L267
 2606      00
 2607 27ba 660F1F44 		.p2align 4,,10
 2607      0000
 2608              		.p2align 3
 2609              	.L262:
 2610 27c0 8D5301   		leal	1(%rbx), %edx
 2611 27c3 4883C301 		addq	$1, %rbx
 2612 27c7 39C2     		cmpl	%eax, %edx
 2613 27c9 0F8DB300 		jge	.L267
 2613      0000
 2614              	.L524:
 2615 27cf 488B4C24 		movq	88(%rsp), %rcx
 2615      58
 2616 27d4 488B5108 		movq	8(%rcx), %rdx
 2617 27d8 803C1A00 		cmpb	$0, (%rdx,%rbx)
 2618 27dc 75E2     		jne	.L262
 2619 27de 488B4C24 		movq	104(%rsp), %rcx
 2619      68
 2620 27e3 F20F1074 		movsd	96(%rsp), %xmm6
 2620      2460
GAS LISTING /tmp/cce5yULP.s 			page 73


 2621 27e9 488DBC24 		leaq	1360(%rsp), %rdi
 2621      50050000 
 2622 27f1 4C8D24DD 		leaq	0(,%rbx,8), %r12
 2622      00000000 
 2623 27f9 488B5118 		movq	24(%rcx), %rdx
 2624 27fd 488B4110 		movq	16(%rcx), %rax
 2625 2801 488B4908 		movq	8(%rcx), %rcx
 2626 2805 F20F1024 		movsd	(%rdx,%rbx,8), %xmm4
 2626      DA
 2627 280a 488B9424 		movq	1056(%rsp), %rdx
 2627      20040000 
 2628 2812 F20F1004 		movsd	(%rcx,%rbx,8), %xmm0
 2628      D9
 2629 2817 488B8C24 		movq	1064(%rsp), %rcx
 2629      28040000 
 2630 281f F20F1014 		movsd	(%rax,%rbx,8), %xmm2
 2630      D8
 2631 2824 488B8424 		movq	1048(%rsp), %rax
 2631      18040000 
 2632 282c F20F101C 		movsd	(%rdx,%rbx,8), %xmm3
 2632      DA
 2633 2831 F20F102C 		movsd	(%rcx,%rbx,8), %xmm5
 2633      D9
 2634 2836 F20F100C 		movsd	(%rax,%rbx,8), %xmm1
 2634      D8
 2635 283b E8000000 		call	_ZN9residuals27add_ansys_l2_norm_residualsEddddddd
 2635      00
 2636 2840 488B8424 		movq	968(%rsp), %rax
 2636      C8030000 
 2637 2848 F20F1004 		movsd	(%rax,%rbx,8), %xmm0
 2637      D8
 2638 284d 660F2EC0 		ucomisd	%xmm0, %xmm0
 2639 2851 0F8A5307 		jp	.L638
 2639      0000
 2640 2857 488B8424 		movq	976(%rsp), %rax
 2640      D0030000 
 2641 285f F2420F10 		movsd	(%rax,%r12), %xmm0
 2641      0420
 2642 2865 660F2EC0 		ucomisd	%xmm0, %xmm0
 2643 2869 0F8A3B07 		jp	.L638
 2643      0000
 2644 286f 418B4610 		movl	16(%r14), %eax
 2645 2873 8D5301   		leal	1(%rbx), %edx
 2646 2876 4883C301 		addq	$1, %rbx
 2647 287a 39C2     		cmpl	%eax, %edx
 2648 287c 0F8C4DFF 		jl	.L524
 2648      FFFF
 2649              	.L267:
 2650 2882 8B74247C 		movl	124(%rsp), %esi
 2651 2886 488DBC24 		leaq	1360(%rsp), %rdi
 2651      50050000 
 2652 288e E8000000 		call	_ZN9residuals16ansys_5_iter_rmsEi
 2652      00
 2653 2893 8B9424B8 		movl	3512(%rsp), %edx
 2653      0D0000
 2654 289a 85D2     		testl	%edx, %edx
 2655 289c 752E     		jne	.L268
GAS LISTING /tmp/cce5yULP.s 			page 74


 2656 289e 8B44247C 		movl	124(%rsp), %eax
 2657 28a2 BAD34D62 		movl	$274877907, %edx
 2657      10
 2658 28a7 8B4C247C 		movl	124(%rsp), %ecx
 2659 28ab F7EA     		imull	%edx
 2660 28ad 89D0     		movl	%edx, %eax
 2661 28af 89CA     		movl	%ecx, %edx
 2662 28b1 C1FA1F   		sarl	$31, %edx
 2663 28b4 C1F806   		sarl	$6, %eax
 2664 28b7 29D0     		subl	%edx, %eax
 2665 28b9 89CA     		movl	%ecx, %edx
 2666 28bb 69C0E803 		imull	$1000, %eax, %eax
 2666      0000
 2667 28c1 29C2     		subl	%eax, %edx
 2668 28c3 83FA01   		cmpl	$1, %edx
 2669 28c6 0F84C004 		je	.L695
 2669      0000
 2670              	.L268:
 2671 28cc 488DBC24 		leaq	1360(%rsp), %rdi
 2671      50050000 
 2672 28d4 E8000000 		call	_ZN9residuals9max_errorEv
 2672      00
 2673 28d9 F20F109C 		movsd	152(%rsp), %xmm3
 2673      24980000 
 2673      00
 2674 28e2 660F2ED8 		ucomisd	%xmm0, %xmm3
 2675 28e6 0F87BE06 		ja	.L638
 2675      0000
 2676 28ec 8344247C 		addl	$1, 124(%rsp)
 2676      01
 2677 28f1 8B44247C 		movl	124(%rsp), %eax
 2678 28f5 3984248C 		cmpl	%eax, 140(%rsp)
 2678      000000
 2679 28fc 0F850EEF 		jne	.L278
 2679      FFFF
 2680              	.L277:
 2681 2902 488D8424 		leaq	2896(%rsp), %rax
 2681      500B0000 
 2682 290a 488D7808 		leaq	8(%rax), %rdi
 2683 290e E8000000 		call	_ZNSt13basic_filebufIcSt11char_traitsIcEE5closeEv
 2683      00
 2684              	.LEHE55:
 2685 2913 4885C0   		testq	%rax, %rax
 2686 2916 0F84990A 		je	.L696
 2686      0000
 2687              	.L281:
 2688 291c 488D9C24 		leaq	2608(%rsp), %rbx
 2688      300A0000 
 2689              	.L280:
 2690 2924 4883EB28 		subq	$40, %rbx
 2691 2928 488B03   		movq	(%rbx), %rax
 2692 292b 4889DF   		movq	%rbx, %rdi
 2693 292e FF10     		call	*(%rax)
 2694 2930 488D8424 		leaq	2448(%rsp), %rax
 2694      90090000 
 2695 2938 4839C3   		cmpq	%rax, %rbx
 2696 293b 75E7     		jne	.L280
GAS LISTING /tmp/cce5yULP.s 			page 75


 2697 293d 488D9C24 		leaq	2448(%rsp), %rbx
 2697      90090000 
 2698              	.L285:
 2699 2945 4883EB28 		subq	$40, %rbx
 2700 2949 488B03   		movq	(%rbx), %rax
 2701 294c 4889DF   		movq	%rbx, %rdi
 2702 294f FF10     		call	*(%rax)
 2703 2951 488D8424 		leaq	2288(%rsp), %rax
 2703      F0080000 
 2704 2959 4839C3   		cmpq	%rax, %rbx
 2705 295c 75E7     		jne	.L285
 2706 295e 488D9C24 		leaq	2288(%rsp), %rbx
 2706      F0080000 
 2707              	.L289:
 2708 2966 4883EB28 		subq	$40, %rbx
 2709 296a 488B03   		movq	(%rbx), %rax
 2710 296d 4889DF   		movq	%rbx, %rdi
 2711 2970 FF10     		call	*(%rax)
 2712 2972 488D8424 		leaq	2128(%rsp), %rax
 2712      50080000 
 2713 297a 4839C3   		cmpq	%rax, %rbx
 2714 297d 75E7     		jne	.L289
 2715 297f 488D9C24 		leaq	2128(%rsp), %rbx
 2715      50080000 
 2716              	.L293:
 2717 2987 4883EB28 		subq	$40, %rbx
 2718 298b 488B03   		movq	(%rbx), %rax
 2719 298e 4889DF   		movq	%rbx, %rdi
 2720 2991 FF10     		call	*(%rax)
 2721 2993 488D8424 		leaq	1968(%rsp), %rax
 2721      B0070000 
 2722 299b 4839C3   		cmpq	%rax, %rbx
 2723 299e 75E7     		jne	.L293
 2724 29a0 488D9C24 		leaq	1968(%rsp), %rbx
 2724      B0070000 
 2725              	.L297:
 2726 29a8 4883EB28 		subq	$40, %rbx
 2727 29ac 488B03   		movq	(%rbx), %rax
 2728 29af 4889DF   		movq	%rbx, %rdi
 2729 29b2 FF10     		call	*(%rax)
 2730 29b4 488D8424 		leaq	1808(%rsp), %rax
 2730      10070000 
 2731 29bc 4839C3   		cmpq	%rax, %rbx
 2732 29bf 75E7     		jne	.L297
 2733 29c1 488DBC24 		leaq	912(%rsp), %rdi
 2733      90030000 
 2734 29c9 E8000000 		call	_ZN8flux_varD1Ev
 2734      00
 2735 29ce 488DBC24 		leaq	864(%rsp), %rdi
 2735      60030000 
 2736 29d6 E8000000 		call	_ZN8flux_varD1Ev
 2736      00
 2737 29db 488DBC24 		leaq	816(%rsp), %rdi
 2737      30030000 
 2738 29e3 E8000000 		call	_ZN8flux_varD1Ev
 2738      00
 2739 29e8 488DBC24 		leaq	1360(%rsp), %rdi
GAS LISTING /tmp/cce5yULP.s 			page 76


 2739      50050000 
 2740 29f0 E8000000 		call	_ZN9residualsD1Ev
 2740      00
 2741 29f5 488BAC24 		movq	200(%rsp), %rbp
 2741      C8000000 
 2742 29fd 488B9C24 		movq	192(%rsp), %rbx
 2742      C0000000 
 2743 2a05 4839DD   		cmpq	%rbx, %rbp
 2744 2a08 7424     		je	.L300
 2745              	.L302:
 2746 2a0a 488B03   		movq	(%rbx), %rax
 2747 2a0d 488B00   		movq	(%rax), %rax
 2748 2a10 483D0000 		cmpq	$_ZN10vector_varD2Ev, %rax
 2748      0000
 2749 2a16 7405     		je	.L301
 2750 2a18 4889DF   		movq	%rbx, %rdi
 2751 2a1b FFD0     		call	*%rax
 2752              	.L301:
 2753 2a1d 4883C320 		addq	$32, %rbx
 2754 2a21 4839DD   		cmpq	%rbx, %rbp
 2755 2a24 75E4     		jne	.L302
 2756 2a26 488BAC24 		movq	192(%rsp), %rbp
 2756      C0000000 
 2757              	.L300:
 2758 2a2e 4885ED   		testq	%rbp, %rbp
 2759 2a31 7408     		je	.L303
 2760 2a33 4889EF   		movq	%rbp, %rdi
 2761 2a36 E8000000 		call	_ZdlPv
 2761      00
 2762              	.L303:
 2763 2a3b 488B8424 		movq	2864(%rsp), %rax
 2763      300B0000 
 2764 2a43 488B00   		movq	(%rax), %rax
 2765 2a46 483D0000 		cmpq	$_ZN10vector_varD2Ev, %rax
 2765      0000
 2766 2a4c 740A     		je	.L305
 2767 2a4e 488DBC24 		leaq	2864(%rsp), %rdi
 2767      300B0000 
 2768 2a56 FFD0     		call	*%rax
 2769              	.L305:
 2770 2a58 488B8424 		movq	2832(%rsp), %rax
 2770      100B0000 
 2771 2a60 488B00   		movq	(%rax), %rax
 2772 2a63 483D0000 		cmpq	$_ZN10vector_varD2Ev, %rax
 2772      0000
 2773 2a69 740A     		je	.L307
 2774 2a6b 488DBC24 		leaq	2832(%rsp), %rdi
 2774      100B0000 
 2775 2a73 FFD0     		call	*%rax
 2776              	.L307:
 2777 2a75 488B8424 		movq	2800(%rsp), %rax
 2777      F00A0000 
 2778 2a7d 488B00   		movq	(%rax), %rax
 2779 2a80 483D0000 		cmpq	$_ZN10vector_varD2Ev, %rax
 2779      0000
 2780 2a86 740A     		je	.L309
 2781 2a88 488DBC24 		leaq	2800(%rsp), %rdi
GAS LISTING /tmp/cce5yULP.s 			page 77


 2781      F00A0000 
 2782 2a90 FFD0     		call	*%rax
 2783              	.L309:
 2784 2a92 488B8424 		movq	2768(%rsp), %rax
 2784      D00A0000 
 2785 2a9a 488B00   		movq	(%rax), %rax
 2786 2a9d 483D0000 		cmpq	$_ZN10vector_varD2Ev, %rax
 2786      0000
 2787 2aa3 740A     		je	.L311
 2788 2aa5 488DBC24 		leaq	2768(%rsp), %rdi
 2788      D00A0000 
 2789 2aad FFD0     		call	*%rax
 2790              	.L311:
 2791 2aaf 488B8424 		movq	2736(%rsp), %rax
 2791      B00A0000 
 2792 2ab7 488B00   		movq	(%rax), %rax
 2793 2aba 483D0000 		cmpq	$_ZN10vector_varD2Ev, %rax
 2793      0000
 2794 2ac0 740A     		je	.L313
 2795 2ac2 488DBC24 		leaq	2736(%rsp), %rdi
 2795      B00A0000 
 2796 2aca FFD0     		call	*%rax
 2797              	.L313:
 2798 2acc 488B8424 		movq	2704(%rsp), %rax
 2798      900A0000 
 2799 2ad4 488B00   		movq	(%rax), %rax
 2800 2ad7 483D0000 		cmpq	$_ZN10vector_varD2Ev, %rax
 2800      0000
 2801 2add 740A     		je	.L315
 2802 2adf 488DBC24 		leaq	2704(%rsp), %rdi
 2802      900A0000 
 2803 2ae7 FFD0     		call	*%rax
 2804              	.L315:
 2805 2ae9 488B8424 		movq	2672(%rsp), %rax
 2805      700A0000 
 2806 2af1 488B00   		movq	(%rax), %rax
 2807 2af4 483D0000 		cmpq	$_ZN10vector_varD2Ev, %rax
 2807      0000
 2808 2afa 740A     		je	.L317
 2809 2afc 488DBC24 		leaq	2672(%rsp), %rdi
 2809      700A0000 
 2810 2b04 FFD0     		call	*%rax
 2811              	.L317:
 2812 2b06 488B8424 		movq	2640(%rsp), %rax
 2812      500A0000 
 2813 2b0e 488B00   		movq	(%rax), %rax
 2814 2b11 483D0000 		cmpq	$_ZN10vector_varD2Ev, %rax
 2814      0000
 2815 2b17 740A     		je	.L319
 2816 2b19 488DBC24 		leaq	2640(%rsp), %rdi
 2816      500A0000 
 2817 2b21 FFD0     		call	*%rax
 2818              	.L319:
 2819 2b23 488BBC24 		movq	1504(%rsp), %rdi
 2819      E0050000 
 2820 2b2b 488D8424 		leaq	1520(%rsp), %rax
 2820      F0050000 
GAS LISTING /tmp/cce5yULP.s 			page 78


 2821 2b33 4839C7   		cmpq	%rax, %rdi
 2822 2b36 7405     		je	.L321
 2823 2b38 E8000000 		call	_ZdlPv
 2823      00
 2824              	.L321:
 2825 2b3d 488DBC24 		leaq	2904(%rsp), %rdi
 2825      580B0000 
 2826 2b45 48C78424 		movq	$_ZTVSt14basic_ofstreamIcSt11char_traitsIcEE+24, 2896(%rsp)
 2826      500B0000 
 2826      00000000 
 2827 2b51 48C78424 		movq	$_ZTVSt14basic_ofstreamIcSt11char_traitsIcEE+64, 3144(%rsp)
 2827      480C0000 
 2827      00000000 
 2828 2b5d 48C78424 		movq	$_ZTVSt13basic_filebufIcSt11char_traitsIcEE+16, 2904(%rsp)
 2828      580B0000 
 2828      00000000 
 2829 2b69 E8000000 		call	_ZNSt13basic_filebufIcSt11char_traitsIcEE5closeEv
 2829      00
 2830 2b6e E9AA0600 		jmp	.L633
 2830      00
 2831              	.L422:
 2832              	.L626:
 2833 2b73 4889C3   		movq	%rax, %rbx
 2834              	.L239:
 2835 2b76 488DAC24 		leaq	2608(%rsp), %rbp
 2835      300A0000 
 2836              	.L362:
 2837 2b7e 4883ED28 		subq	$40, %rbp
 2838 2b82 488B4500 		movq	0(%rbp), %rax
 2839 2b86 4889EF   		movq	%rbp, %rdi
 2840 2b89 FF10     		call	*(%rax)
 2841 2b8b 488D8424 		leaq	2448(%rsp), %rax
 2841      90090000 
 2842 2b93 4839C5   		cmpq	%rax, %rbp
 2843 2b96 75E6     		jne	.L362
 2844 2b98 488DAC24 		leaq	2448(%rsp), %rbp
 2844      90090000 
 2845              	.L537:
 2846 2ba0 4883ED28 		subq	$40, %rbp
 2847 2ba4 488B4500 		movq	0(%rbp), %rax
 2848 2ba8 4889EF   		movq	%rbp, %rdi
 2849 2bab FF10     		call	*(%rax)
 2850 2bad 488D8424 		leaq	2288(%rsp), %rax
 2850      F0080000 
 2851 2bb5 4839C5   		cmpq	%rax, %rbp
 2852 2bb8 75E6     		jne	.L537
 2853 2bba 488DAC24 		leaq	2288(%rsp), %rbp
 2853      F0080000 
 2854              	.L538:
 2855 2bc2 4883ED28 		subq	$40, %rbp
 2856 2bc6 488B4500 		movq	0(%rbp), %rax
 2857 2bca 4889EF   		movq	%rbp, %rdi
 2858 2bcd FF10     		call	*(%rax)
 2859 2bcf 488D8424 		leaq	2128(%rsp), %rax
 2859      50080000 
 2860 2bd7 4839C5   		cmpq	%rax, %rbp
 2861 2bda 75E6     		jne	.L538
GAS LISTING /tmp/cce5yULP.s 			page 79


 2862 2bdc 488DAC24 		leaq	2128(%rsp), %rbp
 2862      50080000 
 2863              	.L539:
 2864 2be4 4883ED28 		subq	$40, %rbp
 2865 2be8 488B4500 		movq	0(%rbp), %rax
 2866 2bec 4889EF   		movq	%rbp, %rdi
 2867 2bef FF10     		call	*(%rax)
 2868 2bf1 488D8424 		leaq	1968(%rsp), %rax
 2868      B0070000 
 2869 2bf9 4839C5   		cmpq	%rax, %rbp
 2870 2bfc 75E6     		jne	.L539
 2871 2bfe 488DAC24 		leaq	1968(%rsp), %rbp
 2871      B0070000 
 2872              	.L540:
 2873 2c06 4883ED28 		subq	$40, %rbp
 2874 2c0a 488B4500 		movq	0(%rbp), %rax
 2875 2c0e 4889EF   		movq	%rbp, %rdi
 2876 2c11 FF10     		call	*(%rax)
 2877 2c13 488D8424 		leaq	1808(%rsp), %rax
 2877      10070000 
 2878 2c1b 4839C5   		cmpq	%rax, %rbp
 2879 2c1e 75E6     		jne	.L540
 2880              	.L351:
 2881 2c20 488DBC24 		leaq	912(%rsp), %rdi
 2881      90030000 
 2882 2c28 E8000000 		call	_ZN8flux_varD1Ev
 2882      00
 2883              	.L369:
 2884 2c2d 488DBC24 		leaq	864(%rsp), %rdi
 2884      60030000 
 2885 2c35 E8000000 		call	_ZN8flux_varD1Ev
 2885      00
 2886              	.L370:
 2887 2c3a 488DBC24 		leaq	816(%rsp), %rdi
 2887      30030000 
 2888 2c42 E8000000 		call	_ZN8flux_varD1Ev
 2888      00
 2889              	.L371:
 2890 2c47 488DBC24 		leaq	1360(%rsp), %rdi
 2890      50050000 
 2891 2c4f E8000000 		call	_ZN9residualsD1Ev
 2891      00
 2892              	.L372:
 2893 2c54 4C8BA424 		movq	200(%rsp), %r12
 2893      C8000000 
 2894 2c5c 488BAC24 		movq	192(%rsp), %rbp
 2894      C0000000 
 2895 2c64 4939EC   		cmpq	%rbp, %r12
 2896 2c67 7425     		je	.L373
 2897              	.L375:
 2898 2c69 488B4500 		movq	0(%rbp), %rax
 2899 2c6d 488B00   		movq	(%rax), %rax
 2900 2c70 483D0000 		cmpq	$_ZN10vector_varD2Ev, %rax
 2900      0000
 2901 2c76 7405     		je	.L374
 2902 2c78 4889EF   		movq	%rbp, %rdi
 2903 2c7b FFD0     		call	*%rax
GAS LISTING /tmp/cce5yULP.s 			page 80


 2904              	.L374:
 2905 2c7d 4883C520 		addq	$32, %rbp
 2906 2c81 4939EC   		cmpq	%rbp, %r12
 2907 2c84 75E3     		jne	.L375
 2908 2c86 4C8BA424 		movq	192(%rsp), %r12
 2908      C0000000 
 2909              	.L373:
 2910 2c8e 4D85E4   		testq	%r12, %r12
 2911 2c91 7408     		je	.L376
 2912 2c93 4C89E7   		movq	%r12, %rdi
 2913 2c96 E8000000 		call	_ZdlPv
 2913      00
 2914              	.L376:
 2915 2c9b 488B8424 		movq	2864(%rsp), %rax
 2915      300B0000 
 2916 2ca3 488B00   		movq	(%rax), %rax
 2917 2ca6 483D0000 		cmpq	$_ZN10vector_varD2Ev, %rax
 2917      0000
 2918 2cac 740A     		je	.L378
 2919 2cae 488DBC24 		leaq	2864(%rsp), %rdi
 2919      300B0000 
 2920 2cb6 FFD0     		call	*%rax
 2921              	.L378:
 2922 2cb8 488B8424 		movq	2832(%rsp), %rax
 2922      100B0000 
 2923 2cc0 488B00   		movq	(%rax), %rax
 2924 2cc3 483D0000 		cmpq	$_ZN10vector_varD2Ev, %rax
 2924      0000
 2925 2cc9 740A     		je	.L380
 2926 2ccb 488DBC24 		leaq	2832(%rsp), %rdi
 2926      100B0000 
 2927 2cd3 FFD0     		call	*%rax
 2928              	.L380:
 2929 2cd5 488B8424 		movq	2800(%rsp), %rax
 2929      F00A0000 
 2930 2cdd 488B00   		movq	(%rax), %rax
 2931 2ce0 483D0000 		cmpq	$_ZN10vector_varD2Ev, %rax
 2931      0000
 2932 2ce6 740A     		je	.L382
 2933 2ce8 488DBC24 		leaq	2800(%rsp), %rdi
 2933      F00A0000 
 2934 2cf0 FFD0     		call	*%rax
 2935              	.L382:
 2936 2cf2 488B8424 		movq	2768(%rsp), %rax
 2936      D00A0000 
 2937 2cfa 488B00   		movq	(%rax), %rax
 2938 2cfd 483D0000 		cmpq	$_ZN10vector_varD2Ev, %rax
 2938      0000
 2939 2d03 740A     		je	.L384
 2940 2d05 488DBC24 		leaq	2768(%rsp), %rdi
 2940      D00A0000 
 2941 2d0d FFD0     		call	*%rax
 2942              	.L384:
 2943 2d0f 488B8424 		movq	2736(%rsp), %rax
 2943      B00A0000 
 2944 2d17 488B00   		movq	(%rax), %rax
 2945 2d1a 483D0000 		cmpq	$_ZN10vector_varD2Ev, %rax
GAS LISTING /tmp/cce5yULP.s 			page 81


 2945      0000
 2946 2d20 740A     		je	.L386
 2947 2d22 488DBC24 		leaq	2736(%rsp), %rdi
 2947      B00A0000 
 2948 2d2a FFD0     		call	*%rax
 2949              	.L386:
 2950 2d2c 488B8424 		movq	2704(%rsp), %rax
 2950      900A0000 
 2951 2d34 488B00   		movq	(%rax), %rax
 2952 2d37 483D0000 		cmpq	$_ZN10vector_varD2Ev, %rax
 2952      0000
 2953 2d3d 740A     		je	.L388
 2954 2d3f 488DBC24 		leaq	2704(%rsp), %rdi
 2954      900A0000 
 2955 2d47 FFD0     		call	*%rax
 2956              	.L388:
 2957 2d49 488B8424 		movq	2672(%rsp), %rax
 2957      700A0000 
 2958 2d51 488B00   		movq	(%rax), %rax
 2959 2d54 483D0000 		cmpq	$_ZN10vector_varD2Ev, %rax
 2959      0000
 2960 2d5a 740A     		je	.L390
 2961 2d5c 488DBC24 		leaq	2672(%rsp), %rdi
 2961      700A0000 
 2962 2d64 FFD0     		call	*%rax
 2963              	.L390:
 2964 2d66 488B8424 		movq	2640(%rsp), %rax
 2964      500A0000 
 2965 2d6e 488B00   		movq	(%rax), %rax
 2966 2d71 483D0000 		cmpq	$_ZN10vector_varD2Ev, %rax
 2966      0000
 2967 2d77 0F8477E8 		je	.L155
 2967      FFFF
 2968 2d7d 488DBC24 		leaq	2640(%rsp), %rdi
 2968      500A0000 
 2969 2d85 FFD0     		call	*%rax
 2970 2d87 E968E8FF 		jmp	.L155
 2970      FF
 2971              	.L695:
 2972 2d8c 660FEFC0 		pxor	%xmm0, %xmm0
 2973 2d90 488DBC24 		leaq	1360(%rsp), %rdi
 2973      50050000 
 2974 2d98 F20F109C 		movsd	1384(%rsp), %xmm3
 2974      24680500 
 2974      00
 2975 2da1 89CB     		movl	%ecx, %ebx
 2976 2da3 F20F10A4 		movsd	1376(%rsp), %xmm4
 2976      24600500 
 2976      00
 2977 2dac F20F2AC1 		cvtsi2sd	%ecx, %xmm0
 2978 2db0 F20F10B4 		movsd	1368(%rsp), %xmm6
 2978      24580500 
 2978      00
 2979 2db9 F20F115C 		movsd	%xmm3, 8(%rsp)
 2979      2408
 2980 2dbf F20F1164 		movsd	%xmm4, 16(%rsp)
 2980      2410
GAS LISTING /tmp/cce5yULP.s 			page 82


 2981 2dc5 F20F1174 		movsd	%xmm6, 24(%rsp)
 2981      2418
 2982 2dcb F20F5944 		mulsd	96(%rsp), %xmm0
 2982      2460
 2983 2dd1 F20F1104 		movsd	%xmm0, (%rsp)
 2983      24
 2984              	.LEHB56:
 2985 2dd6 E8000000 		call	_ZN9residuals9max_errorEv
 2985      00
 2986 2ddb 488DBC24 		leaq	2896(%rsp), %rdi
 2986      500B0000 
 2987 2de3 89DE     		movl	%ebx, %esi
 2988 2de5 F20F1144 		movsd	%xmm0, 32(%rsp)
 2988      2420
 2989 2deb E8000000 		call	_ZNSolsEi
 2989      00
 2990 2df0 BA020000 		movl	$2, %edx
 2990      00
 2991 2df5 BE000000 		movl	$.LC35, %esi
 2991      00
 2992 2dfa 4889C7   		movq	%rax, %rdi
 2993 2dfd 4889C3   		movq	%rax, %rbx
 2994 2e00 E8000000 		call	_ZSt16__ostream_insertIcSt11char_traitsIcEERSt13basic_ostreamIT_T0_ES6_PKS3_l
 2994      00
 2995 2e05 F20F1044 		movsd	32(%rsp), %xmm0
 2995      2420
 2996 2e0b 4889DF   		movq	%rbx, %rdi
 2997 2e0e E8000000 		call	_ZNSo9_M_insertIdEERSoT_
 2997      00
 2998 2e13 BA020000 		movl	$2, %edx
 2998      00
 2999 2e18 BE000000 		movl	$.LC35, %esi
 2999      00
 3000 2e1d 4889C7   		movq	%rax, %rdi
 3001 2e20 4889C3   		movq	%rax, %rbx
 3002 2e23 E8000000 		call	_ZSt16__ostream_insertIcSt11char_traitsIcEERSt13basic_ostreamIT_T0_ES6_PKS3_l
 3002      00
 3003 2e28 F20F1044 		movsd	24(%rsp), %xmm0
 3003      2418
 3004 2e2e 4889DF   		movq	%rbx, %rdi
 3005 2e31 E8000000 		call	_ZNSo9_M_insertIdEERSoT_
 3005      00
 3006 2e36 BA020000 		movl	$2, %edx
 3006      00
 3007 2e3b BE000000 		movl	$.LC35, %esi
 3007      00
 3008 2e40 4889C7   		movq	%rax, %rdi
 3009 2e43 4889C3   		movq	%rax, %rbx
 3010 2e46 E8000000 		call	_ZSt16__ostream_insertIcSt11char_traitsIcEERSt13basic_ostreamIT_T0_ES6_PKS3_l
 3010      00
 3011 2e4b F20F1044 		movsd	16(%rsp), %xmm0
 3011      2410
 3012 2e51 4889DF   		movq	%rbx, %rdi
 3013 2e54 E8000000 		call	_ZNSo9_M_insertIdEERSoT_
 3013      00
 3014 2e59 BA020000 		movl	$2, %edx
 3014      00
GAS LISTING /tmp/cce5yULP.s 			page 83


 3015 2e5e BE000000 		movl	$.LC35, %esi
 3015      00
 3016 2e63 4889C7   		movq	%rax, %rdi
 3017 2e66 4889C3   		movq	%rax, %rbx
 3018 2e69 E8000000 		call	_ZSt16__ostream_insertIcSt11char_traitsIcEERSt13basic_ostreamIT_T0_ES6_PKS3_l
 3018      00
 3019 2e6e F20F1044 		movsd	8(%rsp), %xmm0
 3019      2408
 3020 2e74 4889DF   		movq	%rbx, %rdi
 3021 2e77 E8000000 		call	_ZNSo9_M_insertIdEERSoT_
 3021      00
 3022 2e7c BA0E0000 		movl	$14, %edx
 3022      00
 3023 2e81 BE000000 		movl	$.LC36, %esi
 3023      00
 3024 2e86 4889C7   		movq	%rax, %rdi
 3025 2e89 4889C3   		movq	%rax, %rbx
 3026 2e8c E8000000 		call	_ZSt16__ostream_insertIcSt11char_traitsIcEERSt13basic_ostreamIT_T0_ES6_PKS3_l
 3026      00
 3027 2e91 8BB424C8 		movl	3528(%rsp), %esi
 3027      0D0000
 3028 2e98 4889DF   		movq	%rbx, %rdi
 3029 2e9b E8000000 		call	_ZNSolsEi
 3029      00
 3030 2ea0 4989C4   		movq	%rax, %r12
 3031 2ea3 488B00   		movq	(%rax), %rax
 3032 2ea6 488B40E8 		movq	-24(%rax), %rax
 3033 2eaa 498B9C04 		movq	240(%r12,%rax), %rbx
 3033      F0000000 
 3034 2eb2 4885DB   		testq	%rbx, %rbx
 3035 2eb5 0F84D704 		je	.L697
 3035      0000
 3036 2ebb 807B3800 		cmpb	$0, 56(%rbx)
 3037 2ebf 0F84A004 		je	.L270
 3037      0000
 3038 2ec5 0FBE7343 		movsbl	67(%rbx), %esi
 3039              	.L271:
 3040 2ec9 4C89E7   		movq	%r12, %rdi
 3041 2ecc E8000000 		call	_ZNSo3putEc
 3041      00
 3042 2ed1 4889C7   		movq	%rax, %rdi
 3043 2ed4 E8000000 		call	_ZNSo5flushEv
 3043      00
 3044 2ed9 488DBC24 		leaq	1360(%rsp), %rdi
 3044      50050000 
 3045 2ee1 E8000000 		call	_ZN9residuals9max_errorEv
 3045      00
 3046 2ee6 BA070000 		movl	$7, %edx
 3046      00
 3047 2eeb BE000000 		movl	$.LC37, %esi
 3047      00
 3048 2ef0 BF000000 		movl	$_ZSt4cout, %edi
 3048      00
 3049 2ef5 F20F1144 		movsd	%xmm0, 8(%rsp)
 3049      2408
 3050 2efb E8000000 		call	_ZSt16__ostream_insertIcSt11char_traitsIcEERSt13basic_ostreamIT_T0_ES6_PKS3_l
 3050      00
GAS LISTING /tmp/cce5yULP.s 			page 84


 3051 2f00 F20F1004 		movsd	(%rsp), %xmm0
 3051      24
 3052 2f05 BF000000 		movl	$_ZSt4cout, %edi
 3052      00
 3053 2f0a E8000000 		call	_ZNSo9_M_insertIdEERSoT_
 3053      00
 3054 2f0f BA0A0000 		movl	$10, %edx
 3054      00
 3055 2f14 BE000000 		movl	$.LC38, %esi
 3055      00
 3056 2f19 4889C7   		movq	%rax, %rdi
 3057 2f1c 4889C3   		movq	%rax, %rbx
 3058 2f1f E8000000 		call	_ZSt16__ostream_insertIcSt11char_traitsIcEERSt13basic_ostreamIT_T0_ES6_PKS3_l
 3058      00
 3059 2f24 F20F1044 		movsd	8(%rsp), %xmm0
 3059      2408
 3060 2f2a 4889DF   		movq	%rbx, %rdi
 3061 2f2d E8000000 		call	_ZNSo9_M_insertIdEERSoT_
 3061      00
 3062 2f32 4989C4   		movq	%rax, %r12
 3063 2f35 488B00   		movq	(%rax), %rax
 3064 2f38 488B40E8 		movq	-24(%rax), %rax
 3065 2f3c 498B9C04 		movq	240(%r12,%rax), %rbx
 3065      F0000000 
 3066 2f44 4885DB   		testq	%rbx, %rbx
 3067 2f47 0F844A04 		je	.L698
 3067      0000
 3068 2f4d 807B3800 		cmpb	$0, 56(%rbx)
 3069 2f51 0F84E103 		je	.L273
 3069      0000
 3070 2f57 0FBE7343 		movsbl	67(%rbx), %esi
 3071              	.L274:
 3072 2f5b 4C89E7   		movq	%r12, %rdi
 3073 2f5e E8000000 		call	_ZNSo3putEc
 3073      00
 3074 2f63 4889C7   		movq	%rax, %rdi
 3075 2f66 E8000000 		call	_ZNSo5flushEv
 3075      00
 3076 2f6b 4C8B4424 		movq	88(%rsp), %r8
 3076      58
 3077 2f70 488B4C24 		movq	104(%rsp), %rcx
 3077      68
 3078 2f75 488DBC24 		leaq	736(%rsp), %rdi
 3078      E0020000 
 3079 2f7d 488BB424 		movq	128(%rsp), %rsi
 3079      80000000 
 3080 2f85 F20F1004 		movsd	(%rsp), %xmm0
 3080      24
 3081 2f8a 41B90200 		movl	$2, %r9d
 3081      0000
 3082 2f90 4C89F2   		movq	%r14, %rdx
 3083 2f93 E8000000 		call	_ZN14tecplot_outputC1ER16global_variablesR4MeshR8SolutionR19Boundary_Conditionsid
 3083      00
 3084              	.LEHE56:
 3085 2f98 488DBC24 		leaq	736(%rsp), %rdi
 3085      E0020000 
 3086 2fa0 E8000000 		call	_ZN14tecplot_outputD1Ev
GAS LISTING /tmp/cce5yULP.s 			page 85


 3086      00
 3087 2fa5 E922F9FF 		jmp	.L268
 3087      FF
 3088              	.L638:
 3089 2faa 8B8424B8 		movl	3512(%rsp), %eax
 3089      0D0000
 3090 2fb1 85C0     		testl	%eax, %eax
 3091 2fb3 0F844103 		je	.L699
 3091      0000
 3092              	.L265:
 3093 2fb9 488D9C24 		leaq	2608(%rsp), %rbx
 3093      300A0000 
 3094              	.L264:
 3095 2fc1 4883EB28 		subq	$40, %rbx
 3096 2fc5 488B03   		movq	(%rbx), %rax
 3097 2fc8 4889DF   		movq	%rbx, %rdi
 3098 2fcb FF10     		call	*(%rax)
 3099 2fcd 488D8424 		leaq	2448(%rsp), %rax
 3099      90090000 
 3100 2fd5 4839C3   		cmpq	%rax, %rbx
 3101 2fd8 75E7     		jne	.L264
 3102 2fda 488D9C24 		leaq	2448(%rsp), %rbx
 3102      90090000 
 3103              	.L287:
 3104 2fe2 4883EB28 		subq	$40, %rbx
 3105 2fe6 488B03   		movq	(%rbx), %rax
 3106 2fe9 4889DF   		movq	%rbx, %rdi
 3107 2fec FF10     		call	*(%rax)
 3108 2fee 488D8424 		leaq	2288(%rsp), %rax
 3108      F0080000 
 3109 2ff6 4839C3   		cmpq	%rax, %rbx
 3110 2ff9 75E7     		jne	.L287
 3111 2ffb 488D9C24 		leaq	2288(%rsp), %rbx
 3111      F0080000 
 3112              	.L291:
 3113 3003 4883EB28 		subq	$40, %rbx
 3114 3007 488B03   		movq	(%rbx), %rax
 3115 300a 4889DF   		movq	%rbx, %rdi
 3116 300d FF10     		call	*(%rax)
 3117 300f 488D8424 		leaq	2128(%rsp), %rax
 3117      50080000 
 3118 3017 4839C3   		cmpq	%rax, %rbx
 3119 301a 75E7     		jne	.L291
 3120 301c 488D9C24 		leaq	2128(%rsp), %rbx
 3120      50080000 
 3121              	.L295:
 3122 3024 4883EB28 		subq	$40, %rbx
 3123 3028 488B03   		movq	(%rbx), %rax
 3124 302b 4889DF   		movq	%rbx, %rdi
 3125 302e FF10     		call	*(%rax)
 3126 3030 488D8424 		leaq	1968(%rsp), %rax
 3126      B0070000 
 3127 3038 4839C3   		cmpq	%rax, %rbx
 3128 303b 75E7     		jne	.L295
 3129 303d 488D9C24 		leaq	1968(%rsp), %rbx
 3129      B0070000 
 3130              	.L299:
GAS LISTING /tmp/cce5yULP.s 			page 86


 3131 3045 4883EB28 		subq	$40, %rbx
 3132 3049 488B03   		movq	(%rbx), %rax
 3133 304c 4889DF   		movq	%rbx, %rdi
 3134 304f FF10     		call	*(%rax)
 3135 3051 488D8424 		leaq	1808(%rsp), %rax
 3135      10070000 
 3136 3059 4839C3   		cmpq	%rax, %rbx
 3137 305c 75E7     		jne	.L299
 3138 305e 488DBC24 		leaq	912(%rsp), %rdi
 3138      90030000 
 3139 3066 E8000000 		call	_ZN8flux_varD1Ev
 3139      00
 3140 306b 488DBC24 		leaq	864(%rsp), %rdi
 3140      60030000 
 3141 3073 E8000000 		call	_ZN8flux_varD1Ev
 3141      00
 3142 3078 488DBC24 		leaq	816(%rsp), %rdi
 3142      30030000 
 3143 3080 E8000000 		call	_ZN8flux_varD1Ev
 3143      00
 3144 3085 488DBC24 		leaq	1360(%rsp), %rdi
 3144      50050000 
 3145 308d E8000000 		call	_ZN9residualsD1Ev
 3145      00
 3146 3092 488BAC24 		movq	200(%rsp), %rbp
 3146      C8000000 
 3147 309a 488B9C24 		movq	192(%rsp), %rbx
 3147      C0000000 
 3148 30a2 4839DD   		cmpq	%rbx, %rbp
 3149 30a5 7512     		jne	.L324
 3150 30a7 EB34     		jmp	.L322
 3151 30a9 0F1F8000 		.p2align 4,,10
 3151      000000
 3152              		.p2align 3
 3153              	.L323:
 3154 30b0 4883C320 		addq	$32, %rbx
 3155 30b4 4839DD   		cmpq	%rbx, %rbp
 3156 30b7 741C     		je	.L700
 3157              	.L324:
 3158 30b9 488B03   		movq	(%rbx), %rax
 3159 30bc 488B00   		movq	(%rax), %rax
 3160 30bf 483D0000 		cmpq	$_ZN10vector_varD2Ev, %rax
 3160      0000
 3161 30c5 74E9     		je	.L323
 3162 30c7 4889DF   		movq	%rbx, %rdi
 3163 30ca 4883C320 		addq	$32, %rbx
 3164 30ce FFD0     		call	*%rax
 3165 30d0 4839DD   		cmpq	%rbx, %rbp
 3166 30d3 75E4     		jne	.L324
 3167              	.L700:
 3168 30d5 488BAC24 		movq	192(%rsp), %rbp
 3168      C0000000 
 3169              	.L322:
 3170 30dd 4885ED   		testq	%rbp, %rbp
 3171 30e0 7408     		je	.L325
 3172 30e2 4889EF   		movq	%rbp, %rdi
 3173 30e5 E8000000 		call	_ZdlPv
GAS LISTING /tmp/cce5yULP.s 			page 87


 3173      00
 3174              	.L325:
 3175 30ea 488B8424 		movq	2864(%rsp), %rax
 3175      300B0000 
 3176 30f2 488B00   		movq	(%rax), %rax
 3177 30f5 483D0000 		cmpq	$_ZN10vector_varD2Ev, %rax
 3177      0000
 3178 30fb 740A     		je	.L327
 3179 30fd 488DBC24 		leaq	2864(%rsp), %rdi
 3179      300B0000 
 3180 3105 FFD0     		call	*%rax
 3181              	.L327:
 3182 3107 488B8424 		movq	2832(%rsp), %rax
 3182      100B0000 
 3183 310f 488B00   		movq	(%rax), %rax
 3184 3112 483D0000 		cmpq	$_ZN10vector_varD2Ev, %rax
 3184      0000
 3185 3118 740A     		je	.L329
 3186 311a 488DBC24 		leaq	2832(%rsp), %rdi
 3186      100B0000 
 3187 3122 FFD0     		call	*%rax
 3188              	.L329:
 3189 3124 488B8424 		movq	2800(%rsp), %rax
 3189      F00A0000 
 3190 312c 488B00   		movq	(%rax), %rax
 3191 312f 483D0000 		cmpq	$_ZN10vector_varD2Ev, %rax
 3191      0000
 3192 3135 740A     		je	.L331
 3193 3137 488DBC24 		leaq	2800(%rsp), %rdi
 3193      F00A0000 
 3194 313f FFD0     		call	*%rax
 3195              	.L331:
 3196 3141 488B8424 		movq	2768(%rsp), %rax
 3196      D00A0000 
 3197 3149 488B00   		movq	(%rax), %rax
 3198 314c 483D0000 		cmpq	$_ZN10vector_varD2Ev, %rax
 3198      0000
 3199 3152 740A     		je	.L333
 3200 3154 488DBC24 		leaq	2768(%rsp), %rdi
 3200      D00A0000 
 3201 315c FFD0     		call	*%rax
 3202              	.L333:
 3203 315e 488B8424 		movq	2736(%rsp), %rax
 3203      B00A0000 
 3204 3166 488B00   		movq	(%rax), %rax
 3205 3169 483D0000 		cmpq	$_ZN10vector_varD2Ev, %rax
 3205      0000
 3206 316f 740A     		je	.L335
 3207 3171 488DBC24 		leaq	2736(%rsp), %rdi
 3207      B00A0000 
 3208 3179 FFD0     		call	*%rax
 3209              	.L335:
 3210 317b 488B8424 		movq	2704(%rsp), %rax
 3210      900A0000 
 3211 3183 488B00   		movq	(%rax), %rax
 3212 3186 483D0000 		cmpq	$_ZN10vector_varD2Ev, %rax
 3212      0000
GAS LISTING /tmp/cce5yULP.s 			page 88


 3213 318c 740A     		je	.L337
 3214 318e 488DBC24 		leaq	2704(%rsp), %rdi
 3214      900A0000 
 3215 3196 FFD0     		call	*%rax
 3216              	.L337:
 3217 3198 488B8424 		movq	2672(%rsp), %rax
 3217      700A0000 
 3218 31a0 488B00   		movq	(%rax), %rax
 3219 31a3 483D0000 		cmpq	$_ZN10vector_varD2Ev, %rax
 3219      0000
 3220 31a9 740A     		je	.L339
 3221 31ab 488DBC24 		leaq	2672(%rsp), %rdi
 3221      700A0000 
 3222 31b3 FFD0     		call	*%rax
 3223              	.L339:
 3224 31b5 488B8424 		movq	2640(%rsp), %rax
 3224      500A0000 
 3225 31bd 488B00   		movq	(%rax), %rax
 3226 31c0 483D0000 		cmpq	$_ZN10vector_varD2Ev, %rax
 3226      0000
 3227 31c6 740A     		je	.L341
 3228 31c8 488DBC24 		leaq	2640(%rsp), %rdi
 3228      500A0000 
 3229 31d0 FFD0     		call	*%rax
 3230              	.L341:
 3231 31d2 488BBC24 		movq	1504(%rsp), %rdi
 3231      E0050000 
 3232 31da 488D8424 		leaq	1520(%rsp), %rax
 3232      F0050000 
 3233 31e2 4839C7   		cmpq	%rax, %rdi
 3234 31e5 7405     		je	.L343
 3235 31e7 E8000000 		call	_ZdlPv
 3235      00
 3236              	.L343:
 3237 31ec 488DBC24 		leaq	2904(%rsp), %rdi
 3237      580B0000 
 3238 31f4 48C78424 		movq	$_ZTVSt14basic_ofstreamIcSt11char_traitsIcEE+24, 2896(%rsp)
 3238      500B0000 
 3238      00000000 
 3239 3200 48C78424 		movq	$_ZTVSt14basic_ofstreamIcSt11char_traitsIcEE+64, 3144(%rsp)
 3239      480C0000 
 3239      00000000 
 3240 320c 48C78424 		movq	$_ZTVSt13basic_filebufIcSt11char_traitsIcEE+16, 2904(%rsp)
 3240      580B0000 
 3240      00000000 
 3241 3218 E8000000 		call	_ZNSt13basic_filebufIcSt11char_traitsIcEE5closeEv
 3241      00
 3242              	.L633:
 3243 321d 488DBC24 		leaq	3008(%rsp), %rdi
 3243      C00B0000 
 3244 3225 E8000000 		call	_ZNSt12__basic_fileIcED1Ev
 3244      00
 3245 322a 488DBC24 		leaq	2960(%rsp), %rdi
 3245      900B0000 
 3246 3232 48C78424 		movq	$_ZTVSt15basic_streambufIcSt11char_traitsIcEE+16, 2904(%rsp)
 3246      580B0000 
 3246      00000000 
GAS LISTING /tmp/cce5yULP.s 			page 89


 3247 323e E8000000 		call	_ZNSt6localeD1Ev
 3247      00
 3248 3243 488B0500 		movq	_ZTTSt14basic_ofstreamIcSt11char_traitsIcEE+8(%rip), %rax
 3248      000000
 3249 324a 488B0D00 		movq	_ZTTSt14basic_ofstreamIcSt11char_traitsIcEE+16(%rip), %rcx
 3249      000000
 3250 3251 488DBC24 		leaq	3144(%rsp), %rdi
 3250      480C0000 
 3251 3259 488B40E8 		movq	-24(%rax), %rax
 3252 325d 48898C04 		movq	%rcx, 2896(%rsp,%rax)
 3252      500B0000 
 3253 3265 48C78424 		movq	$_ZTVSt9basic_iosIcSt11char_traitsIcEE+16, 3144(%rsp)
 3253      480C0000 
 3253      00000000 
 3254 3271 E8000000 		call	_ZNSt8ios_baseD2Ev
 3254      00
 3255 3276 488DBC24 		leaq	768(%rsp), %rdi
 3255      00030000 
 3256 327e E8000000 		call	_ZN8flux_varD1Ev
 3256      00
 3257 3283 488DBC24 		leaq	1280(%rsp), %rdi
 3257      00050000 
 3258 328b E8000000 		call	_ZN8SolutionD1Ev
 3258      00
 3259 3290 488DBC24 		leaq	1200(%rsp), %rdi
 3259      B0040000 
 3260 3298 E8000000 		call	_ZN8SolutionD1Ev
 3260      00
 3261 329d 488DBC24 		leaq	1120(%rsp), %rdi
 3261      60040000 
 3262 32a5 E8000000 		call	_ZN8SolutionD1Ev
 3262      00
 3263 32aa 488DBC24 		leaq	1040(%rsp), %rdi
 3263      10040000 
 3264 32b2 E8000000 		call	_ZN8SolutionD1Ev
 3264      00
 3265 32b7 488DBC24 		leaq	960(%rsp), %rdi
 3265      C0030000 
 3266 32bf E8000000 		call	_ZN8SolutionD1Ev
 3266      00
 3267 32c4 488DBC24 		leaq	1728(%rsp), %rdi
 3267      C0060000 
 3268 32cc E8000000 		call	_ZN10RungeKuttaD1Ev
 3268      00
 3269 32d1 488B8424 		movq	3416(%rsp), %rax
 3269      580D0000 
 3270 32d9 64483304 		xorq	%fs:40, %rax
 3270      25280000 
 3270      00
 3271 32e2 0F85B400 		jne	.L701
 3271      0000
 3272 32e8 4881C468 		addq	$3432, %rsp
 3272      0D0000
 3273              		.cfi_remember_state
 3274              		.cfi_def_cfa_offset 56
 3275 32ef 5B       		popq	%rbx
 3276              		.cfi_def_cfa_offset 48
GAS LISTING /tmp/cce5yULP.s 			page 90


 3277 32f0 5D       		popq	%rbp
 3278              		.cfi_def_cfa_offset 40
 3279 32f1 415C     		popq	%r12
 3280              		.cfi_def_cfa_offset 32
 3281 32f3 415D     		popq	%r13
 3282              		.cfi_def_cfa_offset 24
 3283 32f5 415E     		popq	%r14
 3284              		.cfi_def_cfa_offset 16
 3285 32f7 415F     		popq	%r15
 3286              		.cfi_def_cfa_offset 8
 3287 32f9 C3       		ret
 3288              	.L699:
 3289              		.cfi_restore_state
 3290 32fa 488D8424 		leaq	2896(%rsp), %rax
 3290      500B0000 
 3291 3302 488D7808 		leaq	8(%rax), %rdi
 3292              	.LEHB57:
 3293 3306 E8000000 		call	_ZNSt13basic_filebufIcSt11char_traitsIcEE5closeEv
 3293      00
 3294 330b 4885C0   		testq	%rax, %rax
 3295 330e 0F85A5FC 		jne	.L265
 3295      FFFF
 3296 3314 488B8424 		movq	2896(%rsp), %rax
 3296      500B0000 
 3297 331c 488DBC24 		leaq	2896(%rsp), %rdi
 3297      500B0000 
 3298 3324 480378E8 		addq	-24(%rax), %rdi
 3299 3328 8B7720   		movl	32(%rdi), %esi
 3300 332b 83CE04   		orl	$4, %esi
 3301 332e E8000000 		call	_ZNSt9basic_iosIcSt11char_traitsIcEE5clearESt12_Ios_Iostate
 3301      00
 3302 3333 E981FCFF 		jmp	.L265
 3302      FF
 3303              	.L273:
 3304 3338 4889DF   		movq	%rbx, %rdi
 3305 333b E8000000 		call	_ZNKSt5ctypeIcE13_M_widen_initEv
 3305      00
 3306 3340 488B03   		movq	(%rbx), %rax
 3307 3343 BE0A0000 		movl	$10, %esi
 3307      00
 3308 3348 488B4030 		movq	48(%rax), %rax
 3309 334c 483D0000 		cmpq	$_ZNKSt5ctypeIcE8do_widenEc, %rax
 3309      0000
 3310 3352 0F8403FC 		je	.L274
 3310      FFFF
 3311 3358 4889DF   		movq	%rbx, %rdi
 3312 335b FFD0     		call	*%rax
 3313 335d 0FBEF0   		movsbl	%al, %esi
 3314 3360 E9F6FBFF 		jmp	.L274
 3314      FF
 3315              	.L270:
 3316 3365 4889DF   		movq	%rbx, %rdi
 3317 3368 E8000000 		call	_ZNKSt5ctypeIcE13_M_widen_initEv
 3317      00
 3318 336d 488B03   		movq	(%rbx), %rax
 3319 3370 BE0A0000 		movl	$10, %esi
 3319      00
GAS LISTING /tmp/cce5yULP.s 			page 91


 3320 3375 488B4030 		movq	48(%rax), %rax
 3321 3379 483D0000 		cmpq	$_ZNKSt5ctypeIcE8do_widenEc, %rax
 3321      0000
 3322 337f 0F8444FB 		je	.L271
 3322      FFFF
 3323 3385 4889DF   		movq	%rbx, %rdi
 3324 3388 FFD0     		call	*%rax
 3325 338a 0FBEF0   		movsbl	%al, %esi
 3326 338d E937FBFF 		jmp	.L271
 3326      FF
 3327              	.L697:
 3328 3392 E8000000 		call	_ZSt16__throw_bad_castv
 3328      00
 3329              	.L698:
 3330 3397 E8000000 		call	_ZSt16__throw_bad_castv
 3330      00
 3331              	.L701:
 3332 339c E8000000 		call	__stack_chk_fail
 3332      00
 3333              	.L691:
 3334 33a1 480378E8 		addq	-24(%rax), %rdi
 3335 33a5 8B7720   		movl	32(%rdi), %esi
 3336 33a8 83CE04   		orl	$4, %esi
 3337 33ab E8000000 		call	_ZNSt9basic_iosIcSt11char_traitsIcEE5clearESt12_Ios_Iostate
 3337      00
 3338 33b0 E91BE4FF 		jmp	.L242
 3338      FF
 3339              	.L696:
 3340 33b5 488B8424 		movq	2896(%rsp), %rax
 3340      500B0000 
 3341 33bd 488DBC24 		leaq	2896(%rsp), %rdi
 3341      500B0000 
 3342 33c5 480378E8 		addq	-24(%rax), %rdi
 3343 33c9 8B7720   		movl	32(%rdi), %esi
 3344 33cc 83CE04   		orl	$4, %esi
 3345 33cf E8000000 		call	_ZNSt9basic_iosIcSt11char_traitsIcEE5clearESt12_Ios_Iostate
 3345      00
 3346              	.LEHE57:
 3347 33d4 E943F5FF 		jmp	.L281
 3347      FF
 3348              	.L427:
 3349 33d9 488BBC24 		movq	1536(%rsp), %rdi
 3349      00060000 
 3350 33e1 4889C3   		movq	%rax, %rbx
 3351 33e4 488D8424 		leaq	1552(%rsp), %rax
 3351      10060000 
 3352 33ec 4839C7   		cmpq	%rax, %rdi
 3353 33ef 0F8481F7 		je	.L239
 3353      FFFF
 3354 33f5 E8000000 		call	_ZdlPv
 3354      00
 3355 33fa E977F7FF 		jmp	.L239
 3355      FF
 3356              	.L690:
 3357 33ff BF000000 		movl	$.LC33, %edi
 3357      00
 3358              	.LEHB58:
GAS LISTING /tmp/cce5yULP.s 			page 92


 3359 3404 E8000000 		call	_ZSt20__throw_length_errorPKc
 3359      00
 3360              	.LEHE58:
 3361              	.L693:
 3362 3409 448BBC24 		movl	136(%rsp), %r15d
 3362      88000000 
 3363 3411 E97DF3FF 		jmp	.L249
 3363      FF
 3364              	.L421:
 3365 3416 E958F7FF 		jmp	.L626
 3365      FF
 3366              	.L694:
 3367 341b 488DBC24 		leaq	1200(%rsp), %rdi
 3367      B0040000 
 3368              	.LEHB59:
 3369 3423 E8000000 		call	_ZN8Solution6updateEddddi
 3369      00
 3370 3428 E9D1F1FF 		jmp	.L402
 3370      FF
 3371              	.L692:
 3372 342d 418B4610 		movl	16(%r14), %eax
 3373 3431 E979F3FF 		jmp	.L260
 3373      FF
 3374              	.L688:
 3375 3436 488DB424 		leaq	184(%rsp), %rsi
 3375      B8000000 
 3376 343e 488DBC24 		leaq	1536(%rsp), %rdi
 3376      00060000 
 3377 3446 31D2     		xorl	%edx, %edx
 3378 3448 E8000000 		call	_ZNSt7__cxx1112basic_stringIcSt11char_traitsIcESaIcEE9_M_createERmm
 3378      00
 3379              	.LEHE59:
 3380 344d 488B9424 		movq	184(%rsp), %rdx
 3380      B8000000 
 3381 3455 48898424 		movq	%rax, 1536(%rsp)
 3381      00060000 
 3382 345d 48899424 		movq	%rdx, 1552(%rsp)
 3382      10060000 
 3383              	.L231:
 3384 3465 4889DA   		movq	%rbx, %rdx
 3385 3468 4C89E6   		movq	%r12, %rsi
 3386 346b 4889C7   		movq	%rax, %rdi
 3387 346e E8000000 		call	memcpy
 3387      00
 3388 3473 488B9C24 		movq	184(%rsp), %rbx
 3388      B8000000 
 3389 347b 488B8424 		movq	1536(%rsp), %rax
 3389      00060000 
 3390 3483 E998E2FF 		jmp	.L233
 3390      FF
 3391              	.L431:
 3392 3488 488DAC24 		leaq	2408(%rsp), %rbp
 3392      68090000 
 3393 3490 4889C3   		movq	%rax, %rbx
 3394              	.L606:
 3395 3493 4883ED28 		subq	$40, %rbp
 3396 3497 488B5500 		movq	0(%rbp), %rdx
GAS LISTING /tmp/cce5yULP.s 			page 93


 3397 349b 4889EF   		movq	%rbp, %rdi
 3398 349e FF12     		call	*(%rdx)
 3399 34a0 488D8424 		leaq	2288(%rsp), %rax
 3399      F0080000 
 3400 34a8 4839C5   		cmpq	%rax, %rbp
 3401 34ab 75E6     		jne	.L606
 3402 34ad 4889D8   		movq	%rbx, %rax
 3403              	.L628:
 3404 34b0 4889C3   		movq	%rax, %rbx
 3405 34b3 488DAC24 		leaq	2288(%rsp), %rbp
 3405      F0080000 
 3406 34bb E902F7FF 		jmp	.L538
 3406      FF
 3407              	.L444:
 3408 34c0 488DAC24 		leaq	2368(%rsp), %rbp
 3408      40090000 
 3409 34c8 4889C3   		movq	%rax, %rbx
 3410 34cb EBC6     		jmp	.L606
 3411              	.L443:
 3412 34cd 488DAC24 		leaq	2328(%rsp), %rbp
 3412      18090000 
 3413 34d5 4889C3   		movq	%rax, %rbx
 3414 34d8 EBB9     		jmp	.L606
 3415              	.L435:
 3416 34da EBD4     		jmp	.L628
 3417              	.L430:
 3418 34dc 488DAC24 		leaq	2248(%rsp), %rbp
 3418      C8080000 
 3419 34e4 4889C3   		movq	%rax, %rbx
 3420              	.L601:
 3421 34e7 4883ED28 		subq	$40, %rbp
 3422 34eb 488B5500 		movq	0(%rbp), %rdx
 3423 34ef 4889EF   		movq	%rbp, %rdi
 3424 34f2 FF12     		call	*(%rdx)
 3425 34f4 488D8424 		leaq	2128(%rsp), %rax
 3425      50080000 
 3426 34fc 4839C5   		cmpq	%rax, %rbp
 3427 34ff 75E6     		jne	.L601
 3428 3501 4889D8   		movq	%rbx, %rax
 3429              	.L629:
 3430 3504 4889C3   		movq	%rax, %rbx
 3431 3507 488DAC24 		leaq	2128(%rsp), %rbp
 3431      50080000 
 3432 350f E9D0F6FF 		jmp	.L539
 3432      FF
 3433              	.L442:
 3434 3514 488DAC24 		leaq	2208(%rsp), %rbp
 3434      A0080000 
 3435 351c 4889C3   		movq	%rax, %rbx
 3436 351f EBC6     		jmp	.L601
 3437              	.L441:
 3438 3521 488DAC24 		leaq	2168(%rsp), %rbp
 3438      78080000 
 3439 3529 4889C3   		movq	%rax, %rbx
 3440 352c EBB9     		jmp	.L601
 3441              	.L434:
 3442 352e EBD4     		jmp	.L629
GAS LISTING /tmp/cce5yULP.s 			page 94


 3443              	.L432:
 3444 3530 488DAC24 		leaq	2568(%rsp), %rbp
 3444      080A0000 
 3445 3538 4889C3   		movq	%rax, %rbx
 3446              	.L611:
 3447 353b 4883ED28 		subq	$40, %rbp
 3448 353f 488B5500 		movq	0(%rbp), %rdx
 3449 3543 4889EF   		movq	%rbp, %rdi
 3450 3546 FF12     		call	*(%rdx)
 3451 3548 488D8424 		leaq	2448(%rsp), %rax
 3451      90090000 
 3452 3550 4839C5   		cmpq	%rax, %rbp
 3453 3553 75E6     		jne	.L611
 3454 3555 4889D8   		movq	%rbx, %rax
 3455              	.L627:
 3456 3558 4889C3   		movq	%rax, %rbx
 3457 355b 488DAC24 		leaq	2448(%rsp), %rbp
 3457      90090000 
 3458 3563 E938F6FF 		jmp	.L537
 3458      FF
 3459              	.L446:
 3460 3568 488DAC24 		leaq	2528(%rsp), %rbp
 3460      E0090000 
 3461 3570 4889C3   		movq	%rax, %rbx
 3462 3573 EBC6     		jmp	.L611
 3463              	.L445:
 3464 3575 488DAC24 		leaq	2488(%rsp), %rbp
 3464      B8090000 
 3465 357d 4889C3   		movq	%rax, %rbx
 3466 3580 EBB9     		jmp	.L611
 3467              	.L436:
 3468 3582 EBD4     		jmp	.L627
 3469              	.L423:
 3470 3584 E9EAF5FF 		jmp	.L626
 3470      FF
 3471              	.L689:
 3472 3589 410FB604 		movzbl	(%r12), %eax
 3472      24
 3473 358e 88842410 		movb	%al, 1552(%rsp)
 3473      060000
 3474 3595 488D8424 		leaq	1552(%rsp), %rax
 3474      10060000 
 3475 359d E97EE1FF 		jmp	.L233
 3475      FF
 3476              	.L429:
 3477 35a2 488DAC24 		leaq	2088(%rsp), %rbp
 3477      28080000 
 3478 35aa 4889C3   		movq	%rax, %rbx
 3479              	.L596:
 3480 35ad 4883ED28 		subq	$40, %rbp
 3481 35b1 488B5500 		movq	0(%rbp), %rdx
 3482 35b5 4889EF   		movq	%rbp, %rdi
 3483 35b8 FF12     		call	*(%rdx)
 3484 35ba 488D8424 		leaq	1968(%rsp), %rax
 3484      B0070000 
 3485 35c2 4839C5   		cmpq	%rax, %rbp
 3486 35c5 75E6     		jne	.L596
GAS LISTING /tmp/cce5yULP.s 			page 95


 3487 35c7 4889D8   		movq	%rbx, %rax
 3488              	.L630:
 3489 35ca 4889C3   		movq	%rax, %rbx
 3490 35cd 488DAC24 		leaq	1968(%rsp), %rbp
 3490      B0070000 
 3491 35d5 E92CF6FF 		jmp	.L540
 3491      FF
 3492              	.L440:
 3493 35da 488DAC24 		leaq	2048(%rsp), %rbp
 3493      00080000 
 3494 35e2 4889C3   		movq	%rax, %rbx
 3495 35e5 EBC6     		jmp	.L596
 3496              	.L439:
 3497 35e7 488DAC24 		leaq	2008(%rsp), %rbp
 3497      D8070000 
 3498 35ef 4889C3   		movq	%rax, %rbx
 3499 35f2 EBB9     		jmp	.L596
 3500              	.L433:
 3501 35f4 EBD4     		jmp	.L630
 3502              	.L428:
 3503 35f6 488DAC24 		leaq	1928(%rsp), %rbp
 3503      88070000 
 3504 35fe 4889C3   		movq	%rax, %rbx
 3505              	.L591:
 3506 3601 4883ED28 		subq	$40, %rbp
 3507 3605 488B5500 		movq	0(%rbp), %rdx
 3508 3609 4889EF   		movq	%rbp, %rdi
 3509 360c FF12     		call	*(%rdx)
 3510 360e 488D8424 		leaq	1808(%rsp), %rax
 3510      10070000 
 3511 3616 4839C5   		cmpq	%rax, %rbp
 3512 3619 75E6     		jne	.L591
 3513 361b E900F6FF 		jmp	.L351
 3513      FF
 3514              	.L438:
 3515 3620 488DAC24 		leaq	1888(%rsp), %rbp
 3515      60070000 
 3516 3628 4889C3   		movq	%rax, %rbx
 3517 362b EBD4     		jmp	.L591
 3518              	.L437:
 3519 362d 488DAC24 		leaq	1848(%rsp), %rbp
 3519      38070000 
 3520 3635 4889C3   		movq	%rax, %rbx
 3521 3638 EBC7     		jmp	.L591
 3522              	.L420:
 3523 363a 4889C3   		movq	%rax, %rbx
 3524 363d E9DEF5FF 		jmp	.L351
 3524      FF
 3525              	.L419:
 3526 3642 4889C3   		movq	%rax, %rbx
 3527 3645 E9E3F5FF 		jmp	.L369
 3527      FF
 3528              	.L418:
 3529 364a 4889C3   		movq	%rax, %rbx
 3530 364d E9E8F5FF 		jmp	.L370
 3530      FF
 3531              	.L417:
GAS LISTING /tmp/cce5yULP.s 			page 96


 3532 3652 4889C3   		movq	%rax, %rbx
 3533 3655 E9EDF5FF 		jmp	.L371
 3533      FF
 3534              	.L416:
 3535 365a 4889C3   		movq	%rax, %rbx
 3536 365d E9F2F5FF 		jmp	.L372
 3536      FF
 3537              	.L453:
 3538 3662 E984E0FF 		jmp	.L631
 3538      FF
 3539              	.L457:
 3540 3667 E97FE0FF 		jmp	.L631
 3540      FF
 3541              	.L455:
 3542 366c E97AE0FF 		jmp	.L631
 3542      FF
 3543              	.L414:
 3544 3671 E975E0FF 		jmp	.L631
 3544      FF
 3545              	.L451:
 3546 3676 E970E0FF 		jmp	.L631
 3546      FF
 3547              	.L458:
 3548 367b E96BE0FF 		jmp	.L631
 3548      FF
 3549              	.L456:
 3550 3680 E966E0FF 		jmp	.L631
 3550      FF
 3551              	.L454:
 3552 3685 E961E0FF 		jmp	.L631
 3552      FF
 3553              	.L452:
 3554 368a E95CE0FF 		jmp	.L631
 3554      FF
 3555              	.L450:
 3556 368f E957E0FF 		jmp	.L631
 3556      FF
 3557              	.L448:
 3558 3694 E952E0FF 		jmp	.L631
 3558      FF
 3559              	.L447:
 3560 3699 E94DE0FF 		jmp	.L631
 3560      FF
 3561              	.L426:
 3562 369e 488DBC24 		leaq	2904(%rsp), %rdi
 3562      580B0000 
 3563 36a6 4889C3   		movq	%rax, %rbx
 3564 36a9 E8000000 		call	_ZNSt13basic_filebufIcSt11char_traitsIcEED1Ev
 3564      00
 3565 36ae E9B2DFFF 		jmp	.L636
 3565      FF
 3566              	.L425:
 3567 36b3 4889C3   		movq	%rax, %rbx
 3568 36b6 E9AADFFF 		jmp	.L636
 3568      FF
 3569              	.L424:
 3570 36bb 4889C3   		movq	%rax, %rbx
GAS LISTING /tmp/cce5yULP.s 			page 97


 3571 36be E9BCDFFF 		jmp	.L632
 3571      FF
 3572              	.L413:
 3573 36c3 4889C3   		movq	%rax, %rbx
 3574 36c6 E9DADFFF 		jmp	.L394
 3574      FF
 3575              	.L412:
 3576 36cb 4889C3   		movq	%rax, %rbx
 3577 36ce E9DFDFFF 		jmp	.L395
 3577      FF
 3578              	.L411:
 3579 36d3 4889C3   		movq	%rax, %rbx
 3580 36d6 E9E4DFFF 		jmp	.L396
 3580      FF
 3581              	.L410:
 3582 36db 4889C3   		movq	%rax, %rbx
 3583 36de E9E9DFFF 		jmp	.L397
 3583      FF
 3584              	.L409:
 3585 36e3 4889C3   		movq	%rax, %rbx
 3586 36e6 E9EEDFFF 		jmp	.L398
 3586      FF
 3587              		.cfi_endproc
 3588              	.LFE8451:
 3589              		.globl	__gxx_personality_v0
 3590              		.section	.gcc_except_table,"a",@progbits
 3591              	.LLSDA8451:
 3592 0000 FF       		.byte	0xff
 3593 0001 FF       		.byte	0xff
 3594 0002 01       		.byte	0x1
 3595 0003 E702     		.uleb128 .LLSDACSE8451-.LLSDACSB8451
 3596              	.LLSDACSB8451:
 3597 0005 57       		.uleb128 .LEHB0-.LFB8451
 3598 0006 05       		.uleb128 .LEHE0-.LEHB0
 3599 0007 00       		.uleb128 0
 3600 0008 00       		.uleb128 0
 3601 0009 68       		.uleb128 .LEHB1-.LFB8451
 3602 000a 05       		.uleb128 .LEHE1-.LEHB1
 3603 000b E309     		.uleb128 .L408-.LFB8451
 3604 000d 00       		.uleb128 0
 3605 000e 79       		.uleb128 .LEHB2-.LFB8451
 3606 000f 05       		.uleb128 .LEHE2-.LEHB2
 3607 0010 B34C     		.uleb128 .L409-.LFB8451
 3608 0012 00       		.uleb128 0
 3609 0013 8A01     		.uleb128 .LEHB3-.LFB8451
 3610 0015 05       		.uleb128 .LEHE3-.LEHB3
 3611 0016 AB4C     		.uleb128 .L410-.LFB8451
 3612 0018 00       		.uleb128 0
 3613 0019 9B01     		.uleb128 .LEHB4-.LFB8451
 3614 001b 05       		.uleb128 .LEHE4-.LEHB4
 3615 001c A34C     		.uleb128 .L411-.LFB8451
 3616 001e 00       		.uleb128 0
 3617 001f AC01     		.uleb128 .LEHB5-.LFB8451
 3618 0021 05       		.uleb128 .LEHE5-.LEHB5
 3619 0022 9B4C     		.uleb128 .L412-.LFB8451
 3620 0024 00       		.uleb128 0
 3621 0025 B901     		.uleb128 .LEHB6-.LFB8451
GAS LISTING /tmp/cce5yULP.s 			page 98


 3622 0027 05       		.uleb128 .LEHE6-.LEHB6
 3623 0028 934C     		.uleb128 .L413-.LFB8451
 3624 002a 00       		.uleb128 0
 3625 002b D502     		.uleb128 .LEHB7-.LFB8451
 3626 002d 05       		.uleb128 .LEHE7-.LEHB7
 3627 002e 8B4C     		.uleb128 .L424-.LFB8451
 3628 0030 00       		.uleb128 0
 3629 0031 FE02     		.uleb128 .LEHB8-.LFB8451
 3630 0033 05       		.uleb128 .LEHE8-.LEHB8
 3631 0034 834C     		.uleb128 .L425-.LFB8451
 3632 0036 00       		.uleb128 0
 3633 0037 9A03     		.uleb128 .LEHB9-.LFB8451
 3634 0039 05       		.uleb128 .LEHE9-.LEHB9
 3635 003a EE4B     		.uleb128 .L426-.LFB8451
 3636 003c 00       		.uleb128 0
 3637 003d CB03     		.uleb128 .LEHB10-.LFB8451
 3638 003f 05       		.uleb128 .LEHE10-.LEHB10
 3639 0040 E94B     		.uleb128 .L447-.LFB8451
 3640 0042 00       		.uleb128 0
 3641 0043 D803     		.uleb128 .LEHB11-.LFB8451
 3642 0045 05       		.uleb128 .LEHE11-.LEHB11
 3643 0046 E44B     		.uleb128 .L448-.LFB8451
 3644 0048 00       		.uleb128 0
 3645 0049 E503     		.uleb128 .LEHB12-.LFB8451
 3646 004b 05       		.uleb128 .LEHE12-.LEHB12
 3647 004c DF4B     		.uleb128 .L450-.LFB8451
 3648 004e 00       		.uleb128 0
 3649 004f F203     		.uleb128 .LEHB13-.LFB8451
 3650 0051 05       		.uleb128 .LEHE13-.LEHB13
 3651 0052 DA4B     		.uleb128 .L452-.LFB8451
 3652 0054 00       		.uleb128 0
 3653 0055 FF03     		.uleb128 .LEHB14-.LFB8451
 3654 0057 05       		.uleb128 .LEHE14-.LEHB14
 3655 0058 D54B     		.uleb128 .L454-.LFB8451
 3656 005a 00       		.uleb128 0
 3657 005b 8C04     		.uleb128 .LEHB15-.LFB8451
 3658 005d 05       		.uleb128 .LEHE15-.LEHB15
 3659 005e D04B     		.uleb128 .L456-.LFB8451
 3660 0060 00       		.uleb128 0
 3661 0061 9904     		.uleb128 .LEHB16-.LFB8451
 3662 0063 05       		.uleb128 .LEHE16-.LEHB16
 3663 0064 CB4B     		.uleb128 .L458-.LFB8451
 3664 0066 00       		.uleb128 0
 3665 0067 A604     		.uleb128 .LEHB17-.LFB8451
 3666 0069 05       		.uleb128 .LEHE17-.LEHB17
 3667 006a C64B     		.uleb128 .L451-.LFB8451
 3668 006c 00       		.uleb128 0
 3669 006d B304     		.uleb128 .LEHB18-.LFB8451
 3670 006f 05       		.uleb128 .LEHE18-.LEHB18
 3671 0070 C14B     		.uleb128 .L414-.LFB8451
 3672 0072 00       		.uleb128 0
 3673 0073 C004     		.uleb128 .LEHB19-.LFB8451
 3674 0075 05       		.uleb128 .LEHE19-.LEHB19
 3675 0076 BC4B     		.uleb128 .L455-.LFB8451
 3676 0078 00       		.uleb128 0
 3677 0079 CD04     		.uleb128 .LEHB20-.LFB8451
 3678 007b 05       		.uleb128 .LEHE20-.LEHB20
GAS LISTING /tmp/cce5yULP.s 			page 99


 3679 007c B74B     		.uleb128 .L457-.LFB8451
 3680 007e 00       		.uleb128 0
 3681 007f DA04     		.uleb128 .LEHB21-.LFB8451
 3682 0081 05       		.uleb128 .LEHE21-.LEHB21
 3683 0082 B24B     		.uleb128 .L453-.LFB8451
 3684 0084 00       		.uleb128 0
 3685 0085 E704     		.uleb128 .LEHB22-.LFB8451
 3686 0087 05       		.uleb128 .LEHE22-.LEHB22
 3687 0088 BB0C     		.uleb128 .L449-.LFB8451
 3688 008a 00       		.uleb128 0
 3689 008b FC04     		.uleb128 .LEHB23-.LFB8451
 3690 008d 05       		.uleb128 .LEHE23-.LEHB23
 3691 008e FB09     		.uleb128 .L415-.LFB8451
 3692 0090 00       		.uleb128 0
 3693 0091 BB05     		.uleb128 .LEHB24-.LFB8451
 3694 0093 05       		.uleb128 .LEHE24-.LEHB24
 3695 0094 AA4B     		.uleb128 .L416-.LFB8451
 3696 0096 00       		.uleb128 0
 3697 0097 C805     		.uleb128 .LEHB25-.LFB8451
 3698 0099 05       		.uleb128 .LEHE25-.LEHB25
 3699 009a A24B     		.uleb128 .L417-.LFB8451
 3700 009c 00       		.uleb128 0
 3701 009d D505     		.uleb128 .LEHB26-.LFB8451
 3702 009f 05       		.uleb128 .LEHE26-.LEHB26
 3703 00a0 9A4B     		.uleb128 .L418-.LFB8451
 3704 00a2 00       		.uleb128 0
 3705 00a3 E205     		.uleb128 .LEHB27-.LFB8451
 3706 00a5 05       		.uleb128 .LEHE27-.LEHB27
 3707 00a6 924B     		.uleb128 .L419-.LFB8451
 3708 00a8 00       		.uleb128 0
 3709 00a9 EF05     		.uleb128 .LEHB28-.LFB8451
 3710 00ab 05       		.uleb128 .LEHE28-.LEHB28
 3711 00ac 8A4B     		.uleb128 .L420-.LFB8451
 3712 00ae 00       		.uleb128 0
 3713 00af 8006     		.uleb128 .LEHB29-.LFB8451
 3714 00b1 05       		.uleb128 .LEHE29-.LEHB29
 3715 00b2 FD4A     		.uleb128 .L437-.LFB8451
 3716 00b4 00       		.uleb128 0
 3717 00b5 9106     		.uleb128 .LEHB30-.LFB8451
 3718 00b7 05       		.uleb128 .LEHE30-.LEHB30
 3719 00b8 F04A     		.uleb128 .L438-.LFB8451
 3720 00ba 00       		.uleb128 0
 3721 00bb A206     		.uleb128 .LEHB31-.LFB8451
 3722 00bd 05       		.uleb128 .LEHE31-.LEHB31
 3723 00be C64A     		.uleb128 .L428-.LFB8451
 3724 00c0 00       		.uleb128 0
 3725 00c1 AF06     		.uleb128 .LEHB32-.LFB8451
 3726 00c3 05       		.uleb128 .LEHE32-.LEHB32
 3727 00c4 C44A     		.uleb128 .L433-.LFB8451
 3728 00c6 00       		.uleb128 0
 3729 00c7 C006     		.uleb128 .LEHB33-.LFB8451
 3730 00c9 05       		.uleb128 .LEHE33-.LEHB33
 3731 00ca B74A     		.uleb128 .L439-.LFB8451
 3732 00cc 00       		.uleb128 0
 3733 00cd D106     		.uleb128 .LEHB34-.LFB8451
 3734 00cf 05       		.uleb128 .LEHE34-.LEHB34
 3735 00d0 AA4A     		.uleb128 .L440-.LFB8451
GAS LISTING /tmp/cce5yULP.s 			page 100


 3736 00d2 00       		.uleb128 0
 3737 00d3 E206     		.uleb128 .LEHB35-.LFB8451
 3738 00d5 05       		.uleb128 .LEHE35-.LEHB35
 3739 00d6 F249     		.uleb128 .L429-.LFB8451
 3740 00d8 00       		.uleb128 0
 3741 00d9 EF06     		.uleb128 .LEHB36-.LFB8451
 3742 00db 05       		.uleb128 .LEHE36-.LEHB36
 3743 00dc FE48     		.uleb128 .L434-.LFB8451
 3744 00de 00       		.uleb128 0
 3745 00df 8007     		.uleb128 .LEHB37-.LFB8451
 3746 00e1 05       		.uleb128 .LEHE37-.LEHB37
 3747 00e2 F148     		.uleb128 .L441-.LFB8451
 3748 00e4 00       		.uleb128 0
 3749 00e5 9107     		.uleb128 .LEHB38-.LFB8451
 3750 00e7 05       		.uleb128 .LEHE38-.LEHB38
 3751 00e8 E448     		.uleb128 .L442-.LFB8451
 3752 00ea 00       		.uleb128 0
 3753 00eb A207     		.uleb128 .LEHB39-.LFB8451
 3754 00ed 05       		.uleb128 .LEHE39-.LEHB39
 3755 00ee AC48     		.uleb128 .L430-.LFB8451
 3756 00f0 00       		.uleb128 0
 3757 00f1 AF07     		.uleb128 .LEHB40-.LFB8451
 3758 00f3 05       		.uleb128 .LEHE40-.LEHB40
 3759 00f4 AA48     		.uleb128 .L435-.LFB8451
 3760 00f6 00       		.uleb128 0
 3761 00f7 C007     		.uleb128 .LEHB41-.LFB8451
 3762 00f9 05       		.uleb128 .LEHE41-.LEHB41
 3763 00fa 9D48     		.uleb128 .L443-.LFB8451
 3764 00fc 00       		.uleb128 0
 3765 00fd D107     		.uleb128 .LEHB42-.LFB8451
 3766 00ff 05       		.uleb128 .LEHE42-.LEHB42
 3767 0100 9048     		.uleb128 .L444-.LFB8451
 3768 0102 00       		.uleb128 0
 3769 0103 E207     		.uleb128 .LEHB43-.LFB8451
 3770 0105 05       		.uleb128 .LEHE43-.LEHB43
 3771 0106 D847     		.uleb128 .L431-.LFB8451
 3772 0108 00       		.uleb128 0
 3773 0109 EF07     		.uleb128 .LEHB44-.LFB8451
 3774 010b 05       		.uleb128 .LEHE44-.LEHB44
 3775 010c D249     		.uleb128 .L436-.LFB8451
 3776 010e 00       		.uleb128 0
 3777 010f 8008     		.uleb128 .LEHB45-.LFB8451
 3778 0111 05       		.uleb128 .LEHE45-.LEHB45
 3779 0112 C549     		.uleb128 .L445-.LFB8451
 3780 0114 00       		.uleb128 0
 3781 0115 9108     		.uleb128 .LEHB46-.LFB8451
 3782 0117 05       		.uleb128 .LEHE46-.LEHB46
 3783 0118 B849     		.uleb128 .L446-.LFB8451
 3784 011a 00       		.uleb128 0
 3785 011b A208     		.uleb128 .LEHB47-.LFB8451
 3786 011d 05       		.uleb128 .LEHE47-.LEHB47
 3787 011e 8049     		.uleb128 .L432-.LFB8451
 3788 0120 00       		.uleb128 0
 3789 0121 E808     		.uleb128 .LEHB48-.LFB8451
 3790 0123 7B       		.uleb128 .LEHE48-.LEHB48
 3791 0124 D449     		.uleb128 .L423-.LFB8451
 3792 0126 00       		.uleb128 0
GAS LISTING /tmp/cce5yULP.s 			page 101


 3793 0127 F609     		.uleb128 .LEHB49-.LFB8451
 3794 0129 05       		.uleb128 .LEHE49-.LEHB49
 3795 012a 00       		.uleb128 0
 3796 012b 00       		.uleb128 0
 3797 012c AA0D     		.uleb128 .LEHB50-.LFB8451
 3798 012e 05       		.uleb128 .LEHE50-.LEHB50
 3799 012f A946     		.uleb128 .L427-.LFB8451
 3800 0131 00       		.uleb128 0
 3801 0132 F70D     		.uleb128 .LEHB51-.LFB8451
 3802 0134 8610     		.uleb128 .LEHE51-.LEHB51
 3803 0136 D449     		.uleb128 .L423-.LFB8451
 3804 0138 00       		.uleb128 0
 3805 0139 D21F     		.uleb128 .LEHB52-.LFB8451
 3806 013b 65       		.uleb128 .LEHE52-.LEHB52
 3807 013c E646     		.uleb128 .L421-.LFB8451
 3808 013e 00       		.uleb128 0
 3809 013f B522     		.uleb128 .LEHB53-.LFB8451
 3810 0141 05       		.uleb128 .LEHE53-.LEHB53
 3811 0142 D449     		.uleb128 .L423-.LFB8451
 3812 0144 00       		.uleb128 0
 3813 0145 9E24     		.uleb128 .LEHB54-.LFB8451
 3814 0147 61       		.uleb128 .LEHE54-.LEHB54
 3815 0148 C335     		.uleb128 .L422-.LFB8451
 3816 014a 00       		.uleb128 0
 3817 014b C92A     		.uleb128 .LEHB55-.LFB8451
 3818 014d 9A06     		.uleb128 .LEHE55-.LEHB55
 3819 014f D449     		.uleb128 .L423-.LFB8451
 3820 0151 00       		.uleb128 0
 3821 0152 A63A     		.uleb128 .LEHB56-.LFB8451
 3822 0154 C203     		.uleb128 .LEHE56-.LEHB56
 3823 0156 D449     		.uleb128 .L423-.LFB8451
 3824 0158 00       		.uleb128 0
 3825 0159 D644     		.uleb128 .LEHB57-.LFB8451
 3826 015b CE01     		.uleb128 .LEHE57-.LEHB57
 3827 015d D449     		.uleb128 .L423-.LFB8451
 3828 015f 00       		.uleb128 0
 3829 0160 D446     		.uleb128 .LEHB58-.LFB8451
 3830 0162 05       		.uleb128 .LEHE58-.LEHB58
 3831 0163 A946     		.uleb128 .L427-.LFB8451
 3832 0165 00       		.uleb128 0
 3833 0166 F346     		.uleb128 .LEHB59-.LFB8451
 3834 0168 2A       		.uleb128 .LEHE59-.LEHB59
 3835 0169 D449     		.uleb128 .L423-.LFB8451
 3836 016b 00       		.uleb128 0
 3837              	.LLSDACSE8451:
 3838              		.text
 3840              		.section	.text.unlikely
 3841              	.LCOLDE40:
 3842              		.text
 3843              	.LHOTE40:
 3844              		.section	.text.unlikely
 3845              		.align 2
 3846              	.LCOLDB44:
 3847              		.text
 3848              	.LHOTB44:
 3849 36eb 90       		.align 2
 3850 36ec 0F1F4000 		.p2align 4,,15
GAS LISTING /tmp/cce5yULP.s 			page 102


 3851              		.globl	_ZN6Solver25Uniform_Mesh_Solver_CleanER4MeshR8SolutionR19Boundary_ConditionsR15external_for
 3853              	_ZN6Solver25Uniform_Mesh_Solver_CleanER4MeshR8SolutionR19Boundary_ConditionsR15external_forcesR16gl
 3854              	.LFB8453:
 3855              		.cfi_startproc
 3856              		.cfi_personality 0x3,__gxx_personality_v0
 3857              		.cfi_lsda 0x3,.LLSDA8453
 3858 36f0 4157     		pushq	%r15
 3859              		.cfi_def_cfa_offset 16
 3860              		.cfi_offset 15, -16
 3861 36f2 4156     		pushq	%r14
 3862              		.cfi_def_cfa_offset 24
 3863              		.cfi_offset 14, -24
 3864 36f4 4D89CF   		movq	%r9, %r15
 3865 36f7 4155     		pushq	%r13
 3866              		.cfi_def_cfa_offset 32
 3867              		.cfi_offset 13, -32
 3868 36f9 4154     		pushq	%r12
 3869              		.cfi_def_cfa_offset 40
 3870              		.cfi_offset 12, -40
 3871 36fb 4989FD   		movq	%rdi, %r13
 3872 36fe 55       		pushq	%rbp
 3873              		.cfi_def_cfa_offset 48
 3874              		.cfi_offset 6, -48
 3875 36ff 53       		pushq	%rbx
 3876              		.cfi_def_cfa_offset 56
 3877              		.cfi_offset 3, -56
 3878 3700 4889F3   		movq	%rsi, %rbx
 3879 3703 4881EC58 		subq	$3416, %rsp
 3879      0D0000
 3880              		.cfi_def_cfa_offset 3472
 3881 370a 488B8424 		movq	3472(%rsp), %rax
 3881      900D0000 
 3882 3712 488DBC24 		leaq	1712(%rsp), %rdi
 3882      B0060000 
 3883 371a 48897424 		movq	%rsi, 88(%rsp)
 3883      58
 3884 371f 48899424 		movq	%rdx, 136(%rsp)
 3884      88000000 
 3885 3727 48894C24 		movq	%rcx, 104(%rsp)
 3885      68
 3886 372c 4C898C24 		movq	%r9, 160(%rsp)
 3886      A0000000 
 3887 3734 48898424 		movq	%rax, 176(%rsp)
 3887      B0000000 
 3888 373c 64488B04 		movq	%fs:40, %rax
 3888      25280000 
 3888      00
 3889 3745 48898424 		movq	%rax, 3400(%rsp)
 3889      480D0000 
 3890 374d 31C0     		xorl	%eax, %eax
 3891              	.LEHB60:
 3892 374f E8000000 		call	_ZN10RungeKuttaC1Ev
 3892      00
 3893              	.LEHE60:
 3894 3754 8B7310   		movl	16(%rbx), %esi
 3895 3757 488DBC24 		leaq	944(%rsp), %rdi
 3895      B0030000 
GAS LISTING /tmp/cce5yULP.s 			page 103


 3896              	.LEHB61:
 3897 375f E8000000 		call	_ZN8SolutionC1Ei
 3897      00
 3898              	.LEHE61:
 3899 3764 8B7310   		movl	16(%rbx), %esi
 3900 3767 488DBC24 		leaq	1024(%rsp), %rdi
 3900      00040000 
 3901              	.LEHB62:
 3902 376f E8000000 		call	_ZN8SolutionC1Ei
 3902      00
 3903              	.LEHE62:
 3904 3774 8B7310   		movl	16(%rbx), %esi
 3905 3777 488DBC24 		leaq	1104(%rsp), %rdi
 3905      50040000 
 3906              	.LEHB63:
 3907 377f E8000000 		call	_ZN8SolutionC1Ei
 3907      00
 3908              	.LEHE63:
 3909 3784 8B7310   		movl	16(%rbx), %esi
 3910 3787 488DBC24 		leaq	1184(%rsp), %rdi
 3910      A0040000 
 3911              	.LEHB64:
 3912 378f E8000000 		call	_ZN8SolutionC1Ei
 3912      00
 3913              	.LEHE64:
 3914 3794 8B7310   		movl	16(%rbx), %esi
 3915 3797 488DBC24 		leaq	1264(%rsp), %rdi
 3915      F0040000 
 3916              	.LEHB65:
 3917 379f E8000000 		call	_ZN8SolutionC1Ei
 3917      00
 3918              	.LEHE65:
 3919 37a4 488DBC24 		leaq	752(%rsp), %rdi
 3919      F0020000 
 3920              	.LEHB66:
 3921 37ac E8000000 		call	_ZN8flux_varC1Ev
 3921      00
 3922              	.LEHE66:
 3923 37b1 F2410F10 		movsd	64(%r15), %xmm7
 3923      7F40
 3924 37b7 488DBC24 		leaq	3128(%rsp), %rdi
 3924      380C0000 
 3925 37bf F20F11BC 		movsd	%xmm7, 128(%rsp)
 3925      24800000 
 3925      00
 3926 37c8 E8000000 		call	_ZNSt8ios_baseC2Ev
 3926      00
 3927 37cd 488B0500 		movq	_ZTTSt14basic_ofstreamIcSt11char_traitsIcEE+8(%rip), %rax
 3927      000000
 3928 37d4 488DBC24 		leaq	2880(%rsp), %rdi
 3928      400B0000 
 3929 37dc 31F6     		xorl	%esi, %esi
 3930 37de C6842418 		movb	$0, 3352(%rsp)
 3930      0D000000 
 3931 37e6 48C78424 		movq	$_ZTVSt9basic_iosIcSt11char_traitsIcEE+16, 3128(%rsp)
 3931      380C0000 
 3931      00000000 
GAS LISTING /tmp/cce5yULP.s 			page 104


 3932 37f2 48C78424 		movq	$0, 3344(%rsp)
 3932      100D0000 
 3932      00000000 
 3933 37fe C6842419 		movb	$0, 3353(%rsp)
 3933      0D000000 
 3934 3806 480378E8 		addq	-24(%rax), %rdi
 3935 380a 48898424 		movq	%rax, 2880(%rsp)
 3935      400B0000 
 3936 3812 488B0500 		movq	_ZTTSt14basic_ofstreamIcSt11char_traitsIcEE+16(%rip), %rax
 3936      000000
 3937 3819 48C78424 		movq	$0, 3360(%rsp)
 3937      200D0000 
 3937      00000000 
 3938 3825 48C78424 		movq	$0, 3368(%rsp)
 3938      280D0000 
 3938      00000000 
 3939 3831 48C78424 		movq	$0, 3376(%rsp)
 3939      300D0000 
 3939      00000000 
 3940 383d 48C78424 		movq	$0, 3384(%rsp)
 3940      380D0000 
 3940      00000000 
 3941 3849 488907   		movq	%rax, (%rdi)
 3942              	.LEHB67:
 3943 384c E8000000 		call	_ZNSt9basic_iosIcSt11char_traitsIcEE4initEPSt15basic_streambufIcS1_E
 3943      00
 3944              	.LEHE67:
 3945 3851 488D8424 		leaq	2880(%rsp), %rax
 3945      400B0000 
 3946 3859 48C78424 		movq	$_ZTVSt14basic_ofstreamIcSt11char_traitsIcEE+24, 2880(%rsp)
 3946      400B0000 
 3946      00000000 
 3947 3865 48C78424 		movq	$_ZTVSt14basic_ofstreamIcSt11char_traitsIcEE+64, 3128(%rsp)
 3947      380C0000 
 3947      00000000 
 3948 3871 488D7808 		leaq	8(%rax), %rdi
 3949              	.LEHB68:
 3950 3875 E8000000 		call	_ZNSt13basic_filebufIcSt11char_traitsIcEEC1Ev
 3950      00
 3951              	.LEHE68:
 3952 387a 488D8424 		leaq	2880(%rsp), %rax
 3952      400B0000 
 3953 3882 488DB424 		leaq	2888(%rsp), %rsi
 3953      480B0000 
 3954 388a 488DB8F8 		leaq	248(%rax), %rdi
 3954      000000
 3955              	.LEHB69:
 3956 3891 E8000000 		call	_ZNSt9basic_iosIcSt11char_traitsIcEE4initEPSt15basic_streambufIcS1_E
 3956      00
 3957              	.LEHE69:
 3958 3896 488D8424 		leaq	1504(%rsp), %rax
 3958      E0050000 
 3959 389e 488DBC24 		leaq	240(%rsp), %rdi
 3959      F0000000 
 3960 38a6 48C78424 		movq	$0, 1496(%rsp)
 3960      D8050000 
 3960      00000000 
GAS LISTING /tmp/cce5yULP.s 			page 105


 3961 38b2 C68424E0 		movb	$0, 1504(%rsp)
 3961      05000000 
 3962 38ba 48898424 		movq	%rax, 1488(%rsp)
 3962      D0050000 
 3963              	.LEHB70:
 3964 38c2 E8000000 		call	_ZN10vector_varC1Ev
 3964      00
 3965              	.LEHE70:
 3966 38c7 488DBC24 		leaq	272(%rsp), %rdi
 3966      10010000 
 3967              	.LEHB71:
 3968 38cf E8000000 		call	_ZN10vector_varC1Ev
 3968      00
 3969              	.LEHE71:
 3970 38d4 488DBC24 		leaq	304(%rsp), %rdi
 3970      30010000 
 3971              	.LEHB72:
 3972 38dc E8000000 		call	_ZN10vector_varC1Ev
 3972      00
 3973              	.LEHE72:
 3974 38e1 488DBC24 		leaq	336(%rsp), %rdi
 3974      50010000 
 3975              	.LEHB73:
 3976 38e9 E8000000 		call	_ZN10vector_varC1Ev
 3976      00
 3977              	.LEHE73:
 3978 38ee 488DBC24 		leaq	368(%rsp), %rdi
 3978      70010000 
 3979              	.LEHB74:
 3980 38f6 E8000000 		call	_ZN10vector_varC1Ev
 3980      00
 3981              	.LEHE74:
 3982 38fb 488DBC24 		leaq	400(%rsp), %rdi
 3982      90010000 
 3983              	.LEHB75:
 3984 3903 E8000000 		call	_ZN10vector_varC1Ev
 3984      00
 3985              	.LEHE75:
 3986 3908 488DBC24 		leaq	432(%rsp), %rdi
 3986      B0010000 
 3987              	.LEHB76:
 3988 3910 E8000000 		call	_ZN10vector_varC1Ev
 3988      00
 3989              	.LEHE76:
 3990 3915 488DBC24 		leaq	464(%rsp), %rdi
 3990      D0010000 
 3991              	.LEHB77:
 3992 391d E8000000 		call	_ZN10vector_varC1Ev
 3992      00
 3993              	.LEHE77:
 3994 3922 488DBC24 		leaq	496(%rsp), %rdi
 3994      F0010000 
 3995              	.LEHB78:
 3996 392a E8000000 		call	_ZN10vector_varC1Ev
 3996      00
 3997              	.LEHE78:
 3998 392f 488DBC24 		leaq	528(%rsp), %rdi
GAS LISTING /tmp/cce5yULP.s 			page 106


 3998      10020000 
 3999              	.LEHB79:
 4000 3937 E8000000 		call	_ZN10vector_varC1Ev
 4000      00
 4001              	.LEHE79:
 4002 393c 488DBC24 		leaq	560(%rsp), %rdi
 4002      30020000 
 4003              	.LEHB80:
 4004 3944 E8000000 		call	_ZN10vector_varC1Ev
 4004      00
 4005              	.LEHE80:
 4006 3949 488DBC24 		leaq	592(%rsp), %rdi
 4006      50020000 
 4007              	.LEHB81:
 4008 3951 E8000000 		call	_ZN10vector_varC1Ev
 4008      00
 4009              	.LEHE81:
 4010 3956 488DBC24 		leaq	624(%rsp), %rdi
 4010      70020000 
 4011              	.LEHB82:
 4012 395e E8000000 		call	_ZN10vector_varC1Ev
 4012      00
 4013              	.LEHE82:
 4014 3963 488D9C24 		leaq	2592(%rsp), %rbx
 4014      200A0000 
 4015 396b BD080000 		movl	$8, %ebp
 4015      00
 4016 3970 4C8DA320 		leaq	288(%rbx), %r12
 4016      010000
 4017              	.L733:
 4018 3977 4889DF   		movq	%rbx, %rdi
 4019              	.LEHB83:
 4020 397a E8000000 		call	_ZN10vector_varC1Ev
 4020      00
 4021              	.LEHE83:
 4022 397f 4883C320 		addq	$32, %rbx
 4023 3983 4883ED01 		subq	$1, %rbp
 4024 3987 4C39E3   		cmpq	%r12, %rbx
 4025 398a 75EB     		jne	.L733
 4026 398c 488DBC24 		leaq	1344(%rsp), %rdi
 4026      40050000 
 4027 3994 48C78424 		movq	$0, 208(%rsp)
 4027      D0000000 
 4027      00000000 
 4028 39a0 48C78424 		movq	$0, 216(%rsp)
 4028      D8000000 
 4028      00000000 
 4029 39ac 48C78424 		movq	$0, 224(%rsp)
 4029      E0000000 
 4029      00000000 
 4030              	.LEHB84:
 4031 39b8 E8000000 		call	_ZN9residualsC1Ev
 4031      00
 4032              	.LEHE84:
 4033 39bd 488DBC24 		leaq	800(%rsp), %rdi
 4033      20030000 
 4034              	.LEHB85:
GAS LISTING /tmp/cce5yULP.s 			page 107


 4035 39c5 E8000000 		call	_ZN8flux_varC1Ev
 4035      00
 4036              	.LEHE85:
 4037 39ca 488DBC24 		leaq	848(%rsp), %rdi
 4037      50030000 
 4038              	.LEHB86:
 4039 39d2 E8000000 		call	_ZN8flux_varC1Ev
 4039      00
 4040              	.LEHE86:
 4041 39d7 488DBC24 		leaq	896(%rsp), %rdi
 4041      80030000 
 4042              	.LEHB87:
 4043 39df E8000000 		call	_ZN8flux_varC1Ev
 4043      00
 4044              	.LEHE87:
 4045 39e4 488DBC24 		leaq	1792(%rsp), %rdi
 4045      00070000 
 4046              	.LEHB88:
 4047 39ec E8000000 		call	_ZN8flux_varC1Ev
 4047      00
 4048              	.LEHE88:
 4049 39f1 488D8424 		leaq	1792(%rsp), %rax
 4049      00070000 
 4050 39f9 488D7828 		leaq	40(%rax), %rdi
 4051              	.LEHB89:
 4052 39fd E8000000 		call	_ZN8flux_varC1Ev
 4052      00
 4053              	.LEHE89:
 4054 3a02 488D8424 		leaq	1792(%rsp), %rax
 4054      00070000 
 4055 3a0a 488D7850 		leaq	80(%rax), %rdi
 4056              	.LEHB90:
 4057 3a0e E8000000 		call	_ZN8flux_varC1Ev
 4057      00
 4058              	.LEHE90:
 4059 3a13 488D8424 		leaq	1792(%rsp), %rax
 4059      00070000 
 4060 3a1b 488D7878 		leaq	120(%rax), %rdi
 4061              	.LEHB91:
 4062 3a1f E8000000 		call	_ZN8flux_varC1Ev
 4062      00
 4063              	.LEHE91:
 4064 3a24 488DBC24 		leaq	1952(%rsp), %rdi
 4064      A0070000 
 4065              	.LEHB92:
 4066 3a2c E8000000 		call	_ZN8flux_varC1Ev
 4066      00
 4067              	.LEHE92:
 4068 3a31 488D8424 		leaq	1952(%rsp), %rax
 4068      A0070000 
 4069 3a39 488D7828 		leaq	40(%rax), %rdi
 4070              	.LEHB93:
 4071 3a3d E8000000 		call	_ZN8flux_varC1Ev
 4071      00
 4072              	.LEHE93:
 4073 3a42 488D8424 		leaq	1952(%rsp), %rax
 4073      A0070000 
GAS LISTING /tmp/cce5yULP.s 			page 108


 4074 3a4a 488D7850 		leaq	80(%rax), %rdi
 4075              	.LEHB94:
 4076 3a4e E8000000 		call	_ZN8flux_varC1Ev
 4076      00
 4077              	.LEHE94:
 4078 3a53 488D8424 		leaq	1952(%rsp), %rax
 4078      A0070000 
 4079 3a5b 488D7878 		leaq	120(%rax), %rdi
 4080              	.LEHB95:
 4081 3a5f E8000000 		call	_ZN8flux_varC1Ev
 4081      00
 4082              	.LEHE95:
 4083 3a64 488DBC24 		leaq	2112(%rsp), %rdi
 4083      40080000 
 4084              	.LEHB96:
 4085 3a6c E8000000 		call	_ZN8flux_varC1Ev
 4085      00
 4086              	.LEHE96:
 4087 3a71 488D8424 		leaq	2112(%rsp), %rax
 4087      40080000 
 4088 3a79 488D7828 		leaq	40(%rax), %rdi
 4089              	.LEHB97:
 4090 3a7d E8000000 		call	_ZN8flux_varC1Ev
 4090      00
 4091              	.LEHE97:
 4092 3a82 488D8424 		leaq	2112(%rsp), %rax
 4092      40080000 
 4093 3a8a 488D7850 		leaq	80(%rax), %rdi
 4094              	.LEHB98:
 4095 3a8e E8000000 		call	_ZN8flux_varC1Ev
 4095      00
 4096              	.LEHE98:
 4097 3a93 488D8424 		leaq	2112(%rsp), %rax
 4097      40080000 
 4098 3a9b 488D7878 		leaq	120(%rax), %rdi
 4099              	.LEHB99:
 4100 3a9f E8000000 		call	_ZN8flux_varC1Ev
 4100      00
 4101              	.LEHE99:
 4102 3aa4 488DBC24 		leaq	2272(%rsp), %rdi
 4102      E0080000 
 4103              	.LEHB100:
 4104 3aac E8000000 		call	_ZN8flux_varC1Ev
 4104      00
 4105              	.LEHE100:
 4106 3ab1 488D8424 		leaq	2272(%rsp), %rax
 4106      E0080000 
 4107 3ab9 488D7828 		leaq	40(%rax), %rdi
 4108              	.LEHB101:
 4109 3abd E8000000 		call	_ZN8flux_varC1Ev
 4109      00
 4110              	.LEHE101:
 4111 3ac2 488D8424 		leaq	2272(%rsp), %rax
 4111      E0080000 
 4112 3aca 488D7850 		leaq	80(%rax), %rdi
 4113              	.LEHB102:
 4114 3ace E8000000 		call	_ZN8flux_varC1Ev
GAS LISTING /tmp/cce5yULP.s 			page 109


 4114      00
 4115              	.LEHE102:
 4116 3ad3 488D8424 		leaq	2272(%rsp), %rax
 4116      E0080000 
 4117 3adb 488D7878 		leaq	120(%rax), %rdi
 4118              	.LEHB103:
 4119 3adf E8000000 		call	_ZN8flux_varC1Ev
 4119      00
 4120              	.LEHE103:
 4121 3ae4 488DBC24 		leaq	2432(%rsp), %rdi
 4121      80090000 
 4122              	.LEHB104:
 4123 3aec E8000000 		call	_ZN8flux_varC1Ev
 4123      00
 4124              	.LEHE104:
 4125 3af1 488D8424 		leaq	2432(%rsp), %rax
 4125      80090000 
 4126 3af9 488D7828 		leaq	40(%rax), %rdi
 4127              	.LEHB105:
 4128 3afd E8000000 		call	_ZN8flux_varC1Ev
 4128      00
 4129              	.LEHE105:
 4130 3b02 488D8424 		leaq	2432(%rsp), %rax
 4130      80090000 
 4131 3b0a 488D7850 		leaq	80(%rax), %rdi
 4132              	.LEHB106:
 4133 3b0e E8000000 		call	_ZN8flux_varC1Ev
 4133      00
 4134              	.LEHE106:
 4135 3b13 488D8424 		leaq	2432(%rsp), %rax
 4135      80090000 
 4136 3b1b 488D7878 		leaq	120(%rax), %rdi
 4137              	.LEHB107:
 4138 3b1f E8000000 		call	_ZN8flux_varC1Ev
 4138      00
 4139              	.LEHE107:
 4140 3b24 488B9C24 		movq	160(%rsp), %rbx
 4140      A0000000 
 4141 3b2c F20F103D 		movsd	.LC12(%rip), %xmm7
 4141      00000000 
 4142 3b34 4C8BBC24 		movq	136(%rsp), %r15
 4142      88000000 
 4143 3b3c 488DBC24 		leaq	944(%rsp), %rdi
 4143      B0030000 
 4144 3b44 F2410F11 		movsd	%xmm7, 8(%r13)
 4144      7D08
 4145 3b4a F2410F11 		movsd	%xmm7, 32(%r13)
 4145      7D20
 4146 3b50 F20F1043 		movsd	96(%rbx), %xmm0
 4146      60
 4147 3b55 4C89FE   		movq	%r15, %rsi
 4148 3b58 F20F103D 		movsd	.LC32(%rip), %xmm7
 4148      00000000 
 4149 3b60 F2410F11 		movsd	%xmm0, 16(%r13)
 4149      4510
 4150 3b66 F2410F11 		movsd	%xmm7, 40(%r13)
 4150      7D28
GAS LISTING /tmp/cce5yULP.s 			page 110


 4151              	.LEHB108:
 4152 3b6c E8000000 		call	_ZN8Solution5cloneERS_
 4152      00
 4153 3b71 488DBC24 		leaq	1024(%rsp), %rdi
 4153      00040000 
 4154 3b79 4C89FE   		movq	%r15, %rsi
 4155 3b7c E8000000 		call	_ZN8Solution5cloneERS_
 4155      00
 4156 3b81 F20F1043 		movsd	56(%rbx), %xmm0
 4156      38
 4157 3b86 F20F107B 		movsd	40(%rbx), %xmm7
 4157      28
 4158 3b8b F20F5E84 		divsd	128(%rsp), %xmm0
 4158      24800000 
 4158      00
 4159 3b94 F20F11BC 		movsd	%xmm7, 184(%rsp)
 4159      24B80000 
 4159      00
 4160 3b9d E8000000 		call	ceil
 4160      00
 4161 3ba2 F20F2CC0 		cvttsd2si	%xmm0, %eax
 4162 3ba6 488BABD8 		movq	216(%rbx), %rbp
 4162      000000
 4163 3bad 488B9BE0 		movq	224(%rbx), %rbx
 4163      000000
 4164 3bb4 898424AC 		movl	%eax, 172(%rsp)
 4164      000000
 4165 3bbb 488D8424 		leaq	1536(%rsp), %rax
 4165      00060000 
 4166 3bc3 48898424 		movq	%rax, 1520(%rsp)
 4166      F0050000 
 4167 3bcb 4889E8   		movq	%rbp, %rax
 4168 3bce 4801D8   		addq	%rbx, %rax
 4169 3bd1 0F847101 		je	.L784
 4169      0000
 4170 3bd7 4885ED   		testq	%rbp, %rbp
 4171 3bda 0F856801 		jne	.L784
 4171      0000
 4172 3be0 BF000000 		movl	$.LC39, %edi
 4172      00
 4173 3be5 E8000000 		call	_ZSt19__throw_logic_errorPKc
 4173      00
 4174              	.LEHE108:
 4175              	.L975:
 4176 3bea 4889C3   		movq	%rax, %rbx
 4177              	.L965:
 4178 3bed 488DBC24 		leaq	1712(%rsp), %rdi
 4178      B0060000 
 4179 3bf5 E8000000 		call	_ZN10RungeKuttaD1Ev
 4179      00
 4180 3bfa 4889DF   		movq	%rbx, %rdi
 4181              	.LEHB109:
 4182 3bfd E8000000 		call	_Unwind_Resume
 4182      00
 4183              	.LEHE109:
 4184              	.L982:
 4185 3c02 4889C3   		movq	%rax, %rbx
GAS LISTING /tmp/cce5yULP.s 			page 111


 4186 3c05 B8080000 		movl	$8, %eax
 4186      00
 4187 3c0a 4829E8   		subq	%rbp, %rax
 4188 3c0d 4889C5   		movq	%rax, %rbp
 4189 3c10 488D8424 		leaq	2592(%rsp), %rax
 4189      200A0000 
 4190 3c18 48C1E505 		salq	$5, %rbp
 4191 3c1c 4801C5   		addq	%rax, %rbp
 4192 3c1f 4839C5   		cmpq	%rax, %rbp
 4193 3c22 7425     		je	.L710
 4194              	.L915:
 4195 3c24 4883ED20 		subq	$32, %rbp
 4196 3c28 488B4500 		movq	0(%rbp), %rax
 4197 3c2c 488B00   		movq	(%rax), %rax
 4198 3c2f 483D0000 		cmpq	$_ZN10vector_varD2Ev, %rax
 4198      0000
 4199 3c35 7405     		je	.L916
 4200 3c37 4889EF   		movq	%rbp, %rdi
 4201 3c3a FFD0     		call	*%rax
 4202              	.L916:
 4203 3c3c 488D8424 		leaq	2592(%rsp), %rax
 4203      200A0000 
 4204 3c44 4839C5   		cmpq	%rax, %rbp
 4205 3c47 75DB     		jne	.L915
 4206              	.L710:
 4207 3c49 488BBC24 		movq	1488(%rsp), %rdi
 4207      D0050000 
 4208 3c51 488D8424 		leaq	1504(%rsp), %rax
 4208      E0050000 
 4209 3c59 4839C7   		cmpq	%rax, %rdi
 4210 3c5c 7405     		je	.L959
 4211 3c5e E8000000 		call	_ZdlPv
 4211      00
 4212              	.L959:
 4213 3c63 488DBC24 		leaq	2888(%rsp), %rdi
 4213      480B0000 
 4214 3c6b 48C78424 		movq	$_ZTVSt14basic_ofstreamIcSt11char_traitsIcEE+24, 2880(%rsp)
 4214      400B0000 
 4214      00000000 
 4215 3c77 48C78424 		movq	$_ZTVSt14basic_ofstreamIcSt11char_traitsIcEE+64, 3128(%rsp)
 4215      380C0000 
 4215      00000000 
 4216 3c83 48C78424 		movq	$_ZTVSt13basic_filebufIcSt11char_traitsIcEE+16, 2888(%rsp)
 4216      480B0000 
 4216      00000000 
 4217 3c8f E8000000 		call	_ZNSt13basic_filebufIcSt11char_traitsIcEE5closeEv
 4217      00
 4218 3c94 488DBC24 		leaq	2992(%rsp), %rdi
 4218      B00B0000 
 4219 3c9c E8000000 		call	_ZNSt12__basic_fileIcED1Ev
 4219      00
 4220 3ca1 488DBC24 		leaq	2944(%rsp), %rdi
 4220      800B0000 
 4221 3ca9 48C78424 		movq	$_ZTVSt15basic_streambufIcSt11char_traitsIcEE+16, 2888(%rsp)
 4221      480B0000 
 4221      00000000 
 4222 3cb5 E8000000 		call	_ZNSt6localeD1Ev
GAS LISTING /tmp/cce5yULP.s 			page 112


 4222      00
 4223              	.L1202:
 4224 3cba 488B0500 		movq	_ZTTSt14basic_ofstreamIcSt11char_traitsIcEE+8(%rip), %rax
 4224      000000
 4225 3cc1 488B3D00 		movq	_ZTTSt14basic_ofstreamIcSt11char_traitsIcEE+16(%rip), %rdi
 4225      000000
 4226 3cc8 488B40E8 		movq	-24(%rax), %rax
 4227 3ccc 4889BC04 		movq	%rdi, 2880(%rsp,%rax)
 4227      400B0000 
 4228              	.L1198:
 4229 3cd4 488DBC24 		leaq	3128(%rsp), %rdi
 4229      380C0000 
 4230 3cdc 48C78424 		movq	$_ZTVSt9basic_iosIcSt11char_traitsIcEE+16, 3128(%rsp)
 4230      380C0000 
 4230      00000000 
 4231 3ce8 E8000000 		call	_ZNSt8ios_baseD2Ev
 4231      00
 4232 3ced 488DBC24 		leaq	752(%rsp), %rdi
 4232      F0020000 
 4233 3cf5 E8000000 		call	_ZN8flux_varD1Ev
 4233      00
 4234              	.L960:
 4235 3cfa 488DBC24 		leaq	1264(%rsp), %rdi
 4235      F0040000 
 4236 3d02 E8000000 		call	_ZN8SolutionD1Ev
 4236      00
 4237              	.L961:
 4238 3d07 488DBC24 		leaq	1184(%rsp), %rdi
 4238      A0040000 
 4239 3d0f E8000000 		call	_ZN8SolutionD1Ev
 4239      00
 4240              	.L962:
 4241 3d14 488DBC24 		leaq	1104(%rsp), %rdi
 4241      50040000 
 4242 3d1c E8000000 		call	_ZN8SolutionD1Ev
 4242      00
 4243              	.L963:
 4244 3d21 488DBC24 		leaq	1024(%rsp), %rdi
 4244      00040000 
 4245 3d29 E8000000 		call	_ZN8SolutionD1Ev
 4245      00
 4246              	.L964:
 4247 3d2e 488DBC24 		leaq	944(%rsp), %rdi
 4247      B0030000 
 4248 3d36 E8000000 		call	_ZN8SolutionD1Ev
 4248      00
 4249 3d3b E9ADFEFF 		jmp	.L965
 4249      FF
 4250              	.L1015:
 4251              	.L1197:
 4252 3d40 4889C3   		movq	%rax, %rbx
 4253 3d43 E901FFFF 		jmp	.L710
 4253      FF
 4254              	.L784:
 4255 3d48 4883FB0F 		cmpq	$15, %rbx
 4256 3d4c 48899C24 		movq	%rbx, 656(%rsp)
 4256      90020000 
GAS LISTING /tmp/cce5yULP.s 			page 113


 4257 3d54 0F87D21D 		ja	.L1254
 4257      0000
 4258 3d5a 4883FB01 		cmpq	$1, %rbx
 4259 3d5e 0F841E1F 		je	.L1255
 4259      0000
 4260 3d64 4885DB   		testq	%rbx, %rbx
 4261 3d67 488D8424 		leaq	1536(%rsp), %rax
 4261      00060000 
 4262 3d6f 0F85E91D 		jne	.L785
 4262      0000
 4263              	.L787:
 4264 3d75 48899C24 		movq	%rbx, 1528(%rsp)
 4264      F8050000 
 4265 3d7d C6041800 		movb	$0, (%rax,%rbx)
 4266 3d81 48B8FFFF 		movabsq	$9223372036854775807, %rax
 4266      FFFFFFFF 
 4266      FF7F
 4267 3d8b 482B8424 		subq	1528(%rsp), %rax
 4267      F8050000 
 4268 3d93 4883F809 		cmpq	$9, %rax
 4269 3d97 0F861F18 		jbe	.L1256
 4269      0000
 4270 3d9d 488DBC24 		leaq	1520(%rsp), %rdi
 4270      F0050000 
 4271 3da5 BA0A0000 		movl	$10, %edx
 4271      00
 4272 3daa BE000000 		movl	$.LC34, %esi
 4272      00
 4273              	.LEHB110:
 4274 3daf E8000000 		call	_ZNSt7__cxx1112basic_stringIcSt11char_traitsIcESaIcEE9_M_appendEPKcm
 4274      00
 4275              	.LEHE110:
 4276 3db4 488DBC24 		leaq	1488(%rsp), %rdi
 4276      D0050000 
 4277 3dbc 488DB424 		leaq	1520(%rsp), %rsi
 4277      F0050000 
 4278 3dc4 E8000000 		call	_ZNSt7__cxx1112basic_stringIcSt11char_traitsIcESaIcEE4swapERS4_
 4278      00
 4279 3dc9 488BBC24 		movq	1520(%rsp), %rdi
 4279      F0050000 
 4280 3dd1 488D8424 		leaq	1536(%rsp), %rax
 4280      00060000 
 4281 3dd9 4839C7   		cmpq	%rax, %rdi
 4282 3ddc 7405     		je	.L790
 4283 3dde E8000000 		call	_ZdlPv
 4283      00
 4284              	.L790:
 4285 3de3 488D8424 		leaq	2880(%rsp), %rax
 4285      400B0000 
 4286 3deb 488BB424 		movq	1488(%rsp), %rsi
 4286      D0050000 
 4287 3df3 BA100000 		movl	$16, %edx
 4287      00
 4288 3df8 488D7808 		leaq	8(%rax), %rdi
 4289              	.LEHB111:
 4290 3dfc E8000000 		call	_ZNSt13basic_filebufIcSt11char_traitsIcEE4openEPKcSt13_Ios_Openmode
 4290      00
GAS LISTING /tmp/cce5yULP.s 			page 114


 4291 3e01 4885C0   		testq	%rax, %rax
 4292 3e04 488DBC24 		leaq	2880(%rsp), %rdi
 4292      400B0000 
 4293 3e0c 488B8424 		movq	2880(%rsp), %rax
 4293      400B0000 
 4294 3e14 0F843715 		je	.L1257
 4294      0000
 4295 3e1a 480378E8 		addq	-24(%rax), %rdi
 4296 3e1e 31F6     		xorl	%esi, %esi
 4297 3e20 E8000000 		call	_ZNSt9basic_iosIcSt11char_traitsIcEE5clearESt12_Ios_Iostate
 4297      00
 4298              	.L796:
 4299 3e25 488B8424 		movq	160(%rsp), %rax
 4299      A0000000 
 4300 3e2d F2410F10 		movsd	32(%r13), %xmm0
 4300      4520
 4301 3e33 488DB424 		leaq	1632(%rsp), %rsi
 4301      60060000 
 4302 3e3b 488DBC24 		leaq	208(%rsp), %rdi
 4302      D0000000 
 4303 3e43 F20F1048 		movsd	32(%rax), %xmm1
 4303      20
 4304 3e48 E823D0FF 		call	_ZN6Solver16populate_e_alphaERSt6vectorI10vector_varSaIS1_EEPdddi.constprop.93
 4304      FF
 4305 3e4d 448B8424 		movl	172(%rsp), %r8d
 4305      AC000000 
 4306 3e55 4585C0   		testl	%r8d, %r8d
 4307 3e58 0F8E4C0E 		jle	.L844
 4307      0000
 4308 3e5e C784249C 		movl	$0, 156(%rsp)
 4308      00000000 
 4308      000000
 4309              	.L845:
 4310 3e69 488B9C24 		movq	136(%rsp), %rbx
 4310      88000000 
 4311 3e71 488DBC24 		leaq	1024(%rsp), %rdi
 4311      00040000 
 4312 3e79 4889DE   		movq	%rbx, %rsi
 4313 3e7c E8000000 		call	_ZN8Solution5cloneERS_
 4313      00
 4314 3e81 488DBC24 		leaq	944(%rsp), %rdi
 4314      B0030000 
 4315 3e89 4889DE   		movq	%rbx, %rsi
 4316 3e8c E8000000 		call	_ZN8Solution5cloneERS_
 4316      00
 4317 3e91 488DBC24 		leaq	1344(%rsp), %rdi
 4317      40050000 
 4318 3e99 E8000000 		call	_ZN9residuals5resetEv
 4318      00
 4319 3e9e 8BBC24F8 		movl	1784(%rsp), %edi
 4319      060000
 4320 3ea5 85FF     		testl	%edi, %edi
 4321 3ea7 0F8E3317 		jle	.L1258
 4321      0000
 4322 3ead 488D8424 		leaq	1712(%rsp), %rax
 4322      B0060000 
 4323 3eb5 C78424A8 		movl	$1, 168(%rsp)
GAS LISTING /tmp/cce5yULP.s 			page 115


 4323      00000001 
 4323      000000
 4324 3ec0 48898424 		movq	%rax, 144(%rsp)
 4324      90000000 
 4325              	.L828:
 4326 3ec8 488B5C24 		movq	88(%rsp), %rbx
 4326      58
 4327 3ecd 488B8C24 		movq	176(%rsp), %rcx
 4327      B0000000 
 4328 3ed5 488DBC24 		leaq	944(%rsp), %rdi
 4328      B0030000 
 4329 3edd 488B7424 		movq	104(%rsp), %rsi
 4329      68
 4330 3ee2 4889DA   		movq	%rbx, %rdx
 4331 3ee5 E8000000 		call	_ZN8Solution10update_bcsER19Boundary_ConditionsR4MeshR15domain_geometry
 4331      00
 4332 3eea 488DBC24 		leaq	1104(%rsp), %rdi
 4332      50040000 
 4333 3ef2 E8000000 		call	_ZN8Solution10InitialiseEv
 4333      00
 4334 3ef7 8B4310   		movl	16(%rbx), %eax
 4335 3efa 85C0     		testl	%eax, %eax
 4336 3efc 0F8EC916 		jle	.L1259
 4336      0000
 4337 3f02 48C74424 		movq	$0, 96(%rsp)
 4337      60000000 
 4337      00
 4338 3f0b 0F1F4400 		.p2align 4,,10
 4338      00
 4339              		.p2align 3
 4340              	.L823:
 4341 3f10 488B7424 		movq	104(%rsp), %rsi
 4341      68
 4342 3f15 488B7C24 		movq	96(%rsp), %rdi
 4342      60
 4343 3f1a 488B5610 		movq	16(%rsi), %rdx
 4344 3f1e 89BC2498 		movl	%edi, 152(%rsp)
 4344      000000
 4345 3f25 803C3A00 		cmpb	$0, (%rdx,%rdi)
 4346 3f29 0F845C0A 		je	.L805
 4346      0000
 4347 3f2f 488B7424 		movq	88(%rsp), %rsi
 4347      58
 4348 3f34 48C78424 		movq	$0, 200(%rsp)
 4348      C8000000 
 4348      00000000 
 4349 3f40 4C8D3CFD 		leaq	0(,%rdi,8), %r15
 4349      00000000 
 4350 3f48 41BE0200 		movl	$2, %r14d
 4350      0000
 4351 3f4e 488B4640 		movq	64(%rsi), %rax
 4352 3f52 F20F1004 		movsd	(%rax,%rdi,8), %xmm0
 4352      F8
 4353 3f57 488B4648 		movq	72(%rsi), %rax
 4354 3f5b F20F1184 		movsd	%xmm0, 248(%rsp)
 4354      24F80000 
 4354      00
GAS LISTING /tmp/cce5yULP.s 			page 116


 4355 3f64 F20F1004 		movsd	(%rax,%rdi,8), %xmm0
 4355      F8
 4356 3f69 488B4650 		movq	80(%rsi), %rax
 4357 3f6d F20F1184 		movsd	%xmm0, 256(%rsp)
 4357      24000100 
 4357      00
 4358 3f76 F20F1004 		movsd	(%rax,%rdi,8), %xmm0
 4358      F8
 4359 3f7b 488D8424 		leaq	720(%rsp), %rax
 4359      D0020000 
 4360 3f83 48C78424 		movq	$0, 904(%rsp)
 4360      88030000 
 4360      00000000 
 4361 3f8f 48C78424 		movq	$0, 912(%rsp)
 4361      90030000 
 4361      00000000 
 4362 3f9b F20F1184 		movsd	%xmm0, 264(%rsp)
 4362      24080100 
 4362      00
 4363 3fa4 48C78424 		movq	$0, 920(%rsp)
 4363      98030000 
 4363      00000000 
 4364 3fb0 48C78424 		movq	$0, 928(%rsp)
 4364      A0030000 
 4364      00000000 
 4365 3fbc 48894424 		movq	%rax, 64(%rsp)
 4365      40
 4366              	.L822:
 4367 3fc1 488D8424 		leaq	272(%rsp), %rax
 4367      10010000 
 4368 3fc9 4489F7   		movl	%r14d, %edi
 4369 3fcc 50       		pushq	%rax
 4370              		.cfi_def_cfa_offset 3480
 4371 3fcd FF742460 		pushq	96(%rsp)
 4372              		.cfi_def_cfa_offset 3488
 4373 3fd1 8BB424A8 		movl	168(%rsp), %esi
 4373      000000
 4374 3fd8 488D9424 		leaq	320(%rsp), %rdx
 4374      40010000 
 4375 3fe0 4C8D8C24 		leaq	640(%rsp), %r9
 4375      80020000 
 4376 3fe8 4C8D8424 		leaq	216(%rsp), %r8
 4376      D8000000 
 4377 3ff0 488D8C24 		leaq	212(%rsp), %rcx
 4377      D4000000 
 4378 3ff8 E823C0FF 		call	_ZN6Solver24cell_interface_variablesEiiR10vector_varRiRdS1_R19Boundary_ConditionsRNS_6bc_varE
 4378      FF
 4379 3ffd F20F1084 		movsd	296(%rsp), %xmm0
 4379      24280100 
 4379      00
 4380 4006 48C78424 		movq	$0, 584(%rsp)
 4380      48020000 
 4380      00000000 
 4381 4012 48C78424 		movq	$0, 592(%rsp)
 4381      50020000 
 4381      00000000 
 4382 401e 48C78424 		movq	$0, 600(%rsp)
GAS LISTING /tmp/cce5yULP.s 			page 117


 4382      58020000 
 4382      00000000 
 4383 402a F20F1184 		movsd	%xmm0, 744(%rsp)
 4383      24E80200 
 4383      00
 4384 4033 48C78424 		movq	$0, 824(%rsp)
 4384      38030000 
 4384      00000000 
 4385 403f 48C78424 		movq	$0, 832(%rsp)
 4385      40030000 
 4385      00000000 
 4386 404b F20F1084 		movsd	304(%rsp), %xmm0
 4386      24300100 
 4386      00
 4387 4054 48C78424 		movq	$0, 840(%rsp)
 4387      48030000 
 4387      00000000 
 4388 4060 48C78424 		movq	$0, 848(%rsp)
 4388      50030000 
 4388      00000000 
 4389 406c F20F1184 		movsd	%xmm0, 752(%rsp)
 4389      24F00200 
 4389      00
 4390 4075 48C78424 		movq	$0, 872(%rsp)
 4390      68030000 
 4390      00000000 
 4391 4081 48C78424 		movq	$0, 880(%rsp)
 4391      70030000 
 4391      00000000 
 4392 408d F20F1084 		movsd	312(%rsp), %xmm0
 4392      24380100 
 4392      00
 4393 4096 48C78424 		movq	$0, 888(%rsp)
 4393      78030000 
 4393      00000000 
 4394 40a2 48C78424 		movq	$0, 896(%rsp)
 4394      80030000 
 4394      00000000 
 4395 40ae F20F1184 		movsd	%xmm0, 760(%rsp)
 4395      24F80200 
 4395      00
 4396 40b7 488B8424 		movq	968(%rsp), %rax
 4396      C8030000 
 4397 40bf 48C78424 		movq	$_ZTV10vector_var+16, 736(%rsp)
 4397      E0020000 
 4397      00000000 
 4398 40cb F20F1084 		movsd	264(%rsp), %xmm0
 4398      24080100 
 4398      00
 4399 40d4 48C78424 		movq	$_ZTV10vector_var+16, 704(%rsp)
 4399      C0020000 
 4399      00000000 
 4400 40e0 F20F1184 		movsd	%xmm0, 712(%rsp)
 4400      24C80200 
 4400      00
 4401 40e9 F20F1084 		movsd	272(%rsp), %xmm0
 4401      24100100 
GAS LISTING /tmp/cce5yULP.s 			page 118


 4401      00
 4402 40f2 F20F1184 		movsd	%xmm0, 720(%rsp)
 4402      24D00200 
 4402      00
 4403 40fb F20F1084 		movsd	280(%rsp), %xmm0
 4403      24180100 
 4403      00
 4404 4104 F20F1184 		movsd	%xmm0, 728(%rsp)
 4404      24D80200 
 4404      00
 4405 410d 59       		popq	%rcx
 4406              		.cfi_def_cfa_offset 3480
 4407 410e 5E       		popq	%rsi
 4408              		.cfi_def_cfa_offset 3472
 4409 410f 48638C24 		movslq	196(%rsp), %rcx
 4409      C4000000 
 4410 4117 488B5C24 		movq	64(%rsp), %rbx
 4410      40
 4411 411c F2420F10 		movsd	(%rax,%r15), %xmm0
 4411      0438
 4412 4122 488DB424 		leaq	688(%rsp), %rsi
 4412      B0020000 
 4413 412a 488DBC24 		leaq	464(%rsp), %rdi
 4413      D0010000 
 4414 4132 4889DA   		movq	%rbx, %rdx
 4415 4135 F20F100C 		movsd	(%rax,%rcx,8), %xmm1
 4415      C8
 4416 413a E8000000 		call	_ZN10vector_var12Get_GradientEddS_S_
 4416      00
 4417 413f F20F1084 		movsd	280(%rsp), %xmm0
 4417      24180100 
 4417      00
 4418 4148 48638C24 		movslq	196(%rsp), %rcx
 4418      C4000000 
 4419 4150 488B8424 		movq	960(%rsp), %rax
 4419      C0030000 
 4420 4158 488DB424 		leaq	688(%rsp), %rsi
 4420      B0020000 
 4421 4160 488DBC24 		leaq	368(%rsp), %rdi
 4421      70010000 
 4422 4168 F20F1184 		movsd	%xmm0, 728(%rsp)
 4422      24D80200 
 4422      00
 4423 4171 4889DA   		movq	%rbx, %rdx
 4424 4174 48C78424 		movq	$_ZTV10vector_var+16, 720(%rsp)
 4424      D0020000 
 4424      00000000 
 4425 4180 F20F1084 		movsd	288(%rsp), %xmm0
 4425      24200100 
 4425      00
 4426 4189 48C78424 		movq	$_ZTV10vector_var+16, 688(%rsp)
 4426      B0020000 
 4426      00000000 
 4427 4195 F20F1184 		movsd	%xmm0, 736(%rsp)
 4427      24E00200 
 4427      00
 4428 419e F20F1084 		movsd	296(%rsp), %xmm0
GAS LISTING /tmp/cce5yULP.s 			page 119


 4428      24280100 
 4428      00
 4429 41a7 F20F1184 		movsd	%xmm0, 744(%rsp)
 4429      24E80200 
 4429      00
 4430 41b0 F20F1084 		movsd	248(%rsp), %xmm0
 4430      24F80000 
 4430      00
 4431 41b9 F20F1184 		movsd	%xmm0, 696(%rsp)
 4431      24B80200 
 4431      00
 4432 41c2 F20F1084 		movsd	256(%rsp), %xmm0
 4432      24000100 
 4432      00
 4433 41cb F20F1184 		movsd	%xmm0, 704(%rsp)
 4433      24C00200 
 4433      00
 4434 41d4 F20F1084 		movsd	264(%rsp), %xmm0
 4434      24080100 
 4434      00
 4435 41dd F20F1184 		movsd	%xmm0, 712(%rsp)
 4435      24C80200 
 4435      00
 4436 41e6 F2420F10 		movsd	(%rax,%r15), %xmm0
 4436      0438
 4437 41ec F20F100C 		movsd	(%rax,%rcx,8), %xmm1
 4437      C8
 4438 41f1 E8000000 		call	_ZN10vector_var12Get_GradientEddS_S_
 4438      00
 4439 41f6 F20F1084 		movsd	280(%rsp), %xmm0
 4439      24180100 
 4439      00
 4440 41ff 48638C24 		movslq	196(%rsp), %rcx
 4440      C4000000 
 4441 4207 488B8424 		movq	968(%rsp), %rax
 4441      C8030000 
 4442 420f 488DB424 		leaq	688(%rsp), %rsi
 4442      B0020000 
 4443 4217 488DBC24 		leaq	400(%rsp), %rdi
 4443      90010000 
 4444 421f F20F1184 		movsd	%xmm0, 728(%rsp)
 4444      24D80200 
 4444      00
 4445 4228 4889DA   		movq	%rbx, %rdx
 4446 422b 48C78424 		movq	$_ZTV10vector_var+16, 720(%rsp)
 4446      D0020000 
 4446      00000000 
 4447 4237 F20F1084 		movsd	288(%rsp), %xmm0
 4447      24200100 
 4447      00
 4448 4240 48C78424 		movq	$_ZTV10vector_var+16, 688(%rsp)
 4448      B0020000 
 4448      00000000 
 4449 424c F20F1184 		movsd	%xmm0, 736(%rsp)
 4449      24E00200 
 4449      00
 4450 4255 F20F1084 		movsd	296(%rsp), %xmm0
GAS LISTING /tmp/cce5yULP.s 			page 120


 4450      24280100 
 4450      00
 4451 425e F20F1184 		movsd	%xmm0, 744(%rsp)
 4451      24E80200 
 4451      00
 4452 4267 F20F1084 		movsd	248(%rsp), %xmm0
 4452      24F80000 
 4452      00
 4453 4270 F20F1184 		movsd	%xmm0, 696(%rsp)
 4453      24B80200 
 4453      00
 4454 4279 F20F1084 		movsd	256(%rsp), %xmm0
 4454      24000100 
 4454      00
 4455 4282 F20F1184 		movsd	%xmm0, 704(%rsp)
 4455      24C00200 
 4455      00
 4456 428b F20F1084 		movsd	264(%rsp), %xmm0
 4456      24080100 
 4456      00
 4457 4294 F20F1184 		movsd	%xmm0, 712(%rsp)
 4457      24C80200 
 4457      00
 4458 429d F2420F10 		movsd	(%rax,%r15), %xmm0
 4458      0438
 4459 42a3 F20F100C 		movsd	(%rax,%rcx,8), %xmm1
 4459      C8
 4460 42a8 E8000000 		call	_ZN10vector_var12Get_GradientEddS_S_
 4460      00
 4461 42ad 488B9424 		movq	952(%rsp), %rdx
 4461      B8030000 
 4462 42b5 48638424 		movslq	196(%rsp), %rax
 4462      C4000000 
 4463 42bd F20F10A4 		movsd	472(%rsp), %xmm4
 4463      24D80100 
 4463      00
 4464 42c6 F20F1005 		movsd	.LC20(%rip), %xmm0
 4464      00000000 
 4465 42ce F2460F10 		movsd	(%rdx,%r15), %xmm11
 4465      1C3A
 4466 42d4 F20F1164 		movsd	%xmm4, 112(%rsp)
 4466      2470
 4467 42da F2440F58 		addsd	(%rdx,%rax,8), %xmm11
 4467      1CC2
 4468 42e0 488B9424 		movq	960(%rsp), %rdx
 4468      C0030000 
 4469 42e8 F20F10A4 		movsd	376(%rsp), %xmm4
 4469      24780100 
 4469      00
 4470 42f1 F20F10BC 		movsd	1640(%rsp), %xmm7
 4470      24680600 
 4470      00
 4471 42fa F2460F10 		movsd	(%rdx,%r15), %xmm10
 4471      143A
 4472 4300 F20F1164 		movsd	%xmm4, 120(%rsp)
 4472      2478
 4473 4306 F2440F58 		addsd	(%rdx,%rax,8), %xmm10
GAS LISTING /tmp/cce5yULP.s 			page 121


 4473      14C2
 4474 430c 488B9424 		movq	968(%rsp), %rdx
 4474      C8030000 
 4475 4314 F20F117C 		movsd	%xmm7, 16(%rsp)
 4475      2410
 4476 431a F20F10A4 		movsd	1696(%rsp), %xmm4
 4476      24A00600 
 4476      00
 4477 4323 F2440F59 		mulsd	%xmm0, %xmm11
 4477      D8
 4478 4328 F2440F10 		movsd	(%rdx,%rax,8), %xmm9
 4478      0CC2
 4479 432e 31C0     		xorl	%eax, %eax
 4480 4330 F20F1164 		movsd	%xmm4, 80(%rsp)
 4480      2450
 4481 4336 F2460F58 		addsd	(%rdx,%r15), %xmm9
 4481      0C3A
 4482 433c F20F10A4 		movsd	1632(%rsp), %xmm4
 4482      24600600 
 4482      00
 4483 4345 F2440F59 		mulsd	%xmm0, %xmm10
 4483      D0
 4484 434a F20F1164 		movsd	%xmm4, 8(%rsp)
 4484      2408
 4485 4350 F20F10A4 		movsd	1648(%rsp), %xmm4
 4485      24700600 
 4485      00
 4486 4359 F20F10BC 		movsd	1656(%rsp), %xmm7
 4486      24780600 
 4486      00
 4487 4362 F20F1164 		movsd	%xmm4, 24(%rsp)
 4487      2418
 4488 4368 F2440F59 		mulsd	%xmm0, %xmm9
 4488      C8
 4489 436d F20F117C 		movsd	%xmm7, 32(%rsp)
 4489      2420
 4490 4373 660FEFC0 		pxor	%xmm0, %xmm0
 4491 4377 F20F10A4 		movsd	1664(%rsp), %xmm4
 4491      24800600 
 4491      00
 4492 4380 F2440F10 		movsd	480(%rsp), %xmm13
 4492      AC24E001 
 4492      0000
 4493 438a F20F1164 		movsd	%xmm4, 40(%rsp)
 4493      2428
 4494 4390 F20F1184 		movsd	%xmm0, 440(%rsp)
 4494      24B80100 
 4494      00
 4495 4399 F20F1184 		movsd	%xmm0, 448(%rsp)
 4495      24C00100 
 4495      00
 4496 43a2 F20F1184 		movsd	%xmm0, 456(%rsp)
 4496      24C80100 
 4496      00
 4497 43ab F2440F10 		movsd	384(%rsp), %xmm12
 4497      A4248001 
 4497      0000
GAS LISTING /tmp/cce5yULP.s 			page 122


 4498 43b5 F20F10BC 		movsd	1672(%rsp), %xmm7
 4498      24880600 
 4498      00
 4499 43be F20F10A4 		movsd	1688(%rsp), %xmm4
 4499      24980600 
 4499      00
 4500 43c7 488B9424 		movq	208(%rsp), %rdx
 4500      D0000000 
 4501 43cf F20F109C 		movsd	1680(%rsp), %xmm3
 4501      24900600 
 4501      00
 4502 43d8 F20F117C 		movsd	%xmm7, 48(%rsp)
 4502      2430
 4503 43de F20F1164 		movsd	%xmm4, 72(%rsp)
 4503      2448
 4504 43e4 660F28E0 		movapd	%xmm0, %xmm4
 4505 43e8 F20F115C 		movsd	%xmm3, 56(%rsp)
 4505      2438
 4506 43ee F20F10BC 		movsd	576(%rsp), %xmm7
 4506      24400200 
 4506      00
 4507 43f7 F2440F10 		movsd	568(%rsp), %xmm8
 4507      84243802 
 4507      0000
 4508 4401 F2440F10 		movsd	.LC10(%rip), %xmm15
 4508      3D000000 
 4508      00
 4509 440a 660F1F44 		.p2align 4,,10
 4509      0000
 4510              		.p2align 3
 4511              	.L819:
 4512 4410 4183FE02 		cmpl	$2, %r14d
 4513 4414 89C1     		movl	%eax, %ecx
 4514 4416 0F84C30E 		je	.L1260
 4514      0000
 4515 441c F20F1042 		movsd	16(%rdx), %xmm0
 4515      10
 4516 4421 66410F28 		movapd	%xmm13, %xmm1
 4516      CD
 4517 4426 66410F28 		movapd	%xmm10, %xmm2
 4517      D2
 4518 442b 660F5705 		xorpd	.LC17(%rip), %xmm0
 4518      00000000 
 4519 4433 F20F59C8 		mulsd	%xmm0, %xmm1
 4520 4437 F2410F59 		mulsd	%xmm12, %xmm0
 4520      C4
 4521 443c F2410F58 		addsd	%xmm11, %xmm1
 4521      CB
 4522 4441 F20F58D0 		addsd	%xmm0, %xmm2
 4523 4445 F2410F58 		addsd	%xmm9, %xmm0
 4523      C1
 4524 444a F20F1194 		movsd	%xmm2, 536(%rsp)
 4524      24180200 
 4524      00
 4525 4453 F20F1184 		movsd	%xmm0, 544(%rsp)
 4525      24200200 
 4525      00
GAS LISTING /tmp/cce5yULP.s 			page 123


 4526 445c F20F105A 		movsd	8(%rdx), %xmm3
 4526      08
 4527              	.L807:
 4528 4461 83F908   		cmpl	$8, %ecx
 4529 4464 0F87B60C 		ja	.L808
 4529      0000
 4530 446a FF24CD00 		jmp	*.L810(,%rcx,8)
 4530      000000
 4531              		.section	.rodata
 4532              		.align 8
 4533              		.align 4
 4534              	.L810:
 4535 0000 00000000 		.quad	.L808
 4535      00000000 
 4536 0008 00000000 		.quad	.L809
 4536      00000000 
 4537 0010 00000000 		.quad	.L811
 4537      00000000 
 4538 0018 00000000 		.quad	.L812
 4538      00000000 
 4539 0020 00000000 		.quad	.L813
 4539      00000000 
 4540 0028 00000000 		.quad	.L814
 4540      00000000 
 4541 0030 00000000 		.quad	.L815
 4541      00000000 
 4542 0038 00000000 		.quad	.L816
 4542      00000000 
 4543 0040 00000000 		.quad	.L817
 4543      00000000 
 4544              		.text
 4545              		.p2align 4,,10
 4546 4471 0F1F8000 		.p2align 3
 4546      000000
 4547              	.L816:
 4548 4478 660F28EA 		movapd	%xmm2, %xmm5
 4549 447c F20F59D2 		mulsd	%xmm2, %xmm2
 4550 4480 F20F1035 		movsd	.LC43(%rip), %xmm6
 4550      00000000 
 4551 4488 F20F58E8 		addsd	%xmm0, %xmm5
 4552 448c F2440F10 		movsd	.LC10(%rip), %xmm14
 4552      35000000 
 4552      00
 4553 4495 F20F59C0 		mulsd	%xmm0, %xmm0
 4554 4499 F20F594C 		mulsd	72(%rsp), %xmm1
 4554      2448
 4555 449f F20F59F5 		mulsd	%xmm5, %xmm6
 4556 44a3 F2440F59 		mulsd	%xmm5, %xmm14
 4556      F5
 4557 44a8 F20F58C2 		addsd	%xmm2, %xmm0
 4558 44ac F20F5835 		addsd	.LC12(%rip), %xmm6
 4558      00000000 
 4559 44b4 F2410F59 		mulsd	%xmm14, %xmm5
 4559      EE
 4560 44b9 F20F5905 		mulsd	.LC42(%rip), %xmm0
 4560      00000000 
 4561 44c1 F20F58F5 		addsd	%xmm5, %xmm6
GAS LISTING /tmp/cce5yULP.s 			page 124


 4562 44c5 F20F5CF0 		subsd	%xmm0, %xmm6
 4563 44c9 F20F59F1 		mulsd	%xmm1, %xmm6
 4564 44cd F20F11B4 		movsd	%xmm6, 1608(%rsp)
 4564      24480600 
 4564      00
 4565 44d6 662E0F1F 		.p2align 4,,10
 4565      84000000 
 4565      0000
 4566              		.p2align 3
 4567              	.L818:
 4568 44e0 F20F1084 		movsd	1552(%rsp,%rax,8), %xmm0
 4568      C4100600 
 4568      00
 4569 44e9 4883C001 		addq	$1, %rax
 4570 44ed 4883C220 		addq	$32, %rdx
 4571 44f1 F20F59D8 		mulsd	%xmm0, %xmm3
 4572 44f5 F20F58E0 		addsd	%xmm0, %xmm4
 4573 44f9 F20F5942 		mulsd	-16(%rdx), %xmm0
 4573      F0
 4574 44fe 4883F809 		cmpq	$9, %rax
 4575 4502 F2440F58 		addsd	%xmm3, %xmm8
 4575      C3
 4576 4507 F20F58F8 		addsd	%xmm0, %xmm7
 4577 450b F2440F11 		movsd	%xmm8, 568(%rsp)
 4577      84243802 
 4577      0000
 4578 4515 F20F11BC 		movsd	%xmm7, 576(%rsp)
 4578      24400200 
 4578      00
 4579 451e 0F85ECFE 		jne	.L819
 4579      FFFF
 4580 4524 F20F1084 		movsd	1088(%rsp), %xmm0
 4580      24400400 
 4580      00
 4581 452d 488DBC24 		leaq	592(%rsp), %rdi
 4581      50020000 
 4582 4535 F20F1164 		movsd	%xmm4, 72(%rsp)
 4582      2448
 4583 453b F2440F5E 		divsd	%xmm0, %xmm8
 4583      C0
 4584 4540 F20F5EF8 		divsd	%xmm0, %xmm7
 4585 4544 F2440F11 		movsd	%xmm8, 600(%rsp)
 4585      84245802 
 4585      0000
 4586 454e F20F11BC 		movsd	%xmm7, 608(%rsp)
 4586      24600200 
 4586      00
 4587 4557 E8000000 		call	_ZN10vector_var9MagnitudeEv
 4587      00
 4588              	.LEHE111:
 4589 455c 488B8424 		movq	208(%rsp), %rax
 4589      D0000000 
 4590 4564 F20F1144 		movsd	%xmm0, 80(%rsp)
 4590      2450
 4591 456a 4C8DA424 		leaq	656(%rsp), %r12
 4591      90020000 
 4592 4572 31DB     		xorl	%ebx, %ebx
GAS LISTING /tmp/cce5yULP.s 			page 125


 4593              		.p2align 4,,10
 4594 4574 0F1F4000 		.p2align 3
 4595              	.L820:
 4596 4578 488D2C9D 		leaq	0(,%rbx,4), %rbp
 4596      00000000 
 4597 4580 F20F10BC 		movsd	1088(%rsp), %xmm7
 4597      24400400 
 4597      00
 4598 4589 F20F10A4 		movsd	600(%rsp), %xmm4
 4598      24580200 
 4598      00
 4599 4592 488DB424 		leaq	688(%rsp), %rsi
 4599      B0020000 
 4600 459a 4801E8   		addq	%rbp, %rax
 4601 459d F20F117C 		movsd	%xmm7, 24(%rsp)
 4601      2418
 4602 45a3 4C89E7   		movq	%r12, %rdi
 4603 45a6 F20F1040 		movsd	8(%rax), %xmm0
 4603      08
 4604 45ab 48C78424 		movq	$_ZTV10vector_var+16, 656(%rsp)
 4604      90020000 
 4604      00000000 
 4605 45b7 F20F10BC 		movsd	608(%rsp), %xmm7
 4605      24600200 
 4605      00
 4606 45c0 F20F1184 		movsd	%xmm0, 664(%rsp)
 4606      24980200 
 4606      00
 4607 45c9 660F28EF 		movapd	%xmm7, %xmm5
 4608 45cd F20F1040 		movsd	16(%rax), %xmm0
 4608      10
 4609 45d2 F20F10BC 		movsd	616(%rsp), %xmm7
 4609      24680200 
 4609      00
 4610 45db F2410F10 		movsd	40(%r13), %xmm6
 4610      7528
 4611 45e1 660F28DF 		movapd	%xmm7, %xmm3
 4612 45e5 F20F1184 		movsd	%xmm0, 672(%rsp)
 4612      24A00200 
 4612      00
 4613 45ee F20F10BC 		movsd	1632(%rsp,%rbx), %xmm7
 4613      1C600600 
 4613      00
 4614 45f7 F20F1040 		movsd	24(%rax), %xmm0
 4614      18
 4615 45fc F20F1174 		movsd	%xmm6, 8(%rsp)
 4615      2408
 4616 4602 48C78424 		movq	$_ZTV10vector_var+16, 688(%rsp)
 4616      B0020000 
 4616      00000000 
 4617 460e F20F1184 		movsd	%xmm0, 680(%rsp)
 4617      24A80200 
 4617      00
 4618 4617 F20F117C 		movsd	%xmm7, 16(%rsp)
 4618      2410
 4619 461d F20F1164 		movsd	%xmm4, 32(%rsp)
 4619      2420
GAS LISTING /tmp/cce5yULP.s 			page 126


 4620 4623 F20F11A4 		movsd	%xmm4, 696(%rsp)
 4620      24B80200 
 4620      00
 4621 462c F20F116C 		movsd	%xmm5, 40(%rsp)
 4621      2428
 4622 4632 F20F11AC 		movsd	%xmm5, 704(%rsp)
 4622      24C00200 
 4622      00
 4623 463b F20F115C 		movsd	%xmm3, 48(%rsp)
 4623      2430
 4624 4641 F20F119C 		movsd	%xmm3, 712(%rsp)
 4624      24C80200 
 4624      00
 4625              	.LEHB112:
 4626 464a E8000000 		call	_ZN10vector_var11Dot_ProductES_
 4626      00
 4627 464f F20F5905 		mulsd	.LC9(%rip), %xmm0
 4627      00000000 
 4628 4657 4C89E7   		movq	%r12, %rdi
 4629 465a 488B7424 		movq	64(%rsp), %rsi
 4629      40
 4630 465f F20F1064 		movsd	32(%rsp), %xmm4
 4630      2420
 4631 4665 F20F106C 		movsd	40(%rsp), %xmm5
 4631      2428
 4632 466b 48C78424 		movq	$_ZTV10vector_var+16, 720(%rsp)
 4632      D0020000 
 4632      00000000 
 4633 4677 F20F105C 		movsd	48(%rsp), %xmm3
 4633      2430
 4634 467d F20F11A4 		movsd	%xmm4, 728(%rsp)
 4634      24D80200 
 4634      00
 4635 4686 F20F11AC 		movsd	%xmm5, 736(%rsp)
 4635      24E00200 
 4635      00
 4636 468f F20F1144 		movsd	%xmm0, 56(%rsp)
 4636      2438
 4637 4695 F20F119C 		movsd	%xmm3, 744(%rsp)
 4637      24E80200 
 4637      00
 4638 469e E8000000 		call	_ZN10vector_var11Dot_ProductES_
 4638      00
 4639              	.LEHE112:
 4640 46a3 F20F1074 		movsd	8(%rsp), %xmm6
 4640      2408
 4641 46a9 F20F59C0 		mulsd	%xmm0, %xmm0
 4642 46ad 488B8424 		movq	208(%rsp), %rax
 4642      D0000000 
 4643 46b5 F20F5974 		mulsd	80(%rsp), %xmm6
 4643      2450
 4644 46bb F20F107C 		movsd	16(%rsp), %xmm7
 4644      2410
 4645 46c1 F2410F10 		movsd	16(%r13), %xmm2
 4645      5510
 4646 46c7 4801C5   		addq	%rax, %rbp
 4647 46ca 660F28CE 		movapd	%xmm6, %xmm1
GAS LISTING /tmp/cce5yULP.s 			page 127


 4648 46ce F20F59CE 		mulsd	%xmm6, %xmm1
 4649 46d2 F20F1035 		movsd	.LC12(%rip), %xmm6
 4649      00000000 
 4650 46da F20F5CC1 		subsd	%xmm1, %xmm0
 4651 46de F20F104C 		movsd	72(%rsp), %xmm1
 4651      2448
 4652 46e4 F20F59CF 		mulsd	%xmm7, %xmm1
 4653 46e8 F20F5905 		mulsd	.LC10(%rip), %xmm0
 4653      00000000 
 4654 46f0 F20F5844 		addsd	56(%rsp), %xmm0
 4654      2438
 4655 46f6 F20F59C7 		mulsd	%xmm7, %xmm0
 4656 46fa F20F103D 		movsd	.LC12(%rip), %xmm7
 4656      00000000 
 4657 4702 F20F5944 		mulsd	24(%rsp), %xmm0
 4657      2418
 4658 4708 F20F58C1 		addsd	%xmm1, %xmm0
 4659 470c 660F28CA 		movapd	%xmm2, %xmm1
 4660 4710 F20F58D2 		addsd	%xmm2, %xmm2
 4661 4714 660F570D 		xorpd	.LC17(%rip), %xmm1
 4661      00000000 
 4662 471c 660F28D8 		movapd	%xmm0, %xmm3
 4663 4720 F20F5EF2 		divsd	%xmm2, %xmm6
 4664 4724 F20F5C9C 		subsd	1552(%rsp,%rbx), %xmm3
 4664      1C100600 
 4664      00
 4665 472d 4883C308 		addq	$8, %rbx
 4666 4731 4883FB48 		cmpq	$72, %rbx
 4667 4735 F20F59CB 		mulsd	%xmm3, %xmm1
 4668 4739 F20F1055 		movsd	8(%rbp), %xmm2
 4668      08
 4669 473e F20F105D 		movsd	16(%rbp), %xmm3
 4669      10
 4670 4743 F20F5CFE 		subsd	%xmm6, %xmm7
 4671 4747 660F28EA 		movapd	%xmm2, %xmm5
 4672 474b 660F28E2 		movapd	%xmm2, %xmm4
 4673 474f F20F59E8 		mulsd	%xmm0, %xmm5
 4674 4753 F20F59E2 		mulsd	%xmm2, %xmm4
 4675 4757 F20F59CF 		mulsd	%xmm7, %xmm1
 4676 475b F20F59D3 		mulsd	%xmm3, %xmm2
 4677 475f F20F10B4 		movsd	824(%rsp), %xmm6
 4677      24380300 
 4677      00
 4678 4768 F20F58AC 		addsd	808(%rsp), %xmm5
 4678      24280300 
 4678      00
 4679 4771 F20F58C8 		addsd	%xmm0, %xmm1
 4680 4775 F20F59C3 		mulsd	%xmm3, %xmm0
 4681 4779 F20F59DB 		mulsd	%xmm3, %xmm3
 4682 477d F20F59D1 		mulsd	%xmm1, %xmm2
 4683 4781 F20F5884 		addsd	856(%rsp), %xmm0
 4683      24580300 
 4683      00
 4684 478a F20F11AC 		movsd	%xmm5, 808(%rsp)
 4684      24280300 
 4684      00
 4685 4793 F20F59E1 		mulsd	%xmm1, %xmm4
GAS LISTING /tmp/cce5yULP.s 			page 128


 4686 4797 F20F59CB 		mulsd	%xmm3, %xmm1
 4687 479b F20F58F2 		addsd	%xmm2, %xmm6
 4688 479f F20F58A4 		addsd	816(%rsp), %xmm4
 4688      24300300 
 4688      00
 4689 47a8 F20F5894 		addsd	864(%rsp), %xmm2
 4689      24600300 
 4689      00
 4690 47b1 F20F1184 		movsd	%xmm0, 856(%rsp)
 4690      24580300 
 4690      00
 4691 47ba F20F588C 		addsd	872(%rsp), %xmm1
 4691      24680300 
 4691      00
 4692 47c3 F20F11B4 		movsd	%xmm6, 824(%rsp)
 4692      24380300 
 4692      00
 4693 47cc F20F11A4 		movsd	%xmm4, 816(%rsp)
 4693      24300300 
 4693      00
 4694 47d5 F20F1194 		movsd	%xmm2, 864(%rsp)
 4694      24600300 
 4694      00
 4695 47de F20F118C 		movsd	%xmm1, 872(%rsp)
 4695      24680300 
 4695      00
 4696 47e7 0F858BFD 		jne	.L820
 4696      FFFF
 4697 47ed F2440F10 		movsd	632(%rsp), %xmm8
 4697      84247802 
 4697      0000
 4698 47f7 F20F10BC 		movsd	640(%rsp), %xmm7
 4698      24800200 
 4698      00
 4699 4800 F2410F59 		mulsd	%xmm8, %xmm5
 4699      E8
 4700 4805 488B4424 		movq	88(%rsp), %rax
 4700      58
 4701 480a 488B8C24 		movq	1112(%rsp), %rcx
 4701      58040000 
 4702 4812 F20F59C7 		mulsd	%xmm7, %xmm0
 4703 4816 F2410F59 		mulsd	%xmm8, %xmm4
 4703      E0
 4704 481b F20F59D7 		mulsd	%xmm7, %xmm2
 4705 481f 488B90D8 		movq	216(%rax), %rdx
 4705      000000
 4706 4826 4A8D0439 		leaq	(%rcx,%r15), %rax
 4707 482a F2410F59 		mulsd	%xmm8, %xmm6
 4707      F0
 4708 482f F20F59CF 		mulsd	%xmm7, %xmm1
 4709 4833 F20F58C5 		addsd	%xmm5, %xmm0
 4710 4837 F20F109C 		movsd	200(%rsp), %xmm3
 4710      24C80000 
 4710      00
 4711 4840 4A8D343A 		leaq	(%rdx,%r15), %rsi
 4712 4844 F20F58D4 		addsd	%xmm4, %xmm2
 4713 4848 660F571D 		xorpd	.LC17(%rip), %xmm3
GAS LISTING /tmp/cce5yULP.s 			page 129


 4713      00000000 
 4714 4850 F20F58CE 		addsd	%xmm6, %xmm1
 4715 4854 F20F59C3 		mulsd	%xmm3, %xmm0
 4716 4858 F20F59D3 		mulsd	%xmm3, %xmm2
 4717 485c F20F59CB 		mulsd	%xmm3, %xmm1
 4718 4860 660FEFDB 		pxor	%xmm3, %xmm3
 4719 4864 F20F1184 		movsd	%xmm0, 904(%rsp)
 4719      24880300 
 4719      00
 4720 486d F20F1194 		movsd	%xmm2, 912(%rsp)
 4720      24900300 
 4720      00
 4721 4876 F20F118C 		movsd	%xmm1, 920(%rsp)
 4721      24980300 
 4721      00
 4722 487f F20F5E06 		divsd	(%rsi), %xmm0
 4723 4883 F20F5800 		addsd	(%rax), %xmm0
 4724 4887 F20F1100 		movsd	%xmm0, (%rax)
 4725 488b 48638424 		movslq	196(%rsp), %rax
 4725      C4000000 
 4726 4893 F20F1084 		movsd	904(%rsp), %xmm0
 4726      24880300 
 4726      00
 4727 489c 660F5705 		xorpd	.LC17(%rip), %xmm0
 4727      00000000 
 4728 48a4 48C1E003 		salq	$3, %rax
 4729 48a8 4801C2   		addq	%rax, %rdx
 4730 48ab 4801C1   		addq	%rax, %rcx
 4731 48ae F20F5E02 		divsd	(%rdx), %xmm0
 4732 48b2 F20F5801 		addsd	(%rcx), %xmm0
 4733 48b6 F20F1101 		movsd	%xmm0, (%rcx)
 4734 48ba 488B8C24 		movq	1120(%rsp), %rcx
 4734      60040000 
 4735 48c2 F20F1084 		movsd	912(%rsp), %xmm0
 4735      24900300 
 4735      00
 4736 48cb 4A8D3C39 		leaq	(%rcx,%r15), %rdi
 4737 48cf 4801C1   		addq	%rax, %rcx
 4738 48d2 F20F5E06 		divsd	(%rsi), %xmm0
 4739 48d6 F20F5807 		addsd	(%rdi), %xmm0
 4740 48da F20F1107 		movsd	%xmm0, (%rdi)
 4741 48de F20F1084 		movsd	912(%rsp), %xmm0
 4741      24900300 
 4741      00
 4742 48e7 660F5705 		xorpd	.LC17(%rip), %xmm0
 4742      00000000 
 4743 48ef F20F5E02 		divsd	(%rdx), %xmm0
 4744 48f3 F20F5801 		addsd	(%rcx), %xmm0
 4745 48f7 F20F1101 		movsd	%xmm0, (%rcx)
 4746 48fb 488B8C24 		movq	1128(%rsp), %rcx
 4746      68040000 
 4747 4903 F20F1084 		movsd	920(%rsp), %xmm0
 4747      24980300 
 4747      00
 4748 490c 4A8D3C39 		leaq	(%rcx,%r15), %rdi
 4749 4910 4801C8   		addq	%rcx, %rax
 4750 4913 4183FE02 		cmpl	$2, %r14d
GAS LISTING /tmp/cce5yULP.s 			page 130


 4751 4917 F20F5E06 		divsd	(%rsi), %xmm0
 4752 491b F20F5807 		addsd	(%rdi), %xmm0
 4753 491f 8BB42498 		movl	152(%rsp), %esi
 4753      000000
 4754 4926 F20F1107 		movsd	%xmm0, (%rdi)
 4755 492a F20F1084 		movsd	920(%rsp), %xmm0
 4755      24980300 
 4755      00
 4756 4933 660F5705 		xorpd	.LC17(%rip), %xmm0
 4756      00000000 
 4757 493b F20F5E02 		divsd	(%rdx), %xmm0
 4758 493f F20F5800 		addsd	(%rax), %xmm0
 4759 4943 F20F1100 		movsd	%xmm0, (%rax)
 4760 4947 F20F1094 		movsd	920(%rsp), %xmm2
 4760      24980300 
 4760      00
 4761 4950 F20F108C 		movsd	912(%rsp), %xmm1
 4761      24900300 
 4761      00
 4762 4959 F20F1084 		movsd	904(%rsp), %xmm0
 4762      24880300 
 4762      00
 4763 4962 0F84D709 		je	.L1261
 4763      0000
 4764 4968 488DBC24 		leaq	1264(%rsp), %rdi
 4764      F0040000 
 4765              	.LEHB113:
 4766 4970 E8000000 		call	_ZN8Solution6updateEddddi
 4766      00
 4767              	.L968:
 4768 4975 4183C601 		addl	$1, %r14d
 4769 4979 4183FE04 		cmpl	$4, %r14d
 4770 497d 0F853EF6 		jne	.L822
 4770      FFFF
 4771 4983 488B4424 		movq	88(%rsp), %rax
 4771      58
 4772 4988 8B4010   		movl	16(%rax), %eax
 4773              	.L805:
 4774 498b 488B7424 		movq	96(%rsp), %rsi
 4774      60
 4775 4990 8D5601   		leal	1(%rsi), %edx
 4776 4993 4883C601 		addq	$1, %rsi
 4777 4997 48897424 		movq	%rsi, 96(%rsp)
 4777      60
 4778 499c 39C2     		cmpl	%eax, %edx
 4779 499e 0F8C6CF5 		jl	.L823
 4779      FFFF
 4780 49a4 4C63A424 		movslq	168(%rsp), %r12
 4780      A8000000 
 4781 49ac 31DB     		xorl	%ebx, %ebx
 4782 49ae 85C0     		testl	%eax, %eax
 4783 49b0 4589E6   		movl	%r12d, %r14d
 4784 49b3 7F1A     		jg	.L1091
 4785 49b5 E9670100 		jmp	.L803
 4785      00
 4786 49ba 660F1F44 		.p2align 4,,10
 4786      0000
GAS LISTING /tmp/cce5yULP.s 			page 131


 4787              		.p2align 3
 4788              	.L825:
 4789 49c0 8D5301   		leal	1(%rbx), %edx
 4790 49c3 4883C301 		addq	$1, %rbx
 4791 49c7 39C2     		cmpl	%eax, %edx
 4792 49c9 0F8D5201 		jge	.L803
 4792      0000
 4793              	.L1091:
 4794 49cf 488B7C24 		movq	104(%rsp), %rdi
 4794      68
 4795 49d4 488B5708 		movq	8(%rdi), %rdx
 4796 49d8 803C1A00 		cmpb	$0, (%rdx,%rbx)
 4797 49dc 75E2     		jne	.L825
 4798 49de 488B8424 		movq	1120(%rsp), %rax
 4798      60040000 
 4799 49e6 F20F10BC 		movsd	128(%rsp), %xmm7
 4799      24800000 
 4799      00
 4800 49ef F2420F10 		movsd	1720(%rsp,%r12,8), %xmm0
 4800      84E4B806 
 4800      0000
 4801 49f9 488DBC24 		leaq	944(%rsp), %rdi
 4801      B0030000 
 4802 4a01 F20F10A4 		movsd	1088(%rsp), %xmm4
 4802      24400400 
 4802      00
 4803 4a0a 89DE     		movl	%ebx, %esi
 4804 4a0c F20F100C 		movsd	(%rax,%rbx,8), %xmm1
 4804      D8
 4805 4a11 488B8424 		movq	1040(%rsp), %rax
 4805      10040000 
 4806 4a19 488D2CDD 		leaq	0(,%rbx,8), %rbp
 4806      00000000 
 4807 4a21 F20F59CF 		mulsd	%xmm7, %xmm1
 4808 4a25 F20F59C8 		mulsd	%xmm0, %xmm1
 4809 4a29 F20F580C 		addsd	(%rax,%rbx,8), %xmm1
 4809      D8
 4810 4a2e 488B8424 		movq	1128(%rsp), %rax
 4810      68040000 
 4811 4a36 F20F1014 		movsd	(%rax,%rbx,8), %xmm2
 4811      D8
 4812 4a3b 488B8424 		movq	1048(%rsp), %rax
 4812      18040000 
 4813 4a43 F20F59D7 		mulsd	%xmm7, %xmm2
 4814 4a47 F20F5ECC 		divsd	%xmm4, %xmm1
 4815 4a4b F20F59D0 		mulsd	%xmm0, %xmm2
 4816 4a4f F20F5814 		addsd	(%rax,%rbx,8), %xmm2
 4816      D8
 4817 4a54 488B8424 		movq	1112(%rsp), %rax
 4817      58040000 
 4818 4a5c F20F101C 		movsd	(%rax,%rbx,8), %xmm3
 4818      D8
 4819 4a61 488B8424 		movq	1032(%rsp), %rax
 4819      08040000 
 4820 4a69 F20F59DF 		mulsd	%xmm7, %xmm3
 4821 4a6d F20F5ED4 		divsd	%xmm4, %xmm2
 4822 4a71 F20F59C3 		mulsd	%xmm3, %xmm0
GAS LISTING /tmp/cce5yULP.s 			page 132


 4823 4a75 660FEFDB 		pxor	%xmm3, %xmm3
 4824 4a79 F20F5804 		addsd	(%rax,%rbx,8), %xmm0
 4824      D8
 4825 4a7e E8000000 		call	_ZN8Solution6updateEddddi
 4825      00
 4826 4a83 488BB424 		movq	144(%rsp), %rsi
 4826      90000000 
 4827 4a8b F20F109C 		movsd	128(%rsp), %xmm3
 4827      24800000 
 4827      00
 4828 4a94 488B9424 		movq	1112(%rsp), %rdx
 4828      58040000 
 4829 4a9c 488BBC24 		movq	136(%rsp), %rdi
 4829      88000000 
 4830 4aa4 4889E8   		movq	%rbp, %rax
 4831 4aa7 F20F1046 		movsd	40(%rsi), %xmm0
 4831      28
 4832 4aac 48034708 		addq	8(%rdi), %rax
 4833 4ab0 F20F59C3 		mulsd	%xmm3, %xmm0
 4834 4ab4 F20F5904 		mulsd	(%rdx,%rbx,8), %xmm0
 4834      DA
 4835 4ab9 488B9424 		movq	1120(%rsp), %rdx
 4835      60040000 
 4836 4ac1 F20F5800 		addsd	(%rax), %xmm0
 4837 4ac5 F20F1100 		movsd	%xmm0, (%rax)
 4838 4ac9 4889E8   		movq	%rbp, %rax
 4839 4acc 48034710 		addq	16(%rdi), %rax
 4840 4ad0 48036F18 		addq	24(%rdi), %rbp
 4841 4ad4 F20F1046 		movsd	40(%rsi), %xmm0
 4841      28
 4842 4ad9 F20F59C3 		mulsd	%xmm3, %xmm0
 4843 4add F20F5904 		mulsd	(%rdx,%rbx,8), %xmm0
 4843      DA
 4844 4ae2 8D5301   		leal	1(%rbx), %edx
 4845 4ae5 F20F5800 		addsd	(%rax), %xmm0
 4846 4ae9 F20F1100 		movsd	%xmm0, (%rax)
 4847 4aed 488B8424 		movq	1128(%rsp), %rax
 4847      68040000 
 4848 4af5 F20F1046 		movsd	40(%rsi), %xmm0
 4848      28
 4849 4afa F20F59C3 		mulsd	%xmm3, %xmm0
 4850 4afe F20F5904 		mulsd	(%rax,%rbx,8), %xmm0
 4850      D8
 4851 4b03 488B4424 		movq	88(%rsp), %rax
 4851      58
 4852 4b08 4883C301 		addq	$1, %rbx
 4853 4b0c 8B4010   		movl	16(%rax), %eax
 4854 4b0f F20F5845 		addsd	0(%rbp), %xmm0
 4854      00
 4855 4b14 39C2     		cmpl	%eax, %edx
 4856 4b16 F20F1145 		movsd	%xmm0, 0(%rbp)
 4856      00
 4857 4b1b 0F8CAEFE 		jl	.L1091
 4857      FFFF
 4858              	.L803:
 4859 4b21 838424A8 		addl	$1, 168(%rsp)
 4859      00000001 
GAS LISTING /tmp/cce5yULP.s 			page 133


 4860 4b29 48838424 		addq	$8, 144(%rsp)
 4860      90000000 
 4860      08
 4861 4b32 4439B424 		cmpl	%r14d, 1784(%rsp)
 4861      F8060000 
 4862 4b3a 0F8F88F3 		jg	.L828
 4862      FFFF
 4863              	.L827:
 4864 4b40 31DB     		xorl	%ebx, %ebx
 4865 4b42 85C0     		testl	%eax, %eax
 4866 4b44 7F19     		jg	.L1090
 4867 4b46 E9D00000 		jmp	.L834
 4867      00
 4868 4b4b 0F1F4400 		.p2align 4,,10
 4868      00
 4869              		.p2align 3
 4870              	.L829:
 4871 4b50 8D5301   		leal	1(%rbx), %edx
 4872 4b53 4883C301 		addq	$1, %rbx
 4873 4b57 39C2     		cmpl	%eax, %edx
 4874 4b59 0F8DBC00 		jge	.L834
 4874      0000
 4875              	.L1090:
 4876 4b5f 488B7C24 		movq	104(%rsp), %rdi
 4876      68
 4877 4b64 488B5708 		movq	8(%rdi), %rdx
 4878 4b68 803C1A00 		cmpb	$0, (%rdx,%rbx)
 4879 4b6c 75E2     		jne	.L829
 4880 4b6e 488BBC24 		movq	136(%rsp), %rdi
 4880      88000000 
 4881 4b76 F20F10B4 		movsd	128(%rsp), %xmm6
 4881      24800000 
 4881      00
 4882 4b7f 488D2CDD 		leaq	0(,%rbx,8), %rbp
 4882      00000000 
 4883 4b87 488B5718 		movq	24(%rdi), %rdx
 4884 4b8b 488B4710 		movq	16(%rdi), %rax
 4885 4b8f 488B4F08 		movq	8(%rdi), %rcx
 4886 4b93 488DBC24 		leaq	1344(%rsp), %rdi
 4886      40050000 
 4887 4b9b F20F1024 		movsd	(%rdx,%rbx,8), %xmm4
 4887      DA
 4888 4ba0 488B9424 		movq	1040(%rsp), %rdx
 4888      10040000 
 4889 4ba8 F20F1004 		movsd	(%rcx,%rbx,8), %xmm0
 4889      D9
 4890 4bad 488B8C24 		movq	1048(%rsp), %rcx
 4890      18040000 
 4891 4bb5 F20F1014 		movsd	(%rax,%rbx,8), %xmm2
 4891      D8
 4892 4bba 488B8424 		movq	1032(%rsp), %rax
 4892      08040000 
 4893 4bc2 F20F101C 		movsd	(%rdx,%rbx,8), %xmm3
 4893      DA
 4894 4bc7 F20F102C 		movsd	(%rcx,%rbx,8), %xmm5
 4894      D9
 4895 4bcc F20F100C 		movsd	(%rax,%rbx,8), %xmm1
GAS LISTING /tmp/cce5yULP.s 			page 134


 4895      D8
 4896 4bd1 E8000000 		call	_ZN9residuals27add_ansys_l2_norm_residualsEddddddd
 4896      00
 4897 4bd6 488B8424 		movq	952(%rsp), %rax
 4897      B8030000 
 4898 4bde F20F1004 		movsd	(%rax,%rbx,8), %xmm0
 4898      D8
 4899 4be3 660F2EC0 		ucomisd	%xmm0, %xmm0
 4900 4be7 0F8A000A 		jp	.L1204
 4900      0000
 4901 4bed 488B8424 		movq	960(%rsp), %rax
 4901      C0030000 
 4902 4bf5 F20F1004 		movsd	(%rax,%rbp), %xmm0
 4902      28
 4903 4bfa 660F2EC0 		ucomisd	%xmm0, %xmm0
 4904 4bfe 0F8AE909 		jp	.L1204
 4904      0000
 4905 4c04 488B4424 		movq	88(%rsp), %rax
 4905      58
 4906 4c09 8D5301   		leal	1(%rbx), %edx
 4907 4c0c 4883C301 		addq	$1, %rbx
 4908 4c10 8B4010   		movl	16(%rax), %eax
 4909 4c13 39C2     		cmpl	%eax, %edx
 4910 4c15 0F8C44FF 		jl	.L1090
 4910      FFFF
 4911              	.L834:
 4912 4c1b 8BB4249C 		movl	156(%rsp), %esi
 4912      000000
 4913 4c22 488DBC24 		leaq	1344(%rsp), %rdi
 4913      40050000 
 4914 4c2a E8000000 		call	_ZN9residuals16ansys_5_iter_rmsEi
 4914      00
 4915 4c2f 8B9424A8 		movl	3496(%rsp), %edx
 4915      0D0000
 4916 4c36 85D2     		testl	%edx, %edx
 4917 4c38 7534     		jne	.L835
 4918 4c3a 8B84249C 		movl	156(%rsp), %eax
 4918      000000
 4919 4c41 BAD34D62 		movl	$274877907, %edx
 4919      10
 4920 4c46 8B9C249C 		movl	156(%rsp), %ebx
 4920      000000
 4921 4c4d F7EA     		imull	%edx
 4922 4c4f 89D0     		movl	%edx, %eax
 4923 4c51 89DA     		movl	%ebx, %edx
 4924 4c53 C1FA1F   		sarl	$31, %edx
 4925 4c56 C1F806   		sarl	$6, %eax
 4926 4c59 29D0     		subl	%edx, %eax
 4927 4c5b 89DA     		movl	%ebx, %edx
 4928 4c5d 69C0E803 		imull	$1000, %eax, %eax
 4928      0000
 4929 4c63 29C2     		subl	%eax, %edx
 4930 4c65 83FA01   		cmpl	$1, %edx
 4931 4c68 0F84F40B 		je	.L1262
 4931      0000
 4932              	.L835:
 4933 4c6e 488DBC24 		leaq	1344(%rsp), %rdi
GAS LISTING /tmp/cce5yULP.s 			page 135


 4933      40050000 
 4934 4c76 E8000000 		call	_ZN9residuals9max_errorEv
 4934      00
 4935 4c7b F20F10BC 		movsd	184(%rsp), %xmm7
 4935      24B80000 
 4935      00
 4936 4c84 660F2EF8 		ucomisd	%xmm0, %xmm7
 4937 4c88 0F875F09 		ja	.L1204
 4937      0000
 4938 4c8e 8384249C 		addl	$1, 156(%rsp)
 4938      00000001 
 4939 4c96 8B84249C 		movl	156(%rsp), %eax
 4939      000000
 4940 4c9d 398424AC 		cmpl	%eax, 172(%rsp)
 4940      000000
 4941 4ca4 0F85BFF1 		jne	.L845
 4941      FFFF
 4942              	.L844:
 4943 4caa 488D8424 		leaq	2880(%rsp), %rax
 4943      400B0000 
 4944 4cb2 488D7808 		leaq	8(%rax), %rdi
 4945 4cb6 E8000000 		call	_ZNSt13basic_filebufIcSt11char_traitsIcEE5closeEv
 4945      00
 4946              	.LEHE113:
 4947 4cbb 4885C0   		testq	%rax, %rax
 4948 4cbe 0F84A106 		je	.L1263
 4948      0000
 4949              	.L848:
 4950 4cc4 488D9C24 		leaq	2592(%rsp), %rbx
 4950      200A0000 
 4951              	.L847:
 4952 4ccc 4883EB28 		subq	$40, %rbx
 4953 4cd0 488B03   		movq	(%rbx), %rax
 4954 4cd3 4889DF   		movq	%rbx, %rdi
 4955 4cd6 FF10     		call	*(%rax)
 4956 4cd8 488D8424 		leaq	2432(%rsp), %rax
 4956      80090000 
 4957 4ce0 4839C3   		cmpq	%rax, %rbx
 4958 4ce3 75E7     		jne	.L847
 4959 4ce5 488D9C24 		leaq	2432(%rsp), %rbx
 4959      80090000 
 4960              	.L852:
 4961 4ced 4883EB28 		subq	$40, %rbx
 4962 4cf1 488B03   		movq	(%rbx), %rax
 4963 4cf4 4889DF   		movq	%rbx, %rdi
 4964 4cf7 FF10     		call	*(%rax)
 4965 4cf9 488D8424 		leaq	2272(%rsp), %rax
 4965      E0080000 
 4966 4d01 4839C3   		cmpq	%rax, %rbx
 4967 4d04 75E7     		jne	.L852
 4968 4d06 488D9C24 		leaq	2272(%rsp), %rbx
 4968      E0080000 
 4969              	.L856:
 4970 4d0e 4883EB28 		subq	$40, %rbx
 4971 4d12 488B03   		movq	(%rbx), %rax
 4972 4d15 4889DF   		movq	%rbx, %rdi
 4973 4d18 FF10     		call	*(%rax)
GAS LISTING /tmp/cce5yULP.s 			page 136


 4974 4d1a 488D8424 		leaq	2112(%rsp), %rax
 4974      40080000 
 4975 4d22 4839C3   		cmpq	%rax, %rbx
 4976 4d25 75E7     		jne	.L856
 4977 4d27 488D9C24 		leaq	2112(%rsp), %rbx
 4977      40080000 
 4978              	.L860:
 4979 4d2f 4883EB28 		subq	$40, %rbx
 4980 4d33 488B03   		movq	(%rbx), %rax
 4981 4d36 4889DF   		movq	%rbx, %rdi
 4982 4d39 FF10     		call	*(%rax)
 4983 4d3b 488D8424 		leaq	1952(%rsp), %rax
 4983      A0070000 
 4984 4d43 4839C3   		cmpq	%rax, %rbx
 4985 4d46 75E7     		jne	.L860
 4986 4d48 488D9C24 		leaq	1952(%rsp), %rbx
 4986      A0070000 
 4987              	.L864:
 4988 4d50 4883EB28 		subq	$40, %rbx
 4989 4d54 488B03   		movq	(%rbx), %rax
 4990 4d57 4889DF   		movq	%rbx, %rdi
 4991 4d5a FF10     		call	*(%rax)
 4992 4d5c 488D8424 		leaq	1792(%rsp), %rax
 4992      00070000 
 4993 4d64 4839C3   		cmpq	%rax, %rbx
 4994 4d67 75E7     		jne	.L864
 4995 4d69 488DBC24 		leaq	896(%rsp), %rdi
 4995      80030000 
 4996 4d71 E8000000 		call	_ZN8flux_varD1Ev
 4996      00
 4997 4d76 488DBC24 		leaq	848(%rsp), %rdi
 4997      50030000 
 4998 4d7e E8000000 		call	_ZN8flux_varD1Ev
 4998      00
 4999 4d83 488DBC24 		leaq	800(%rsp), %rdi
 4999      20030000 
 5000 4d8b E8000000 		call	_ZN8flux_varD1Ev
 5000      00
 5001 4d90 488DBC24 		leaq	1344(%rsp), %rdi
 5001      40050000 
 5002 4d98 E8000000 		call	_ZN9residualsD1Ev
 5002      00
 5003 4d9d 488BAC24 		movq	216(%rsp), %rbp
 5003      D8000000 
 5004 4da5 488B9C24 		movq	208(%rsp), %rbx
 5004      D0000000 
 5005 4dad 4839DD   		cmpq	%rbx, %rbp
 5006 4db0 7424     		je	.L867
 5007              	.L869:
 5008 4db2 488B03   		movq	(%rbx), %rax
 5009 4db5 488B00   		movq	(%rax), %rax
 5010 4db8 483D0000 		cmpq	$_ZN10vector_varD2Ev, %rax
 5010      0000
 5011 4dbe 7405     		je	.L868
 5012 4dc0 4889DF   		movq	%rbx, %rdi
 5013 4dc3 FFD0     		call	*%rax
 5014              	.L868:
GAS LISTING /tmp/cce5yULP.s 			page 137


 5015 4dc5 4883C320 		addq	$32, %rbx
 5016 4dc9 4839DD   		cmpq	%rbx, %rbp
 5017 4dcc 75E4     		jne	.L869
 5018 4dce 488BAC24 		movq	208(%rsp), %rbp
 5018      D0000000 
 5019              	.L867:
 5020 4dd6 4885ED   		testq	%rbp, %rbp
 5021 4dd9 7408     		je	.L870
 5022 4ddb 4889EF   		movq	%rbp, %rdi
 5023 4dde E8000000 		call	_ZdlPv
 5023      00
 5024              	.L870:
 5025 4de3 488B8424 		movq	2848(%rsp), %rax
 5025      200B0000 
 5026 4deb 488B00   		movq	(%rax), %rax
 5027 4dee 483D0000 		cmpq	$_ZN10vector_varD2Ev, %rax
 5027      0000
 5028 4df4 740A     		je	.L872
 5029 4df6 488DBC24 		leaq	2848(%rsp), %rdi
 5029      200B0000 
 5030 4dfe FFD0     		call	*%rax
 5031              	.L872:
 5032 4e00 488B8424 		movq	2816(%rsp), %rax
 5032      000B0000 
 5033 4e08 488B00   		movq	(%rax), %rax
 5034 4e0b 483D0000 		cmpq	$_ZN10vector_varD2Ev, %rax
 5034      0000
 5035 4e11 740A     		je	.L874
 5036 4e13 488DBC24 		leaq	2816(%rsp), %rdi
 5036      000B0000 
 5037 4e1b FFD0     		call	*%rax
 5038              	.L874:
 5039 4e1d 488B8424 		movq	2784(%rsp), %rax
 5039      E00A0000 
 5040 4e25 488B00   		movq	(%rax), %rax
 5041 4e28 483D0000 		cmpq	$_ZN10vector_varD2Ev, %rax
 5041      0000
 5042 4e2e 740A     		je	.L876
 5043 4e30 488DBC24 		leaq	2784(%rsp), %rdi
 5043      E00A0000 
 5044 4e38 FFD0     		call	*%rax
 5045              	.L876:
 5046 4e3a 488B8424 		movq	2752(%rsp), %rax
 5046      C00A0000 
 5047 4e42 488B00   		movq	(%rax), %rax
 5048 4e45 483D0000 		cmpq	$_ZN10vector_varD2Ev, %rax
 5048      0000
 5049 4e4b 740A     		je	.L878
 5050 4e4d 488DBC24 		leaq	2752(%rsp), %rdi
 5050      C00A0000 
 5051 4e55 FFD0     		call	*%rax
 5052              	.L878:
 5053 4e57 488B8424 		movq	2720(%rsp), %rax
 5053      A00A0000 
 5054 4e5f 488B00   		movq	(%rax), %rax
 5055 4e62 483D0000 		cmpq	$_ZN10vector_varD2Ev, %rax
 5055      0000
GAS LISTING /tmp/cce5yULP.s 			page 138


 5056 4e68 740A     		je	.L880
 5057 4e6a 488DBC24 		leaq	2720(%rsp), %rdi
 5057      A00A0000 
 5058 4e72 FFD0     		call	*%rax
 5059              	.L880:
 5060 4e74 488B8424 		movq	2688(%rsp), %rax
 5060      800A0000 
 5061 4e7c 488B00   		movq	(%rax), %rax
 5062 4e7f 483D0000 		cmpq	$_ZN10vector_varD2Ev, %rax
 5062      0000
 5063 4e85 740A     		je	.L882
 5064 4e87 488DBC24 		leaq	2688(%rsp), %rdi
 5064      800A0000 
 5065 4e8f FFD0     		call	*%rax
 5066              	.L882:
 5067 4e91 488B8424 		movq	2656(%rsp), %rax
 5067      600A0000 
 5068 4e99 488B00   		movq	(%rax), %rax
 5069 4e9c 483D0000 		cmpq	$_ZN10vector_varD2Ev, %rax
 5069      0000
 5070 4ea2 740A     		je	.L884
 5071 4ea4 488DBC24 		leaq	2656(%rsp), %rdi
 5071      600A0000 
 5072 4eac FFD0     		call	*%rax
 5073              	.L884:
 5074 4eae 488B8424 		movq	2624(%rsp), %rax
 5074      400A0000 
 5075 4eb6 488B00   		movq	(%rax), %rax
 5076 4eb9 483D0000 		cmpq	$_ZN10vector_varD2Ev, %rax
 5076      0000
 5077 4ebf 740A     		je	.L886
 5078 4ec1 488DBC24 		leaq	2624(%rsp), %rdi
 5078      400A0000 
 5079 4ec9 FFD0     		call	*%rax
 5080              	.L886:
 5081 4ecb 488BBC24 		movq	1488(%rsp), %rdi
 5081      D0050000 
 5082 4ed3 488D8424 		leaq	1504(%rsp), %rax
 5082      E0050000 
 5083 4edb 4839C7   		cmpq	%rax, %rdi
 5084 4ede 7405     		je	.L888
 5085 4ee0 E8000000 		call	_ZdlPv
 5085      00
 5086              	.L888:
 5087 4ee5 488DBC24 		leaq	2888(%rsp), %rdi
 5087      480B0000 
 5088 4eed 48C78424 		movq	$_ZTVSt14basic_ofstreamIcSt11char_traitsIcEE+24, 2880(%rsp)
 5088      400B0000 
 5088      00000000 
 5089 4ef9 48C78424 		movq	$_ZTVSt14basic_ofstreamIcSt11char_traitsIcEE+64, 3128(%rsp)
 5089      380C0000 
 5089      00000000 
 5090 4f05 48C78424 		movq	$_ZTVSt13basic_filebufIcSt11char_traitsIcEE+16, 2888(%rsp)
 5090      480B0000 
 5090      00000000 
 5091 4f11 E8000000 		call	_ZNSt13basic_filebufIcSt11char_traitsIcEE5closeEv
 5091      00
GAS LISTING /tmp/cce5yULP.s 			page 139


 5092              	.L1199:
 5093 4f16 488DBC24 		leaq	2992(%rsp), %rdi
 5093      B00B0000 
 5094 4f1e E8000000 		call	_ZNSt12__basic_fileIcED1Ev
 5094      00
 5095 4f23 488DBC24 		leaq	2944(%rsp), %rdi
 5095      800B0000 
 5096 4f2b 48C78424 		movq	$_ZTVSt15basic_streambufIcSt11char_traitsIcEE+16, 2888(%rsp)
 5096      480B0000 
 5096      00000000 
 5097 4f37 E8000000 		call	_ZNSt6localeD1Ev
 5097      00
 5098 4f3c 488B0500 		movq	_ZTTSt14basic_ofstreamIcSt11char_traitsIcEE+8(%rip), %rax
 5098      000000
 5099 4f43 488B1D00 		movq	_ZTTSt14basic_ofstreamIcSt11char_traitsIcEE+16(%rip), %rbx
 5099      000000
 5100 4f4a 488DBC24 		leaq	3128(%rsp), %rdi
 5100      380C0000 
 5101 4f52 488B40E8 		movq	-24(%rax), %rax
 5102 4f56 48899C04 		movq	%rbx, 2880(%rsp,%rax)
 5102      400B0000 
 5103 4f5e 48C78424 		movq	$_ZTVSt9basic_iosIcSt11char_traitsIcEE+16, 3128(%rsp)
 5103      380C0000 
 5103      00000000 
 5104 4f6a E8000000 		call	_ZNSt8ios_baseD2Ev
 5104      00
 5105 4f6f 488DBC24 		leaq	752(%rsp), %rdi
 5105      F0020000 
 5106 4f77 E8000000 		call	_ZN8flux_varD1Ev
 5106      00
 5107 4f7c 488DBC24 		leaq	1264(%rsp), %rdi
 5107      F0040000 
 5108 4f84 E8000000 		call	_ZN8SolutionD1Ev
 5108      00
 5109 4f89 488DBC24 		leaq	1184(%rsp), %rdi
 5109      A0040000 
 5110 4f91 E8000000 		call	_ZN8SolutionD1Ev
 5110      00
 5111 4f96 488DBC24 		leaq	1104(%rsp), %rdi
 5111      50040000 
 5112 4f9e E8000000 		call	_ZN8SolutionD1Ev
 5112      00
 5113 4fa3 488DBC24 		leaq	1024(%rsp), %rdi
 5113      00040000 
 5114 4fab E8000000 		call	_ZN8SolutionD1Ev
 5114      00
 5115 4fb0 488DBC24 		leaq	944(%rsp), %rdi
 5115      B0030000 
 5116 4fb8 E8000000 		call	_ZN8SolutionD1Ev
 5116      00
 5117 4fbd 488DBC24 		leaq	1712(%rsp), %rdi
 5117      B0060000 
 5118 4fc5 E8000000 		call	_ZN10RungeKuttaD1Ev
 5118      00
 5119 4fca 488B8424 		movq	3400(%rsp), %rax
 5119      480D0000 
 5120 4fd2 64483304 		xorq	%fs:40, %rax
GAS LISTING /tmp/cce5yULP.s 			page 140


 5120      25280000 
 5120      00
 5121 4fdb 0F85E505 		jne	.L1264
 5121      0000
 5122 4fe1 4881C458 		addq	$3416, %rsp
 5122      0D0000
 5123              		.cfi_remember_state
 5124              		.cfi_def_cfa_offset 56
 5125 4fe8 5B       		popq	%rbx
 5126              		.cfi_def_cfa_offset 48
 5127 4fe9 5D       		popq	%rbp
 5128              		.cfi_def_cfa_offset 40
 5129 4fea 415C     		popq	%r12
 5130              		.cfi_def_cfa_offset 32
 5131 4fec 415D     		popq	%r13
 5132              		.cfi_def_cfa_offset 24
 5133 4fee 415E     		popq	%r14
 5134              		.cfi_def_cfa_offset 16
 5135 4ff0 415F     		popq	%r15
 5136              		.cfi_def_cfa_offset 8
 5137 4ff2 C3       		ret
 5138              		.p2align 4,,10
 5139 4ff3 0F1F4400 		.p2align 3
 5139      00
 5140              	.L815:
 5141              		.cfi_restore_state
 5142 4ff8 660F28EA 		movapd	%xmm2, %xmm5
 5143 4ffc F20F59D2 		mulsd	%xmm2, %xmm2
 5144 5000 F20F1035 		movsd	.LC43(%rip), %xmm6
 5144      00000000 
 5145 5008 F20F5CE8 		subsd	%xmm0, %xmm5
 5146 500c F2440F10 		movsd	.LC10(%rip), %xmm14
 5146      35000000 
 5146      00
 5147 5015 F20F59C0 		mulsd	%xmm0, %xmm0
 5148 5019 F20F594C 		mulsd	56(%rsp), %xmm1
 5148      2438
 5149 501f F20F59F5 		mulsd	%xmm5, %xmm6
 5150 5023 F2440F59 		mulsd	%xmm5, %xmm14
 5150      F5
 5151 5028 F20F58C2 		addsd	%xmm2, %xmm0
 5152 502c F20F5835 		addsd	.LC12(%rip), %xmm6
 5152      00000000 
 5153 5034 F2410F59 		mulsd	%xmm14, %xmm5
 5153      EE
 5154 5039 F20F5905 		mulsd	.LC42(%rip), %xmm0
 5154      00000000 
 5155 5041 F20F58F5 		addsd	%xmm5, %xmm6
 5156 5045 F20F5CF0 		subsd	%xmm0, %xmm6
 5157 5049 F20F59F1 		mulsd	%xmm1, %xmm6
 5158 504d F20F11B4 		movsd	%xmm6, 1600(%rsp)
 5158      24400600 
 5158      00
 5159 5056 E985F4FF 		jmp	.L818
 5159      FF
 5160 505b 0F1F4400 		.p2align 4,,10
 5160      00
GAS LISTING /tmp/cce5yULP.s 			page 141


 5161              		.p2align 3
 5162              	.L811:
 5163 5060 F20F102D 		movsd	.LC9(%rip), %xmm5
 5163      00000000 
 5164 5068 F20F1035 		movsd	.LC12(%rip), %xmm6
 5164      00000000 
 5165 5070 F20F59E8 		mulsd	%xmm0, %xmm5
 5166 5074 F20F59D2 		mulsd	%xmm2, %xmm2
 5167 5078 F20F594C 		mulsd	24(%rsp), %xmm1
 5167      2418
 5168 507e F20F58F5 		addsd	%xmm5, %xmm6
 5169 5082 F20F102D 		movsd	.LC10(%rip), %xmm5
 5169      00000000 
 5170 508a F20F59E8 		mulsd	%xmm0, %xmm5
 5171 508e F20F59E8 		mulsd	%xmm0, %xmm5
 5172 5092 F20F59C0 		mulsd	%xmm0, %xmm0
 5173 5096 F20F58EE 		addsd	%xmm6, %xmm5
 5174 509a F20F58C2 		addsd	%xmm2, %xmm0
 5175 509e F20F5905 		mulsd	.LC42(%rip), %xmm0
 5175      00000000 
 5176 50a6 F20F5CE8 		subsd	%xmm0, %xmm5
 5177 50aa F20F59CD 		mulsd	%xmm5, %xmm1
 5178 50ae F20F118C 		movsd	%xmm1, 1568(%rsp)
 5178      24200600 
 5178      00
 5179 50b7 E924F4FF 		jmp	.L818
 5179      FF
 5180 50bc 0F1F4000 		.p2align 4,,10
 5181              		.p2align 3
 5182              	.L809:
 5183 50c0 F20F102D 		movsd	.LC9(%rip), %xmm5
 5183      00000000 
 5184 50c8 F20F1035 		movsd	.LC12(%rip), %xmm6
 5184      00000000 
 5185 50d0 F20F59EA 		mulsd	%xmm2, %xmm5
 5186 50d4 F20F59C0 		mulsd	%xmm0, %xmm0
 5187 50d8 F20F594C 		mulsd	16(%rsp), %xmm1
 5187      2410
 5188 50de F20F58F5 		addsd	%xmm5, %xmm6
 5189 50e2 F20F102D 		movsd	.LC10(%rip), %xmm5
 5189      00000000 
 5190 50ea F20F59EA 		mulsd	%xmm2, %xmm5
 5191 50ee F20F59EA 		mulsd	%xmm2, %xmm5
 5192 50f2 F20F59D2 		mulsd	%xmm2, %xmm2
 5193 50f6 F20F58EE 		addsd	%xmm6, %xmm5
 5194 50fa F20F58C2 		addsd	%xmm2, %xmm0
 5195 50fe F20F5905 		mulsd	.LC42(%rip), %xmm0
 5195      00000000 
 5196 5106 F20F5CE8 		subsd	%xmm0, %xmm5
 5197 510a F20F59CD 		mulsd	%xmm5, %xmm1
 5198 510e F20F118C 		movsd	%xmm1, 1560(%rsp)
 5198      24180600 
 5198      00
 5199 5117 E9C4F3FF 		jmp	.L818
 5199      FF
 5200 511c 0F1F4000 		.p2align 4,,10
 5201              		.p2align 3
GAS LISTING /tmp/cce5yULP.s 			page 142


 5202              	.L808:
 5203 5120 F20F59D2 		mulsd	%xmm2, %xmm2
 5204 5124 F20F59C0 		mulsd	%xmm0, %xmm0
 5205 5128 F20F594C 		mulsd	8(%rsp), %xmm1
 5205      2408
 5206 512e F20F58C2 		addsd	%xmm2, %xmm0
 5207 5132 F20F5905 		mulsd	.LC41(%rip), %xmm0
 5207      00000000 
 5208 513a F20F5805 		addsd	.LC12(%rip), %xmm0
 5208      00000000 
 5209 5142 F20F59C1 		mulsd	%xmm1, %xmm0
 5210 5146 F20F1184 		movsd	%xmm0, 1552(%rsp)
 5210      24100600 
 5210      00
 5211 514f E98CF3FF 		jmp	.L818
 5211      FF
 5212              		.p2align 4,,10
 5213 5154 0F1F4000 		.p2align 3
 5214              	.L813:
 5215 5158 F20F102D 		movsd	.LC9(%rip), %xmm5
 5215      00000000 
 5216 5160 F20F1035 		movsd	.LC12(%rip), %xmm6
 5216      00000000 
 5217 5168 F20F59E8 		mulsd	%xmm0, %xmm5
 5218 516c F20F59D2 		mulsd	%xmm2, %xmm2
 5219 5170 F20F594C 		mulsd	40(%rsp), %xmm1
 5219      2428
 5220 5176 F20F5CF5 		subsd	%xmm5, %xmm6
 5221 517a F20F102D 		movsd	.LC10(%rip), %xmm5
 5221      00000000 
 5222 5182 F20F59E8 		mulsd	%xmm0, %xmm5
 5223 5186 F20F59E8 		mulsd	%xmm0, %xmm5
 5224 518a F20F59C0 		mulsd	%xmm0, %xmm0
 5225 518e F20F58EE 		addsd	%xmm6, %xmm5
 5226 5192 F20F58C2 		addsd	%xmm2, %xmm0
 5227 5196 F20F5905 		mulsd	.LC42(%rip), %xmm0
 5227      00000000 
 5228 519e F20F5CE8 		subsd	%xmm0, %xmm5
 5229 51a2 F20F59CD 		mulsd	%xmm5, %xmm1
 5230 51a6 F20F118C 		movsd	%xmm1, 1584(%rsp)
 5230      24300600 
 5230      00
 5231 51af E92CF3FF 		jmp	.L818
 5231      FF
 5232              		.p2align 4,,10
 5233 51b4 0F1F4000 		.p2align 3
 5234              	.L812:
 5235 51b8 F20F102D 		movsd	.LC9(%rip), %xmm5
 5235      00000000 
 5236 51c0 F20F1035 		movsd	.LC12(%rip), %xmm6
 5236      00000000 
 5237 51c8 F20F59EA 		mulsd	%xmm2, %xmm5
 5238 51cc F20F59C0 		mulsd	%xmm0, %xmm0
 5239 51d0 F20F594C 		mulsd	32(%rsp), %xmm1
 5239      2420
 5240 51d6 F20F5CF5 		subsd	%xmm5, %xmm6
 5241 51da F20F102D 		movsd	.LC10(%rip), %xmm5
GAS LISTING /tmp/cce5yULP.s 			page 143


 5241      00000000 
 5242 51e2 F20F59EA 		mulsd	%xmm2, %xmm5
 5243 51e6 F20F59EA 		mulsd	%xmm2, %xmm5
 5244 51ea F20F59D2 		mulsd	%xmm2, %xmm2
 5245 51ee F20F58EE 		addsd	%xmm6, %xmm5
 5246 51f2 F20F58C2 		addsd	%xmm2, %xmm0
 5247 51f6 F20F5905 		mulsd	.LC42(%rip), %xmm0
 5247      00000000 
 5248 51fe F20F5CE8 		subsd	%xmm0, %xmm5
 5249 5202 F20F59CD 		mulsd	%xmm5, %xmm1
 5250 5206 F20F118C 		movsd	%xmm1, 1576(%rsp)
 5250      24280600 
 5250      00
 5251 520f E9CCF2FF 		jmp	.L818
 5251      FF
 5252              		.p2align 4,,10
 5253 5214 0F1F4000 		.p2align 3
 5254              	.L814:
 5255 5218 660F28EA 		movapd	%xmm2, %xmm5
 5256 521c F20F59D2 		mulsd	%xmm2, %xmm2
 5257 5220 F20F1035 		movsd	.LC9(%rip), %xmm6
 5257      00000000 
 5258 5228 F20F58E8 		addsd	%xmm0, %xmm5
 5259 522c F2440F10 		movsd	.LC10(%rip), %xmm14
 5259      35000000 
 5259      00
 5260 5235 F20F59C0 		mulsd	%xmm0, %xmm0
 5261 5239 F20F594C 		mulsd	48(%rsp), %xmm1
 5261      2430
 5262 523f F20F59F5 		mulsd	%xmm5, %xmm6
 5263 5243 F2440F59 		mulsd	%xmm5, %xmm14
 5263      F5
 5264 5248 F20F58C2 		addsd	%xmm2, %xmm0
 5265 524c F20F5835 		addsd	.LC12(%rip), %xmm6
 5265      00000000 
 5266 5254 F2410F59 		mulsd	%xmm14, %xmm5
 5266      EE
 5267 5259 F20F5905 		mulsd	.LC42(%rip), %xmm0
 5267      00000000 
 5268 5261 F20F58F5 		addsd	%xmm5, %xmm6
 5269 5265 F20F5CF0 		subsd	%xmm0, %xmm6
 5270 5269 F20F59F1 		mulsd	%xmm1, %xmm6
 5271 526d F20F11B4 		movsd	%xmm6, 1592(%rsp)
 5271      24380600 
 5271      00
 5272 5276 E965F2FF 		jmp	.L818
 5272      FF
 5273 527b 0F1F4400 		.p2align 4,,10
 5273      00
 5274              		.p2align 3
 5275              	.L817:
 5276 5280 660F28EA 		movapd	%xmm2, %xmm5
 5277 5284 F20F59D2 		mulsd	%xmm2, %xmm2
 5278 5288 F20F1035 		movsd	.LC9(%rip), %xmm6
 5278      00000000 
 5279 5290 F20F5CE8 		subsd	%xmm0, %xmm5
 5280 5294 F20F59C0 		mulsd	%xmm0, %xmm0
GAS LISTING /tmp/cce5yULP.s 			page 144


 5281 5298 F20F594C 		mulsd	80(%rsp), %xmm1
 5281      2450
 5282 529e F20F59F5 		mulsd	%xmm5, %xmm6
 5283 52a2 66440F28 		movapd	%xmm5, %xmm14
 5283      F5
 5284 52a7 F20F58C2 		addsd	%xmm2, %xmm0
 5285 52ab F2450F59 		mulsd	%xmm15, %xmm14
 5285      F7
 5286 52b0 F20F5835 		addsd	.LC12(%rip), %xmm6
 5286      00000000 
 5287 52b8 F20F5905 		mulsd	.LC42(%rip), %xmm0
 5287      00000000 
 5288 52c0 F2410F59 		mulsd	%xmm14, %xmm5
 5288      EE
 5289 52c5 F20F58F5 		addsd	%xmm5, %xmm6
 5290 52c9 F20F5CF0 		subsd	%xmm0, %xmm6
 5291 52cd F20F59F1 		mulsd	%xmm1, %xmm6
 5292 52d1 F20F11B4 		movsd	%xmm6, 1616(%rsp)
 5292      24500600 
 5292      00
 5293 52da E901F2FF 		jmp	.L818
 5293      FF
 5294              	.L1260:
 5295 52df F20F1042 		movsd	8(%rdx), %xmm0
 5295      08
 5296 52e4 F20F1074 		movsd	120(%rsp), %xmm6
 5296      2478
 5297 52ea 660F5705 		xorpd	.LC17(%rip), %xmm0
 5297      00000000 
 5298 52f2 F20F104C 		movsd	112(%rsp), %xmm1
 5298      2470
 5299 52f8 F20F59C8 		mulsd	%xmm0, %xmm1
 5300 52fc F20F59C6 		mulsd	%xmm6, %xmm0
 5301 5300 F2410F58 		addsd	%xmm11, %xmm1
 5301      CB
 5302 5305 660F28D0 		movapd	%xmm0, %xmm2
 5303 5309 660F28C6 		movapd	%xmm6, %xmm0
 5304 530d 66410F28 		movapd	%xmm9, %xmm6
 5304      F1
 5305 5312 F2410F58 		addsd	%xmm10, %xmm2
 5305      D2
 5306 5317 F20F1194 		movsd	%xmm2, 536(%rsp)
 5306      24180200 
 5306      00
 5307 5320 F20F105A 		movsd	8(%rdx), %xmm3
 5307      08
 5308 5325 F20F59C3 		mulsd	%xmm3, %xmm0
 5309 5329 F20F5CF0 		subsd	%xmm0, %xmm6
 5310 532d 660F28C6 		movapd	%xmm6, %xmm0
 5311 5331 F20F11B4 		movsd	%xmm6, 544(%rsp)
 5311      24200200 
 5311      00
 5312 533a E922F1FF 		jmp	.L807
 5312      FF
 5313              	.L1261:
 5314 533f 488DBC24 		leaq	1184(%rsp), %rdi
 5314      A0040000 
GAS LISTING /tmp/cce5yULP.s 			page 145


 5315              	.LEHB114:
 5316 5347 E8000000 		call	_ZN8Solution6updateEddddi
 5316      00
 5317 534c E924F6FF 		jmp	.L968
 5317      FF
 5318              	.L1257:
 5319 5351 480378E8 		addq	-24(%rax), %rdi
 5320 5355 8B7720   		movl	32(%rdi), %esi
 5321 5358 83CE04   		orl	$4, %esi
 5322 535b E8000000 		call	_ZNSt9basic_iosIcSt11char_traitsIcEE5clearESt12_Ios_Iostate
 5322      00
 5323 5360 E9C0EAFF 		jmp	.L796
 5323      FF
 5324              	.L1263:
 5325 5365 488B8424 		movq	2880(%rsp), %rax
 5325      400B0000 
 5326 536d 488DBC24 		leaq	2880(%rsp), %rdi
 5326      400B0000 
 5327 5375 480378E8 		addq	-24(%rax), %rdi
 5328 5379 8B7720   		movl	32(%rdi), %esi
 5329 537c 83CE04   		orl	$4, %esi
 5330 537f E8000000 		call	_ZNSt9basic_iosIcSt11char_traitsIcEE5clearESt12_Ios_Iostate
 5330      00
 5331              	.LEHE114:
 5332 5384 E93BF9FF 		jmp	.L848
 5332      FF
 5333              	.L993:
 5334 5389 488BBC24 		movq	1520(%rsp), %rdi
 5334      F0050000 
 5335 5391 4889C3   		movq	%rax, %rbx
 5336 5394 488D8424 		leaq	1536(%rsp), %rax
 5336      00060000 
 5337 539c 4839C7   		cmpq	%rax, %rdi
 5338 539f 7405     		je	.L793
 5339 53a1 E8000000 		call	_ZdlPv
 5339      00
 5340              	.L793:
 5341 53a6 488DAC24 		leaq	2592(%rsp), %rbp
 5341      200A0000 
 5342              	.L929:
 5343 53ae 4883ED28 		subq	$40, %rbp
 5344 53b2 488B4500 		movq	0(%rbp), %rax
 5345 53b6 4889EF   		movq	%rbp, %rdi
 5346 53b9 FF10     		call	*(%rax)
 5347 53bb 488D8424 		leaq	2432(%rsp), %rax
 5347      80090000 
 5348 53c3 4839C5   		cmpq	%rax, %rbp
 5349 53c6 75E6     		jne	.L929
 5350 53c8 488DAC24 		leaq	2432(%rsp), %rbp
 5350      80090000 
 5351              	.L1103:
 5352 53d0 4883ED28 		subq	$40, %rbp
 5353 53d4 488B4500 		movq	0(%rbp), %rax
 5354 53d8 4889EF   		movq	%rbp, %rdi
 5355 53db FF10     		call	*(%rax)
 5356 53dd 488D8424 		leaq	2272(%rsp), %rax
 5356      E0080000 
GAS LISTING /tmp/cce5yULP.s 			page 146


 5357 53e5 4839C5   		cmpq	%rax, %rbp
 5358 53e8 75E6     		jne	.L1103
 5359 53ea 488DAC24 		leaq	2272(%rsp), %rbp
 5359      E0080000 
 5360              	.L1104:
 5361 53f2 4883ED28 		subq	$40, %rbp
 5362 53f6 488B4500 		movq	0(%rbp), %rax
 5363 53fa 4889EF   		movq	%rbp, %rdi
 5364 53fd FF10     		call	*(%rax)
 5365 53ff 488D8424 		leaq	2112(%rsp), %rax
 5365      40080000 
 5366 5407 4839C5   		cmpq	%rax, %rbp
 5367 540a 75E6     		jne	.L1104
 5368 540c 488DAC24 		leaq	2112(%rsp), %rbp
 5368      40080000 
 5369              	.L1105:
 5370 5414 4883ED28 		subq	$40, %rbp
 5371 5418 488B4500 		movq	0(%rbp), %rax
 5372 541c 4889EF   		movq	%rbp, %rdi
 5373 541f FF10     		call	*(%rax)
 5374 5421 488D8424 		leaq	1952(%rsp), %rax
 5374      A0070000 
 5375 5429 4839C5   		cmpq	%rax, %rbp
 5376 542c 75E6     		jne	.L1105
 5377 542e 488DAC24 		leaq	1952(%rsp), %rbp
 5377      A0070000 
 5378              	.L1106:
 5379 5436 4883ED28 		subq	$40, %rbp
 5380 543a 488B4500 		movq	0(%rbp), %rax
 5381 543e 4889EF   		movq	%rbp, %rdi
 5382 5441 FF10     		call	*(%rax)
 5383 5443 488D8424 		leaq	1792(%rsp), %rax
 5383      00070000 
 5384 544b 4839C5   		cmpq	%rax, %rbp
 5385 544e 75E6     		jne	.L1106
 5386              	.L918:
 5387 5450 488DBC24 		leaq	896(%rsp), %rdi
 5387      80030000 
 5388 5458 E8000000 		call	_ZN8flux_varD1Ev
 5388      00
 5389              	.L935:
 5390 545d 488DBC24 		leaq	848(%rsp), %rdi
 5390      50030000 
 5391 5465 E8000000 		call	_ZN8flux_varD1Ev
 5391      00
 5392              	.L936:
 5393 546a 488DBC24 		leaq	800(%rsp), %rdi
 5393      20030000 
 5394 5472 E8000000 		call	_ZN8flux_varD1Ev
 5394      00
 5395              	.L937:
 5396 5477 488DBC24 		leaq	1344(%rsp), %rdi
 5396      40050000 
 5397 547f E8000000 		call	_ZN9residualsD1Ev
 5397      00
 5398              	.L938:
 5399 5484 4C8BA424 		movq	216(%rsp), %r12
GAS LISTING /tmp/cce5yULP.s 			page 147


 5399      D8000000 
 5400 548c 488BAC24 		movq	208(%rsp), %rbp
 5400      D0000000 
 5401 5494 4939EC   		cmpq	%rbp, %r12
 5402 5497 7425     		je	.L939
 5403              	.L941:
 5404 5499 488B4500 		movq	0(%rbp), %rax
 5405 549d 488B00   		movq	(%rax), %rax
 5406 54a0 483D0000 		cmpq	$_ZN10vector_varD2Ev, %rax
 5406      0000
 5407 54a6 7405     		je	.L940
 5408 54a8 4889EF   		movq	%rbp, %rdi
 5409 54ab FFD0     		call	*%rax
 5410              	.L940:
 5411 54ad 4883C520 		addq	$32, %rbp
 5412 54b1 4939EC   		cmpq	%rbp, %r12
 5413 54b4 75E3     		jne	.L941
 5414 54b6 4C8BA424 		movq	208(%rsp), %r12
 5414      D0000000 
 5415              	.L939:
 5416 54be 4D85E4   		testq	%r12, %r12
 5417 54c1 7408     		je	.L942
 5418 54c3 4C89E7   		movq	%r12, %rdi
 5419 54c6 E8000000 		call	_ZdlPv
 5419      00
 5420              	.L942:
 5421 54cb 488B8424 		movq	2848(%rsp), %rax
 5421      200B0000 
 5422 54d3 488B00   		movq	(%rax), %rax
 5423 54d6 483D0000 		cmpq	$_ZN10vector_varD2Ev, %rax
 5423      0000
 5424 54dc 740A     		je	.L944
 5425 54de 488DBC24 		leaq	2848(%rsp), %rdi
 5425      200B0000 
 5426 54e6 FFD0     		call	*%rax
 5427              	.L944:
 5428 54e8 488B8424 		movq	2816(%rsp), %rax
 5428      000B0000 
 5429 54f0 488B00   		movq	(%rax), %rax
 5430 54f3 483D0000 		cmpq	$_ZN10vector_varD2Ev, %rax
 5430      0000
 5431 54f9 740A     		je	.L946
 5432 54fb 488DBC24 		leaq	2816(%rsp), %rdi
 5432      000B0000 
 5433 5503 FFD0     		call	*%rax
 5434              	.L946:
 5435 5505 488B8424 		movq	2784(%rsp), %rax
 5435      E00A0000 
 5436 550d 488B00   		movq	(%rax), %rax
 5437 5510 483D0000 		cmpq	$_ZN10vector_varD2Ev, %rax
 5437      0000
 5438 5516 740A     		je	.L948
 5439 5518 488DBC24 		leaq	2784(%rsp), %rdi
 5439      E00A0000 
 5440 5520 FFD0     		call	*%rax
 5441              	.L948:
 5442 5522 488B8424 		movq	2752(%rsp), %rax
GAS LISTING /tmp/cce5yULP.s 			page 148


 5442      C00A0000 
 5443 552a 488B00   		movq	(%rax), %rax
 5444 552d 483D0000 		cmpq	$_ZN10vector_varD2Ev, %rax
 5444      0000
 5445 5533 740A     		je	.L950
 5446 5535 488DBC24 		leaq	2752(%rsp), %rdi
 5446      C00A0000 
 5447 553d FFD0     		call	*%rax
 5448              	.L950:
 5449 553f 488B8424 		movq	2720(%rsp), %rax
 5449      A00A0000 
 5450 5547 488B00   		movq	(%rax), %rax
 5451 554a 483D0000 		cmpq	$_ZN10vector_varD2Ev, %rax
 5451      0000
 5452 5550 740A     		je	.L952
 5453 5552 488DBC24 		leaq	2720(%rsp), %rdi
 5453      A00A0000 
 5454 555a FFD0     		call	*%rax
 5455              	.L952:
 5456 555c 488B8424 		movq	2688(%rsp), %rax
 5456      800A0000 
 5457 5564 488B00   		movq	(%rax), %rax
 5458 5567 483D0000 		cmpq	$_ZN10vector_varD2Ev, %rax
 5458      0000
 5459 556d 740A     		je	.L954
 5460 556f 488DBC24 		leaq	2688(%rsp), %rdi
 5460      800A0000 
 5461 5577 FFD0     		call	*%rax
 5462              	.L954:
 5463 5579 488B8424 		movq	2656(%rsp), %rax
 5463      600A0000 
 5464 5581 488B00   		movq	(%rax), %rax
 5465 5584 483D0000 		cmpq	$_ZN10vector_varD2Ev, %rax
 5465      0000
 5466 558a 740A     		je	.L956
 5467 558c 488DBC24 		leaq	2656(%rsp), %rdi
 5467      600A0000 
 5468 5594 FFD0     		call	*%rax
 5469              	.L956:
 5470 5596 488B8424 		movq	2624(%rsp), %rax
 5470      400A0000 
 5471 559e 488B00   		movq	(%rax), %rax
 5472 55a1 483D0000 		cmpq	$_ZN10vector_varD2Ev, %rax
 5472      0000
 5473 55a7 0F849CE6 		je	.L710
 5473      FFFF
 5474 55ad 488DBC24 		leaq	2624(%rsp), %rdi
 5474      400A0000 
 5475 55b5 FFD0     		call	*%rax
 5476 55b7 E98DE6FF 		jmp	.L710
 5476      FF
 5477              	.L1256:
 5478 55bc BF000000 		movl	$.LC33, %edi
 5478      00
 5479              	.LEHB115:
 5480 55c1 E8000000 		call	_ZSt20__throw_length_errorPKc
 5480      00
GAS LISTING /tmp/cce5yULP.s 			page 149


 5481              	.LEHE115:
 5482              	.L1264:
 5483 55c6 E8000000 		call	__stack_chk_fail
 5483      00
 5484              	.L1259:
 5485 55cb 448BB424 		movl	168(%rsp), %r14d
 5485      A8000000 
 5486 55d3 E949F5FF 		jmp	.L803
 5486      FF
 5487              	.L988:
 5488              	.L1192:
 5489 55d8 4889C3   		movq	%rax, %rbx
 5490 55db E9C6FDFF 		jmp	.L793
 5490      FF
 5491              	.L1258:
 5492 55e0 488B4424 		movq	88(%rsp), %rax
 5492      58
 5493 55e5 8B4010   		movl	16(%rax), %eax
 5494 55e8 E953F5FF 		jmp	.L827
 5494      FF
 5495              	.L1204:
 5496 55ed 8B8424A8 		movl	3496(%rsp), %eax
 5496      0D0000
 5497 55f4 85C0     		testl	%eax, %eax
 5498 55f6 0F848E04 		je	.L1265
 5498      0000
 5499              	.L832:
 5500 55fc 488D9C24 		leaq	2592(%rsp), %rbx
 5500      200A0000 
 5501              	.L831:
 5502 5604 4883EB28 		subq	$40, %rbx
 5503 5608 488B03   		movq	(%rbx), %rax
 5504 560b 4889DF   		movq	%rbx, %rdi
 5505 560e FF10     		call	*(%rax)
 5506 5610 488D8424 		leaq	2432(%rsp), %rax
 5506      80090000 
 5507 5618 4839C3   		cmpq	%rax, %rbx
 5508 561b 75E7     		jne	.L831
 5509 561d 488D9C24 		leaq	2432(%rsp), %rbx
 5509      80090000 
 5510              	.L854:
 5511 5625 4883EB28 		subq	$40, %rbx
 5512 5629 488B03   		movq	(%rbx), %rax
 5513 562c 4889DF   		movq	%rbx, %rdi
 5514 562f FF10     		call	*(%rax)
 5515 5631 488D8424 		leaq	2272(%rsp), %rax
 5515      E0080000 
 5516 5639 4839C3   		cmpq	%rax, %rbx
 5517 563c 75E7     		jne	.L854
 5518 563e 488D9C24 		leaq	2272(%rsp), %rbx
 5518      E0080000 
 5519              	.L858:
 5520 5646 4883EB28 		subq	$40, %rbx
 5521 564a 488B03   		movq	(%rbx), %rax
 5522 564d 4889DF   		movq	%rbx, %rdi
 5523 5650 FF10     		call	*(%rax)
 5524 5652 488D8424 		leaq	2112(%rsp), %rax
GAS LISTING /tmp/cce5yULP.s 			page 150


 5524      40080000 
 5525 565a 4839C3   		cmpq	%rax, %rbx
 5526 565d 75E7     		jne	.L858
 5527 565f 488D9C24 		leaq	2112(%rsp), %rbx
 5527      40080000 
 5528              	.L862:
 5529 5667 4883EB28 		subq	$40, %rbx
 5530 566b 488B03   		movq	(%rbx), %rax
 5531 566e 4889DF   		movq	%rbx, %rdi
 5532 5671 FF10     		call	*(%rax)
 5533 5673 488D8424 		leaq	1952(%rsp), %rax
 5533      A0070000 
 5534 567b 4839C3   		cmpq	%rax, %rbx
 5535 567e 75E7     		jne	.L862
 5536 5680 488D9C24 		leaq	1952(%rsp), %rbx
 5536      A0070000 
 5537              	.L866:
 5538 5688 4883EB28 		subq	$40, %rbx
 5539 568c 488B03   		movq	(%rbx), %rax
 5540 568f 4889DF   		movq	%rbx, %rdi
 5541 5692 FF10     		call	*(%rax)
 5542 5694 488D8424 		leaq	1792(%rsp), %rax
 5542      00070000 
 5543 569c 4839C3   		cmpq	%rax, %rbx
 5544 569f 75E7     		jne	.L866
 5545 56a1 488DBC24 		leaq	896(%rsp), %rdi
 5545      80030000 
 5546 56a9 E8000000 		call	_ZN8flux_varD1Ev
 5546      00
 5547 56ae 488DBC24 		leaq	848(%rsp), %rdi
 5547      50030000 
 5548 56b6 E8000000 		call	_ZN8flux_varD1Ev
 5548      00
 5549 56bb 488DBC24 		leaq	800(%rsp), %rdi
 5549      20030000 
 5550 56c3 E8000000 		call	_ZN8flux_varD1Ev
 5550      00
 5551 56c8 488DBC24 		leaq	1344(%rsp), %rdi
 5551      40050000 
 5552 56d0 E8000000 		call	_ZN9residualsD1Ev
 5552      00
 5553 56d5 488BAC24 		movq	216(%rsp), %rbp
 5553      D8000000 
 5554 56dd 488B9C24 		movq	208(%rsp), %rbx
 5554      D0000000 
 5555 56e5 4839DD   		cmpq	%rbx, %rbp
 5556 56e8 750F     		jne	.L891
 5557 56ea EB31     		jmp	.L889
 5558 56ec 0F1F4000 		.p2align 4,,10
 5559              		.p2align 3
 5560              	.L890:
 5561 56f0 4883C320 		addq	$32, %rbx
 5562 56f4 4839DD   		cmpq	%rbx, %rbp
 5563 56f7 741C     		je	.L1266
 5564              	.L891:
 5565 56f9 488B03   		movq	(%rbx), %rax
 5566 56fc 488B00   		movq	(%rax), %rax
GAS LISTING /tmp/cce5yULP.s 			page 151


 5567 56ff 483D0000 		cmpq	$_ZN10vector_varD2Ev, %rax
 5567      0000
 5568 5705 74E9     		je	.L890
 5569 5707 4889DF   		movq	%rbx, %rdi
 5570 570a 4883C320 		addq	$32, %rbx
 5571 570e FFD0     		call	*%rax
 5572 5710 4839DD   		cmpq	%rbx, %rbp
 5573 5713 75E4     		jne	.L891
 5574              	.L1266:
 5575 5715 488BAC24 		movq	208(%rsp), %rbp
 5575      D0000000 
 5576              	.L889:
 5577 571d 4885ED   		testq	%rbp, %rbp
 5578 5720 7408     		je	.L892
 5579 5722 4889EF   		movq	%rbp, %rdi
 5580 5725 E8000000 		call	_ZdlPv
 5580      00
 5581              	.L892:
 5582 572a 488B8424 		movq	2848(%rsp), %rax
 5582      200B0000 
 5583 5732 488B00   		movq	(%rax), %rax
 5584 5735 483D0000 		cmpq	$_ZN10vector_varD2Ev, %rax
 5584      0000
 5585 573b 740A     		je	.L894
 5586 573d 488DBC24 		leaq	2848(%rsp), %rdi
 5586      200B0000 
 5587 5745 FFD0     		call	*%rax
 5588              	.L894:
 5589 5747 488B8424 		movq	2816(%rsp), %rax
 5589      000B0000 
 5590 574f 488B00   		movq	(%rax), %rax
 5591 5752 483D0000 		cmpq	$_ZN10vector_varD2Ev, %rax
 5591      0000
 5592 5758 740A     		je	.L896
 5593 575a 488DBC24 		leaq	2816(%rsp), %rdi
 5593      000B0000 
 5594 5762 FFD0     		call	*%rax
 5595              	.L896:
 5596 5764 488B8424 		movq	2784(%rsp), %rax
 5596      E00A0000 
 5597 576c 488B00   		movq	(%rax), %rax
 5598 576f 483D0000 		cmpq	$_ZN10vector_varD2Ev, %rax
 5598      0000
 5599 5775 740A     		je	.L898
 5600 5777 488DBC24 		leaq	2784(%rsp), %rdi
 5600      E00A0000 
 5601 577f FFD0     		call	*%rax
 5602              	.L898:
 5603 5781 488B8424 		movq	2752(%rsp), %rax
 5603      C00A0000 
 5604 5789 488B00   		movq	(%rax), %rax
 5605 578c 483D0000 		cmpq	$_ZN10vector_varD2Ev, %rax
 5605      0000
 5606 5792 740A     		je	.L900
 5607 5794 488DBC24 		leaq	2752(%rsp), %rdi
 5607      C00A0000 
 5608 579c FFD0     		call	*%rax
GAS LISTING /tmp/cce5yULP.s 			page 152


 5609              	.L900:
 5610 579e 488B8424 		movq	2720(%rsp), %rax
 5610      A00A0000 
 5611 57a6 488B00   		movq	(%rax), %rax
 5612 57a9 483D0000 		cmpq	$_ZN10vector_varD2Ev, %rax
 5612      0000
 5613 57af 740A     		je	.L902
 5614 57b1 488DBC24 		leaq	2720(%rsp), %rdi
 5614      A00A0000 
 5615 57b9 FFD0     		call	*%rax
 5616              	.L902:
 5617 57bb 488B8424 		movq	2688(%rsp), %rax
 5617      800A0000 
 5618 57c3 488B00   		movq	(%rax), %rax
 5619 57c6 483D0000 		cmpq	$_ZN10vector_varD2Ev, %rax
 5619      0000
 5620 57cc 740A     		je	.L904
 5621 57ce 488DBC24 		leaq	2688(%rsp), %rdi
 5621      800A0000 
 5622 57d6 FFD0     		call	*%rax
 5623              	.L904:
 5624 57d8 488B8424 		movq	2656(%rsp), %rax
 5624      600A0000 
 5625 57e0 488B00   		movq	(%rax), %rax
 5626 57e3 483D0000 		cmpq	$_ZN10vector_varD2Ev, %rax
 5626      0000
 5627 57e9 740A     		je	.L906
 5628 57eb 488DBC24 		leaq	2656(%rsp), %rdi
 5628      600A0000 
 5629 57f3 FFD0     		call	*%rax
 5630              	.L906:
 5631 57f5 488B8424 		movq	2624(%rsp), %rax
 5631      400A0000 
 5632 57fd 488B00   		movq	(%rax), %rax
 5633 5800 483D0000 		cmpq	$_ZN10vector_varD2Ev, %rax
 5633      0000
 5634 5806 740A     		je	.L908
 5635 5808 488DBC24 		leaq	2624(%rsp), %rdi
 5635      400A0000 
 5636 5810 FFD0     		call	*%rax
 5637              	.L908:
 5638 5812 488BBC24 		movq	1488(%rsp), %rdi
 5638      D0050000 
 5639 581a 488D8424 		leaq	1504(%rsp), %rax
 5639      E0050000 
 5640 5822 4839C7   		cmpq	%rax, %rdi
 5641 5825 7405     		je	.L910
 5642 5827 E8000000 		call	_ZdlPv
 5642      00
 5643              	.L910:
 5644 582c 488DBC24 		leaq	2888(%rsp), %rdi
 5644      480B0000 
 5645 5834 48C78424 		movq	$_ZTVSt14basic_ofstreamIcSt11char_traitsIcEE+24, 2880(%rsp)
 5645      400B0000 
 5645      00000000 
 5646 5840 48C78424 		movq	$_ZTVSt14basic_ofstreamIcSt11char_traitsIcEE+64, 3128(%rsp)
 5646      380C0000 
GAS LISTING /tmp/cce5yULP.s 			page 153


 5646      00000000 
 5647 584c 48C78424 		movq	$_ZTVSt13basic_filebufIcSt11char_traitsIcEE+16, 2888(%rsp)
 5647      480B0000 
 5647      00000000 
 5648 5858 E8000000 		call	_ZNSt13basic_filebufIcSt11char_traitsIcEE5closeEv
 5648      00
 5649 585d E9B4F6FF 		jmp	.L1199
 5649      FF
 5650              	.L1262:
 5651 5862 660FEFC0 		pxor	%xmm0, %xmm0
 5652 5866 488DBC24 		leaq	1344(%rsp), %rdi
 5652      40050000 
 5653 586e F20F10BC 		movsd	1368(%rsp), %xmm7
 5653      24580500 
 5653      00
 5654 5877 F20F109C 		movsd	1360(%rsp), %xmm3
 5654      24500500 
 5654      00
 5655 5880 F20F2AC3 		cvtsi2sd	%ebx, %xmm0
 5656 5884 F20F10A4 		movsd	1352(%rsp), %xmm4
 5656      24480500 
 5656      00
 5657 588d F20F117C 		movsd	%xmm7, 16(%rsp)
 5657      2410
 5658 5893 F20F115C 		movsd	%xmm3, 24(%rsp)
 5658      2418
 5659 5899 F20F1164 		movsd	%xmm4, 32(%rsp)
 5659      2420
 5660 589f F20F5984 		mulsd	128(%rsp), %xmm0
 5660      24800000 
 5660      00
 5661 58a8 F20F1144 		movsd	%xmm0, 8(%rsp)
 5661      2408
 5662              	.LEHB116:
 5663 58ae E8000000 		call	_ZN9residuals9max_errorEv
 5663      00
 5664 58b3 488DBC24 		leaq	2880(%rsp), %rdi
 5664      400B0000 
 5665 58bb 89DE     		movl	%ebx, %esi
 5666 58bd F20F1144 		movsd	%xmm0, 40(%rsp)
 5666      2428
 5667 58c3 E8000000 		call	_ZNSolsEi
 5667      00
 5668 58c8 BA020000 		movl	$2, %edx
 5668      00
 5669 58cd BE000000 		movl	$.LC35, %esi
 5669      00
 5670 58d2 4889C7   		movq	%rax, %rdi
 5671 58d5 4889C3   		movq	%rax, %rbx
 5672 58d8 E8000000 		call	_ZSt16__ostream_insertIcSt11char_traitsIcEERSt13basic_ostreamIT_T0_ES6_PKS3_l
 5672      00
 5673 58dd F20F1044 		movsd	40(%rsp), %xmm0
 5673      2428
 5674 58e3 4889DF   		movq	%rbx, %rdi
 5675 58e6 E8000000 		call	_ZNSo9_M_insertIdEERSoT_
 5675      00
 5676 58eb BA020000 		movl	$2, %edx
GAS LISTING /tmp/cce5yULP.s 			page 154


 5676      00
 5677 58f0 BE000000 		movl	$.LC35, %esi
 5677      00
 5678 58f5 4889C7   		movq	%rax, %rdi
 5679 58f8 4889C3   		movq	%rax, %rbx
 5680 58fb E8000000 		call	_ZSt16__ostream_insertIcSt11char_traitsIcEERSt13basic_ostreamIT_T0_ES6_PKS3_l
 5680      00
 5681 5900 F20F1044 		movsd	32(%rsp), %xmm0
 5681      2420
 5682 5906 4889DF   		movq	%rbx, %rdi
 5683 5909 E8000000 		call	_ZNSo9_M_insertIdEERSoT_
 5683      00
 5684 590e BA020000 		movl	$2, %edx
 5684      00
 5685 5913 BE000000 		movl	$.LC35, %esi
 5685      00
 5686 5918 4889C7   		movq	%rax, %rdi
 5687 591b 4889C3   		movq	%rax, %rbx
 5688 591e E8000000 		call	_ZSt16__ostream_insertIcSt11char_traitsIcEERSt13basic_ostreamIT_T0_ES6_PKS3_l
 5688      00
 5689 5923 F20F1044 		movsd	24(%rsp), %xmm0
 5689      2418
 5690 5929 4889DF   		movq	%rbx, %rdi
 5691 592c E8000000 		call	_ZNSo9_M_insertIdEERSoT_
 5691      00
 5692 5931 BA020000 		movl	$2, %edx
 5692      00
 5693 5936 BE000000 		movl	$.LC35, %esi
 5693      00
 5694 593b 4889C7   		movq	%rax, %rdi
 5695 593e 4889C3   		movq	%rax, %rbx
 5696 5941 E8000000 		call	_ZSt16__ostream_insertIcSt11char_traitsIcEERSt13basic_ostreamIT_T0_ES6_PKS3_l
 5696      00
 5697 5946 F20F1044 		movsd	16(%rsp), %xmm0
 5697      2410
 5698 594c 4889DF   		movq	%rbx, %rdi
 5699 594f E8000000 		call	_ZNSo9_M_insertIdEERSoT_
 5699      00
 5700 5954 BA0E0000 		movl	$14, %edx
 5700      00
 5701 5959 BE000000 		movl	$.LC36, %esi
 5701      00
 5702 595e 4889C7   		movq	%rax, %rdi
 5703 5961 4889C3   		movq	%rax, %rbx
 5704 5964 E8000000 		call	_ZSt16__ostream_insertIcSt11char_traitsIcEERSt13basic_ostreamIT_T0_ES6_PKS3_l
 5704      00
 5705 5969 8BB424B8 		movl	3512(%rsp), %esi
 5705      0D0000
 5706 5970 4889DF   		movq	%rbx, %rdi
 5707 5973 E8000000 		call	_ZNSolsEi
 5707      00
 5708 5978 4889C5   		movq	%rax, %rbp
 5709 597b 488B00   		movq	(%rax), %rax
 5710 597e 488B40E8 		movq	-24(%rax), %rax
 5711 5982 488B9C05 		movq	240(%rbp,%rax), %rbx
 5711      F0000000 
 5712 598a 4885DB   		testq	%rbx, %rbx
GAS LISTING /tmp/cce5yULP.s 			page 155


 5713 598d 0F849401 		je	.L1267
 5713      0000
 5714 5993 807B3800 		cmpb	$0, 56(%rbx)
 5715 5997 0F845801 		je	.L837
 5715      0000
 5716 599d 0FBE7343 		movsbl	67(%rbx), %esi
 5717              	.L838:
 5718 59a1 4889EF   		movq	%rbp, %rdi
 5719 59a4 E8000000 		call	_ZNSo3putEc
 5719      00
 5720 59a9 4889C7   		movq	%rax, %rdi
 5721 59ac E8000000 		call	_ZNSo5flushEv
 5721      00
 5722 59b1 488DBC24 		leaq	1344(%rsp), %rdi
 5722      40050000 
 5723 59b9 E8000000 		call	_ZN9residuals9max_errorEv
 5723      00
 5724 59be BA070000 		movl	$7, %edx
 5724      00
 5725 59c3 BE000000 		movl	$.LC37, %esi
 5725      00
 5726 59c8 BF000000 		movl	$_ZSt4cout, %edi
 5726      00
 5727 59cd F20F1144 		movsd	%xmm0, 16(%rsp)
 5727      2410
 5728 59d3 E8000000 		call	_ZSt16__ostream_insertIcSt11char_traitsIcEERSt13basic_ostreamIT_T0_ES6_PKS3_l
 5728      00
 5729 59d8 F20F1044 		movsd	8(%rsp), %xmm0
 5729      2408
 5730 59de BF000000 		movl	$_ZSt4cout, %edi
 5730      00
 5731 59e3 E8000000 		call	_ZNSo9_M_insertIdEERSoT_
 5731      00
 5732 59e8 BA0A0000 		movl	$10, %edx
 5732      00
 5733 59ed BE000000 		movl	$.LC38, %esi
 5733      00
 5734 59f2 4889C7   		movq	%rax, %rdi
 5735 59f5 4889C3   		movq	%rax, %rbx
 5736 59f8 E8000000 		call	_ZSt16__ostream_insertIcSt11char_traitsIcEERSt13basic_ostreamIT_T0_ES6_PKS3_l
 5736      00
 5737 59fd F20F1044 		movsd	16(%rsp), %xmm0
 5737      2410
 5738 5a03 4889DF   		movq	%rbx, %rdi
 5739 5a06 E8000000 		call	_ZNSo9_M_insertIdEERSoT_
 5739      00
 5740 5a0b 4889C5   		movq	%rax, %rbp
 5741 5a0e 488B00   		movq	(%rax), %rax
 5742 5a11 488B40E8 		movq	-24(%rax), %rax
 5743 5a15 488B9C05 		movq	240(%rbp,%rax), %rbx
 5743      F0000000 
 5744 5a1d 4885DB   		testq	%rbx, %rbx
 5745 5a20 0F84FC00 		je	.L1268
 5745      0000
 5746 5a26 807B3800 		cmpb	$0, 56(%rbx)
 5747 5a2a 0F849800 		je	.L840
 5747      0000
GAS LISTING /tmp/cce5yULP.s 			page 156


 5748 5a30 0FBE7343 		movsbl	67(%rbx), %esi
 5749              	.L841:
 5750 5a34 4889EF   		movq	%rbp, %rdi
 5751 5a37 E8000000 		call	_ZNSo3putEc
 5751      00
 5752 5a3c 4889C7   		movq	%rax, %rdi
 5753 5a3f E8000000 		call	_ZNSo5flushEv
 5753      00
 5754 5a44 488D8424 		leaq	720(%rsp), %rax
 5754      D0020000 
 5755 5a4c 4C8B4424 		movq	104(%rsp), %r8
 5755      68
 5756 5a51 488B8C24 		movq	136(%rsp), %rcx
 5756      88000000 
 5757 5a59 488B5424 		movq	88(%rsp), %rdx
 5757      58
 5758 5a5e 488BB424 		movq	160(%rsp), %rsi
 5758      A0000000 
 5759 5a66 41B90200 		movl	$2, %r9d
 5759      0000
 5760 5a6c F20F1044 		movsd	8(%rsp), %xmm0
 5760      2408
 5761 5a72 4889C7   		movq	%rax, %rdi
 5762 5a75 4889C3   		movq	%rax, %rbx
 5763 5a78 E8000000 		call	_ZN14tecplot_outputC1ER16global_variablesR4MeshR8SolutionR19Boundary_Conditionsid
 5763      00
 5764 5a7d 4889DF   		movq	%rbx, %rdi
 5765 5a80 E8000000 		call	_ZN14tecplot_outputD1Ev
 5765      00
 5766 5a85 E9E4F1FF 		jmp	.L835
 5766      FF
 5767              	.L1265:
 5768 5a8a 488D8424 		leaq	2880(%rsp), %rax
 5768      400B0000 
 5769 5a92 488D7808 		leaq	8(%rax), %rdi
 5770 5a96 E8000000 		call	_ZNSt13basic_filebufIcSt11char_traitsIcEE5closeEv
 5770      00
 5771 5a9b 4885C0   		testq	%rax, %rax
 5772 5a9e 0F8558FB 		jne	.L832
 5772      FFFF
 5773 5aa4 488B8424 		movq	2880(%rsp), %rax
 5773      400B0000 
 5774 5aac 488DBC24 		leaq	2880(%rsp), %rdi
 5774      400B0000 
 5775 5ab4 480378E8 		addq	-24(%rax), %rdi
 5776 5ab8 8B7720   		movl	32(%rdi), %esi
 5777 5abb 83CE04   		orl	$4, %esi
 5778 5abe E8000000 		call	_ZNSt9basic_iosIcSt11char_traitsIcEE5clearESt12_Ios_Iostate
 5778      00
 5779 5ac3 E934FBFF 		jmp	.L832
 5779      FF
 5780              	.L840:
 5781 5ac8 4889DF   		movq	%rbx, %rdi
 5782 5acb E8000000 		call	_ZNKSt5ctypeIcE13_M_widen_initEv
 5782      00
 5783 5ad0 488B03   		movq	(%rbx), %rax
 5784 5ad3 BE0A0000 		movl	$10, %esi
GAS LISTING /tmp/cce5yULP.s 			page 157


 5784      00
 5785 5ad8 488B4030 		movq	48(%rax), %rax
 5786 5adc 483D0000 		cmpq	$_ZNKSt5ctypeIcE8do_widenEc, %rax
 5786      0000
 5787 5ae2 0F844CFF 		je	.L841
 5787      FFFF
 5788 5ae8 4889DF   		movq	%rbx, %rdi
 5789 5aeb FFD0     		call	*%rax
 5790 5aed 0FBEF0   		movsbl	%al, %esi
 5791 5af0 E93FFFFF 		jmp	.L841
 5791      FF
 5792              	.L837:
 5793 5af5 4889DF   		movq	%rbx, %rdi
 5794 5af8 E8000000 		call	_ZNKSt5ctypeIcE13_M_widen_initEv
 5794      00
 5795 5afd 488B03   		movq	(%rbx), %rax
 5796 5b00 BE0A0000 		movl	$10, %esi
 5796      00
 5797 5b05 488B4030 		movq	48(%rax), %rax
 5798 5b09 483D0000 		cmpq	$_ZNKSt5ctypeIcE8do_widenEc, %rax
 5798      0000
 5799 5b0f 0F848CFE 		je	.L838
 5799      FFFF
 5800 5b15 4889DF   		movq	%rbx, %rdi
 5801 5b18 FFD0     		call	*%rax
 5802 5b1a 0FBEF0   		movsbl	%al, %esi
 5803 5b1d E97FFEFF 		jmp	.L838
 5803      FF
 5804              	.L1268:
 5805 5b22 E8000000 		call	_ZSt16__throw_bad_castv
 5805      00
 5806              	.L1267:
 5807 5b27 E8000000 		call	_ZSt16__throw_bad_castv
 5807      00
 5808              	.L1254:
 5809 5b2c 4C8DA424 		leaq	656(%rsp), %r12
 5809      90020000 
 5810 5b34 488DBC24 		leaq	1520(%rsp), %rdi
 5810      F0050000 
 5811 5b3c 31D2     		xorl	%edx, %edx
 5812 5b3e 4C89E6   		movq	%r12, %rsi
 5813 5b41 E8000000 		call	_ZNSt7__cxx1112basic_stringIcSt11char_traitsIcESaIcEE9_M_createERmm
 5813      00
 5814              	.LEHE116:
 5815 5b46 488B9424 		movq	656(%rsp), %rdx
 5815      90020000 
 5816 5b4e 48898424 		movq	%rax, 1520(%rsp)
 5816      F0050000 
 5817 5b56 48899424 		movq	%rdx, 1536(%rsp)
 5817      00060000 
 5818              	.L785:
 5819 5b5e 4889DA   		movq	%rbx, %rdx
 5820 5b61 4889EE   		movq	%rbp, %rsi
 5821 5b64 4889C7   		movq	%rax, %rdi
 5822 5b67 E8000000 		call	memcpy
 5822      00
 5823 5b6c 488B9C24 		movq	656(%rsp), %rbx
GAS LISTING /tmp/cce5yULP.s 			page 158


 5823      90020000 
 5824 5b74 488B8424 		movq	1520(%rsp), %rax
 5824      F0050000 
 5825 5b7c E9F4E1FF 		jmp	.L787
 5825      FF
 5826              	.L989:
 5827 5b81 E952FAFF 		jmp	.L1192
 5827      FF
 5828              	.L997:
 5829 5b86 488DAC24 		leaq	2392(%rsp), %rbp
 5829      58090000 
 5830 5b8e 4889C3   		movq	%rax, %rbx
 5831              	.L1172:
 5832 5b91 4883ED28 		subq	$40, %rbp
 5833 5b95 488B5500 		movq	0(%rbp), %rdx
 5834 5b99 4889EF   		movq	%rbp, %rdi
 5835 5b9c FF12     		call	*(%rdx)
 5836 5b9e 488D8424 		leaq	2272(%rsp), %rax
 5836      E0080000 
 5837 5ba6 4839C5   		cmpq	%rax, %rbp
 5838 5ba9 75E6     		jne	.L1172
 5839 5bab 4889D8   		movq	%rbx, %rax
 5840              	.L1194:
 5841 5bae 4889C3   		movq	%rax, %rbx
 5842 5bb1 488DAC24 		leaq	2272(%rsp), %rbp
 5842      E0080000 
 5843 5bb9 E934F8FF 		jmp	.L1104
 5843      FF
 5844              	.L1010:
 5845 5bbe 488DAC24 		leaq	2352(%rsp), %rbp
 5845      30090000 
 5846 5bc6 4889C3   		movq	%rax, %rbx
 5847 5bc9 EBC6     		jmp	.L1172
 5848              	.L1009:
 5849 5bcb 488DAC24 		leaq	2312(%rsp), %rbp
 5849      08090000 
 5850 5bd3 4889C3   		movq	%rax, %rbx
 5851 5bd6 EBB9     		jmp	.L1172
 5852              	.L1001:
 5853 5bd8 EBD4     		jmp	.L1194
 5854              	.L996:
 5855 5bda 488DAC24 		leaq	2232(%rsp), %rbp
 5855      B8080000 
 5856 5be2 4889C3   		movq	%rax, %rbx
 5857              	.L1167:
 5858 5be5 4883ED28 		subq	$40, %rbp
 5859 5be9 488B5500 		movq	0(%rbp), %rdx
 5860 5bed 4889EF   		movq	%rbp, %rdi
 5861 5bf0 FF12     		call	*(%rdx)
 5862 5bf2 488D8424 		leaq	2112(%rsp), %rax
 5862      40080000 
 5863 5bfa 4839C5   		cmpq	%rax, %rbp
 5864 5bfd 75E6     		jne	.L1167
 5865 5bff 4889D8   		movq	%rbx, %rax
 5866              	.L1195:
 5867 5c02 4889C3   		movq	%rax, %rbx
 5868 5c05 488DAC24 		leaq	2112(%rsp), %rbp
GAS LISTING /tmp/cce5yULP.s 			page 159


 5868      40080000 
 5869 5c0d E902F8FF 		jmp	.L1105
 5869      FF
 5870              	.L1008:
 5871 5c12 488DAC24 		leaq	2192(%rsp), %rbp
 5871      90080000 
 5872 5c1a 4889C3   		movq	%rax, %rbx
 5873 5c1d EBC6     		jmp	.L1167
 5874              	.L1007:
 5875 5c1f 488DAC24 		leaq	2152(%rsp), %rbp
 5875      68080000 
 5876 5c27 4889C3   		movq	%rax, %rbx
 5877 5c2a EBB9     		jmp	.L1167
 5878              	.L1000:
 5879 5c2c EBD4     		jmp	.L1195
 5880              	.L998:
 5881 5c2e 488DAC24 		leaq	2552(%rsp), %rbp
 5881      F8090000 
 5882 5c36 4889C3   		movq	%rax, %rbx
 5883              	.L1177:
 5884 5c39 4883ED28 		subq	$40, %rbp
 5885 5c3d 488B5500 		movq	0(%rbp), %rdx
 5886 5c41 4889EF   		movq	%rbp, %rdi
 5887 5c44 FF12     		call	*(%rdx)
 5888 5c46 488D8424 		leaq	2432(%rsp), %rax
 5888      80090000 
 5889 5c4e 4839C5   		cmpq	%rax, %rbp
 5890 5c51 75E6     		jne	.L1177
 5891 5c53 4889D8   		movq	%rbx, %rax
 5892              	.L1193:
 5893 5c56 4889C3   		movq	%rax, %rbx
 5894 5c59 488DAC24 		leaq	2432(%rsp), %rbp
 5894      80090000 
 5895 5c61 E96AF7FF 		jmp	.L1103
 5895      FF
 5896              	.L1012:
 5897 5c66 488DAC24 		leaq	2512(%rsp), %rbp
 5897      D0090000 
 5898 5c6e 4889C3   		movq	%rax, %rbx
 5899 5c71 EBC6     		jmp	.L1177
 5900              	.L1011:
 5901 5c73 488DAC24 		leaq	2472(%rsp), %rbp
 5901      A8090000 
 5902 5c7b 4889C3   		movq	%rax, %rbx
 5903 5c7e EBB9     		jmp	.L1177
 5904              	.L1002:
 5905 5c80 EBD4     		jmp	.L1193
 5906              	.L1255:
 5907 5c82 0FB64500 		movzbl	0(%rbp), %eax
 5908 5c86 88842400 		movb	%al, 1536(%rsp)
 5908      060000
 5909 5c8d 488D8424 		leaq	1536(%rsp), %rax
 5909      00060000 
 5910 5c95 E9DBE0FF 		jmp	.L787
 5910      FF
 5911              	.L995:
 5912 5c9a 488DAC24 		leaq	2072(%rsp), %rbp
GAS LISTING /tmp/cce5yULP.s 			page 160


 5912      18080000 
 5913 5ca2 4889C3   		movq	%rax, %rbx
 5914              	.L1162:
 5915 5ca5 4883ED28 		subq	$40, %rbp
 5916 5ca9 488B5500 		movq	0(%rbp), %rdx
 5917 5cad 4889EF   		movq	%rbp, %rdi
 5918 5cb0 FF12     		call	*(%rdx)
 5919 5cb2 488D8424 		leaq	1952(%rsp), %rax
 5919      A0070000 
 5920 5cba 4839C5   		cmpq	%rax, %rbp
 5921 5cbd 75E6     		jne	.L1162
 5922 5cbf 4889D8   		movq	%rbx, %rax
 5923              	.L1196:
 5924 5cc2 4889C3   		movq	%rax, %rbx
 5925 5cc5 488DAC24 		leaq	1952(%rsp), %rbp
 5925      A0070000 
 5926 5ccd E964F7FF 		jmp	.L1106
 5926      FF
 5927              	.L1006:
 5928 5cd2 488DAC24 		leaq	2032(%rsp), %rbp
 5928      F0070000 
 5929 5cda 4889C3   		movq	%rax, %rbx
 5930 5cdd EBC6     		jmp	.L1162
 5931              	.L1005:
 5932 5cdf 488DAC24 		leaq	1992(%rsp), %rbp
 5932      C8070000 
 5933 5ce7 4889C3   		movq	%rax, %rbx
 5934 5cea EBB9     		jmp	.L1162
 5935              	.L999:
 5936 5cec EBD4     		jmp	.L1196
 5937              	.L994:
 5938 5cee 488DAC24 		leaq	1912(%rsp), %rbp
 5938      78070000 
 5939 5cf6 4889C3   		movq	%rax, %rbx
 5940              	.L1157:
 5941 5cf9 4883ED28 		subq	$40, %rbp
 5942 5cfd 488B5500 		movq	0(%rbp), %rdx
 5943 5d01 4889EF   		movq	%rbp, %rdi
 5944 5d04 FF12     		call	*(%rdx)
 5945 5d06 488D8424 		leaq	1792(%rsp), %rax
 5945      00070000 
 5946 5d0e 4839C5   		cmpq	%rax, %rbp
 5947 5d11 75E6     		jne	.L1157
 5948 5d13 E938F7FF 		jmp	.L918
 5948      FF
 5949              	.L1004:
 5950 5d18 488DAC24 		leaq	1872(%rsp), %rbp
 5950      50070000 
 5951 5d20 4889C3   		movq	%rax, %rbx
 5952 5d23 EBD4     		jmp	.L1157
 5953              	.L1003:
 5954 5d25 488DAC24 		leaq	1832(%rsp), %rbp
 5954      28070000 
 5955 5d2d 4889C3   		movq	%rax, %rbx
 5956 5d30 EBC7     		jmp	.L1157
 5957              	.L987:
 5958 5d32 4889C3   		movq	%rax, %rbx
GAS LISTING /tmp/cce5yULP.s 			page 161


 5959 5d35 E916F7FF 		jmp	.L918
 5959      FF
 5960              	.L986:
 5961 5d3a 4889C3   		movq	%rax, %rbx
 5962 5d3d E91BF7FF 		jmp	.L935
 5962      FF
 5963              	.L985:
 5964 5d42 4889C3   		movq	%rax, %rbx
 5965 5d45 E920F7FF 		jmp	.L936
 5965      FF
 5966              	.L984:
 5967 5d4a 4889C3   		movq	%rax, %rbx
 5968 5d4d E925F7FF 		jmp	.L937
 5968      FF
 5969              	.L983:
 5970 5d52 4889C3   		movq	%rax, %rbx
 5971 5d55 E92AF7FF 		jmp	.L938
 5971      FF
 5972              	.L1019:
 5973 5d5a E9E1DFFF 		jmp	.L1197
 5973      FF
 5974              	.L1023:
 5975 5d5f E9DCDFFF 		jmp	.L1197
 5975      FF
 5976              	.L1021:
 5977 5d64 E9D7DFFF 		jmp	.L1197
 5977      FF
 5978              	.L981:
 5979 5d69 E9D2DFFF 		jmp	.L1197
 5979      FF
 5980              	.L1017:
 5981 5d6e E9CDDFFF 		jmp	.L1197
 5981      FF
 5982              	.L1024:
 5983 5d73 E9C8DFFF 		jmp	.L1197
 5983      FF
 5984              	.L1022:
 5985 5d78 E9C3DFFF 		jmp	.L1197
 5985      FF
 5986              	.L1020:
 5987 5d7d E9BEDFFF 		jmp	.L1197
 5987      FF
 5988              	.L1018:
 5989 5d82 E9B9DFFF 		jmp	.L1197
 5989      FF
 5990              	.L1016:
 5991 5d87 E9B4DFFF 		jmp	.L1197
 5991      FF
 5992              	.L1014:
 5993 5d8c E9AFDFFF 		jmp	.L1197
 5993      FF
 5994              	.L1013:
 5995 5d91 E9AADFFF 		jmp	.L1197
 5995      FF
 5996              	.L992:
 5997 5d96 488DBC24 		leaq	2888(%rsp), %rdi
 5997      480B0000 
GAS LISTING /tmp/cce5yULP.s 			page 162


 5998 5d9e 4889C3   		movq	%rax, %rbx
 5999 5da1 E8000000 		call	_ZNSt13basic_filebufIcSt11char_traitsIcEED1Ev
 5999      00
 6000 5da6 E90FDFFF 		jmp	.L1202
 6000      FF
 6001              	.L991:
 6002 5dab 4889C3   		movq	%rax, %rbx
 6003 5dae E907DFFF 		jmp	.L1202
 6003      FF
 6004              	.L990:
 6005 5db3 4889C3   		movq	%rax, %rbx
 6006 5db6 E919DFFF 		jmp	.L1198
 6006      FF
 6007              	.L980:
 6008 5dbb 4889C3   		movq	%rax, %rbx
 6009 5dbe E937DFFF 		jmp	.L960
 6009      FF
 6010              	.L979:
 6011 5dc3 4889C3   		movq	%rax, %rbx
 6012 5dc6 E93CDFFF 		jmp	.L961
 6012      FF
 6013              	.L978:
 6014 5dcb 4889C3   		movq	%rax, %rbx
 6015 5dce E941DFFF 		jmp	.L962
 6015      FF
 6016              	.L977:
 6017 5dd3 4889C3   		movq	%rax, %rbx
 6018 5dd6 E946DFFF 		jmp	.L963
 6018      FF
 6019              	.L976:
 6020 5ddb 4889C3   		movq	%rax, %rbx
 6021 5dde E94BDFFF 		jmp	.L964
 6021      FF
 6022              		.cfi_endproc
 6023              	.LFE8453:
 6024              		.section	.gcc_except_table
 6025              	.LLSDA8453:
 6026 016c FF       		.byte	0xff
 6027 016d FF       		.byte	0xff
 6028 016e 01       		.byte	0x1
 6029 016f D402     		.uleb128 .LLSDACSE8453-.LLSDACSB8453
 6030              	.LLSDACSB8453:
 6031 0171 5F       		.uleb128 .LEHB60-.LFB8453
 6032 0172 05       		.uleb128 .LEHE60-.LEHB60
 6033 0173 00       		.uleb128 0
 6034 0174 00       		.uleb128 0
 6035 0175 6F       		.uleb128 .LEHB61-.LFB8453
 6036 0176 05       		.uleb128 .LEHE61-.LEHB61
 6037 0177 FA09     		.uleb128 .L975-.LFB8453
 6038 0179 00       		.uleb128 0
 6039 017a 7F       		.uleb128 .LEHB62-.LFB8453
 6040 017b 05       		.uleb128 .LEHE62-.LEHB62
 6041 017c EB4D     		.uleb128 .L976-.LFB8453
 6042 017e 00       		.uleb128 0
 6043 017f 8F01     		.uleb128 .LEHB63-.LFB8453
 6044 0181 05       		.uleb128 .LEHE63-.LEHB63
 6045 0182 E34D     		.uleb128 .L977-.LFB8453
GAS LISTING /tmp/cce5yULP.s 			page 163


 6046 0184 00       		.uleb128 0
 6047 0185 9F01     		.uleb128 .LEHB64-.LFB8453
 6048 0187 05       		.uleb128 .LEHE64-.LEHB64
 6049 0188 DB4D     		.uleb128 .L978-.LFB8453
 6050 018a 00       		.uleb128 0
 6051 018b AF01     		.uleb128 .LEHB65-.LFB8453
 6052 018d 05       		.uleb128 .LEHE65-.LEHB65
 6053 018e D34D     		.uleb128 .L979-.LFB8453
 6054 0190 00       		.uleb128 0
 6055 0191 BC01     		.uleb128 .LEHB66-.LFB8453
 6056 0193 05       		.uleb128 .LEHE66-.LEHB66
 6057 0194 CB4D     		.uleb128 .L980-.LFB8453
 6058 0196 00       		.uleb128 0
 6059 0197 DC02     		.uleb128 .LEHB67-.LFB8453
 6060 0199 05       		.uleb128 .LEHE67-.LEHB67
 6061 019a C34D     		.uleb128 .L990-.LFB8453
 6062 019c 00       		.uleb128 0
 6063 019d 8503     		.uleb128 .LEHB68-.LFB8453
 6064 019f 05       		.uleb128 .LEHE68-.LEHB68
 6065 01a0 BB4D     		.uleb128 .L991-.LFB8453
 6066 01a2 00       		.uleb128 0
 6067 01a3 A103     		.uleb128 .LEHB69-.LFB8453
 6068 01a5 05       		.uleb128 .LEHE69-.LEHB69
 6069 01a6 A64D     		.uleb128 .L992-.LFB8453
 6070 01a8 00       		.uleb128 0
 6071 01a9 D203     		.uleb128 .LEHB70-.LFB8453
 6072 01ab 05       		.uleb128 .LEHE70-.LEHB70
 6073 01ac A14D     		.uleb128 .L1013-.LFB8453
 6074 01ae 00       		.uleb128 0
 6075 01af DF03     		.uleb128 .LEHB71-.LFB8453
 6076 01b1 05       		.uleb128 .LEHE71-.LEHB71
 6077 01b2 9C4D     		.uleb128 .L1014-.LFB8453
 6078 01b4 00       		.uleb128 0
 6079 01b5 EC03     		.uleb128 .LEHB72-.LFB8453
 6080 01b7 05       		.uleb128 .LEHE72-.LEHB72
 6081 01b8 974D     		.uleb128 .L1016-.LFB8453
 6082 01ba 00       		.uleb128 0
 6083 01bb F903     		.uleb128 .LEHB73-.LFB8453
 6084 01bd 05       		.uleb128 .LEHE73-.LEHB73
 6085 01be 924D     		.uleb128 .L1018-.LFB8453
 6086 01c0 00       		.uleb128 0
 6087 01c1 8604     		.uleb128 .LEHB74-.LFB8453
 6088 01c3 05       		.uleb128 .LEHE74-.LEHB74
 6089 01c4 8D4D     		.uleb128 .L1020-.LFB8453
 6090 01c6 00       		.uleb128 0
 6091 01c7 9304     		.uleb128 .LEHB75-.LFB8453
 6092 01c9 05       		.uleb128 .LEHE75-.LEHB75
 6093 01ca 884D     		.uleb128 .L1022-.LFB8453
 6094 01cc 00       		.uleb128 0
 6095 01cd A004     		.uleb128 .LEHB76-.LFB8453
 6096 01cf 05       		.uleb128 .LEHE76-.LEHB76
 6097 01d0 834D     		.uleb128 .L1024-.LFB8453
 6098 01d2 00       		.uleb128 0
 6099 01d3 AD04     		.uleb128 .LEHB77-.LFB8453
 6100 01d5 05       		.uleb128 .LEHE77-.LEHB77
 6101 01d6 FE4C     		.uleb128 .L1017-.LFB8453
 6102 01d8 00       		.uleb128 0
GAS LISTING /tmp/cce5yULP.s 			page 164


 6103 01d9 BA04     		.uleb128 .LEHB78-.LFB8453
 6104 01db 05       		.uleb128 .LEHE78-.LEHB78
 6105 01dc F94C     		.uleb128 .L981-.LFB8453
 6106 01de 00       		.uleb128 0
 6107 01df C704     		.uleb128 .LEHB79-.LFB8453
 6108 01e1 05       		.uleb128 .LEHE79-.LEHB79
 6109 01e2 F44C     		.uleb128 .L1021-.LFB8453
 6110 01e4 00       		.uleb128 0
 6111 01e5 D404     		.uleb128 .LEHB80-.LFB8453
 6112 01e7 05       		.uleb128 .LEHE80-.LEHB80
 6113 01e8 EF4C     		.uleb128 .L1023-.LFB8453
 6114 01ea 00       		.uleb128 0
 6115 01eb E104     		.uleb128 .LEHB81-.LFB8453
 6116 01ed 05       		.uleb128 .LEHE81-.LEHB81
 6117 01ee EA4C     		.uleb128 .L1019-.LFB8453
 6118 01f0 00       		.uleb128 0
 6119 01f1 EE04     		.uleb128 .LEHB82-.LFB8453
 6120 01f3 05       		.uleb128 .LEHE82-.LEHB82
 6121 01f4 D00C     		.uleb128 .L1015-.LFB8453
 6122 01f6 00       		.uleb128 0
 6123 01f7 8A05     		.uleb128 .LEHB83-.LFB8453
 6124 01f9 05       		.uleb128 .LEHE83-.LEHB83
 6125 01fa 920A     		.uleb128 .L982-.LFB8453
 6126 01fc 00       		.uleb128 0
 6127 01fd C805     		.uleb128 .LEHB84-.LFB8453
 6128 01ff 05       		.uleb128 .LEHE84-.LEHB84
 6129 0200 E24C     		.uleb128 .L983-.LFB8453
 6130 0202 00       		.uleb128 0
 6131 0203 D505     		.uleb128 .LEHB85-.LFB8453
 6132 0205 05       		.uleb128 .LEHE85-.LEHB85
 6133 0206 DA4C     		.uleb128 .L984-.LFB8453
 6134 0208 00       		.uleb128 0
 6135 0209 E205     		.uleb128 .LEHB86-.LFB8453
 6136 020b 05       		.uleb128 .LEHE86-.LEHB86
 6137 020c D24C     		.uleb128 .L985-.LFB8453
 6138 020e 00       		.uleb128 0
 6139 020f EF05     		.uleb128 .LEHB87-.LFB8453
 6140 0211 05       		.uleb128 .LEHE87-.LEHB87
 6141 0212 CA4C     		.uleb128 .L986-.LFB8453
 6142 0214 00       		.uleb128 0
 6143 0215 FC05     		.uleb128 .LEHB88-.LFB8453
 6144 0217 05       		.uleb128 .LEHE88-.LEHB88
 6145 0218 C24C     		.uleb128 .L987-.LFB8453
 6146 021a 00       		.uleb128 0
 6147 021b 8D06     		.uleb128 .LEHB89-.LFB8453
 6148 021d 05       		.uleb128 .LEHE89-.LEHB89
 6149 021e B54C     		.uleb128 .L1003-.LFB8453
 6150 0220 00       		.uleb128 0
 6151 0221 9E06     		.uleb128 .LEHB90-.LFB8453
 6152 0223 05       		.uleb128 .LEHE90-.LEHB90
 6153 0224 A84C     		.uleb128 .L1004-.LFB8453
 6154 0226 00       		.uleb128 0
 6155 0227 AF06     		.uleb128 .LEHB91-.LFB8453
 6156 0229 05       		.uleb128 .LEHE91-.LEHB91
 6157 022a FE4B     		.uleb128 .L994-.LFB8453
 6158 022c 00       		.uleb128 0
 6159 022d BC06     		.uleb128 .LEHB92-.LFB8453
GAS LISTING /tmp/cce5yULP.s 			page 165


 6160 022f 05       		.uleb128 .LEHE92-.LEHB92
 6161 0230 FC4B     		.uleb128 .L999-.LFB8453
 6162 0232 00       		.uleb128 0
 6163 0233 CD06     		.uleb128 .LEHB93-.LFB8453
 6164 0235 05       		.uleb128 .LEHE93-.LEHB93
 6165 0236 EF4B     		.uleb128 .L1005-.LFB8453
 6166 0238 00       		.uleb128 0
 6167 0239 DE06     		.uleb128 .LEHB94-.LFB8453
 6168 023b 05       		.uleb128 .LEHE94-.LEHB94
 6169 023c E24B     		.uleb128 .L1006-.LFB8453
 6170 023e 00       		.uleb128 0
 6171 023f EF06     		.uleb128 .LEHB95-.LFB8453
 6172 0241 05       		.uleb128 .LEHE95-.LEHB95
 6173 0242 AA4B     		.uleb128 .L995-.LFB8453
 6174 0244 00       		.uleb128 0
 6175 0245 FC06     		.uleb128 .LEHB96-.LFB8453
 6176 0247 05       		.uleb128 .LEHE96-.LEHB96
 6177 0248 BC4A     		.uleb128 .L1000-.LFB8453
 6178 024a 00       		.uleb128 0
 6179 024b 8D07     		.uleb128 .LEHB97-.LFB8453
 6180 024d 05       		.uleb128 .LEHE97-.LEHB97
 6181 024e AF4A     		.uleb128 .L1007-.LFB8453
 6182 0250 00       		.uleb128 0
 6183 0251 9E07     		.uleb128 .LEHB98-.LFB8453
 6184 0253 05       		.uleb128 .LEHE98-.LEHB98
 6185 0254 A24A     		.uleb128 .L1008-.LFB8453
 6186 0256 00       		.uleb128 0
 6187 0257 AF07     		.uleb128 .LEHB99-.LFB8453
 6188 0259 05       		.uleb128 .LEHE99-.LEHB99
 6189 025a EA49     		.uleb128 .L996-.LFB8453
 6190 025c 00       		.uleb128 0
 6191 025d BC07     		.uleb128 .LEHB100-.LFB8453
 6192 025f 05       		.uleb128 .LEHE100-.LEHB100
 6193 0260 E849     		.uleb128 .L1001-.LFB8453
 6194 0262 00       		.uleb128 0
 6195 0263 CD07     		.uleb128 .LEHB101-.LFB8453
 6196 0265 05       		.uleb128 .LEHE101-.LEHB101
 6197 0266 DB49     		.uleb128 .L1009-.LFB8453
 6198 0268 00       		.uleb128 0
 6199 0269 DE07     		.uleb128 .LEHB102-.LFB8453
 6200 026b 05       		.uleb128 .LEHE102-.LEHB102
 6201 026c CE49     		.uleb128 .L1010-.LFB8453
 6202 026e 00       		.uleb128 0
 6203 026f EF07     		.uleb128 .LEHB103-.LFB8453
 6204 0271 05       		.uleb128 .LEHE103-.LEHB103
 6205 0272 9649     		.uleb128 .L997-.LFB8453
 6206 0274 00       		.uleb128 0
 6207 0275 FC07     		.uleb128 .LEHB104-.LFB8453
 6208 0277 05       		.uleb128 .LEHE104-.LEHB104
 6209 0278 904B     		.uleb128 .L1002-.LFB8453
 6210 027a 00       		.uleb128 0
 6211 027b 8D08     		.uleb128 .LEHB105-.LFB8453
 6212 027d 05       		.uleb128 .LEHE105-.LEHB105
 6213 027e 834B     		.uleb128 .L1011-.LFB8453
 6214 0280 00       		.uleb128 0
 6215 0281 9E08     		.uleb128 .LEHB106-.LFB8453
 6216 0283 05       		.uleb128 .LEHE106-.LEHB106
GAS LISTING /tmp/cce5yULP.s 			page 166


 6217 0284 F64A     		.uleb128 .L1012-.LFB8453
 6218 0286 00       		.uleb128 0
 6219 0287 AF08     		.uleb128 .LEHB107-.LFB8453
 6220 0289 05       		.uleb128 .LEHE107-.LEHB107
 6221 028a BE4A     		.uleb128 .L998-.LFB8453
 6222 028c 00       		.uleb128 0
 6223 028d FC08     		.uleb128 .LEHB108-.LFB8453
 6224 028f 7E       		.uleb128 .LEHE108-.LEHB108
 6225 0290 9149     		.uleb128 .L989-.LFB8453
 6226 0292 00       		.uleb128 0
 6227 0293 8D0A     		.uleb128 .LEHB109-.LFB8453
 6228 0295 05       		.uleb128 .LEHE109-.LEHB109
 6229 0296 00       		.uleb128 0
 6230 0297 00       		.uleb128 0
 6231 0298 BF0D     		.uleb128 .LEHB110-.LFB8453
 6232 029a 05       		.uleb128 .LEHE110-.LEHB110
 6233 029b 9939     		.uleb128 .L993-.LFB8453
 6234 029d 00       		.uleb128 0
 6235 029e 8C0E     		.uleb128 .LEHB111-.LFB8453
 6236 02a0 E00E     		.uleb128 .LEHE111-.LEHB111
 6237 02a2 9149     		.uleb128 .L989-.LFB8453
 6238 02a4 00       		.uleb128 0
 6239 02a5 DA1E     		.uleb128 .LEHB112-.LFB8453
 6240 02a7 59       		.uleb128 .LEHE112-.LEHB112
 6241 02a8 E83D     		.uleb128 .L988-.LFB8453
 6242 02aa 00       		.uleb128 0
 6243 02ab 8025     		.uleb128 .LEHB113-.LFB8453
 6244 02ad CB06     		.uleb128 .LEHE113-.LEHB113
 6245 02af 9149     		.uleb128 .L989-.LFB8453
 6246 02b1 00       		.uleb128 0
 6247 02b2 D738     		.uleb128 .LEHB114-.LFB8453
 6248 02b4 3D       		.uleb128 .LEHE114-.LEHB114
 6249 02b5 9149     		.uleb128 .L989-.LFB8453
 6250 02b7 00       		.uleb128 0
 6251 02b8 D13D     		.uleb128 .LEHB115-.LFB8453
 6252 02ba 05       		.uleb128 .LEHE115-.LEHB115
 6253 02bb 9939     		.uleb128 .L993-.LFB8453
 6254 02bd 00       		.uleb128 0
 6255 02be BE43     		.uleb128 .LEHB116-.LFB8453
 6256 02c0 9805     		.uleb128 .LEHE116-.LEHB116
 6257 02c2 9149     		.uleb128 .L989-.LFB8453
 6258 02c4 00       		.uleb128 0
 6259              	.LLSDACSE8453:
 6260              		.text
 6262              		.section	.text.unlikely
 6263              	.LCOLDE44:
 6264              		.text
 6265              	.LHOTE44:
 6266              		.section	.text.unlikely
 6267              		.align 2
 6268              	.LCOLDB45:
 6269              		.text
 6270              	.LHOTB45:
 6271 5de3 90       		.align 2
 6272 5de4 6690662E 		.p2align 4,,15
 6272      0F1F8400 
 6272      00000000 
GAS LISTING /tmp/cce5yULP.s 			page 167


 6273              		.globl	_ZN6Solver24multi_grid_agglomorationER8SolutionS1_iR4MeshR13quad_bcs_plusR18initial_conditi
 6275              	_ZN6Solver24multi_grid_agglomorationER8SolutionS1_iR4MeshR13quad_bcs_plusR18initial_conditionsRi16g
 6276              	.LFB8461:
 6277              		.cfi_startproc
 6278              		.cfi_personality 0x3,__gxx_personality_v0
 6279              		.cfi_lsda 0x3,.LLSDA8461
 6280 5df0 55       		pushq	%rbp
 6281              		.cfi_def_cfa_offset 16
 6282              		.cfi_offset 6, -16
 6283 5df1 4889E5   		movq	%rsp, %rbp
 6284              		.cfi_def_cfa_register 6
 6285 5df4 4157     		pushq	%r15
 6286 5df6 4156     		pushq	%r14
 6287 5df8 4155     		pushq	%r13
 6288 5dfa 4154     		pushq	%r12
 6289 5dfc 488DBD50 		leaq	-1200(%rbp), %rdi
 6289      FBFFFF
 6290 5e03 53       		pushq	%rbx
 6291              		.cfi_offset 15, -24
 6292              		.cfi_offset 14, -32
 6293              		.cfi_offset 13, -40
 6294              		.cfi_offset 12, -48
 6295              		.cfi_offset 3, -56
 6296 5e04 4989D6   		movq	%rdx, %r14
 6297 5e07 4881EC28 		subq	$1320, %rsp
 6297      050000
 6298 5e0e 4C8B6D18 		movq	24(%rbp), %r13
 6299 5e12 488B5D20 		movq	32(%rbp), %rbx
 6300 5e16 488B4530 		movq	48(%rbp), %rax
 6301 5e1a 4889B5C0 		movq	%rsi, -1344(%rbp)
 6301      FAFFFF
 6302 5e21 4C89C6   		movq	%r8, %rsi
 6303 5e24 4C8985D8 		movq	%r8, -1320(%rbp)
 6303      FAFFFF
 6304 5e2b 4C898DD0 		movq	%r9, -1328(%rbp)
 6304      FAFFFF
 6305 5e32 41834500 		addl	$1, 0(%r13)
 6305      01
 6306 5e37 4C8B7D10 		movq	16(%rbp), %r15
 6307 5e3b 488985C8 		movq	%rax, -1336(%rbp)
 6307      FAFFFF
 6308 5e42 64488B04 		movq	%fs:40, %rax
 6308      25280000 
 6308      00
 6309 5e4b 488945C8 		movq	%rax, -56(%rbp)
 6310 5e4f 31C0     		xorl	%eax, %eax
 6311              	.LEHB117:
 6312 5e51 E8000000 		call	_ZN4Mesh25create_coarse_mesh_domainEv
 6312      00
 6313              	.LEHE117:
 6314 5e56 F20F1043 		movsd	24(%rbx), %xmm0
 6314      18
 6315 5e5b 8B4308   		movl	8(%rbx), %eax
 6316 5e5e 48C785B0 		movq	$_ZTV16global_variables+16, -336(%rbp)
 6316      FEFFFF00 
 6316      000000
 6317 5e69 F20F1185 		movsd	%xmm0, -312(%rbp)
GAS LISTING /tmp/cce5yULP.s 			page 168


 6317      C8FEFFFF 
 6318 5e71 F20F1043 		movsd	32(%rbx), %xmm0
 6318      20
 6319 5e76 8985B8FE 		movl	%eax, -328(%rbp)
 6319      FFFF
 6320 5e7c 8B430C   		movl	12(%rbx), %eax
 6321 5e7f F20F1185 		movsd	%xmm0, -304(%rbp)
 6321      D0FEFFFF 
 6322 5e87 F20F1043 		movsd	40(%rbx), %xmm0
 6322      28
 6323 5e8c 8985BCFE 		movl	%eax, -324(%rbp)
 6323      FFFF
 6324 5e92 F20F1185 		movsd	%xmm0, -296(%rbp)
 6324      D8FEFFFF 
 6325 5e9a 8B4310   		movl	16(%rbx), %eax
 6326 5e9d F20F1043 		movsd	48(%rbx), %xmm0
 6326      30
 6327 5ea2 F20F1185 		movsd	%xmm0, -288(%rbp)
 6327      E0FEFFFF 
 6328 5eaa 8985C0FE 		movl	%eax, -320(%rbp)
 6328      FFFF
 6329 5eb0 F20F1043 		movsd	56(%rbx), %xmm0
 6329      38
 6330 5eb5 F20F1185 		movsd	%xmm0, -280(%rbp)
 6330      E8FEFFFF 
 6331 5ebd F20F1043 		movsd	64(%rbx), %xmm0
 6331      40
 6332 5ec2 F20F1185 		movsd	%xmm0, -272(%rbp)
 6332      F0FEFFFF 
 6333 5eca F20F1043 		movsd	72(%rbx), %xmm0
 6333      48
 6334 5ecf F20F1185 		movsd	%xmm0, -264(%rbp)
 6334      F8FEFFFF 
 6335 5ed7 F20F1043 		movsd	80(%rbx), %xmm0
 6335      50
 6336 5edc F20F1185 		movsd	%xmm0, -256(%rbp)
 6336      00FFFFFF 
 6337 5ee4 F20F1043 		movsd	88(%rbx), %xmm0
 6337      58
 6338 5ee9 F20F1185 		movsd	%xmm0, -248(%rbp)
 6338      08FFFFFF 
 6339 5ef1 F20F1043 		movsd	96(%rbx), %xmm0
 6339      60
 6340 5ef6 F20F1185 		movsd	%xmm0, -240(%rbp)
 6340      10FFFFFF 
 6341 5efe F20F1043 		movsd	104(%rbx), %xmm0
 6341      68
 6342 5f03 F20F1185 		movsd	%xmm0, -232(%rbp)
 6342      18FFFFFF 
 6343 5f0b F20F1043 		movsd	112(%rbx), %xmm0
 6343      70
 6344 5f10 F20F1185 		movsd	%xmm0, -224(%rbp)
 6344      20FFFFFF 
 6345 5f18 F20F1043 		movsd	120(%rbx), %xmm0
 6345      78
 6346 5f1d F20F1185 		movsd	%xmm0, -216(%rbp)
 6346      28FFFFFF 
GAS LISTING /tmp/cce5yULP.s 			page 169


 6347 5f25 8B838000 		movl	128(%rbx), %eax
 6347      0000
 6348 5f2b 4C8BA3A0 		movq	160(%rbx), %r12
 6348      000000
 6349 5f32 F20F1083 		movsd	144(%rbx), %xmm0
 6349      90000000 
 6350 5f3a 898530FF 		movl	%eax, -208(%rbp)
 6350      FFFF
 6351 5f40 8B838400 		movl	132(%rbx), %eax
 6351      0000
 6352 5f46 F20F1185 		movsd	%xmm0, -192(%rbp)
 6352      40FFFFFF 
 6353 5f4e 898534FF 		movl	%eax, -204(%rbp)
 6353      FFFF
 6354 5f54 8B838800 		movl	136(%rbx), %eax
 6354      0000
 6355 5f5a 898538FF 		movl	%eax, -200(%rbp)
 6355      FFFF
 6356 5f60 8B838C00 		movl	140(%rbx), %eax
 6356      0000
 6357 5f66 89853CFF 		movl	%eax, -196(%rbp)
 6357      FFFF
 6358 5f6c 488D85B0 		leaq	-336(%rbp), %rax
 6358      FEFFFF
 6359 5f73 4805A800 		addq	$168, %rax
 6359      0000
 6360 5f79 48898548 		movq	%rax, -184(%rbp)
 6360      FFFFFF
 6361 5f80 488B8398 		movq	152(%rbx), %rax
 6361      000000
 6362 5f87 4889C2   		movq	%rax, %rdx
 6363 5f8a 488985B8 		movq	%rax, -1352(%rbp)
 6363      FAFFFF
 6364 5f91 4C01E2   		addq	%r12, %rdx
 6365 5f94 7412     		je	.L1272
 6366 5f96 4885C0   		testq	%rax, %rax
 6367 5f99 750D     		jne	.L1272
 6368 5f9b BF000000 		movl	$.LC39, %edi
 6368      00
 6369              	.LEHB118:
 6370 5fa0 E8000000 		call	_ZSt19__throw_logic_errorPKc
 6370      00
 6371              	.LEHE118:
 6372              		.p2align 4,,10
 6373 5fa5 0F1F00   		.p2align 3
 6374              	.L1272:
 6375 5fa8 4983FC0F 		cmpq	$15, %r12
 6376 5fac 4C89A5E0 		movq	%r12, -1312(%rbp)
 6376      FAFFFF
 6377 5fb3 0F871706 		ja	.L1364
 6377      0000
 6378 5fb9 4983FC01 		cmpq	$1, %r12
 6379 5fbd 0F846D07 		je	.L1365
 6379      0000
 6380 5fc3 488D85B0 		leaq	-336(%rbp), %rax
 6380      FEFFFF
 6381 5fca 4D85E4   		testq	%r12, %r12
GAS LISTING /tmp/cce5yULP.s 			page 170


 6382 5fcd 488DB8A8 		leaq	168(%rax), %rdi
 6382      000000
 6383 5fd4 0F852A06 		jne	.L1273
 6383      0000
 6384              	.L1275:
 6385 5fda 488D85B0 		leaq	-336(%rbp), %rax
 6385      FEFFFF
 6386 5fe1 4C89A550 		movq	%r12, -176(%rbp)
 6386      FFFFFF
 6387 5fe8 42C60427 		movb	$0, (%rdi,%r12)
 6387      00
 6388 5fed 4C8BA3C0 		movq	192(%rbx), %r12
 6388      000000
 6389 5ff4 4805C800 		addq	$200, %rax
 6389      0000
 6390 5ffa 48898568 		movq	%rax, -152(%rbp)
 6390      FFFFFF
 6391 6001 488B83B8 		movq	184(%rbx), %rax
 6391      000000
 6392 6008 4889C2   		movq	%rax, %rdx
 6393 600b 488985B8 		movq	%rax, -1352(%rbp)
 6393      FAFFFF
 6394 6012 4C01E2   		addq	%r12, %rdx
 6395 6015 7419     		je	.L1278
 6396 6017 4885C0   		testq	%rax, %rax
 6397 601a 7514     		jne	.L1278
 6398 601c BF000000 		movl	$.LC39, %edi
 6398      00
 6399              	.LEHB119:
 6400 6021 E8000000 		call	_ZSt19__throw_logic_errorPKc
 6400      00
 6401              	.LEHE119:
 6402 6026 662E0F1F 		.p2align 4,,10
 6402      84000000 
 6402      0000
 6403              		.p2align 3
 6404              	.L1278:
 6405 6030 4983FC0F 		cmpq	$15, %r12
 6406 6034 4C89A5E8 		movq	%r12, -1304(%rbp)
 6406      FAFFFF
 6407 603b 0F87EF05 		ja	.L1366
 6407      0000
 6408 6041 4983FC01 		cmpq	$1, %r12
 6409 6045 0F843507 		je	.L1367
 6409      0000
 6410 604b 488D85B0 		leaq	-336(%rbp), %rax
 6410      FEFFFF
 6411 6052 4D85E4   		testq	%r12, %r12
 6412 6055 488DB8C8 		leaq	200(%rax), %rdi
 6412      000000
 6413 605c 0F850206 		jne	.L1279
 6413      0000
 6414              	.L1281:
 6415 6062 488D85B0 		leaq	-336(%rbp), %rax
 6415      FEFFFF
 6416 6069 4C89A570 		movq	%r12, -144(%rbp)
 6416      FFFFFF
GAS LISTING /tmp/cce5yULP.s 			page 171


 6417 6070 42C60427 		movb	$0, (%rdi,%r12)
 6417      00
 6418 6075 4C8BA3E0 		movq	224(%rbx), %r12
 6418      000000
 6419 607c 4805E800 		addq	$232, %rax
 6419      0000
 6420 6082 48894588 		movq	%rax, -120(%rbp)
 6421 6086 488B83D8 		movq	216(%rbx), %rax
 6421      000000
 6422 608d 4889C6   		movq	%rax, %rsi
 6423 6090 488985B8 		movq	%rax, -1352(%rbp)
 6423      FAFFFF
 6424 6097 4C01E6   		addq	%r12, %rsi
 6425 609a 7414     		je	.L1284
 6426 609c 4885C0   		testq	%rax, %rax
 6427 609f 750F     		jne	.L1284
 6428 60a1 BF000000 		movl	$.LC39, %edi
 6428      00
 6429              	.LEHB120:
 6430 60a6 E8000000 		call	_ZSt19__throw_logic_errorPKc
 6430      00
 6431              	.LEHE120:
 6432 60ab 0F1F4400 		.p2align 4,,10
 6432      00
 6433              		.p2align 3
 6434              	.L1284:
 6435 60b0 4983FC0F 		cmpq	$15, %r12
 6436 60b4 4C89A5F0 		movq	%r12, -1296(%rbp)
 6436      FAFFFF
 6437 60bb 0F871F06 		ja	.L1368
 6437      0000
 6438 60c1 4983FC01 		cmpq	$1, %r12
 6439 60c5 0F848D06 		je	.L1369
 6439      0000
 6440 60cb 488D85B0 		leaq	-336(%rbp), %rax
 6440      FEFFFF
 6441 60d2 4D85E4   		testq	%r12, %r12
 6442 60d5 488DB8E8 		leaq	232(%rax), %rdi
 6442      000000
 6443 60dc 0F852C06 		jne	.L1285
 6443      0000
 6444              	.L1287:
 6445 60e2 488D85B0 		leaq	-336(%rbp), %rax
 6445      FEFFFF
 6446 60e9 4C896590 		movq	%r12, -112(%rbp)
 6447 60ed 42C60427 		movb	$0, (%rdi,%r12)
 6447      00
 6448 60f2 4C8BA300 		movq	256(%rbx), %r12
 6448      010000
 6449 60f9 48050801 		addq	$264, %rax
 6449      0000
 6450 60ff 488945A8 		movq	%rax, -88(%rbp)
 6451 6103 488B83F8 		movq	248(%rbx), %rax
 6451      000000
 6452 610a 4889C2   		movq	%rax, %rdx
 6453 610d 488985B8 		movq	%rax, -1352(%rbp)
 6453      FAFFFF
GAS LISTING /tmp/cce5yULP.s 			page 172


 6454 6114 4C01E2   		addq	%r12, %rdx
 6455 6117 7417     		je	.L1290
 6456 6119 4885C0   		testq	%rax, %rax
 6457 611c 7512     		jne	.L1290
 6458 611e BF000000 		movl	$.LC39, %edi
 6458      00
 6459              	.LEHB121:
 6460 6123 E8000000 		call	_ZSt19__throw_logic_errorPKc
 6460      00
 6461              	.LEHE121:
 6462 6128 0F1F8400 		.p2align 4,,10
 6462      00000000 
 6463              		.p2align 3
 6464              	.L1290:
 6465 6130 4983FC0F 		cmpq	$15, %r12
 6466 6134 4C89A5F8 		movq	%r12, -1288(%rbp)
 6466      FAFFFF
 6467 613b 0F874F05 		ja	.L1370
 6467      0000
 6468 6141 4983FC01 		cmpq	$1, %r12
 6469 6145 0F845D06 		je	.L1371
 6469      0000
 6470 614b 488D85B0 		leaq	-336(%rbp), %rax
 6470      FEFFFF
 6471 6152 4D85E4   		testq	%r12, %r12
 6472 6155 488DB808 		leaq	264(%rax), %rdi
 6472      010000
 6473 615c 0F855C05 		jne	.L1291
 6473      0000
 6474              	.L1293:
 6475 6162 4C8965B0 		movq	%r12, -80(%rbp)
 6476 6166 42C60427 		movb	$0, (%rdi,%r12)
 6476      00
 6477 616b 488D95B0 		leaq	-336(%rbp), %rdx
 6477      FEFFFF
 6478 6172 F20F1085 		movsd	-1192(%rbp), %xmm0
 6478      58FBFFFF 
 6479 617a 488DB580 		leaq	-896(%rbp), %rsi
 6479      FCFFFF
 6480 6181 488DBD30 		leaq	-720(%rbp), %rdi
 6480      FDFFFF
 6481 6188 48C78580 		movq	$_ZTV15domain_geometry+16, -896(%rbp)
 6481      FCFFFF00 
 6481      000000
 6482 6193 F20F1185 		movsd	%xmm0, -888(%rbp)
 6482      88FCFFFF 
 6483 619b F20F1085 		movsd	-1184(%rbp), %xmm0
 6483      60FBFFFF 
 6484 61a3 F20F1185 		movsd	%xmm0, -880(%rbp)
 6484      90FCFFFF 
 6485 61ab F20F1085 		movsd	-1176(%rbp), %xmm0
 6485      68FBFFFF 
 6486 61b3 F20F1185 		movsd	%xmm0, -872(%rbp)
 6486      98FCFFFF 
 6487 61bb F20F1085 		movsd	-1168(%rbp), %xmm0
 6487      70FBFFFF 
 6488 61c3 F20F1185 		movsd	%xmm0, -864(%rbp)
GAS LISTING /tmp/cce5yULP.s 			page 173


 6488      A0FCFFFF 
 6489 61cb F20F1085 		movsd	-1160(%rbp), %xmm0
 6489      78FBFFFF 
 6490 61d3 F20F1185 		movsd	%xmm0, -856(%rbp)
 6490      A8FCFFFF 
 6491 61db F20F1085 		movsd	-1152(%rbp), %xmm0
 6491      80FBFFFF 
 6492 61e3 F20F1185 		movsd	%xmm0, -848(%rbp)
 6492      B0FCFFFF 
 6493              	.LEHB122:
 6494 61eb E8000000 		call	_ZN4MeshC1E15domain_geometry16global_variables
 6494      00
 6495              	.LEHE122:
 6496 61f0 488DBD80 		leaq	-896(%rbp), %rdi
 6496      FCFFFF
 6497 61f7 E8000000 		call	_ZN15domain_geometryD1Ev
 6497      00
 6498 61fc 488DBDB0 		leaq	-336(%rbp), %rdi
 6498      FEFFFF
 6499 6203 E8000000 		call	_ZN16global_variablesD1Ev
 6499      00
 6500 6208 8B953CFD 		movl	-708(%rbp), %edx
 6500      FFFF
 6501 620e 8BB538FD 		movl	-712(%rbp), %esi
 6501      FFFF
 6502 6214 488DBD30 		leaq	-976(%rbp), %rdi
 6502      FCFFFF
 6503              	.LEHB123:
 6504 621b E8000000 		call	_ZN19Boundary_ConditionsC1Eii
 6504      00
 6505              	.LEHE123:
 6506 6220 488B8DD0 		movq	-1328(%rbp), %rcx
 6506      FAFFFF
 6507 6227 48C78580 		movq	$_ZTV13quad_bcs_plus+16, -896(%rbp)
 6507      FCFFFF00 
 6507      000000
 6508 6232 488D9580 		leaq	-896(%rbp), %rdx
 6508      FCFFFF
 6509 6239 488DBD30 		leaq	-976(%rbp), %rdi
 6509      FCFFFF
 6510 6240 F20F1041 		movsd	8(%rcx), %xmm0
 6510      08
 6511 6245 F20F1185 		movsd	%xmm0, -888(%rbp)
 6511      88FCFFFF 
 6512 624d F20F1041 		movsd	16(%rcx), %xmm0
 6512      10
 6513 6252 F20F1185 		movsd	%xmm0, -880(%rbp)
 6513      90FCFFFF 
 6514 625a F20F1041 		movsd	24(%rcx), %xmm0
 6514      18
 6515 625f F20F1185 		movsd	%xmm0, -872(%rbp)
 6515      98FCFFFF 
 6516 6267 F20F1041 		movsd	32(%rcx), %xmm0
 6516      20
 6517 626c F20F1185 		movsd	%xmm0, -864(%rbp)
 6517      A0FCFFFF 
 6518 6274 F20F1041 		movsd	40(%rcx), %xmm0
GAS LISTING /tmp/cce5yULP.s 			page 174


 6518      28
 6519 6279 F20F1185 		movsd	%xmm0, -856(%rbp)
 6519      A8FCFFFF 
 6520 6281 F20F1041 		movsd	48(%rcx), %xmm0
 6520      30
 6521 6286 F20F1185 		movsd	%xmm0, -848(%rbp)
 6521      B0FCFFFF 
 6522 628e F20F1041 		movsd	56(%rcx), %xmm0
 6522      38
 6523 6293 F20F1185 		movsd	%xmm0, -840(%rbp)
 6523      B8FCFFFF 
 6524 629b F20F1041 		movsd	64(%rcx), %xmm0
 6524      40
 6525 62a0 F20F1185 		movsd	%xmm0, -832(%rbp)
 6525      C0FCFFFF 
 6526 62a8 F20F1041 		movsd	72(%rcx), %xmm0
 6526      48
 6527 62ad F20F1185 		movsd	%xmm0, -824(%rbp)
 6527      C8FCFFFF 
 6528 62b5 F20F1041 		movsd	80(%rcx), %xmm0
 6528      50
 6529 62ba F20F1185 		movsd	%xmm0, -816(%rbp)
 6529      D0FCFFFF 
 6530 62c2 F20F1041 		movsd	88(%rcx), %xmm0
 6530      58
 6531 62c7 F20F1185 		movsd	%xmm0, -808(%rbp)
 6531      D8FCFFFF 
 6532 62cf F20F1041 		movsd	96(%rcx), %xmm0
 6532      60
 6533 62d4 F20F1185 		movsd	%xmm0, -800(%rbp)
 6533      E0FCFFFF 
 6534 62dc F20F1041 		movsd	104(%rcx), %xmm0
 6534      68
 6535 62e1 F20F1185 		movsd	%xmm0, -792(%rbp)
 6535      E8FCFFFF 
 6536 62e9 F20F1041 		movsd	112(%rcx), %xmm0
 6536      70
 6537 62ee F20F1185 		movsd	%xmm0, -784(%rbp)
 6537      F0FCFFFF 
 6538 62f6 F20F1041 		movsd	120(%rcx), %xmm0
 6538      78
 6539 62fb F20F1185 		movsd	%xmm0, -776(%rbp)
 6539      F8FCFFFF 
 6540 6303 F20F1081 		movsd	128(%rcx), %xmm0
 6540      80000000 
 6541 630b 8B818800 		movl	136(%rcx), %eax
 6541      0000
 6542 6311 8BB538FD 		movl	-712(%rbp), %esi
 6542      FFFF
 6543 6317 F20F1185 		movsd	%xmm0, -768(%rbp)
 6543      00FDFFFF 
 6544 631f 898508FD 		movl	%eax, -760(%rbp)
 6544      FFFF
 6545 6325 8B818C00 		movl	140(%rcx), %eax
 6545      0000
 6546 632b 89850CFD 		movl	%eax, -756(%rbp)
 6546      FFFF
GAS LISTING /tmp/cce5yULP.s 			page 175


 6547 6331 8B819000 		movl	144(%rcx), %eax
 6547      0000
 6548 6337 898510FD 		movl	%eax, -752(%rbp)
 6548      FFFF
 6549 633d 8B819400 		movl	148(%rcx), %eax
 6549      0000
 6550 6343 898514FD 		movl	%eax, -748(%rbp)
 6550      FFFF
 6551 6349 8B819800 		movl	152(%rcx), %eax
 6551      0000
 6552 634f 898518FD 		movl	%eax, -744(%rbp)
 6552      FFFF
 6553 6355 8B819C00 		movl	156(%rcx), %eax
 6553      0000
 6554 635b 89851CFD 		movl	%eax, -740(%rbp)
 6554      FFFF
 6555 6361 8B81A000 		movl	160(%rcx), %eax
 6555      0000
 6556 6367 898520FD 		movl	%eax, -736(%rbp)
 6556      FFFF
 6557 636d 8B81A400 		movl	164(%rcx), %eax
 6557      0000
 6558 6373 898524FD 		movl	%eax, -732(%rbp)
 6558      FFFF
 6559 6379 8B81A800 		movl	168(%rcx), %eax
 6559      0000
 6560 637f 4889D1   		movq	%rdx, %rcx
 6561 6382 8B953CFD 		movl	-708(%rbp), %edx
 6561      FFFF
 6562 6388 898528FD 		movl	%eax, -728(%rbp)
 6562      FFFF
 6563              	.LEHB124:
 6564 638e E8000000 		call	_ZN19Boundary_Conditions26assign_boundary_conditionsEii13quad_bcs_plus
 6564      00
 6565              	.LEHE124:
 6566 6393 488DBD80 		leaq	-896(%rbp), %rdi
 6566      FCFFFF
 6567 639a E8000000 		call	_ZN13quad_bcs_plusD1Ev
 6567      00
 6568 639f 8BB540FD 		movl	-704(%rbp), %esi
 6568      FFFF
 6569 63a5 488DBD00 		leaq	-1280(%rbp), %rdi
 6569      FBFFFF
 6570              	.LEHB125:
 6571 63ac E8000000 		call	_ZN15external_forcesC1Ei
 6571      00
 6572              	.LEHE125:
 6573 63b1 F2410F10 		movsd	208(%r15), %xmm0
 6573      87D00000 
 6573      00
 6574 63ba 488DBD00 		leaq	-1280(%rbp), %rdi
 6574      FBFFFF
 6575              	.LEHB126:
 6576 63c1 E8000000 		call	_ZN15external_forces17set_uniform_forceEd
 6576      00
 6577 63c6 8BB540FD 		movl	-704(%rbp), %esi
 6577      FFFF
GAS LISTING /tmp/cce5yULP.s 			page 176


 6578 63cc 488DBD90 		leaq	-1136(%rbp), %rdi
 6578      FBFFFF
 6579 63d3 E8000000 		call	_ZN8SolutionC1Ei
 6579      00
 6580              	.LEHE126:
 6581 63d8 4C8DA5E0 		leaq	-1056(%rbp), %r12
 6581      FBFFFF
 6582 63df 8BB540FD 		movl	-704(%rbp), %esi
 6582      FFFF
 6583 63e5 4C89E7   		movq	%r12, %rdi
 6584              	.LEHB127:
 6585 63e8 E8000000 		call	_ZN8SolutionC1Ei
 6585      00
 6586              	.LEHE127:
 6587 63ed 4C8B85C8 		movq	-1336(%rbp), %r8
 6587      FAFFFF
 6588 63f4 488B8DD8 		movq	-1320(%rbp), %rcx
 6588      FAFFFF
 6589 63fb 488D9530 		leaq	-720(%rbp), %rdx
 6589      FDFFFF
 6590 6402 488DB590 		leaq	-1136(%rbp), %rsi
 6590      FBFFFF
 6591 6409 4C89F7   		movq	%r14, %rdi
 6592              	.LEHB128:
 6593 640c E8000000 		call	_ZN8Solution11restrictionERS_R4MeshS2_R19Boundary_Conditions
 6593      00
 6594 6411 4C8B85C8 		movq	-1336(%rbp), %r8
 6594      FAFFFF
 6595 6418 488B8DD8 		movq	-1320(%rbp), %rcx
 6595      FAFFFF
 6596 641f 488D9530 		leaq	-720(%rbp), %rdx
 6596      FDFFFF
 6597 6426 488BBDC0 		movq	-1344(%rbp), %rdi
 6597      FAFFFF
 6598 642d 4C89E6   		movq	%r12, %rsi
 6599 6430 E8000000 		call	_ZN8Solution11restrictionERS_R4MeshS2_R19Boundary_Conditions
 6599      00
 6600 6435 8BB540FD 		movl	-704(%rbp), %esi
 6600      FFFF
 6601 643b 488DBD80 		leaq	-896(%rbp), %rdi
 6601      FCFFFF
 6602 6442 48C78520 		movq	$_ZTV6Solver+16, -1248(%rbp)
 6602      FBFFFF00 
 6602      000000
 6603 644d E8000000 		call	_ZN8SolutionC1Ei
 6603      00
 6604              	.LEHE128:
 6605 6452 488DB550 		leaq	-1200(%rbp), %rsi
 6605      FBFFFF
 6606 6459 488D9530 		leaq	-720(%rbp), %rdx
 6606      FDFFFF
 6607 6460 488DBD90 		leaq	-1136(%rbp), %rdi
 6607      FBFFFF
 6608 6467 4889F1   		movq	%rsi, %rcx
 6609 646a 488DB530 		leaq	-976(%rbp), %rsi
 6609      FCFFFF
 6610              	.LEHB129:
GAS LISTING /tmp/cce5yULP.s 			page 177


 6611 6471 E8000000 		call	_ZN8Solution10update_bcsER19Boundary_ConditionsR4MeshR15domain_geometry
 6611      00
 6612 6476 488DB590 		leaq	-1136(%rbp), %rsi
 6612      FBFFFF
 6613 647d 488DBD80 		leaq	-896(%rbp), %rdi
 6613      FCFFFF
 6614 6484 E8000000 		call	_ZN8Solution5cloneERS_
 6614      00
 6615 6489 6A00     		pushq	$0
 6616 648b 418B4500 		movl	0(%r13), %eax
 6617 648f 4C8D8500 		leaq	-1280(%rbp), %r8
 6617      FBFFFF
 6618 6496 4154     		pushq	%r12
 6619 6498 488D8D30 		leaq	-976(%rbp), %rcx
 6619      FCFFFF
 6620 649f 488D9590 		leaq	-1136(%rbp), %rdx
 6620      FBFFFF
 6621 64a6 488DB530 		leaq	-720(%rbp), %rsi
 6621      FDFFFF
 6622 64ad 488DBD20 		leaq	-1248(%rbp), %rdi
 6622      FBFFFF
 6623 64b4 4989D9   		movq	%rbx, %r9
 6624 64b7 50       		pushq	%rax
 6625 64b8 488D8550 		leaq	-1200(%rbp), %rax
 6625      FBFFFF
 6626 64bf FFB5D0FA 		pushq	-1328(%rbp)
 6626      FFFF
 6627 64c5 4157     		pushq	%r15
 6628 64c7 50       		pushq	%rax
 6629              		.cfi_escape 0x2e,0x30
 6630 64c8 E8000000 		call	_ZN6Solver11Mesh_SolverER4MeshR8SolutionR19Boundary_ConditionsR15external_forcesR16global_var
 6630      00
 6631 64cd 488D8D50 		leaq	-1200(%rbp), %rcx
 6631      FBFFFF
 6632 64d4 488D9530 		leaq	-720(%rbp), %rdx
 6632      FDFFFF
 6633 64db 488DB530 		leaq	-976(%rbp), %rsi
 6633      FCFFFF
 6634 64e2 488DBD90 		leaq	-1136(%rbp), %rdi
 6634      FBFFFF
 6635 64e9 4883C430 		addq	$48, %rsp
 6636              		.cfi_escape 0x2e,0
 6637 64ed E8000000 		call	_ZN8Solution10update_bcsER19Boundary_ConditionsR4MeshR15domain_geometry
 6637      00
 6638 64f2 488D8D50 		leaq	-1200(%rbp), %rcx
 6638      FBFFFF
 6639 64f9 488D9530 		leaq	-720(%rbp), %rdx
 6639      FDFFFF
 6640 6500 488DB530 		leaq	-976(%rbp), %rsi
 6640      FCFFFF
 6641 6507 488DBD80 		leaq	-896(%rbp), %rdi
 6641      FCFFFF
 6642 650e E8000000 		call	_ZN8Solution10update_bcsER19Boundary_ConditionsR4MeshR15domain_geometry
 6642      00
 6643 6513 4C8B8DD8 		movq	-1320(%rbp), %r9
 6643      FAFFFF
 6644 651a 6A00     		pushq	$0
GAS LISTING /tmp/cce5yULP.s 			page 178


 6645 651c 4C8D8530 		leaq	-720(%rbp), %r8
 6645      FDFFFF
 6646 6523 FFB5C8FA 		pushq	-1336(%rbp)
 6646      FFFF
 6647 6529 488D9580 		leaq	-896(%rbp), %rdx
 6647      FCFFFF
 6648 6530 488DB590 		leaq	-1136(%rbp), %rsi
 6648      FBFFFF
 6649 6537 4C89F1   		movq	%r14, %rcx
 6650 653a 4C89F7   		movq	%r14, %rdi
 6651              		.cfi_escape 0x2e,0x10
 6652 653d E8000000 		call	_ZN8Solution12prolongationERS_S0_S0_R4MeshS2_R19Boundary_Conditionsb
 6652      00
 6653              	.LEHE129:
 6654 6542 F2410F10 		movsd	104(%r15), %xmm0
 6654      4768
 6655 6548 488DBD80 		leaq	-896(%rbp), %rdi
 6655      FCFFFF
 6656 654f 58       		popq	%rax
 6657 6550 F2410F11 		movsd	%xmm0, 64(%r14)
 6657      4640
 6658 6556 5A       		popq	%rdx
 6659 6557 41836D00 		subl	$1, 0(%r13)
 6659      01
 6660 655c E8000000 		call	_ZN8SolutionD1Ev
 6660      00
 6661 6561 4C89E7   		movq	%r12, %rdi
 6662 6564 E8000000 		call	_ZN8SolutionD1Ev
 6662      00
 6663 6569 488DBD90 		leaq	-1136(%rbp), %rdi
 6663      FBFFFF
 6664 6570 E8000000 		call	_ZN8SolutionD1Ev
 6664      00
 6665 6575 488DBD00 		leaq	-1280(%rbp), %rdi
 6665      FBFFFF
 6666 657c E8000000 		call	_ZN15external_forcesD1Ev
 6666      00
 6667 6581 488DBD30 		leaq	-976(%rbp), %rdi
 6667      FCFFFF
 6668 6588 E8000000 		call	_ZN19Boundary_ConditionsD1Ev
 6668      00
 6669 658d 488DBD30 		leaq	-720(%rbp), %rdi
 6669      FDFFFF
 6670 6594 E8000000 		call	_ZN4MeshD1Ev
 6670      00
 6671 6599 488DBD50 		leaq	-1200(%rbp), %rdi
 6671      FBFFFF
 6672 65a0 E8000000 		call	_ZN15domain_geometryD1Ev
 6672      00
 6673 65a5 488B45C8 		movq	-56(%rbp), %rax
 6674 65a9 64483304 		xorq	%fs:40, %rax
 6674      25280000 
 6674      00
 6675 65b2 0F858D02 		jne	.L1372
 6675      0000
 6676 65b8 488D65D8 		leaq	-40(%rbp), %rsp
 6677 65bc 5B       		popq	%rbx
GAS LISTING /tmp/cce5yULP.s 			page 179


 6678 65bd 415C     		popq	%r12
 6679 65bf 415D     		popq	%r13
 6680 65c1 415E     		popq	%r14
 6681 65c3 415F     		popq	%r15
 6682 65c5 5D       		popq	%rbp
 6683              		.cfi_remember_state
 6684              		.cfi_def_cfa 7, 8
 6685 65c6 C3       		ret
 6686 65c7 660F1F84 		.p2align 4,,10
 6686      00000000 
 6686      00
 6687              		.p2align 3
 6688              	.L1364:
 6689              		.cfi_restore_state
 6690 65d0 488D85B0 		leaq	-336(%rbp), %rax
 6690      FEFFFF
 6691 65d7 488DB5E0 		leaq	-1312(%rbp), %rsi
 6691      FAFFFF
 6692 65de 31D2     		xorl	%edx, %edx
 6693 65e0 488DB898 		leaq	152(%rax), %rdi
 6693      000000
 6694              	.LEHB130:
 6695              		.cfi_escape 0x2e,0
 6696 65e7 E8000000 		call	_ZNSt7__cxx1112basic_stringIcSt11char_traitsIcESaIcEE9_M_createERmm
 6696      00
 6697              	.LEHE130:
 6698 65ec 4889C7   		movq	%rax, %rdi
 6699 65ef 48898548 		movq	%rax, -184(%rbp)
 6699      FFFFFF
 6700 65f6 488B85E0 		movq	-1312(%rbp), %rax
 6700      FAFFFF
 6701 65fd 48898558 		movq	%rax, -168(%rbp)
 6701      FFFFFF
 6702              	.L1273:
 6703 6604 488BB5B8 		movq	-1352(%rbp), %rsi
 6703      FAFFFF
 6704 660b 4C89E2   		movq	%r12, %rdx
 6705 660e E8000000 		call	memcpy
 6705      00
 6706 6613 4C8BA5E0 		movq	-1312(%rbp), %r12
 6706      FAFFFF
 6707 661a 488BBD48 		movq	-184(%rbp), %rdi
 6707      FFFFFF
 6708 6621 E9B4F9FF 		jmp	.L1275
 6708      FF
 6709 6626 662E0F1F 		.p2align 4,,10
 6709      84000000 
 6709      0000
 6710              		.p2align 3
 6711              	.L1366:
 6712 6630 488D85B0 		leaq	-336(%rbp), %rax
 6712      FEFFFF
 6713 6637 488DB5E8 		leaq	-1304(%rbp), %rsi
 6713      FAFFFF
 6714 663e 31D2     		xorl	%edx, %edx
 6715 6640 488DB8B8 		leaq	184(%rax), %rdi
 6715      000000
GAS LISTING /tmp/cce5yULP.s 			page 180


 6716              	.LEHB131:
 6717 6647 E8000000 		call	_ZNSt7__cxx1112basic_stringIcSt11char_traitsIcESaIcEE9_M_createERmm
 6717      00
 6718              	.LEHE131:
 6719 664c 4889C7   		movq	%rax, %rdi
 6720 664f 48898568 		movq	%rax, -152(%rbp)
 6720      FFFFFF
 6721 6656 488B85E8 		movq	-1304(%rbp), %rax
 6721      FAFFFF
 6722 665d 48898578 		movq	%rax, -136(%rbp)
 6722      FFFFFF
 6723              	.L1279:
 6724 6664 488BB5B8 		movq	-1352(%rbp), %rsi
 6724      FAFFFF
 6725 666b 4C89E2   		movq	%r12, %rdx
 6726 666e E8000000 		call	memcpy
 6726      00
 6727 6673 4C8BA5E8 		movq	-1304(%rbp), %r12
 6727      FAFFFF
 6728 667a 488BBD68 		movq	-152(%rbp), %rdi
 6728      FFFFFF
 6729 6681 E9DCF9FF 		jmp	.L1281
 6729      FF
 6730 6686 662E0F1F 		.p2align 4,,10
 6730      84000000 
 6730      0000
 6731              		.p2align 3
 6732              	.L1370:
 6733 6690 488D85B0 		leaq	-336(%rbp), %rax
 6733      FEFFFF
 6734 6697 488DB5F8 		leaq	-1288(%rbp), %rsi
 6734      FAFFFF
 6735 669e 31D2     		xorl	%edx, %edx
 6736 66a0 488DB8F8 		leaq	248(%rax), %rdi
 6736      000000
 6737              	.LEHB132:
 6738 66a7 E8000000 		call	_ZNSt7__cxx1112basic_stringIcSt11char_traitsIcESaIcEE9_M_createERmm
 6738      00
 6739              	.LEHE132:
 6740 66ac 4889C7   		movq	%rax, %rdi
 6741 66af 488945A8 		movq	%rax, -88(%rbp)
 6742 66b3 488B85F8 		movq	-1288(%rbp), %rax
 6742      FAFFFF
 6743 66ba 488945B8 		movq	%rax, -72(%rbp)
 6744              	.L1291:
 6745 66be 488BB5B8 		movq	-1352(%rbp), %rsi
 6745      FAFFFF
 6746 66c5 4C89E2   		movq	%r12, %rdx
 6747 66c8 E8000000 		call	memcpy
 6747      00
 6748 66cd 4C8BA5F8 		movq	-1288(%rbp), %r12
 6748      FAFFFF
 6749 66d4 488B7DA8 		movq	-88(%rbp), %rdi
 6750 66d8 E985FAFF 		jmp	.L1293
 6750      FF
 6751 66dd 0F1F00   		.p2align 4,,10
 6752              		.p2align 3
GAS LISTING /tmp/cce5yULP.s 			page 181


 6753              	.L1368:
 6754 66e0 488D85B0 		leaq	-336(%rbp), %rax
 6754      FEFFFF
 6755 66e7 488DB5F0 		leaq	-1296(%rbp), %rsi
 6755      FAFFFF
 6756 66ee 31D2     		xorl	%edx, %edx
 6757 66f0 488DB8D8 		leaq	216(%rax), %rdi
 6757      000000
 6758              	.LEHB133:
 6759 66f7 E8000000 		call	_ZNSt7__cxx1112basic_stringIcSt11char_traitsIcESaIcEE9_M_createERmm
 6759      00
 6760              	.LEHE133:
 6761 66fc 4889C7   		movq	%rax, %rdi
 6762 66ff 48894588 		movq	%rax, -120(%rbp)
 6763 6703 488B85F0 		movq	-1296(%rbp), %rax
 6763      FAFFFF
 6764 670a 48894598 		movq	%rax, -104(%rbp)
 6765              	.L1285:
 6766 670e 488BB5B8 		movq	-1352(%rbp), %rsi
 6766      FAFFFF
 6767 6715 4C89E2   		movq	%r12, %rdx
 6768 6718 E8000000 		call	memcpy
 6768      00
 6769 671d 4C8BA5F0 		movq	-1296(%rbp), %r12
 6769      FAFFFF
 6770 6724 488B7D88 		movq	-120(%rbp), %rdi
 6771 6728 E9B5F9FF 		jmp	.L1287
 6771      FF
 6772 672d 0F1F00   		.p2align 4,,10
 6773              		.p2align 3
 6774              	.L1365:
 6775 6730 488B85B8 		movq	-1352(%rbp), %rax
 6775      FAFFFF
 6776 6737 0FB600   		movzbl	(%rax), %eax
 6777 673a 888558FF 		movb	%al, -168(%rbp)
 6777      FFFF
 6778 6740 488D85B0 		leaq	-336(%rbp), %rax
 6778      FEFFFF
 6779 6747 488DB8A8 		leaq	168(%rax), %rdi
 6779      000000
 6780 674e E987F8FF 		jmp	.L1275
 6780      FF
 6781              		.p2align 4,,10
 6782 6753 0F1F4400 		.p2align 3
 6782      00
 6783              	.L1369:
 6784 6758 488B85B8 		movq	-1352(%rbp), %rax
 6784      FAFFFF
 6785 675f 0FB600   		movzbl	(%rax), %eax
 6786 6762 884598   		movb	%al, -104(%rbp)
 6787 6765 488D85B0 		leaq	-336(%rbp), %rax
 6787      FEFFFF
 6788 676c 488DB8E8 		leaq	232(%rax), %rdi
 6788      000000
 6789 6773 E96AF9FF 		jmp	.L1287
 6789      FF
 6790 6778 0F1F8400 		.p2align 4,,10
GAS LISTING /tmp/cce5yULP.s 			page 182


 6790      00000000 
 6791              		.p2align 3
 6792              	.L1367:
 6793 6780 488B85B8 		movq	-1352(%rbp), %rax
 6793      FAFFFF
 6794 6787 0FB600   		movzbl	(%rax), %eax
 6795 678a 888578FF 		movb	%al, -136(%rbp)
 6795      FFFF
 6796 6790 488D85B0 		leaq	-336(%rbp), %rax
 6796      FEFFFF
 6797 6797 488DB8C8 		leaq	200(%rax), %rdi
 6797      000000
 6798 679e E9BFF8FF 		jmp	.L1281
 6798      FF
 6799              		.p2align 4,,10
 6800 67a3 0F1F4400 		.p2align 3
 6800      00
 6801              	.L1371:
 6802 67a8 488B85B8 		movq	-1352(%rbp), %rax
 6802      FAFFFF
 6803 67af 0FB600   		movzbl	(%rax), %eax
 6804 67b2 8845B8   		movb	%al, -72(%rbp)
 6805 67b5 488D85B0 		leaq	-336(%rbp), %rax
 6805      FEFFFF
 6806 67bc 488DB808 		leaq	264(%rax), %rdi
 6806      010000
 6807 67c3 E99AF9FF 		jmp	.L1293
 6807      FF
 6808              	.L1323:
 6809 67c8 4889C3   		movq	%rax, %rbx
 6810              	.L1301:
 6811 67cb 488DBD50 		leaq	-1200(%rbp), %rdi
 6811      FBFFFF
 6812 67d2 E8000000 		call	_ZN15domain_geometryD1Ev
 6812      00
 6813 67d7 4889DF   		movq	%rbx, %rdi
 6814              	.LEHB134:
 6815 67da E8000000 		call	_Unwind_Resume
 6815      00
 6816              	.LEHE134:
 6817              	.L1333:
 6818 67df 4889C3   		movq	%rax, %rbx
 6819              	.L1297:
 6820 67e2 488BBD68 		movq	-152(%rbp), %rdi
 6820      FFFFFF
 6821 67e9 488D85B0 		leaq	-336(%rbp), %rax
 6821      FEFFFF
 6822 67f0 4805C800 		addq	$200, %rax
 6822      0000
 6823 67f6 4839C7   		cmpq	%rax, %rdi
 6824 67f9 7405     		je	.L1299
 6825 67fb E8000000 		call	_ZdlPv
 6825      00
 6826              	.L1299:
 6827 6800 488BBD48 		movq	-184(%rbp), %rdi
 6827      FFFFFF
 6828 6807 488D85B0 		leaq	-336(%rbp), %rax
GAS LISTING /tmp/cce5yULP.s 			page 183


 6828      FEFFFF
 6829 680e 4805A800 		addq	$168, %rax
 6829      0000
 6830 6814 4839C7   		cmpq	%rax, %rdi
 6831 6817 74B2     		je	.L1301
 6832 6819 E8000000 		call	_ZdlPv
 6832      00
 6833 681e EBAB     		jmp	.L1301
 6834              	.L1332:
 6835 6820 4889C3   		movq	%rax, %rbx
 6836 6823 EBDB     		jmp	.L1299
 6837              	.L1334:
 6838 6825 4889C3   		movq	%rax, %rbx
 6839 6828 488B7D88 		movq	-120(%rbp), %rdi
 6840 682c 488D85B0 		leaq	-336(%rbp), %rax
 6840      FEFFFF
 6841 6833 4805E800 		addq	$232, %rax
 6841      0000
 6842 6839 4839C7   		cmpq	%rax, %rdi
 6843 683c 74A4     		je	.L1297
 6844 683e E8000000 		call	_ZdlPv
 6844      00
 6845 6843 EB9D     		jmp	.L1297
 6846              	.L1372:
 6847 6845 E8000000 		call	__stack_chk_fail
 6847      00
 6848              	.L1324:
 6849 684a 488DBD80 		leaq	-896(%rbp), %rdi
 6849      FCFFFF
 6850 6851 4889C3   		movq	%rax, %rbx
 6851 6854 E8000000 		call	_ZN15domain_geometryD1Ev
 6851      00
 6852 6859 488DBDB0 		leaq	-336(%rbp), %rdi
 6852      FEFFFF
 6853 6860 E8000000 		call	_ZN16global_variablesD1Ev
 6853      00
 6854 6865 E961FFFF 		jmp	.L1301
 6854      FF
 6855              	.L1331:
 6856 686a 488DBD80 		leaq	-896(%rbp), %rdi
 6856      FCFFFF
 6857 6871 4889C3   		movq	%rax, %rbx
 6858 6874 E8000000 		call	_ZN8SolutionD1Ev
 6858      00
 6859              	.L1306:
 6860 6879 4C89E7   		movq	%r12, %rdi
 6861 687c E8000000 		call	_ZN8SolutionD1Ev
 6861      00
 6862              	.L1307:
 6863 6881 488DBD90 		leaq	-1136(%rbp), %rdi
 6863      FBFFFF
 6864 6888 E8000000 		call	_ZN8SolutionD1Ev
 6864      00
 6865              	.L1308:
 6866 688d 488DBD00 		leaq	-1280(%rbp), %rdi
 6866      FBFFFF
 6867 6894 E8000000 		call	_ZN15external_forcesD1Ev
GAS LISTING /tmp/cce5yULP.s 			page 184


 6867      00
 6868              	.L1304:
 6869 6899 488DBD30 		leaq	-976(%rbp), %rdi
 6869      FCFFFF
 6870 68a0 E8000000 		call	_ZN19Boundary_ConditionsD1Ev
 6870      00
 6871              	.L1309:
 6872 68a5 488DBD30 		leaq	-720(%rbp), %rdi
 6872      FDFFFF
 6873 68ac E8000000 		call	_ZN4MeshD1Ev
 6873      00
 6874 68b1 E915FFFF 		jmp	.L1301
 6874      FF
 6875              	.L1330:
 6876 68b6 4889C3   		movq	%rax, %rbx
 6877 68b9 EBBE     		jmp	.L1306
 6878              	.L1329:
 6879 68bb 4889C3   		movq	%rax, %rbx
 6880 68be EBC1     		jmp	.L1307
 6881              	.L1328:
 6882 68c0 4889C3   		movq	%rax, %rbx
 6883 68c3 EBC8     		jmp	.L1308
 6884              	.L1327:
 6885 68c5 4889C3   		movq	%rax, %rbx
 6886 68c8 EBCF     		jmp	.L1304
 6887              	.L1326:
 6888 68ca 488DBD80 		leaq	-896(%rbp), %rdi
 6888      FCFFFF
 6889 68d1 4889C3   		movq	%rax, %rbx
 6890 68d4 E8000000 		call	_ZN13quad_bcs_plusD1Ev
 6890      00
 6891 68d9 EBBE     		jmp	.L1304
 6892              	.L1325:
 6893 68db 4889C3   		movq	%rax, %rbx
 6894 68de EBC5     		jmp	.L1309
 6895              		.cfi_endproc
 6896              	.LFE8461:
 6897              		.section	.gcc_except_table
 6898              	.LLSDA8461:
 6899 02c5 FF       		.byte	0xff
 6900 02c6 FF       		.byte	0xff
 6901 02c7 01       		.byte	0x1
 6902 02c8 6A       		.uleb128 .LLSDACSE8461-.LLSDACSB8461
 6903              	.LLSDACSB8461:
 6904 02c9 61       		.uleb128 .LEHB117-.LFB8461
 6905 02ca 05       		.uleb128 .LEHE117-.LEHB117
 6906 02cb 00       		.uleb128 0
 6907 02cc 00       		.uleb128 0
 6908 02cd B003     		.uleb128 .LEHB118-.LFB8461
 6909 02cf 05       		.uleb128 .LEHE118-.LEHB118
 6910 02d0 D813     		.uleb128 .L1323-.LFB8461
 6911 02d2 00       		.uleb128 0
 6912 02d3 B104     		.uleb128 .LEHB119-.LFB8461
 6913 02d5 05       		.uleb128 .LEHE119-.LEHB119
 6914 02d6 B014     		.uleb128 .L1332-.LFB8461
 6915 02d8 00       		.uleb128 0
 6916 02d9 B605     		.uleb128 .LEHB120-.LFB8461
GAS LISTING /tmp/cce5yULP.s 			page 185


 6917 02db 05       		.uleb128 .LEHE120-.LEHB120
 6918 02dc EF13     		.uleb128 .L1333-.LFB8461
 6919 02de 00       		.uleb128 0
 6920 02df B306     		.uleb128 .LEHB121-.LFB8461
 6921 02e1 05       		.uleb128 .LEHE121-.LEHB121
 6922 02e2 B514     		.uleb128 .L1334-.LFB8461
 6923 02e4 00       		.uleb128 0
 6924 02e5 FB07     		.uleb128 .LEHB122-.LFB8461
 6925 02e7 05       		.uleb128 .LEHE122-.LEHB122
 6926 02e8 DA14     		.uleb128 .L1324-.LFB8461
 6927 02ea 00       		.uleb128 0
 6928 02eb AB08     		.uleb128 .LEHB123-.LFB8461
 6929 02ed 05       		.uleb128 .LEHE123-.LEHB123
 6930 02ee EB15     		.uleb128 .L1325-.LFB8461
 6931 02f0 00       		.uleb128 0
 6932 02f1 9E0B     		.uleb128 .LEHB124-.LFB8461
 6933 02f3 05       		.uleb128 .LEHE124-.LEHB124
 6934 02f4 DA15     		.uleb128 .L1326-.LFB8461
 6935 02f6 00       		.uleb128 0
 6936 02f7 BC0B     		.uleb128 .LEHB125-.LFB8461
 6937 02f9 05       		.uleb128 .LEHE125-.LEHB125
 6938 02fa D515     		.uleb128 .L1327-.LFB8461
 6939 02fc 00       		.uleb128 0
 6940 02fd D10B     		.uleb128 .LEHB126-.LFB8461
 6941 02ff 17       		.uleb128 .LEHE126-.LEHB126
 6942 0300 D015     		.uleb128 .L1328-.LFB8461
 6943 0302 00       		.uleb128 0
 6944 0303 F80B     		.uleb128 .LEHB127-.LFB8461
 6945 0305 05       		.uleb128 .LEHE127-.LEHB127
 6946 0306 CB15     		.uleb128 .L1329-.LFB8461
 6947 0308 00       		.uleb128 0
 6948 0309 9C0C     		.uleb128 .LEHB128-.LFB8461
 6949 030b 46       		.uleb128 .LEHE128-.LEHB128
 6950 030c C615     		.uleb128 .L1330-.LFB8461
 6951 030e 00       		.uleb128 0
 6952 030f 810D     		.uleb128 .LEHB129-.LFB8461
 6953 0311 D101     		.uleb128 .LEHE129-.LEHB129
 6954 0313 FA14     		.uleb128 .L1331-.LFB8461
 6955 0315 00       		.uleb128 0
 6956 0316 F70F     		.uleb128 .LEHB130-.LFB8461
 6957 0318 05       		.uleb128 .LEHE130-.LEHB130
 6958 0319 D813     		.uleb128 .L1323-.LFB8461
 6959 031b 00       		.uleb128 0
 6960 031c D710     		.uleb128 .LEHB131-.LFB8461
 6961 031e 05       		.uleb128 .LEHE131-.LEHB131
 6962 031f B014     		.uleb128 .L1332-.LFB8461
 6963 0321 00       		.uleb128 0
 6964 0322 B711     		.uleb128 .LEHB132-.LFB8461
 6965 0324 05       		.uleb128 .LEHE132-.LEHB132
 6966 0325 B514     		.uleb128 .L1334-.LFB8461
 6967 0327 00       		.uleb128 0
 6968 0328 8712     		.uleb128 .LEHB133-.LFB8461
 6969 032a 05       		.uleb128 .LEHE133-.LEHB133
 6970 032b EF13     		.uleb128 .L1333-.LFB8461
 6971 032d 00       		.uleb128 0
 6972 032e EA13     		.uleb128 .LEHB134-.LFB8461
 6973 0330 05       		.uleb128 .LEHE134-.LEHB134
GAS LISTING /tmp/cce5yULP.s 			page 186


 6974 0331 00       		.uleb128 0
 6975 0332 00       		.uleb128 0
 6976              	.LLSDACSE8461:
 6977              		.text
 6979              		.section	.text.unlikely
 6980              	.LCOLDE45:
 6981              		.text
 6982              	.LHOTE45:
 6983              		.section	.rodata.str1.1
 6984              	.LC48:
 6985 0045 2F666D67 		.string	"/fmg_error.txt"
 6985      5F657272 
 6985      6F722E74 
 6985      787400
 6986              	.LC49:
 6987 0054 2F6D6573 		.string	"/mesh.txt"
 6987      682E7478 
 6987      7400
 6988              	.LC50:
 6989 005e 2C00     		.string	","
 6990              		.section	.text.unlikely
 6991              		.align 2
 6992              	.LCOLDB54:
 6993              		.text
 6994              	.LHOTB54:
 6995              		.align 2
 6996              		.p2align 4,,15
 6997              		.globl	_ZN6Solver11Mesh_SolverER4MeshR8SolutionR19Boundary_ConditionsR15external_forcesR16global_v
 6999              	_ZN6Solver11Mesh_SolverER4MeshR8SolutionR19Boundary_ConditionsR15external_forcesR16global_variables
 7000              	.LFB8454:
 7001              		.cfi_startproc
 7002              		.cfi_personality 0x3,__gxx_personality_v0
 7003              		.cfi_lsda 0x3,.LLSDA8454
 7004 68e0 55       		pushq	%rbp
 7005              		.cfi_def_cfa_offset 16
 7006              		.cfi_offset 6, -16
 7007 68e1 4889E5   		movq	%rsp, %rbp
 7008              		.cfi_def_cfa_register 6
 7009 68e4 4157     		pushq	%r15
 7010 68e6 4156     		pushq	%r14
 7011 68e8 4155     		pushq	%r13
 7012 68ea 4154     		pushq	%r12
 7013              		.cfi_offset 15, -24
 7014              		.cfi_offset 14, -32
 7015              		.cfi_offset 13, -40
 7016              		.cfi_offset 12, -48
 7017 68ec 4989D6   		movq	%rdx, %r14
 7018 68ef 53       		pushq	%rbx
 7019 68f0 4989F7   		movq	%rsi, %r15
 7020              		.cfi_offset 3, -56
 7021 68f3 4889FB   		movq	%rdi, %rbx
 7022 68f6 4D89CC   		movq	%r9, %r12
 7023 68f9 4881EC18 		subq	$3864, %rsp
 7023      0F0000
 7024 6900 488B4510 		movq	16(%rbp), %rax
 7025 6904 488B5518 		movq	24(%rbp), %rdx
 7026 6908 F20F103D 		movsd	.LC12(%rip), %xmm7
GAS LISTING /tmp/cce5yULP.s 			page 187


 7026      00000000 
 7027 6910 8B7610   		movl	16(%rsi), %esi
 7028 6913 48898D20 		movq	%rcx, -3808(%rbp)
 7028      F1FFFF
 7029 691a 4C898500 		movq	%r8, -3840(%rbp)
 7029      F1FFFF
 7030 6921 F20F1040 		movsd	48(%rax), %xmm0
 7030      30
 7031 6926 488995C8 		movq	%rdx, -3896(%rbp)
 7031      F0FFFF
 7032 692d 488B5520 		movq	32(%rbp), %rdx
 7033 6931 F20F117F 		movsd	%xmm7, 8(%rdi)
 7033      08
 7034 6936 488985D0 		movq	%rax, -3888(%rbp)
 7034      F0FFFF
 7035 693d F20F1147 		movsd	%xmm0, 40(%rdi)
 7035      28
 7036 6942 F2410F10 		movsd	96(%r9), %xmm0
 7036      4160
 7037 6948 488995C0 		movq	%rdx, -3904(%rbp)
 7037      F0FFFF
 7038 694f F20F117F 		movsd	%xmm7, 32(%rdi)
 7038      20
 7039 6954 488B5530 		movq	48(%rbp), %rdx
 7040 6958 F20F1147 		movsd	%xmm0, 16(%rdi)
 7040      10
 7041 695d 488DBDD0 		leaq	-2864(%rbp), %rdi
 7041      F4FFFF
 7042 6964 48899518 		movq	%rdx, -3816(%rbp)
 7042      F1FFFF
 7043 696b 64488B14 		movq	%fs:40, %rdx
 7043      25280000 
 7043      00
 7044 6974 488955C8 		movq	%rdx, -56(%rbp)
 7045 6978 31D2     		xorl	%edx, %edx
 7046              	.LEHB135:
 7047 697a E8000000 		call	_ZN8SolutionC1Ei
 7047      00
 7048              	.LEHE135:
 7049 697f 418B7710 		movl	16(%r15), %esi
 7050 6983 488DBD20 		leaq	-2784(%rbp), %rdi
 7050      F5FFFF
 7051              	.LEHB136:
 7052 698a E8000000 		call	_ZN8SolutionC1Ei
 7052      00
 7053              	.LEHE136:
 7054 698f 418B7710 		movl	16(%r15), %esi
 7055 6993 488DBDF0 		leaq	-1552(%rbp), %rdi
 7055      F9FFFF
 7056 699a 4C89E2   		movq	%r12, %rdx
 7057              	.LEHB137:
 7058 699d E8000000 		call	_ZN22artificial_dissipationC1EiR16global_variables
 7058      00
 7059              	.LEHE137:
 7060 69a2 488DBDD0 		leaq	-2864(%rbp), %rdi
 7060      F4FFFF
 7061 69a9 4C89F6   		movq	%r14, %rsi
GAS LISTING /tmp/cce5yULP.s 			page 188


 7062              	.LEHB138:
 7063 69ac E8000000 		call	_ZN8Solution5cloneERS_
 7063      00
 7064 69b1 488DBD20 		leaq	-2784(%rbp), %rdi
 7064      F5FFFF
 7065 69b8 4C89F6   		movq	%r14, %rsi
 7066 69bb E8000000 		call	_ZN8Solution5cloneERS_
 7066      00
 7067 69c0 488DBD10 		leaq	-3056(%rbp), %rdi
 7067      F4FFFF
 7068 69c7 E8000000 		call	_ZN8flux_varC1Ev
 7068      00
 7069              	.LEHE138:
 7070 69cc 8B4538   		movl	56(%rbp), %eax
 7071 69cf F2410F10 		movsd	64(%r12), %xmm7
 7071      7C2440
 7072 69d6 F20F11BD 		movsd	%xmm7, -3848(%rbp)
 7072      F8F0FFFF 
 7073 69de 85C0     		testl	%eax, %eax
 7074 69e0 0F8EF332 		jle	.L1374
 7074      0000
 7075 69e6 F2410F10 		movsd	144(%r12), %xmm7
 7075      BC249000 
 7075      0000
 7076 69f0 F20F11BD 		movsd	%xmm7, -3872(%rbp)
 7076      E0F0FFFF 
 7077              	.L1375:
 7078 69f8 488D85C0 		leaq	-1088(%rbp), %rax
 7078      FBFFFF
 7079 69ff 488DB8F8 		leaq	248(%rax), %rdi
 7079      000000
 7080 6a06 E8000000 		call	_ZNSt8ios_baseC2Ev
 7080      00
 7081 6a0b 488B0500 		movq	_ZTTSt14basic_ofstreamIcSt11char_traitsIcEE+8(%rip), %rax
 7081      000000
 7082 6a12 C68598FD 		movb	$0, -616(%rbp)
 7082      FFFF00
 7083 6a19 488DBDC0 		leaq	-1088(%rbp), %rdi
 7083      FBFFFF
 7084 6a20 48C785B8 		movq	$_ZTVSt9basic_iosIcSt11char_traitsIcEE+16, -840(%rbp)
 7084      FCFFFF00 
 7084      000000
 7085 6a2b 48C78590 		movq	$0, -624(%rbp)
 7085      FDFFFF00 
 7085      000000
 7086 6a36 31F6     		xorl	%esi, %esi
 7087 6a38 C68599FD 		movb	$0, -615(%rbp)
 7087      FFFF00
 7088 6a3f 48C785A0 		movq	$0, -608(%rbp)
 7088      FDFFFF00 
 7088      000000
 7089 6a4a 480378E8 		addq	-24(%rax), %rdi
 7090 6a4e 488985C0 		movq	%rax, -1088(%rbp)
 7090      FBFFFF
 7091 6a55 488B0500 		movq	_ZTTSt14basic_ofstreamIcSt11char_traitsIcEE+16(%rip), %rax
 7091      000000
 7092 6a5c 48C785A8 		movq	$0, -600(%rbp)
GAS LISTING /tmp/cce5yULP.s 			page 189


 7092      FDFFFF00 
 7092      000000
 7093 6a67 48C785B0 		movq	$0, -592(%rbp)
 7093      FDFFFF00 
 7093      000000
 7094 6a72 48C785B8 		movq	$0, -584(%rbp)
 7094      FDFFFF00 
 7094      000000
 7095 6a7d 488907   		movq	%rax, (%rdi)
 7096              	.LEHB139:
 7097 6a80 E8000000 		call	_ZNSt9basic_iosIcSt11char_traitsIcEE4initEPSt15basic_streambufIcS1_E
 7097      00
 7098              	.LEHE139:
 7099 6a85 488D85C0 		leaq	-1088(%rbp), %rax
 7099      FBFFFF
 7100 6a8c 48C785C0 		movq	$_ZTVSt14basic_ofstreamIcSt11char_traitsIcEE+24, -1088(%rbp)
 7100      FBFFFF00 
 7100      000000
 7101 6a97 48C785B8 		movq	$_ZTVSt14basic_ofstreamIcSt11char_traitsIcEE+64, -840(%rbp)
 7101      FCFFFF00 
 7101      000000
 7102 6aa2 488D7808 		leaq	8(%rax), %rdi
 7103              	.LEHB140:
 7104 6aa6 E8000000 		call	_ZNSt13basic_filebufIcSt11char_traitsIcEEC1Ev
 7104      00
 7105              	.LEHE140:
 7106 6aab 488D85C0 		leaq	-1088(%rbp), %rax
 7106      FBFFFF
 7107 6ab2 488D7008 		leaq	8(%rax), %rsi
 7108 6ab6 488DB8F8 		leaq	248(%rax), %rdi
 7108      000000
 7109              	.LEHB141:
 7110 6abd E8000000 		call	_ZNSt9basic_iosIcSt11char_traitsIcEE4initEPSt15basic_streambufIcS1_E
 7110      00
 7111              	.LEHE141:
 7112 6ac2 488D8500 		leaq	-2560(%rbp), %rax
 7112      F6FFFF
 7113 6ac9 48C78508 		movq	$0, -2552(%rbp)
 7113      F6FFFF00 
 7113      000000
 7114 6ad4 C68510F6 		movb	$0, -2544(%rbp)
 7114      FFFF00
 7115 6adb 4883C010 		addq	$16, %rax
 7116 6adf 48898500 		movq	%rax, -2560(%rbp)
 7116      F6FFFF
 7117 6ae6 8B4528   		movl	40(%rbp), %eax
 7118 6ae9 85C0     		testl	%eax, %eax
 7119 6aeb 0F853202 		jne	.L1381
 7119      0000
 7120 6af1 8B4538   		movl	56(%rbp), %eax
 7121 6af4 85C0     		testl	%eax, %eax
 7122 6af6 0F88B430 		js	.L1927
 7122      0000
 7123 6afc 488D8540 		leaq	-2496(%rbp), %rax
 7123      F6FFFF
 7124 6b03 4D8BAC24 		movq	216(%r12), %r13
 7124      D8000000 
GAS LISTING /tmp/cce5yULP.s 			page 190


 7125 6b0b 4883C010 		addq	$16, %rax
 7126 6b0f 48898540 		movq	%rax, -2496(%rbp)
 7126      F6FFFF
 7127 6b16 498B8424 		movq	224(%r12), %rax
 7127      E0000000 
 7128 6b1e 48898598 		movq	%rax, -3688(%rbp)
 7128      F1FFFF
 7129 6b25 4C01E8   		addq	%r13, %rax
 7130 6b28 0F840601 		je	.L1400
 7130      0000
 7131 6b2e 4D85ED   		testq	%r13, %r13
 7132 6b31 0F85FD00 		jne	.L1400
 7132      0000
 7133 6b37 BF000000 		movl	$.LC39, %edi
 7133      00
 7134              	.LEHB142:
 7135 6b3c E8000000 		call	_ZSt19__throw_logic_errorPKc
 7135      00
 7136              	.LEHE142:
 7137              	.L1686:
 7138 6b41 4889C3   		movq	%rax, %rbx
 7139              	.L1653:
 7140 6b44 488DBDD0 		leaq	-2864(%rbp), %rdi
 7140      F4FFFF
 7141 6b4b E8000000 		call	_ZN8SolutionD1Ev
 7141      00
 7142 6b50 4889DF   		movq	%rbx, %rdi
 7143              	.LEHB143:
 7144 6b53 E8000000 		call	_Unwind_Resume
 7144      00
 7145              	.LEHE143:
 7146              	.L1689:
 7147              	.L1865:
 7148 6b58 4889C3   		movq	%rax, %rbx
 7149              	.L1388:
 7150 6b5b 488BBD00 		movq	-2560(%rbp), %rdi
 7150      F6FFFF
 7151 6b62 488D8500 		leaq	-2560(%rbp), %rax
 7151      F6FFFF
 7152 6b69 4883C010 		addq	$16, %rax
 7153 6b6d 4839C7   		cmpq	%rax, %rdi
 7154 6b70 7405     		je	.L1650
 7155 6b72 E8000000 		call	_ZdlPv
 7155      00
 7156              	.L1650:
 7157 6b77 488D85C0 		leaq	-1088(%rbp), %rax
 7157      FBFFFF
 7158 6b7e 48C785C0 		movq	$_ZTVSt14basic_ofstreamIcSt11char_traitsIcEE+24, -1088(%rbp)
 7158      FBFFFF00 
 7158      000000
 7159 6b89 48C785B8 		movq	$_ZTVSt14basic_ofstreamIcSt11char_traitsIcEE+64, -840(%rbp)
 7159      FCFFFF00 
 7159      000000
 7160 6b94 48C785C8 		movq	$_ZTVSt13basic_filebufIcSt11char_traitsIcEE+16, -1080(%rbp)
 7160      FBFFFF00 
 7160      000000
 7161 6b9f 488D7808 		leaq	8(%rax), %rdi
GAS LISTING /tmp/cce5yULP.s 			page 191


 7162 6ba3 E8000000 		call	_ZNSt13basic_filebufIcSt11char_traitsIcEE5closeEv
 7162      00
 7163 6ba8 488D85C0 		leaq	-1088(%rbp), %rax
 7163      FBFFFF
 7164 6baf 488D7870 		leaq	112(%rax), %rdi
 7165 6bb3 E8000000 		call	_ZNSt12__basic_fileIcED1Ev
 7165      00
 7166 6bb8 488D85C0 		leaq	-1088(%rbp), %rax
 7166      FBFFFF
 7167 6bbf 48C785C8 		movq	$_ZTVSt15basic_streambufIcSt11char_traitsIcEE+16, -1080(%rbp)
 7167      FBFFFF00 
 7167      000000
 7168 6bca 488D7840 		leaq	64(%rax), %rdi
 7169 6bce E8000000 		call	_ZNSt6localeD1Ev
 7169      00
 7170              	.L1872:
 7171 6bd3 488B0500 		movq	_ZTTSt14basic_ofstreamIcSt11char_traitsIcEE+8(%rip), %rax
 7171      000000
 7172 6bda 488B1500 		movq	_ZTTSt14basic_ofstreamIcSt11char_traitsIcEE+16(%rip), %rdx
 7172      000000
 7173 6be1 488B40E8 		movq	-24(%rax), %rax
 7174 6be5 48899405 		movq	%rdx, -1088(%rbp,%rax)
 7174      C0FBFFFF 
 7175              	.L1868:
 7176 6bed 488D85C0 		leaq	-1088(%rbp), %rax
 7176      FBFFFF
 7177 6bf4 48C785B8 		movq	$_ZTVSt9basic_iosIcSt11char_traitsIcEE+16, -840(%rbp)
 7177      FCFFFF00 
 7177      000000
 7178 6bff 488DB8F8 		leaq	248(%rax), %rdi
 7178      000000
 7179 6c06 E8000000 		call	_ZNSt8ios_baseD2Ev
 7179      00
 7180 6c0b 488DBD10 		leaq	-3056(%rbp), %rdi
 7180      F4FFFF
 7181 6c12 E8000000 		call	_ZN8flux_varD1Ev
 7181      00
 7182              	.L1651:
 7183 6c17 488DBDF0 		leaq	-1552(%rbp), %rdi
 7183      F9FFFF
 7184 6c1e E8000000 		call	_ZN22artificial_dissipationD1Ev
 7184      00
 7185              	.L1652:
 7186 6c23 488DBD20 		leaq	-2784(%rbp), %rdi
 7186      F5FFFF
 7187 6c2a E8000000 		call	_ZN8SolutionD1Ev
 7187      00
 7188 6c2f E910FFFF 		jmp	.L1653
 7188      FF
 7189              	.L1400:
 7190 6c34 488B8598 		movq	-3688(%rbp), %rax
 7190      F1FFFF
 7191 6c3b 4883F80F 		cmpq	$15, %rax
 7192 6c3f 488985C0 		movq	%rax, -3648(%rbp)
 7192      F1FFFF
 7193 6c46 0F87CC30 		ja	.L1928
 7193      0000
GAS LISTING /tmp/cce5yULP.s 			page 192


 7194 6c4c 4883BD98 		cmpq	$1, -3688(%rbp)
 7194      F1FFFF01 
 7195 6c54 0F84A330 		je	.L1929
 7195      0000
 7196 6c5a 488D8540 		leaq	-2496(%rbp), %rax
 7196      F6FFFF
 7197 6c61 4883C010 		addq	$16, %rax
 7198 6c65 4883BD98 		cmpq	$0, -3688(%rbp)
 7198      F1FFFF00 
 7199 6c6d 0F85CF30 		jne	.L1403
 7199      0000
 7200              	.L1405:
 7201 6c73 488B9598 		movq	-3688(%rbp), %rdx
 7201      F1FFFF
 7202 6c7a 48899548 		movq	%rdx, -2488(%rbp)
 7202      F6FFFF
 7203 6c81 C6041000 		movb	$0, (%rax,%rdx)
 7204 6c85 48B8FFFF 		movabsq	$9223372036854775807, %rax
 7204      FFFFFFFF 
 7204      FF7F
 7205 6c8f 482B8548 		subq	-2488(%rbp), %rax
 7205      F6FFFF
 7206 6c96 4883F809 		cmpq	$9, %rax
 7207 6c9a 0F862730 		jbe	.L1930
 7207      0000
 7208 6ca0 488DBD40 		leaq	-2496(%rbp), %rdi
 7208      F6FFFF
 7209 6ca7 BA0A0000 		movl	$10, %edx
 7209      00
 7210 6cac BE000000 		movl	$.LC34, %esi
 7210      00
 7211              	.LEHB144:
 7212 6cb1 E8000000 		call	_ZNSt7__cxx1112basic_stringIcSt11char_traitsIcESaIcEE9_M_appendEPKcm
 7212      00
 7213              	.LEHE144:
 7214 6cb6 488DBD00 		leaq	-2560(%rbp), %rdi
 7214      F6FFFF
 7215 6cbd 488DB540 		leaq	-2496(%rbp), %rsi
 7215      F6FFFF
 7216 6cc4 E8000000 		call	_ZNSt7__cxx1112basic_stringIcSt11char_traitsIcESaIcEE4swapERS4_
 7216      00
 7217 6cc9 488BBD40 		movq	-2496(%rbp), %rdi
 7217      F6FFFF
 7218 6cd0 488D8540 		leaq	-2496(%rbp), %rax
 7218      F6FFFF
 7219 6cd7 4883C010 		addq	$16, %rax
 7220 6cdb 4839C7   		cmpq	%rax, %rdi
 7221 6cde 7405     		je	.L1397
 7222              	.L1407:
 7223 6ce0 E8000000 		call	_ZdlPv
 7223      00
 7224              	.L1397:
 7225 6ce5 488D85C0 		leaq	-1088(%rbp), %rax
 7225      FBFFFF
 7226 6cec 488BB500 		movq	-2560(%rbp), %rsi
 7226      F6FFFF
 7227 6cf3 BA100000 		movl	$16, %edx
GAS LISTING /tmp/cce5yULP.s 			page 193


 7227      00
 7228 6cf8 488D7808 		leaq	8(%rax), %rdi
 7229              	.LEHB145:
 7230 6cfc E8000000 		call	_ZNSt13basic_filebufIcSt11char_traitsIcEE4openEPKcSt13_Ios_Openmode
 7230      00
 7231              	.LEHE145:
 7232 6d01 4885C0   		testq	%rax, %rax
 7233 6d04 0F844501 		je	.L1931
 7233      0000
 7234 6d0a 488B85C0 		movq	-1088(%rbp), %rax
 7234      FBFFFF
 7235 6d11 488DBDC0 		leaq	-1088(%rbp), %rdi
 7235      FBFFFF
 7236 6d18 31F6     		xorl	%esi, %esi
 7237 6d1a 480378E8 		addq	-24(%rax), %rdi
 7238              	.LEHB146:
 7239 6d1e E8000000 		call	_ZNSt9basic_iosIcSt11char_traitsIcEE5clearESt12_Ios_Iostate
 7239      00
 7240              	.LEHE146:
 7241              	.L1381:
 7242 6d23 488D85C0 		leaq	-576(%rbp), %rax
 7242      FDFFFF
 7243 6d2a 488DB8F8 		leaq	248(%rax), %rdi
 7243      000000
 7244 6d31 E8000000 		call	_ZNSt8ios_baseC2Ev
 7244      00
 7245 6d36 488B0500 		movq	_ZTTSt14basic_ofstreamIcSt11char_traitsIcEE+8(%rip), %rax
 7245      000000
 7246 6d3d C6459800 		movb	$0, -104(%rbp)
 7247 6d41 488DBDC0 		leaq	-576(%rbp), %rdi
 7247      FDFFFF
 7248 6d48 48C785B8 		movq	$_ZTVSt9basic_iosIcSt11char_traitsIcEE+16, -328(%rbp)
 7248      FEFFFF00 
 7248      000000
 7249 6d53 48C74590 		movq	$0, -112(%rbp)
 7249      00000000 
 7250 6d5b 31F6     		xorl	%esi, %esi
 7251 6d5d C6459900 		movb	$0, -103(%rbp)
 7252 6d61 48C745A0 		movq	$0, -96(%rbp)
 7252      00000000 
 7253 6d69 480378E8 		addq	-24(%rax), %rdi
 7254 6d6d 488985C0 		movq	%rax, -576(%rbp)
 7254      FDFFFF
 7255 6d74 488B0500 		movq	_ZTTSt14basic_ofstreamIcSt11char_traitsIcEE+16(%rip), %rax
 7255      000000
 7256 6d7b 48C745A8 		movq	$0, -88(%rbp)
 7256      00000000 
 7257 6d83 48C745B0 		movq	$0, -80(%rbp)
 7257      00000000 
 7258 6d8b 48C745B8 		movq	$0, -72(%rbp)
 7258      00000000 
 7259 6d93 488907   		movq	%rax, (%rdi)
 7260              	.LEHB147:
 7261 6d96 E8000000 		call	_ZNSt9basic_iosIcSt11char_traitsIcEE4initEPSt15basic_streambufIcS1_E
 7261      00
 7262              	.LEHE147:
 7263 6d9b 488D85C0 		leaq	-576(%rbp), %rax
GAS LISTING /tmp/cce5yULP.s 			page 194


 7263      FDFFFF
 7264 6da2 48C785C0 		movq	$_ZTVSt14basic_ofstreamIcSt11char_traitsIcEE+24, -576(%rbp)
 7264      FDFFFF00 
 7264      000000
 7265 6dad 48C785B8 		movq	$_ZTVSt14basic_ofstreamIcSt11char_traitsIcEE+64, -328(%rbp)
 7265      FEFFFF00 
 7265      000000
 7266 6db8 488D7808 		leaq	8(%rax), %rdi
 7267              	.LEHB148:
 7268 6dbc E8000000 		call	_ZNSt13basic_filebufIcSt11char_traitsIcEEC1Ev
 7268      00
 7269              	.LEHE148:
 7270 6dc1 488D85C0 		leaq	-576(%rbp), %rax
 7270      FDFFFF
 7271 6dc8 488D7008 		leaq	8(%rax), %rsi
 7272 6dcc 488DB8F8 		leaq	248(%rax), %rdi
 7272      000000
 7273              	.LEHB149:
 7274 6dd3 E8000000 		call	_ZNSt9basic_iosIcSt11char_traitsIcEE4initEPSt15basic_streambufIcS1_E
 7274      00
 7275              	.LEHE149:
 7276 6dd8 488D8560 		leaq	-2464(%rbp), %rax
 7276      F6FFFF
 7277 6ddf 4D8BAC24 		movq	216(%r12), %r13
 7277      D8000000 
 7278 6de7 4883C010 		addq	$16, %rax
 7279 6deb 48898560 		movq	%rax, -2464(%rbp)
 7279      F6FFFF
 7280 6df2 498B8424 		movq	224(%r12), %rax
 7280      E0000000 
 7281 6dfa 48898598 		movq	%rax, -3688(%rbp)
 7281      F1FFFF
 7282 6e01 4C01E8   		addq	%r13, %rax
 7283 6e04 0F840801 		je	.L1424
 7283      0000
 7284 6e0a 4D85ED   		testq	%r13, %r13
 7285 6e0d 0F85FF00 		jne	.L1424
 7285      0000
 7286 6e13 BF000000 		movl	$.LC39, %edi
 7286      00
 7287              	.LEHB150:
 7288 6e18 E8000000 		call	_ZSt19__throw_logic_errorPKc
 7288      00
 7289              	.LEHE150:
 7290              	.L1713:
 7291 6e1d E936FDFF 		jmp	.L1865
 7291      FF
 7292              	.L1711:
 7293 6e22 E931FDFF 		jmp	.L1865
 7293      FF
 7294              	.L1703:
 7295 6e27 4889C3   		movq	%rax, %rbx
 7296 6e2a 488BBD40 		movq	-2496(%rbp), %rdi
 7296      F6FFFF
 7297 6e31 488D8540 		leaq	-2496(%rbp), %rax
 7297      F6FFFF
 7298 6e38 4883C010 		addq	$16, %rax
GAS LISTING /tmp/cce5yULP.s 			page 195


 7299 6e3c 4839C7   		cmpq	%rax, %rdi
 7300 6e3f 0F8416FD 		je	.L1388
 7300      FFFF
 7301              	.L1866:
 7302 6e45 E8000000 		call	_ZdlPv
 7302      00
 7303 6e4a E90CFDFF 		jmp	.L1388
 7303      FF
 7304              	.L1931:
 7305 6e4f 488B85C0 		movq	-1088(%rbp), %rax
 7305      FBFFFF
 7306 6e56 488DBDC0 		leaq	-1088(%rbp), %rdi
 7306      FBFFFF
 7307 6e5d 480378E8 		addq	-24(%rax), %rdi
 7308 6e61 8B7720   		movl	32(%rdi), %esi
 7309 6e64 83CE04   		orl	$4, %esi
 7310              	.LEHB151:
 7311 6e67 E8000000 		call	_ZNSt9basic_iosIcSt11char_traitsIcEE5clearESt12_Ios_Iostate
 7311      00
 7312              	.LEHE151:
 7313 6e6c E9B2FEFF 		jmp	.L1381
 7313      FF
 7314              	.L1690:
 7315              	.L1864:
 7316 6e71 4889C3   		movq	%rax, %rbx
 7317              	.L1433:
 7318 6e74 488D85C0 		leaq	-576(%rbp), %rax
 7318      FDFFFF
 7319 6e7b 48C785C0 		movq	$_ZTVSt14basic_ofstreamIcSt11char_traitsIcEE+24, -576(%rbp)
 7319      FDFFFF00 
 7319      000000
 7320 6e86 48C785B8 		movq	$_ZTVSt14basic_ofstreamIcSt11char_traitsIcEE+64, -328(%rbp)
 7320      FEFFFF00 
 7320      000000
 7321 6e91 48C785C8 		movq	$_ZTVSt13basic_filebufIcSt11char_traitsIcEE+16, -568(%rbp)
 7321      FDFFFF00 
 7321      000000
 7322 6e9c 488D7808 		leaq	8(%rax), %rdi
 7323 6ea0 E8000000 		call	_ZNSt13basic_filebufIcSt11char_traitsIcEE5closeEv
 7323      00
 7324 6ea5 488D85C0 		leaq	-576(%rbp), %rax
 7324      FDFFFF
 7325 6eac 488D7870 		leaq	112(%rax), %rdi
 7326 6eb0 E8000000 		call	_ZNSt12__basic_fileIcED1Ev
 7326      00
 7327 6eb5 488D85C0 		leaq	-576(%rbp), %rax
 7327      FDFFFF
 7328 6ebc 48C785C8 		movq	$_ZTVSt15basic_streambufIcSt11char_traitsIcEE+16, -568(%rbp)
 7328      FDFFFF00 
 7328      000000
 7329 6ec7 488D7840 		leaq	64(%rax), %rdi
 7330 6ecb E8000000 		call	_ZNSt6localeD1Ev
 7330      00
 7331 6ed0 488B0500 		movq	_ZTTSt14basic_ofstreamIcSt11char_traitsIcEE+8(%rip), %rax
 7331      000000
 7332 6ed7 488B1500 		movq	_ZTTSt14basic_ofstreamIcSt11char_traitsIcEE+16(%rip), %rdx
 7332      000000
GAS LISTING /tmp/cce5yULP.s 			page 196


 7333 6ede 488B40E8 		movq	-24(%rax), %rax
 7334 6ee2 48899405 		movq	%rdx, -576(%rbp,%rax)
 7334      C0FDFFFF 
 7335              	.L1867:
 7336 6eea 488D85C0 		leaq	-576(%rbp), %rax
 7336      FDFFFF
 7337 6ef1 48C785B8 		movq	$_ZTVSt9basic_iosIcSt11char_traitsIcEE+16, -328(%rbp)
 7337      FEFFFF00 
 7337      000000
 7338 6efc 488DB8F8 		leaq	248(%rax), %rdi
 7338      000000
 7339 6f03 E8000000 		call	_ZNSt8ios_baseD2Ev
 7339      00
 7340 6f08 E94EFCFF 		jmp	.L1388
 7340      FF
 7341              	.L1712:
 7342 6f0d E946FCFF 		jmp	.L1865
 7342      FF
 7343              	.L1424:
 7344 6f12 488B8598 		movq	-3688(%rbp), %rax
 7344      F1FFFF
 7345 6f19 4883F80F 		cmpq	$15, %rax
 7346 6f1d 488985C8 		movq	%rax, -3640(%rbp)
 7346      F1FFFF
 7347 6f24 0F87D32B 		ja	.L1932
 7347      0000
 7348 6f2a 4883BD98 		cmpq	$1, -3688(%rbp)
 7348      F1FFFF01 
 7349 6f32 0F841B2C 		je	.L1933
 7349      0000
 7350 6f38 488D8560 		leaq	-2464(%rbp), %rax
 7350      F6FFFF
 7351 6f3f 4883C010 		addq	$16, %rax
 7352 6f43 4883BD98 		cmpq	$0, -3688(%rbp)
 7352      F1FFFF00 
 7353 6f4b 0F85D62B 		jne	.L1425
 7353      0000
 7354              	.L1427:
 7355 6f51 488B9598 		movq	-3688(%rbp), %rdx
 7355      F1FFFF
 7356 6f58 48899568 		movq	%rdx, -2456(%rbp)
 7356      F6FFFF
 7357 6f5f C6041000 		movb	$0, (%rax,%rdx)
 7358 6f63 48B8FFFF 		movabsq	$9223372036854775807, %rax
 7358      FFFFFFFF 
 7358      FF7F
 7359 6f6d 482B8568 		subq	-2456(%rbp), %rax
 7359      F6FFFF
 7360 6f74 4883F808 		cmpq	$8, %rax
 7361 6f78 0F86752B 		jbe	.L1934
 7361      0000
 7362 6f7e 488DBD60 		leaq	-2464(%rbp), %rdi
 7362      F6FFFF
 7363 6f85 BA090000 		movl	$9, %edx
 7363      00
 7364 6f8a BE000000 		movl	$.LC49, %esi
 7364      00
GAS LISTING /tmp/cce5yULP.s 			page 197


 7365              	.LEHB152:
 7366 6f8f E8000000 		call	_ZNSt7__cxx1112basic_stringIcSt11char_traitsIcESaIcEE9_M_appendEPKcm
 7366      00
 7367              	.LEHE152:
 7368 6f94 488DBD00 		leaq	-2560(%rbp), %rdi
 7368      F6FFFF
 7369 6f9b 488DB560 		leaq	-2464(%rbp), %rsi
 7369      F6FFFF
 7370 6fa2 E8000000 		call	_ZNSt7__cxx1112basic_stringIcSt11char_traitsIcESaIcEE4swapERS4_
 7370      00
 7371 6fa7 488BBD60 		movq	-2464(%rbp), %rdi
 7371      F6FFFF
 7372 6fae 488D8560 		leaq	-2464(%rbp), %rax
 7372      F6FFFF
 7373 6fb5 4883C010 		addq	$16, %rax
 7374 6fb9 4839C7   		cmpq	%rax, %rdi
 7375 6fbc 7405     		je	.L1430
 7376 6fbe E8000000 		call	_ZdlPv
 7376      00
 7377              	.L1430:
 7378 6fc3 488D85C0 		leaq	-576(%rbp), %rax
 7378      FDFFFF
 7379 6fca 488BB500 		movq	-2560(%rbp), %rsi
 7379      F6FFFF
 7380 6fd1 BA100000 		movl	$16, %edx
 7380      00
 7381 6fd6 488D7808 		leaq	8(%rax), %rdi
 7382              	.LEHB153:
 7383 6fda E8000000 		call	_ZNSt13basic_filebufIcSt11char_traitsIcEE4openEPKcSt13_Ios_Openmode
 7383      00
 7384              	.LEHE153:
 7385 6fdf 4885C0   		testq	%rax, %rax
 7386 6fe2 0F84AD2A 		je	.L1935
 7386      0000
 7387 6fe8 488B85C0 		movq	-576(%rbp), %rax
 7387      FDFFFF
 7388 6fef 488DBDC0 		leaq	-576(%rbp), %rdi
 7388      FDFFFF
 7389 6ff6 31F6     		xorl	%esi, %esi
 7390 6ff8 480378E8 		addq	-24(%rax), %rdi
 7391              	.LEHB154:
 7392 6ffc E8000000 		call	_ZNSt9basic_iosIcSt11char_traitsIcEE5clearESt12_Ios_Iostate
 7392      00
 7393              	.LEHE154:
 7394              	.L1437:
 7395 7001 418B4710 		movl	16(%r15), %eax
 7396 7005 85C0     		testl	%eax, %eax
 7397 7007 0F8EB301 		jle	.L1469
 7397      0000
 7398 700d 4531ED   		xorl	%r13d, %r13d
 7399 7010 C78598F1 		movl	$0, -3688(%rbp)
 7399      FFFF0000 
 7399      0000
 7400 701a EB37     		jmp	.L1468
 7401 701c 0F1F4000 		.p2align 4,,10
 7402              		.p2align 3
 7403              	.L1937:
GAS LISTING /tmp/cce5yULP.s 			page 198


 7404 7020 0FBE7043 		movsbl	67(%rax), %esi
 7405              	.L1459:
 7406 7024 488BBD88 		movq	-3704(%rbp), %rdi
 7406      F1FFFF
 7407              	.LEHB155:
 7408 702b E8000000 		call	_ZNSo3putEc
 7408      00
 7409              	.LEHE155:
 7410 7030 4889C7   		movq	%rax, %rdi
 7411              	.LEHB156:
 7412 7033 E8000000 		call	_ZNSo5flushEv
 7412      00
 7413              	.LEHE156:
 7414 7038 838598F1 		addl	$1, -3688(%rbp)
 7414      FFFF01
 7415 703f 4983C508 		addq	$8, %r13
 7416 7043 8B8598F1 		movl	-3688(%rbp), %eax
 7416      FFFF
 7417 7049 413B4710 		cmpl	16(%r15), %eax
 7418 704d 0F8D6D01 		jge	.L1469
 7418      0000
 7419              	.L1468:
 7420 7053 498B4750 		movq	80(%r15), %rax
 7421 7057 8BB598F1 		movl	-3688(%rbp), %esi
 7421      FFFF
 7422 705d 488DBDC0 		leaq	-576(%rbp), %rdi
 7422      FDFFFF
 7423 7064 F2420F10 		movsd	(%rax,%r13), %xmm7
 7423      3C28
 7424 706a 498B4748 		movq	72(%r15), %rax
 7425 706e F20F11BD 		movsd	%xmm7, -3704(%rbp)
 7425      88F1FFFF 
 7426 7076 F2420F10 		movsd	(%rax,%r13), %xmm7
 7426      3C28
 7427 707c 498B4740 		movq	64(%r15), %rax
 7428 7080 F20F11BD 		movsd	%xmm7, -3712(%rbp)
 7428      80F1FFFF 
 7429 7088 F2420F10 		movsd	(%rax,%r13), %xmm7
 7429      3C28
 7430 708e F20F11BD 		movsd	%xmm7, -3720(%rbp)
 7430      78F1FFFF 
 7431              	.LEHB157:
 7432 7096 E8000000 		call	_ZNSolsEi
 7432      00
 7433              	.LEHE157:
 7434 709b BA010000 		movl	$1, %edx
 7434      00
 7435 70a0 BE000000 		movl	$.LC50, %esi
 7435      00
 7436 70a5 4889C7   		movq	%rax, %rdi
 7437 70a8 48898590 		movq	%rax, -3696(%rbp)
 7437      F1FFFF
 7438              	.LEHB158:
 7439 70af E8000000 		call	_ZSt16__ostream_insertIcSt11char_traitsIcEERSt13basic_ostreamIT_T0_ES6_PKS3_l
 7439      00
 7440              	.LEHE158:
 7441 70b4 488BBD90 		movq	-3696(%rbp), %rdi
GAS LISTING /tmp/cce5yULP.s 			page 199


 7441      F1FFFF
 7442 70bb F20F1085 		movsd	-3720(%rbp), %xmm0
 7442      78F1FFFF 
 7443              	.LEHB159:
 7444 70c3 E8000000 		call	_ZNSo9_M_insertIdEERSoT_
 7444      00
 7445              	.LEHE159:
 7446 70c8 BA010000 		movl	$1, %edx
 7446      00
 7447 70cd BE000000 		movl	$.LC50, %esi
 7447      00
 7448 70d2 4889C7   		movq	%rax, %rdi
 7449 70d5 48898590 		movq	%rax, -3696(%rbp)
 7449      F1FFFF
 7450              	.LEHB160:
 7451 70dc E8000000 		call	_ZSt16__ostream_insertIcSt11char_traitsIcEERSt13basic_ostreamIT_T0_ES6_PKS3_l
 7451      00
 7452              	.LEHE160:
 7453 70e1 488BBD90 		movq	-3696(%rbp), %rdi
 7453      F1FFFF
 7454 70e8 F20F1085 		movsd	-3712(%rbp), %xmm0
 7454      80F1FFFF 
 7455              	.LEHB161:
 7456 70f0 E8000000 		call	_ZNSo9_M_insertIdEERSoT_
 7456      00
 7457              	.LEHE161:
 7458 70f5 BA010000 		movl	$1, %edx
 7458      00
 7459 70fa BE000000 		movl	$.LC50, %esi
 7459      00
 7460 70ff 4889C7   		movq	%rax, %rdi
 7461 7102 48898590 		movq	%rax, -3696(%rbp)
 7461      F1FFFF
 7462              	.LEHB162:
 7463 7109 E8000000 		call	_ZSt16__ostream_insertIcSt11char_traitsIcEERSt13basic_ostreamIT_T0_ES6_PKS3_l
 7463      00
 7464              	.LEHE162:
 7465 710e 488BBD90 		movq	-3696(%rbp), %rdi
 7465      F1FFFF
 7466 7115 F20F1085 		movsd	-3704(%rbp), %xmm0
 7466      88F1FFFF 
 7467              	.LEHB163:
 7468 711d E8000000 		call	_ZNSo9_M_insertIdEERSoT_
 7468      00
 7469              	.LEHE163:
 7470 7122 4889C2   		movq	%rax, %rdx
 7471 7125 48898588 		movq	%rax, -3704(%rbp)
 7471      F1FFFF
 7472 712c 488B00   		movq	(%rax), %rax
 7473 712f 488B40E8 		movq	-24(%rax), %rax
 7474 7133 488B8402 		movq	240(%rdx,%rax), %rax
 7474      F0000000 
 7475 713b 4885C0   		testq	%rax, %rax
 7476 713e 48898590 		movq	%rax, -3696(%rbp)
 7476      F1FFFF
 7477 7145 744C     		je	.L1936
 7478 7147 80783800 		cmpb	$0, 56(%rax)
GAS LISTING /tmp/cce5yULP.s 			page 200


 7479 714b 0F85CFFE 		jne	.L1937
 7479      FFFF
 7480 7151 4889C7   		movq	%rax, %rdi
 7481              	.LEHB164:
 7482 7154 E8000000 		call	_ZNKSt5ctypeIcE13_M_widen_initEv
 7482      00
 7483              	.LEHE164:
 7484 7159 488B8590 		movq	-3696(%rbp), %rax
 7484      F1FFFF
 7485 7160 BE0A0000 		movl	$10, %esi
 7485      00
 7486 7165 488B00   		movq	(%rax), %rax
 7487 7168 488B4030 		movq	48(%rax), %rax
 7488 716c 483D0000 		cmpq	$_ZNKSt5ctypeIcE8do_widenEc, %rax
 7488      0000
 7489 7172 0F84ACFE 		je	.L1459
 7489      FFFF
 7490 7178 488BBD90 		movq	-3696(%rbp), %rdi
 7490      F1FFFF
 7491              	.LEHB165:
 7492 717f FFD0     		call	*%rax
 7493              	.LEHE165:
 7494 7181 0FBEF0   		movsbl	%al, %esi
 7495 7184 E99BFEFF 		jmp	.L1459
 7495      FF
 7496              	.L1725:
 7497 7189 E9E3FCFF 		jmp	.L1864
 7497      FF
 7498              	.L1726:
 7499 718e E9DEFCFF 		jmp	.L1864
 7499      FF
 7500              	.L1936:
 7501              	.LEHB166:
 7502 7193 E8000000 		call	_ZSt16__throw_bad_castv
 7502      00
 7503              	.LEHE166:
 7504              	.L1723:
 7505 7198 E9D4FCFF 		jmp	.L1864
 7505      FF
 7506              	.L1724:
 7507 719d E9CFFCFF 		jmp	.L1864
 7507      FF
 7508              	.L1722:
 7509 71a2 E9CAFCFF 		jmp	.L1864
 7509      FF
 7510              	.L1721:
 7511 71a7 E9C5FCFF 		jmp	.L1864
 7511      FF
 7512              	.L1720:
 7513 71ac E9C0FCFF 		jmp	.L1864
 7513      FF
 7514              	.L1719:
 7515 71b1 E9BBFCFF 		jmp	.L1864
 7515      FF
 7516              	.L1718:
 7517 71b6 E9B6FCFF 		jmp	.L1864
 7517      FF
GAS LISTING /tmp/cce5yULP.s 			page 201


 7518              	.L1717:
 7519 71bb E9B1FCFF 		jmp	.L1864
 7519      FF
 7520              	.L1469:
 7521 71c0 488D85C0 		leaq	-576(%rbp), %rax
 7521      FDFFFF
 7522 71c7 488D7808 		leaq	8(%rax), %rdi
 7523              	.LEHB167:
 7524 71cb E8000000 		call	_ZNSt13basic_filebufIcSt11char_traitsIcEE5closeEv
 7524      00
 7525              	.LEHE167:
 7526 71d0 4885C0   		testq	%rax, %rax
 7527 71d3 0F848B28 		je	.L1938
 7527      0000
 7528              	.L1473:
 7529 71d9 488DBDF0 		leaq	-3600(%rbp), %rdi
 7529      F1FFFF
 7530              	.LEHB168:
 7531 71e0 E8000000 		call	_ZN10vector_varC1Ev
 7531      00
 7532              	.LEHE168:
 7533 71e5 488DBD10 		leaq	-3568(%rbp), %rdi
 7533      F2FFFF
 7534              	.LEHB169:
 7535 71ec E8000000 		call	_ZN10vector_varC1Ev
 7535      00
 7536 71f1 488DBD30 		leaq	-3536(%rbp), %rdi
 7536      F2FFFF
 7537 71f8 E8000000 		call	_ZN10vector_varC1Ev
 7537      00
 7538 71fd 488DBD50 		leaq	-3504(%rbp), %rdi
 7538      F2FFFF
 7539 7204 E8000000 		call	_ZN10vector_varC1Ev
 7539      00
 7540 7209 488DBD70 		leaq	-3472(%rbp), %rdi
 7540      F2FFFF
 7541 7210 E8000000 		call	_ZN10vector_varC1Ev
 7541      00
 7542 7215 488DBD90 		leaq	-3440(%rbp), %rdi
 7542      F2FFFF
 7543 721c E8000000 		call	_ZN10vector_varC1Ev
 7543      00
 7544 7221 488DBDB0 		leaq	-3408(%rbp), %rdi
 7544      F2FFFF
 7545 7228 E8000000 		call	_ZN10vector_varC1Ev
 7545      00
 7546 722d 488DBDD0 		leaq	-3376(%rbp), %rdi
 7546      F2FFFF
 7547 7234 E8000000 		call	_ZN10vector_varC1Ev
 7547      00
 7548 7239 488DBDF0 		leaq	-3344(%rbp), %rdi
 7548      F2FFFF
 7549 7240 E8000000 		call	_ZN10vector_varC1Ev
 7549      00
 7550 7245 488DBD10 		leaq	-3312(%rbp), %rdi
 7550      F3FFFF
 7551 724c E8000000 		call	_ZN10vector_varC1Ev
GAS LISTING /tmp/cce5yULP.s 			page 202


 7551      00
 7552 7251 488DBD30 		leaq	-3280(%rbp), %rdi
 7552      F3FFFF
 7553 7258 E8000000 		call	_ZN10vector_varC1Ev
 7553      00
 7554 725d 488DBD50 		leaq	-3248(%rbp), %rdi
 7554      F3FFFF
 7555 7264 E8000000 		call	_ZN10vector_varC1Ev
 7555      00
 7556 7269 488DBD70 		leaq	-3216(%rbp), %rdi
 7556      F3FFFF
 7557 7270 E8000000 		call	_ZN10vector_varC1Ev
 7557      00
 7558 7275 488DBD90 		leaq	-3184(%rbp), %rdi
 7558      F3FFFF
 7559 727c E8000000 		call	_ZN10vector_varC1Ev
 7559      00
 7560 7281 488DBDB0 		leaq	-3152(%rbp), %rdi
 7560      F3FFFF
 7561 7288 E8000000 		call	_ZN10vector_varC1Ev
 7561      00
 7562 728d 488DBD70 		leaq	-2704(%rbp), %rdi
 7562      F5FFFF
 7563 7294 E8000000 		call	_ZN9residualsC1Ev
 7563      00
 7564              	.LEHE169:
 7565 7299 488DBD40 		leaq	-3008(%rbp), %rdi
 7565      F4FFFF
 7566              	.LEHB170:
 7567 72a0 E8000000 		call	_ZN8flux_varC1Ev
 7567      00
 7568              	.LEHE170:
 7569 72a5 488DBD70 		leaq	-2960(%rbp), %rdi
 7569      F4FFFF
 7570              	.LEHB171:
 7571 72ac E8000000 		call	_ZN8flux_varC1Ev
 7571      00
 7572              	.LEHE171:
 7573 72b1 488DBDA0 		leaq	-2912(%rbp), %rdi
 7573      F4FFFF
 7574              	.LEHB172:
 7575 72b8 E8000000 		call	_ZN8flux_varC1Ev
 7575      00
 7576              	.LEHE172:
 7577 72bd 418B4710 		movl	16(%r15), %eax
 7578 72c1 48C7C7FF 		movq	$-1, %rdi
 7578      FFFFFF
 7579 72c8 83C001   		addl	$1, %eax
 7580 72cb 4898     		cltq
 7581 72cd 4889C2   		movq	%rax, %rdx
 7582 72d0 48898598 		movq	%rax, -3688(%rbp)
 7582      F1FFFF
 7583 72d7 48B80000 		movabsq	$229683580995895296, %rax
 7583      00000000 
 7583      3003
 7584 72e1 4839C2   		cmpq	%rax, %rdx
 7585 72e4 770C     		ja	.L1476
GAS LISTING /tmp/cce5yULP.s 			page 203


 7586 72e6 488D0492 		leaq	(%rdx,%rdx,4), %rax
 7587 72ea 488D3CC5 		leaq	8(,%rax,8), %rdi
 7587      08000000 
 7588              	.L1476:
 7589              	.LEHB173:
 7590 72f2 E8000000 		call	_Znam
 7590      00
 7591              	.LEHE173:
 7592 72f7 488B9598 		movq	-3688(%rbp), %rdx
 7592      F1FFFF
 7593 72fe 488985E8 		movq	%rax, -3864(%rbp)
 7593      F0FFFF
 7594 7305 4883C008 		addq	$8, %rax
 7595 7309 4C8D6AFF 		leaq	-1(%rdx), %r13
 7596 730d 488950F8 		movq	%rdx, -8(%rax)
 7597 7311 488985F0 		movq	%rax, -3856(%rbp)
 7597      F0FFFF
 7598 7318 48898590 		movq	%rax, -3696(%rbp)
 7598      F1FFFF
 7599 731f 4983FDFF 		cmpq	$-1, %r13
 7600 7323 741E     		je	.L1480
 7601              	.L1782:
 7602 7325 488BBD90 		movq	-3696(%rbp), %rdi
 7602      F1FFFF
 7603              	.LEHB174:
 7604 732c E8000000 		call	_ZN8flux_varC1Ev
 7604      00
 7605              	.LEHE174:
 7606 7331 4983ED01 		subq	$1, %r13
 7607 7335 48838590 		addq	$40, -3696(%rbp)
 7607      F1FFFF28 
 7608 733d 4983FDFF 		cmpq	$-1, %r13
 7609 7341 75E2     		jne	.L1782
 7610              	.L1480:
 7611 7343 4883BDF0 		cmpq	$0, -3856(%rbp)
 7611      F0FFFF00 
 7612 734b 0F84FC26 		je	.L1939
 7612      0000
 7613 7351 488DBDD0 		leaq	-2352(%rbp), %rdi
 7613      F6FFFF
 7614              	.LEHB175:
 7615 7358 E8000000 		call	_ZN8flux_varC1Ev
 7615      00
 7616              	.LEHE175:
 7617 735d 488D85D0 		leaq	-2352(%rbp), %rax
 7617      F6FFFF
 7618 7364 488D7828 		leaq	40(%rax), %rdi
 7619              	.LEHB176:
 7620 7368 E8000000 		call	_ZN8flux_varC1Ev
 7620      00
 7621              	.LEHE176:
 7622 736d 488D85D0 		leaq	-2352(%rbp), %rax
 7622      F6FFFF
 7623 7374 488D7850 		leaq	80(%rax), %rdi
 7624              	.LEHB177:
 7625 7378 E8000000 		call	_ZN8flux_varC1Ev
 7625      00
GAS LISTING /tmp/cce5yULP.s 			page 204


 7626              	.LEHE177:
 7627 737d 488D85D0 		leaq	-2352(%rbp), %rax
 7627      F6FFFF
 7628 7384 488D7878 		leaq	120(%rax), %rdi
 7629              	.LEHB178:
 7630 7388 E8000000 		call	_ZN8flux_varC1Ev
 7630      00
 7631              	.LEHE178:
 7632 738d 488DBD70 		leaq	-2192(%rbp), %rdi
 7632      F7FFFF
 7633              	.LEHB179:
 7634 7394 E8000000 		call	_ZN8flux_varC1Ev
 7634      00
 7635              	.LEHE179:
 7636 7399 488D8570 		leaq	-2192(%rbp), %rax
 7636      F7FFFF
 7637 73a0 488D7828 		leaq	40(%rax), %rdi
 7638              	.LEHB180:
 7639 73a4 E8000000 		call	_ZN8flux_varC1Ev
 7639      00
 7640              	.LEHE180:
 7641 73a9 488D8570 		leaq	-2192(%rbp), %rax
 7641      F7FFFF
 7642 73b0 488D7850 		leaq	80(%rax), %rdi
 7643              	.LEHB181:
 7644 73b4 E8000000 		call	_ZN8flux_varC1Ev
 7644      00
 7645              	.LEHE181:
 7646 73b9 488D8570 		leaq	-2192(%rbp), %rax
 7646      F7FFFF
 7647 73c0 488D7878 		leaq	120(%rax), %rdi
 7648              	.LEHB182:
 7649 73c4 E8000000 		call	_ZN8flux_varC1Ev
 7649      00
 7650              	.LEHE182:
 7651 73c9 488DBD10 		leaq	-2032(%rbp), %rdi
 7651      F8FFFF
 7652              	.LEHB183:
 7653 73d0 E8000000 		call	_ZN8flux_varC1Ev
 7653      00
 7654              	.LEHE183:
 7655 73d5 488D8510 		leaq	-2032(%rbp), %rax
 7655      F8FFFF
 7656 73dc 488D7828 		leaq	40(%rax), %rdi
 7657              	.LEHB184:
 7658 73e0 E8000000 		call	_ZN8flux_varC1Ev
 7658      00
 7659              	.LEHE184:
 7660 73e5 488D8510 		leaq	-2032(%rbp), %rax
 7660      F8FFFF
 7661 73ec 488D7850 		leaq	80(%rax), %rdi
 7662              	.LEHB185:
 7663 73f0 E8000000 		call	_ZN8flux_varC1Ev
 7663      00
 7664              	.LEHE185:
 7665 73f5 488D8510 		leaq	-2032(%rbp), %rax
 7665      F8FFFF
GAS LISTING /tmp/cce5yULP.s 			page 205


 7666 73fc 488D7878 		leaq	120(%rax), %rdi
 7667              	.LEHB186:
 7668 7400 E8000000 		call	_ZN8flux_varC1Ev
 7668      00
 7669              	.LEHE186:
 7670 7405 488DBDB0 		leaq	-1872(%rbp), %rdi
 7670      F8FFFF
 7671              	.LEHB187:
 7672 740c E8000000 		call	_ZN8flux_varC1Ev
 7672      00
 7673              	.LEHE187:
 7674 7411 488D85B0 		leaq	-1872(%rbp), %rax
 7674      F8FFFF
 7675 7418 488D7828 		leaq	40(%rax), %rdi
 7676              	.LEHB188:
 7677 741c E8000000 		call	_ZN8flux_varC1Ev
 7677      00
 7678              	.LEHE188:
 7679 7421 488D85B0 		leaq	-1872(%rbp), %rax
 7679      F8FFFF
 7680 7428 488D7850 		leaq	80(%rax), %rdi
 7681              	.LEHB189:
 7682 742c E8000000 		call	_ZN8flux_varC1Ev
 7682      00
 7683              	.LEHE189:
 7684 7431 488D85B0 		leaq	-1872(%rbp), %rax
 7684      F8FFFF
 7685 7438 488D7878 		leaq	120(%rax), %rdi
 7686              	.LEHB190:
 7687 743c E8000000 		call	_ZN8flux_varC1Ev
 7687      00
 7688              	.LEHE190:
 7689 7441 488DBD50 		leaq	-1712(%rbp), %rdi
 7689      F9FFFF
 7690              	.LEHB191:
 7691 7448 E8000000 		call	_ZN8flux_varC1Ev
 7691      00
 7692              	.LEHE191:
 7693 744d 488D8550 		leaq	-1712(%rbp), %rax
 7693      F9FFFF
 7694 7454 488D7828 		leaq	40(%rax), %rdi
 7695              	.LEHB192:
 7696 7458 E8000000 		call	_ZN8flux_varC1Ev
 7696      00
 7697              	.LEHE192:
 7698 745d 488D8550 		leaq	-1712(%rbp), %rax
 7698      F9FFFF
 7699 7464 488D7850 		leaq	80(%rax), %rdi
 7700              	.LEHB193:
 7701 7468 E8000000 		call	_ZN8flux_varC1Ev
 7701      00
 7702              	.LEHE193:
 7703 746d 488D8550 		leaq	-1712(%rbp), %rax
 7703      F9FFFF
 7704 7474 488D7878 		leaq	120(%rax), %rdi
 7705              	.LEHB194:
 7706 7478 E8000000 		call	_ZN8flux_varC1Ev
GAS LISTING /tmp/cce5yULP.s 			page 206


 7706      00
 7707              	.LEHE194:
 7708 747d 448B6D28 		movl	40(%rbp), %r13d
 7709 7481 4585ED   		testl	%r13d, %r13d
 7710 7484 0F856123 		jne	.L1679
 7710      0000
 7711 748a F2410F10 		movsd	56(%r12), %xmm0
 7711      442438
 7712 7491 F20F5E85 		divsd	-3848(%rbp), %xmm0
 7712      F8F0FFFF 
 7713 7499 E8000000 		call	ceil
 7713      00
 7714 749e F20F2CC0 		cvttsd2si	%xmm0, %eax
 7715 74a2 85C0     		testl	%eax, %eax
 7716 74a4 8985DCF0 		movl	%eax, -3876(%rbp)
 7716      FFFF
 7717 74aa 0F8EF612 		jle	.L1596
 7717      0000
 7718              	.L1528:
 7719 74b0 C78530F1 		movl	$0, -3792(%rbp)
 7719      FFFF0000 
 7719      0000
 7720              	.L1597:
 7721 74ba 488DBD20 		leaq	-2784(%rbp), %rdi
 7721      F5FFFF
 7722 74c1 4C89F6   		movq	%r14, %rsi
 7723              	.LEHB195:
 7724 74c4 E8000000 		call	_ZN8Solution5cloneERS_
 7724      00
 7725 74c9 C78534F1 		movl	$0, -3788(%rbp)
 7725      FFFF0000 
 7725      0000
 7726              	.L1551:
 7727 74d3 488B8DD0 		movq	-3888(%rbp), %rcx
 7727      F0FFFF
 7728 74da 488BB520 		movq	-3808(%rbp), %rsi
 7728      F1FFFF
 7729 74e1 488DBDD0 		leaq	-2864(%rbp), %rdi
 7729      F4FFFF
 7730 74e8 4C89FA   		movq	%r15, %rdx
 7731 74eb E8000000 		call	_ZN8Solution10update_bcsER19Boundary_ConditionsR4MeshR15domain_geometry
 7731      00
 7732 74f0 488DB5D0 		leaq	-2864(%rbp), %rsi
 7732      F4FFFF
 7733 74f7 4C89F7   		movq	%r14, %rdi
 7734 74fa E8000000 		call	_ZN8Solution5cloneERS_
 7734      00
 7735 74ff 488DBD70 		leaq	-2704(%rbp), %rdi
 7735      F5FFFF
 7736 7506 E8000000 		call	_ZN9residuals5resetEv
 7736      00
 7737 750b 418B5710 		movl	16(%r15), %edx
 7738 750f 85D2     		testl	%edx, %edx
 7739 7511 0F8E2910 		jle	.L1530
 7739      0000
 7740 7517 488B85F0 		movq	-3856(%rbp), %rax
 7740      F0FFFF
GAS LISTING /tmp/cce5yULP.s 			page 207


 7741 751e 48C78538 		movq	$0, -3784(%rbp)
 7741      F1FFFF00 
 7741      000000
 7742 7529 488B8D38 		movq	-3784(%rbp), %rcx
 7742      F1FFFF
 7743 7530 48898528 		movq	%rax, -3800(%rbp)
 7743      F1FFFF
 7744 7537 660F1F84 		.p2align 4,,10
 7744      00000000 
 7744      00
 7745              		.p2align 3
 7746              	.L1550:
 7747 7540 488B8520 		movq	-3808(%rbp), %rax
 7747      F1FFFF
 7748 7547 898D68F1 		movl	%ecx, -3736(%rbp)
 7748      FFFF
 7749 754d 488B4008 		movq	8(%rax), %rax
 7750 7551 803C0800 		cmpb	$0, (%rax,%rcx)
 7751 7555 0F85C50F 		jne	.L1531
 7751      0000
 7752 755b 498B4740 		movq	64(%r15), %rax
 7753 755f 48C785A8 		movq	$0, -3672(%rbp)
 7753      F1FFFF00 
 7753      000000
 7754 756a 4C8D2CCD 		leaq	0(,%rcx,8), %r13
 7754      00000000 
 7755 7572 C7856CF1 		movl	$0, -3732(%rbp)
 7755      FFFF0000 
 7755      0000
 7756 757c F20F1004 		movsd	(%rax,%rcx,8), %xmm0
 7756      C8
 7757 7581 498B4748 		movq	72(%r15), %rax
 7758 7585 F20F1185 		movsd	%xmm0, -3592(%rbp)
 7758      F8F1FFFF 
 7759 758d F20F1004 		movsd	(%rax,%rcx,8), %xmm0
 7759      C8
 7760 7592 498B4750 		movq	80(%r15), %rax
 7761 7596 F20F1185 		movsd	%xmm0, -3584(%rbp)
 7761      00F2FFFF 
 7762 759e F20F1004 		movsd	(%rax,%rcx,8), %xmm0
 7762      C8
 7763 75a3 488D8570 		leaq	-2192(%rbp), %rax
 7763      F7FFFF
 7764 75aa 48C785A8 		movq	$0, -2904(%rbp)
 7764      F4FFFF00 
 7764      000000
 7765 75b5 48C785B0 		movq	$0, -2896(%rbp)
 7765      F4FFFF00 
 7765      000000
 7766 75c0 48898550 		movq	%rax, -3760(%rbp)
 7766      F1FFFF
 7767 75c7 488D85D0 		leaq	-2352(%rbp), %rax
 7767      F6FFFF
 7768 75ce F20F1185 		movsd	%xmm0, -3576(%rbp)
 7768      08F2FFFF 
 7769 75d6 48C785B8 		movq	$0, -2888(%rbp)
 7769      F4FFFF00 
GAS LISTING /tmp/cce5yULP.s 			page 208


 7769      000000
 7770 75e1 48C785C0 		movq	$0, -2880(%rbp)
 7770      F4FFFF00 
 7770      000000
 7771 75ec 48898560 		movq	%rax, -3744(%rbp)
 7771      F1FFFF
 7772 75f3 488D8510 		leaq	-2032(%rbp), %rax
 7772      F8FFFF
 7773 75fa 48898540 		movq	%rax, -3776(%rbp)
 7773      F1FFFF
 7774 7601 488D8550 		leaq	-1712(%rbp), %rax
 7774      F9FFFF
 7775 7608 48898558 		movq	%rax, -3752(%rbp)
 7775      F1FFFF
 7776 760f 488D85B0 		leaq	-1872(%rbp), %rax
 7776      F8FFFF
 7777 7616 48898548 		movq	%rax, -3768(%rbp)
 7777      F1FFFF
 7778              	.L1534:
 7779 761d 488D8510 		leaq	-3568(%rbp), %rax
 7779      F2FFFF
 7780 7624 8BB568F1 		movl	-3736(%rbp), %esi
 7780      FFFF
 7781 762a 8BBD6CF1 		movl	-3732(%rbp), %edi
 7781      FFFF
 7782 7630 488D8DA4 		leaq	-3676(%rbp), %rcx
 7782      F1FFFF
 7783 7637 488D9530 		leaq	-3536(%rbp), %rdx
 7783      F2FFFF
 7784 763e 4C8D8DB0 		leaq	-3152(%rbp), %r9
 7784      F3FFFF
 7785 7645 50       		pushq	%rax
 7786 7646 4C8D85A8 		leaq	-3672(%rbp), %r8
 7786      F1FFFF
 7787 764d 4157     		pushq	%r15
 7788 764f E8CC89FF 		call	_ZN6Solver24cell_interface_variablesEiiR10vector_varRiRdS1_R19Boundary_ConditionsRNS_6bc_varE
 7788      FF
 7789 7654 486385A4 		movslq	-3676(%rbp), %rax
 7789      F1FFFF
 7790 765b 498B5740 		movq	64(%r15), %rdx
 7791 765f 488DB5D0 		leaq	-3120(%rbp), %rsi
 7791      F3FFFF
 7792 7666 48C78558 		movq	$0, -3240(%rbp)
 7792      F3FFFF00 
 7792      000000
 7793 7671 48C78560 		movq	$0, -3232(%rbp)
 7793      F3FFFF00 
 7793      000000
 7794 767c 488DBDD0 		leaq	-3376(%rbp), %rdi
 7794      F2FFFF
 7795 7683 48C78568 		movq	$0, -3224(%rbp)
 7795      F3FFFF00 
 7795      000000
 7796 768e 48C78548 		movq	$0, -3000(%rbp)
 7796      F4FFFF00 
 7796      000000
 7797 7699 48C78550 		movq	$0, -2992(%rbp)
GAS LISTING /tmp/cce5yULP.s 			page 209


 7797      F4FFFF00 
 7797      000000
 7798 76a4 48C78558 		movq	$0, -2984(%rbp)
 7798      F4FFFF00 
 7798      000000
 7799 76af 48C78560 		movq	$0, -2976(%rbp)
 7799      F4FFFF00 
 7799      000000
 7800 76ba 48C78578 		movq	$0, -2952(%rbp)
 7800      F4FFFF00 
 7800      000000
 7801 76c5 48C78580 		movq	$0, -2944(%rbp)
 7801      F4FFFF00 
 7801      000000
 7802 76d0 48C78588 		movq	$0, -2936(%rbp)
 7802      F4FFFF00 
 7802      000000
 7803 76db 48C78590 		movq	$0, -2928(%rbp)
 7803      F4FFFF00 
 7803      000000
 7804 76e6 48C785B8 		movq	$0, -3400(%rbp)
 7804      F2FFFF00 
 7804      000000
 7805 76f1 48C785C0 		movq	$0, -3392(%rbp)
 7805      F2FFFF00 
 7805      000000
 7806 76fc 48C785C8 		movq	$0, -3384(%rbp)
 7806      F2FFFF00 
 7806      000000
 7807 7707 F20F1014 		movsd	(%rdx,%rax,8), %xmm2
 7807      C2
 7808 770c 498B5748 		movq	72(%r15), %rdx
 7809 7710 F20F1195 		movsd	%xmm2, -3560(%rbp)
 7809      18F2FFFF 
 7810 7718 F20F100C 		movsd	(%rdx,%rax,8), %xmm1
 7810      C2
 7811 771d 498B5750 		movq	80(%r15), %rdx
 7812 7721 F20F118D 		movsd	%xmm1, -3552(%rbp)
 7812      20F2FFFF 
 7813 7729 F20F1004 		movsd	(%rdx,%rax,8), %xmm0
 7813      C2
 7814 772e F20F118D 		movsd	%xmm1, -3072(%rbp)
 7814      00F4FFFF 
 7815 7736 48C785F0 		movq	$_ZTV10vector_var+16, -3088(%rbp)
 7815      F3FFFF00 
 7815      000000
 7816 7741 48C785D0 		movq	$_ZTV10vector_var+16, -3120(%rbp)
 7816      F3FFFF00 
 7816      000000
 7817 774c F20F1185 		movsd	%xmm0, -3544(%rbp)
 7817      28F2FFFF 
 7818 7754 F20F1185 		movsd	%xmm0, -3064(%rbp)
 7818      08F4FFFF 
 7819 775c F20F1085 		movsd	-3592(%rbp), %xmm0
 7819      F8F1FFFF 
 7820 7764 F20F1195 		movsd	%xmm2, -3080(%rbp)
 7820      F8F3FFFF 
GAS LISTING /tmp/cce5yULP.s 			page 210


 7821 776c F20F1185 		movsd	%xmm0, -3112(%rbp)
 7821      D8F3FFFF 
 7822 7774 F20F1085 		movsd	-3584(%rbp), %xmm0
 7822      00F2FFFF 
 7823 777c F20F1185 		movsd	%xmm0, -3104(%rbp)
 7823      E0F3FFFF 
 7824 7784 488B95D8 		movq	-2856(%rbp), %rdx
 7824      F4FFFF
 7825 778b 498B4E08 		movq	8(%r14), %rcx
 7826 778f F20F1085 		movsd	-3576(%rbp), %xmm0
 7826      08F2FFFF 
 7827 7797 415A     		popq	%r10
 7828 7799 F20F1185 		movsd	%xmm0, -3096(%rbp)
 7828      E8F3FFFF 
 7829 77a1 415B     		popq	%r11
 7830 77a3 F2420F10 		movsd	(%rdx,%r13), %xmm0
 7830      042A
 7831 77a9 488D95F0 		leaq	-3088(%rbp), %rdx
 7831      F3FFFF
 7832 77b0 F20F100C 		movsd	(%rcx,%rax,8), %xmm1
 7832      C1
 7833 77b5 E8000000 		call	_ZN10vector_var12Get_GradientEddS_S_
 7833      00
 7834 77ba F20F1085 		movsd	-3560(%rbp), %xmm0
 7834      18F2FFFF 
 7835 77c2 48638DA4 		movslq	-3676(%rbp), %rcx
 7835      F1FFFF
 7836 77c9 488B95E0 		movq	-2848(%rbp), %rdx
 7836      F4FFFF
 7837 77d0 498B4610 		movq	16(%r14), %rax
 7838 77d4 488DB5D0 		leaq	-3120(%rbp), %rsi
 7838      F3FFFF
 7839 77db F20F1185 		movsd	%xmm0, -3080(%rbp)
 7839      F8F3FFFF 
 7840 77e3 488DBD70 		leaq	-3472(%rbp), %rdi
 7840      F2FFFF
 7841 77ea 48C785F0 		movq	$_ZTV10vector_var+16, -3088(%rbp)
 7841      F3FFFF00 
 7841      000000
 7842 77f5 F20F1085 		movsd	-3552(%rbp), %xmm0
 7842      20F2FFFF 
 7843 77fd 48C785D0 		movq	$_ZTV10vector_var+16, -3120(%rbp)
 7843      F3FFFF00 
 7843      000000
 7844 7808 F20F1185 		movsd	%xmm0, -3072(%rbp)
 7844      00F4FFFF 
 7845 7810 F20F1085 		movsd	-3544(%rbp), %xmm0
 7845      28F2FFFF 
 7846 7818 F20F1185 		movsd	%xmm0, -3064(%rbp)
 7846      08F4FFFF 
 7847 7820 F20F1085 		movsd	-3592(%rbp), %xmm0
 7847      F8F1FFFF 
 7848 7828 F20F1185 		movsd	%xmm0, -3112(%rbp)
 7848      D8F3FFFF 
 7849 7830 F20F1085 		movsd	-3584(%rbp), %xmm0
 7849      00F2FFFF 
 7850 7838 F20F1185 		movsd	%xmm0, -3104(%rbp)
GAS LISTING /tmp/cce5yULP.s 			page 211


 7850      E0F3FFFF 
 7851 7840 F20F1085 		movsd	-3576(%rbp), %xmm0
 7851      08F2FFFF 
 7852 7848 F20F1185 		movsd	%xmm0, -3096(%rbp)
 7852      E8F3FFFF 
 7853 7850 F2420F10 		movsd	(%rdx,%r13), %xmm0
 7853      042A
 7854 7856 488D95F0 		leaq	-3088(%rbp), %rdx
 7854      F3FFFF
 7855 785d F20F100C 		movsd	(%rax,%rcx,8), %xmm1
 7855      C8
 7856 7862 E8000000 		call	_ZN10vector_var12Get_GradientEddS_S_
 7856      00
 7857 7867 F20F1085 		movsd	-3560(%rbp), %xmm0
 7857      18F2FFFF 
 7858 786f 48638DA4 		movslq	-3676(%rbp), %rcx
 7858      F1FFFF
 7859 7876 488B95E8 		movq	-2840(%rbp), %rdx
 7859      F4FFFF
 7860 787d 498B4618 		movq	24(%r14), %rax
 7861 7881 488DB5D0 		leaq	-3120(%rbp), %rsi
 7861      F3FFFF
 7862 7888 F20F1185 		movsd	%xmm0, -3080(%rbp)
 7862      F8F3FFFF 
 7863 7890 488DBD90 		leaq	-3440(%rbp), %rdi
 7863      F2FFFF
 7864 7897 48C785F0 		movq	$_ZTV10vector_var+16, -3088(%rbp)
 7864      F3FFFF00 
 7864      000000
 7865 78a2 F20F1085 		movsd	-3552(%rbp), %xmm0
 7865      20F2FFFF 
 7866 78aa 48C785D0 		movq	$_ZTV10vector_var+16, -3120(%rbp)
 7866      F3FFFF00 
 7866      000000
 7867 78b5 F20F1185 		movsd	%xmm0, -3072(%rbp)
 7867      00F4FFFF 
 7868 78bd F20F1085 		movsd	-3544(%rbp), %xmm0
 7868      28F2FFFF 
 7869 78c5 F20F1185 		movsd	%xmm0, -3064(%rbp)
 7869      08F4FFFF 
 7870 78cd F20F1085 		movsd	-3592(%rbp), %xmm0
 7870      F8F1FFFF 
 7871 78d5 F20F1185 		movsd	%xmm0, -3112(%rbp)
 7871      D8F3FFFF 
 7872 78dd F20F1085 		movsd	-3584(%rbp), %xmm0
 7872      00F2FFFF 
 7873 78e5 F20F1185 		movsd	%xmm0, -3104(%rbp)
 7873      E0F3FFFF 
 7874 78ed F20F1085 		movsd	-3576(%rbp), %xmm0
 7874      08F2FFFF 
 7875 78f5 F20F1185 		movsd	%xmm0, -3096(%rbp)
 7875      E8F3FFFF 
 7876 78fd F2420F10 		movsd	(%rdx,%r13), %xmm0
 7876      042A
 7877 7903 488D95F0 		leaq	-3088(%rbp), %rdx
 7877      F3FFFF
 7878 790a F20F100C 		movsd	(%rax,%rcx,8), %xmm1
GAS LISTING /tmp/cce5yULP.s 			page 212


 7878      C8
 7879 790f E8000000 		call	_ZN10vector_var12Get_GradientEddS_S_
 7879      00
 7880 7914 488B8548 		movq	-3768(%rbp), %rax
 7880      F1FFFF
 7881 791b F20F1085 		movsd	-3368(%rbp), %xmm0
 7881      D8F2FFFF 
 7882 7923 48C78598 		movq	$0, -3688(%rbp)
 7882      F1FFFF00 
 7882      000000
 7883 792e 48C78590 		movq	$0, -3696(%rbp)
 7883      F1FFFF00 
 7883      000000
 7884 7939 F20F1140 		movsd	%xmm0, 8(%rax)
 7884      08
 7885 793e F20F1085 		movsd	-3464(%rbp), %xmm0
 7885      78F2FFFF 
 7886 7946 F20F1140 		movsd	%xmm0, 16(%rax)
 7886      10
 7887 794b F20F1085 		movsd	-3456(%rbp), %xmm0
 7887      80F2FFFF 
 7888 7953 F20F1140 		movsd	%xmm0, 24(%rax)
 7888      18
 7889 7958 0F1F8400 		.p2align 4,,10
 7889      00000000 
 7890              		.p2align 3
 7891              	.L1532:
 7892 7960 8B9598F1 		movl	-3688(%rbp), %edx
 7892      FFFF
 7893 7966 F2410F10 		movsd	32(%r12), %xmm1
 7893      4C2420
 7894 796d F20F1043 		movsd	32(%rbx), %xmm0
 7894      20
 7895 7972 488D8DB0 		leaq	-3664(%rbp), %rcx
 7895      F1FFFF
 7896 7979 488DBDD0 		leaq	-3120(%rbp), %rdi
 7896      F3FFFF
 7897 7980 4889DE   		movq	%rbx, %rsi
 7898 7983 E8000000 		call	_ZN6Solver11get_e_alphaEiRddd
 7898      00
 7899 7988 F20F108D 		movsd	-3096(%rbp), %xmm1
 7899      E8F3FFFF 
 7900 7990 488B85D8 		movq	-2856(%rbp), %rax
 7900      F4FFFF
 7901 7997 F20F1085 		movsd	-3112(%rbp), %xmm0
 7901      D8F3FFFF 
 7902 799f 48C78568 		movq	$0, -3480(%rbp)
 7902      F2FFFF00 
 7902      000000
 7903 79aa F20F118D 		movsd	%xmm1, -3288(%rbp)
 7903      28F3FFFF 
 7904 79b2 488DB5D0 		leaq	-3120(%rbp), %rsi
 7904      F3FFFF
 7905 79b9 488DBDD0 		leaq	-3376(%rbp), %rdi
 7905      F2FFFF
 7906 79c0 F20F108D 		movsd	-3528(%rbp), %xmm1
 7906      38F2FFFF 
GAS LISTING /tmp/cce5yULP.s 			page 213


 7907 79c8 F20F105B 		movsd	8(%rbx), %xmm3
 7907      08
 7908 79cd F20F5C8D 		subsd	-3592(%rbp), %xmm1
 7908      F8F1FFFF 
 7909 79d5 F20F1185 		movsd	%xmm0, -3304(%rbp)
 7909      18F3FFFF 
 7910 79dd F20F59C3 		mulsd	%xmm3, %xmm0
 7911 79e1 F20F1095 		movsd	-3104(%rbp), %xmm2
 7911      E0F3FFFF 
 7912 79e9 F20F1195 		movsd	%xmm2, -3296(%rbp)
 7912      20F3FFFF 
 7913 79f1 F20F59D3 		mulsd	%xmm3, %xmm2
 7914 79f5 660F28F1 		movapd	%xmm1, %xmm6
 7915 79f9 F20F118D 		movsd	%xmm1, -3336(%rbp)
 7915      F8F2FFFF 
 7916 7a01 F20F5CF0 		subsd	%xmm0, %xmm6
 7917 7a05 F20F1085 		movsd	-3520(%rbp), %xmm0
 7917      40F2FFFF 
 7918 7a0d F20F5C85 		subsd	-3584(%rbp), %xmm0
 7918      00F2FFFF 
 7919 7a15 F20F11B5 		movsd	%xmm6, -3496(%rbp)
 7919      58F2FFFF 
 7920 7a1d 660F28F0 		movapd	%xmm0, %xmm6
 7921 7a21 F20F1185 		movsd	%xmm0, -3328(%rbp)
 7921      00F3FFFF 
 7922 7a29 F20F5CF2 		subsd	%xmm2, %xmm6
 7923 7a2d F20F11B5 		movsd	%xmm6, -3488(%rbp)
 7923      60F2FFFF 
 7924 7a35 F2420F10 		movsd	(%rax,%r13), %xmm6
 7924      3428
 7925 7a3b F20F1185 		movsd	%xmm0, -3104(%rbp)
 7925      E0F3FFFF 
 7926 7a43 48C785D0 		movq	$_ZTV10vector_var+16, -3120(%rbp)
 7926      F3FFFF00 
 7926      000000
 7927 7a4e F20F1085 		movsd	-3320(%rbp), %xmm0
 7927      08F3FFFF 
 7928 7a56 F20F11B5 		movsd	%xmm6, -3704(%rbp)
 7928      88F1FFFF 
 7929 7a5e F20F118D 		movsd	%xmm1, -3112(%rbp)
 7929      D8F3FFFF 
 7930 7a66 F20F1185 		movsd	%xmm0, -3096(%rbp)
 7930      E8F3FFFF 
 7931 7a6e E8000000 		call	_ZN10vector_var11Dot_ProductES_
 7931      00
 7932 7a73 F20F5885 		addsd	-3704(%rbp), %xmm0
 7932      88F1FFFF 
 7933 7a7b 660FEFC9 		pxor	%xmm1, %xmm1
 7934 7a7f F20F1185 		movsd	%xmm0, -3704(%rbp)
 7934      88F1FFFF 
 7935 7a87 F20F1085 		movsd	-3144(%rbp), %xmm0
 7935      B8F3FFFF 
 7936 7a8f 660F50C0 		movmskpd	%xmm0, %eax
 7937 7a93 F20F1005 		movsd	.LC51(%rip), %xmm0
 7937      00000000 
 7938 7a9b 83E001   		andl	$1, %eax
 7939 7a9e F20F2AC8 		cvtsi2sd	%eax, %xmm1
GAS LISTING /tmp/cce5yULP.s 			page 214


 7940 7aa2 E8000000 		call	pow
 7940      00
 7941 7aa7 660F28F0 		movapd	%xmm0, %xmm6
 7942 7aab 488DB5F0 		leaq	-3088(%rbp), %rsi
 7942      F3FFFF
 7943 7ab2 F20F1085 		movsd	-3304(%rbp), %xmm0
 7943      18F3FFFF 
 7944 7aba 488DBDD0 		leaq	-3376(%rbp), %rdi
 7944      F2FFFF
 7945 7ac1 660F5735 		xorpd	.LC17(%rip), %xmm6
 7945      00000000 
 7946 7ac9 F20F1185 		movsd	%xmm0, -3080(%rbp)
 7946      F8F3FFFF 
 7947 7ad1 48C785F0 		movq	$_ZTV10vector_var+16, -3088(%rbp)
 7947      F3FFFF00 
 7947      000000
 7948 7adc F20F1085 		movsd	-3296(%rbp), %xmm0
 7948      20F3FFFF 
 7949 7ae4 F20F1185 		movsd	%xmm0, -3072(%rbp)
 7949      00F4FFFF 
 7950 7aec F20F1085 		movsd	-3288(%rbp), %xmm0
 7950      28F3FFFF 
 7951 7af4 F20F11B5 		movsd	%xmm6, -3712(%rbp)
 7951      80F1FFFF 
 7952 7afc F20F1185 		movsd	%xmm0, -3064(%rbp)
 7952      08F4FFFF 
 7953 7b04 E8000000 		call	_ZN10vector_var11Dot_ProductES_
 7953      00
 7954 7b09 F20F5985 		mulsd	-3712(%rbp), %xmm0
 7954      80F1FFFF 
 7955 7b11 F20F10BD 		movsd	-3704(%rbp), %xmm7
 7955      88F1FFFF 
 7956 7b19 660FEFC9 		pxor	%xmm1, %xmm1
 7957 7b1d F20F5943 		mulsd	8(%rbx), %xmm0
 7957      08
 7958 7b22 F20F58F8 		addsd	%xmm0, %xmm7
 7959 7b26 F20F1085 		movsd	-3144(%rbp), %xmm0
 7959      B8F3FFFF 
 7960 7b2e 660F50C0 		movmskpd	%xmm0, %eax
 7961 7b32 F20F1005 		movsd	.LC51(%rip), %xmm0
 7961      00000000 
 7962 7b3a 83E001   		andl	$1, %eax
 7963 7b3d F20F11BD 		movsd	%xmm7, -3704(%rbp)
 7963      88F1FFFF 
 7964 7b45 F20F2AC8 		cvtsi2sd	%eax, %xmm1
 7965 7b49 E8000000 		call	pow
 7965      00
 7966 7b4e F20F1185 		movsd	%xmm0, -3712(%rbp)
 7966      80F1FFFF 
 7967 7b56 488DB5F0 		leaq	-3088(%rbp), %rsi
 7967      F3FFFF
 7968 7b5d 488DBD70 		leaq	-3472(%rbp), %rdi
 7968      F2FFFF
 7969 7b64 F20F1085 		movsd	-3496(%rbp), %xmm0
 7969      58F2FFFF 
 7970 7b6c 48C785F0 		movq	$_ZTV10vector_var+16, -3088(%rbp)
 7970      F3FFFF00 
GAS LISTING /tmp/cce5yULP.s 			page 215


 7970      000000
 7971 7b77 F20F1185 		movsd	%xmm0, -3080(%rbp)
 7971      F8F3FFFF 
 7972 7b7f F20F1085 		movsd	-3488(%rbp), %xmm0
 7972      60F2FFFF 
 7973 7b87 F20F1185 		movsd	%xmm0, -3072(%rbp)
 7973      00F4FFFF 
 7974 7b8f F20F1085 		movsd	-3480(%rbp), %xmm0
 7974      68F2FFFF 
 7975 7b97 F20F1185 		movsd	%xmm0, -3064(%rbp)
 7975      08F4FFFF 
 7976 7b9f E8000000 		call	_ZN10vector_var11Dot_ProductES_
 7976      00
 7977 7ba4 488B85E0 		movq	-2848(%rbp), %rax
 7977      F4FFFF
 7978 7bab 660FEFC9 		pxor	%xmm1, %xmm1
 7979 7baf F2420F58 		addsd	(%rax,%r13), %xmm0
 7979      0428
 7980 7bb5 F20F5985 		mulsd	-3712(%rbp), %xmm0
 7980      80F1FFFF 
 7981 7bbd F20F1185 		movsd	%xmm0, -3272(%rbp)
 7981      38F3FFFF 
 7982 7bc5 F20F1085 		movsd	-3136(%rbp), %xmm0
 7982      C0F3FFFF 
 7983 7bcd 660F50C0 		movmskpd	%xmm0, %eax
 7984 7bd1 F20F1005 		movsd	.LC51(%rip), %xmm0
 7984      00000000 
 7985 7bd9 83E001   		andl	$1, %eax
 7986 7bdc F20F2AC8 		cvtsi2sd	%eax, %xmm1
 7987 7be0 E8000000 		call	pow
 7987      00
 7988 7be5 F20F1185 		movsd	%xmm0, -3712(%rbp)
 7988      80F1FFFF 
 7989 7bed 488DB5F0 		leaq	-3088(%rbp), %rsi
 7989      F3FFFF
 7990 7bf4 488DBD90 		leaq	-3440(%rbp), %rdi
 7990      F2FFFF
 7991 7bfb F20F1085 		movsd	-3496(%rbp), %xmm0
 7991      58F2FFFF 
 7992 7c03 48C785F0 		movq	$_ZTV10vector_var+16, -3088(%rbp)
 7992      F3FFFF00 
 7992      000000
 7993 7c0e F20F1185 		movsd	%xmm0, -3080(%rbp)
 7993      F8F3FFFF 
 7994 7c16 F20F1085 		movsd	-3488(%rbp), %xmm0
 7994      60F2FFFF 
 7995 7c1e F20F1185 		movsd	%xmm0, -3072(%rbp)
 7995      00F4FFFF 
 7996 7c26 F20F1085 		movsd	-3480(%rbp), %xmm0
 7996      68F2FFFF 
 7997 7c2e F20F1185 		movsd	%xmm0, -3064(%rbp)
 7997      08F4FFFF 
 7998 7c36 E8000000 		call	_ZN10vector_var11Dot_ProductES_
 7998      00
 7999 7c3b 488B85E8 		movq	-2840(%rbp), %rax
 7999      F4FFFF
 8000 7c42 488DBD30 		leaq	-3280(%rbp), %rdi
GAS LISTING /tmp/cce5yULP.s 			page 216


 8000      F3FFFF
 8001 7c49 F2420F58 		addsd	(%rax,%r13), %xmm0
 8001      0428
 8002 7c4f 48C78548 		movq	$0, -3256(%rbp)
 8002      F3FFFF00 
 8002      000000
 8003 7c5a F20F5985 		mulsd	-3712(%rbp), %xmm0
 8003      80F1FFFF 
 8004 7c62 F20F1185 		movsd	%xmm0, -3264(%rbp)
 8004      40F3FFFF 
 8005 7c6a E8000000 		call	_ZN10vector_var9MagnitudeEv
 8005      00
 8006 7c6f F20F1185 		movsd	%xmm0, -3712(%rbp)
 8006      80F1FFFF 
 8007 7c77 488B8598 		movq	-3688(%rbp), %rax
 8007      F1FFFF
 8008 7c7e 488DB5F0 		leaq	-3088(%rbp), %rsi
 8008      F3FFFF
 8009 7c85 F20F1085 		movsd	-3272(%rbp), %xmm0
 8009      38F3FFFF 
 8010 7c8d 488DBD10 		leaq	-3312(%rbp), %rdi
 8010      F3FFFF
 8011 7c94 F20F1035 		movsd	.LC12(%rip), %xmm6
 8011      00000000 
 8012 7c9c F20F1185 		movsd	%xmm0, -3080(%rbp)
 8012      F8F3FFFF 
 8013 7ca4 48C785F0 		movq	$_ZTV10vector_var+16, -3088(%rbp)
 8013      F3FFFF00 
 8013      000000
 8014 7caf F20F1085 		movsd	-3264(%rbp), %xmm0
 8014      40F3FFFF 
 8015 7cb7 F20F11B4 		movsd	%xmm6, -2432(%rbp,%rax,8)
 8015      C580F6FF 
 8015      FF
 8016 7cc0 F20F1185 		movsd	%xmm0, -3072(%rbp)
 8016      00F4FFFF 
 8017 7cc8 F20F1085 		movsd	-3256(%rbp), %xmm0
 8017      48F3FFFF 
 8018 7cd0 F20F1185 		movsd	%xmm0, -3064(%rbp)
 8018      08F4FFFF 
 8019 7cd8 E8000000 		call	_ZN10vector_var11Dot_ProductES_
 8019      00
 8020 7cdd F20F104B 		movsd	40(%rbx), %xmm1
 8020      28
 8021 7ce2 488DB5F0 		leaq	-3088(%rbp), %rsi
 8021      F3FFFF
 8022 7ce9 F20F103D 		movsd	.LC12(%rip), %xmm7
 8022      00000000 
 8023 7cf1 488B8598 		movq	-3688(%rbp), %rax
 8023      F1FFFF
 8024 7cf8 F20F59C9 		mulsd	%xmm1, %xmm1
 8025 7cfc 488DBD10 		leaq	-3312(%rbp), %rdi
 8025      F3FFFF
 8026 7d03 48C785F0 		movq	$_ZTV10vector_var+16, -3088(%rbp)
 8026      F3FFFF00 
 8026      000000
 8027 7d0e F20F5EC1 		divsd	%xmm1, %xmm0
GAS LISTING /tmp/cce5yULP.s 			page 217


 8028 7d12 F20F58F8 		addsd	%xmm0, %xmm7
 8029 7d16 F20F1085 		movsd	-3272(%rbp), %xmm0
 8029      38F3FFFF 
 8030 7d1e F20F1185 		movsd	%xmm0, -3080(%rbp)
 8030      F8F3FFFF 
 8031 7d26 F20F1085 		movsd	-3264(%rbp), %xmm0
 8031      40F3FFFF 
 8032 7d2e F20F11BD 		movsd	%xmm7, -3720(%rbp)
 8032      78F1FFFF 
 8033 7d36 F20F1185 		movsd	%xmm0, -3072(%rbp)
 8033      00F4FFFF 
 8034 7d3e F20F1085 		movsd	-3256(%rbp), %xmm0
 8034      48F3FFFF 
 8035 7d46 F20F11BC 		movsd	%xmm7, -2432(%rbp,%rax,8)
 8035      C580F6FF 
 8035      FF
 8036 7d4f F20F1185 		movsd	%xmm0, -3064(%rbp)
 8036      08F4FFFF 
 8037 7d57 E8000000 		call	_ZN10vector_var11Dot_ProductES_
 8037      00
 8038 7d5c F20F109D 		movsd	-3712(%rbp), %xmm3
 8038      80F1FFFF 
 8039 7d64 F20F1185 		movsd	%xmm0, -3728(%rbp)
 8039      70F1FFFF 
 8040 7d6c F20F1043 		movsd	40(%rbx), %xmm0
 8040      28
 8041 7d71 F20F100D 		movsd	.LC52(%rip), %xmm1
 8041      00000000 
 8042 7d79 F20F59D8 		mulsd	%xmm0, %xmm3
 8043 7d7d F20F119D 		movsd	%xmm3, -3712(%rbp)
 8043      80F1FFFF 
 8044 7d85 E8000000 		call	pow
 8044      00
 8045 7d8a F20F1095 		movsd	-3728(%rbp), %xmm2
 8045      70F1FFFF 
 8046 7d92 F20F58C0 		addsd	%xmm0, %xmm0
 8047 7d96 F20F109D 		movsd	-3712(%rbp), %xmm3
 8047      80F1FFFF 
 8048 7d9e 488B8598 		movq	-3688(%rbp), %rax
 8048      F1FFFF
 8049 7da5 F20F59D2 		mulsd	%xmm2, %xmm2
 8050 7da9 F20F59DB 		mulsd	%xmm3, %xmm3
 8051 7dad F2410F59 		mulsd	48(%r12), %xmm0
 8051      442430
 8052 7db4 F20F10AD 		movsd	-3696(%rbp), %xmm5
 8052      90F1FFFF 
 8053 7dbc F20F108D 		movsd	-3296(%rbp), %xmm1
 8053      20F3FFFF 
 8054 7dc4 F20F5CD3 		subsd	%xmm3, %xmm2
 8055 7dc8 F20F5ED0 		divsd	%xmm0, %xmm2
 8056 7dcc F20F1085 		movsd	-3720(%rbp), %xmm0
 8056      78F1FFFF 
 8057 7dd4 F20F58C2 		addsd	%xmm2, %xmm0
 8058 7dd8 F20F1095 		movsd	-3304(%rbp), %xmm2
 8058      18F3FFFF 
 8059 7de0 F20F5985 		mulsd	-3664(%rbp), %xmm0
 8059      B0F1FFFF 
GAS LISTING /tmp/cce5yULP.s 			page 218


 8060 7de8 F20F5985 		mulsd	-3704(%rbp), %xmm0
 8060      88F1FFFF 
 8061 7df0 F20F1184 		movsd	%xmm0, -2432(%rbp,%rax,8)
 8061      C580F6FF 
 8061      FF
 8062 7df9 F20F58E8 		addsd	%xmm0, %xmm5
 8063 7dfd F20F59D0 		mulsd	%xmm0, %xmm2
 8064 7e01 F20F59C8 		mulsd	%xmm0, %xmm1
 8065 7e05 4883C001 		addq	$1, %rax
 8066 7e09 F20F5985 		mulsd	-3288(%rbp), %xmm0
 8066      28F3FFFF 
 8067 7e11 4883F809 		cmpq	$9, %rax
 8068 7e15 48898598 		movq	%rax, -3688(%rbp)
 8068      F1FFFF
 8069 7e1c F20F5895 		addsd	-3240(%rbp), %xmm2
 8069      58F3FFFF 
 8070 7e24 F20F11AD 		movsd	%xmm5, -3696(%rbp)
 8070      90F1FFFF 
 8071 7e2c F20F588D 		addsd	-3232(%rbp), %xmm1
 8071      60F3FFFF 
 8072 7e34 F20F5885 		addsd	-3224(%rbp), %xmm0
 8072      68F3FFFF 
 8073 7e3c F20F1195 		movsd	%xmm2, -3240(%rbp)
 8073      58F3FFFF 
 8074 7e44 F20F118D 		movsd	%xmm1, -3232(%rbp)
 8074      60F3FFFF 
 8075 7e4c F20F1185 		movsd	%xmm0, -3224(%rbp)
 8075      68F3FFFF 
 8076 7e54 0F8506FB 		jne	.L1532
 8076      FFFF
 8077 7e5a F20F5ED5 		divsd	%xmm5, %xmm2
 8078 7e5e 488DBD70 		leaq	-3216(%rbp), %rdi
 8078      F3FFFF
 8079 7e65 F20F5ECD 		divsd	%xmm5, %xmm1
 8080 7e69 F20F1195 		movsd	%xmm2, -3208(%rbp)
 8080      78F3FFFF 
 8081 7e71 F20F5EC5 		divsd	%xmm5, %xmm0
 8082 7e75 F20F118D 		movsd	%xmm1, -3200(%rbp)
 8082      80F3FFFF 
 8083 7e7d F20F1185 		movsd	%xmm0, -3192(%rbp)
 8083      88F3FFFF 
 8084 7e85 E8000000 		call	_ZN10vector_var9MagnitudeEv
 8084      00
 8085 7e8a 488B8558 		movq	-3752(%rbp), %rax
 8085      F1FFFF
 8086 7e91 F20F1185 		movsd	%xmm0, -3728(%rbp)
 8086      70F1FFFF 
 8087 7e99 F20F1085 		movsd	-3208(%rbp), %xmm0
 8087      78F3FFFF 
 8088 7ea1 48C78598 		movq	$0, -3688(%rbp)
 8088      F1FFFF00 
 8088      000000
 8089 7eac F20F10BD 		movsd	-3696(%rbp), %xmm7
 8089      90F1FFFF 
 8090 7eb4 F20F1140 		movsd	%xmm0, 16(%rax)
 8090      10
 8091 7eb9 F20F1085 		movsd	-3200(%rbp), %xmm0
GAS LISTING /tmp/cce5yULP.s 			page 219


 8091      80F3FFFF 
 8092 7ec1 F20F1178 		movsd	%xmm7, 8(%rax)
 8092      08
 8093 7ec6 F20F1140 		movsd	%xmm0, 24(%rax)
 8093      18
 8094 7ecb 0F1F4400 		.p2align 4,,10
 8094      00
 8095              		.p2align 3
 8096              	.L1533:
 8097 7ed0 8B9598F1 		movl	-3688(%rbp), %edx
 8097      FFFF
 8098 7ed6 488D8DB0 		leaq	-3664(%rbp), %rcx
 8098      F1FFFF
 8099 7edd 488DBDF0 		leaq	-3088(%rbp), %rdi
 8099      F3FFFF
 8100 7ee4 F2410F10 		movsd	32(%r12), %xmm1
 8100      4C2420
 8101 7eeb 4889DE   		movq	%rbx, %rsi
 8102 7eee F20F1043 		movsd	32(%rbx), %xmm0
 8102      20
 8103 7ef3 E8000000 		call	_ZN6Solver11get_e_alphaEiRddd
 8103      00
 8104 7ef8 F20F1085 		movsd	-3080(%rbp), %xmm0
 8104      F8F3FFFF 
 8105 7f00 488DB5F0 		leaq	-3088(%rbp), %rsi
 8105      F3FFFF
 8106 7f07 488DBD10 		leaq	-3312(%rbp), %rdi
 8106      F3FFFF
 8107 7f0e 48C785F0 		movq	$_ZTV10vector_var+16, -3088(%rbp)
 8107      F3FFFF00 
 8107      000000
 8108 7f19 F20F1185 		movsd	%xmm0, -3304(%rbp)
 8108      18F3FFFF 
 8109 7f21 F20F1085 		movsd	-3072(%rbp), %xmm0
 8109      00F4FFFF 
 8110 7f29 F20F1185 		movsd	%xmm0, -3296(%rbp)
 8110      20F3FFFF 
 8111 7f31 F20F1085 		movsd	-3064(%rbp), %xmm0
 8111      08F4FFFF 
 8112 7f39 F20F1185 		movsd	%xmm0, -3288(%rbp)
 8112      28F3FFFF 
 8113 7f41 F20F1085 		movsd	-3208(%rbp), %xmm0
 8113      78F3FFFF 
 8114 7f49 F20F1185 		movsd	%xmm0, -3080(%rbp)
 8114      F8F3FFFF 
 8115 7f51 F20F1085 		movsd	-3200(%rbp), %xmm0
 8115      80F3FFFF 
 8116 7f59 F20F1185 		movsd	%xmm0, -3072(%rbp)
 8116      00F4FFFF 
 8117 7f61 F20F1085 		movsd	-3192(%rbp), %xmm0
 8117      88F3FFFF 
 8118 7f69 F20F1185 		movsd	%xmm0, -3064(%rbp)
 8118      08F4FFFF 
 8119 7f71 E8000000 		call	_ZN10vector_var11Dot_ProductES_
 8119      00
 8120 7f76 F20F104B 		movsd	40(%rbx), %xmm1
 8120      28
GAS LISTING /tmp/cce5yULP.s 			page 220


 8121 7f7b 488DB5F0 		leaq	-3088(%rbp), %rsi
 8121      F3FFFF
 8122 7f82 488DBD10 		leaq	-3312(%rbp), %rdi
 8122      F3FFFF
 8123 7f89 48C785F0 		movq	$_ZTV10vector_var+16, -3088(%rbp)
 8123      F3FFFF00 
 8123      000000
 8124 7f94 F20F59C9 		mulsd	%xmm1, %xmm1
 8125 7f98 F20F5EC1 		divsd	%xmm1, %xmm0
 8126 7f9c F20F1185 		movsd	%xmm0, -3704(%rbp)
 8126      88F1FFFF 
 8127 7fa4 F20F1085 		movsd	-3208(%rbp), %xmm0
 8127      78F3FFFF 
 8128 7fac F20F1185 		movsd	%xmm0, -3080(%rbp)
 8128      F8F3FFFF 
 8129 7fb4 F20F1085 		movsd	-3200(%rbp), %xmm0
 8129      80F3FFFF 
 8130 7fbc F20F1185 		movsd	%xmm0, -3072(%rbp)
 8130      00F4FFFF 
 8131 7fc4 F20F1085 		movsd	-3192(%rbp), %xmm0
 8131      88F3FFFF 
 8132 7fcc F20F1185 		movsd	%xmm0, -3064(%rbp)
 8132      08F4FFFF 
 8133 7fd4 E8000000 		call	_ZN10vector_var11Dot_ProductES_
 8133      00
 8134 7fd9 F20F1185 		movsd	%xmm0, -3720(%rbp)
 8134      78F1FFFF 
 8135 7fe1 F20F109D 		movsd	-3728(%rbp), %xmm3
 8135      70F1FFFF 
 8136 7fe9 F20F1043 		movsd	40(%rbx), %xmm0
 8136      28
 8137 7fee F20F100D 		movsd	.LC52(%rip), %xmm1
 8137      00000000 
 8138 7ff6 F20F59D8 		mulsd	%xmm0, %xmm3
 8139 7ffa F20F119D 		movsd	%xmm3, -3712(%rbp)
 8139      80F1FFFF 
 8140 8002 E8000000 		call	pow
 8140      00
 8141 8007 F20F1095 		movsd	-3720(%rbp), %xmm2
 8141      78F1FFFF 
 8142 800f F20F58C0 		addsd	%xmm0, %xmm0
 8143 8013 F20F109D 		movsd	-3712(%rbp), %xmm3
 8143      80F1FFFF 
 8144 801b 488B8598 		movq	-3688(%rbp), %rax
 8144      F1FFFF
 8145 8022 F20F59D2 		mulsd	%xmm2, %xmm2
 8146 8026 F20F59DB 		mulsd	%xmm3, %xmm3
 8147 802a F2410F59 		mulsd	48(%r12), %xmm0
 8147      442430
 8148 8031 F2440F10 		movsd	16(%rbx), %xmm8
 8148      4310
 8149 8037 F2440F10 		movsd	.LC12(%rip), %xmm15
 8149      3D000000 
 8149      00
 8150 8040 F20F5CD3 		subsd	%xmm3, %xmm2
 8151 8044 66410F28 		movapd	%xmm8, %xmm1
 8151      C8
GAS LISTING /tmp/cce5yULP.s 			page 221


 8152 8049 F2450F58 		addsd	%xmm8, %xmm8
 8152      C0
 8153 804e F2440F10 		movsd	.LC12(%rip), %xmm10
 8153      15000000 
 8153      00
 8154 8057 660F570D 		xorpd	.LC17(%rip), %xmm1
 8154      00000000 
 8155 805f F20F5ED0 		divsd	%xmm0, %xmm2
 8156 8063 F20F1085 		movsd	-3704(%rbp), %xmm0
 8156      88F1FFFF 
 8157 806b F2450F5E 		divsd	%xmm8, %xmm15
 8157      F8
 8158 8070 F20F58C2 		addsd	%xmm2, %xmm0
 8159 8074 F20F5805 		addsd	.LC12(%rip), %xmm0
 8159      00000000 
 8160 807c F20F5985 		mulsd	-3696(%rbp), %xmm0
 8160      90F1FFFF 
 8161 8084 F20F1095 		movsd	-3296(%rbp), %xmm2
 8161      20F3FFFF 
 8162 808c F20F10B5 		movsd	-3144(%rbp), %xmm6
 8162      B8F3FFFF 
 8163 8094 F2450F5C 		subsd	%xmm15, %xmm10
 8163      D7
 8164 8099 F20F10BD 		movsd	-3136(%rbp), %xmm7
 8164      C0F3FFFF 
 8165 80a1 F2440F10 		movsd	-2984(%rbp), %xmm8
 8165      8558F4FF 
 8165      FF
 8166 80aa F20F5985 		mulsd	-3664(%rbp), %xmm0
 8166      B0F1FFFF 
 8167 80b2 660F28E0 		movapd	%xmm0, %xmm4
 8168 80b6 660F28D8 		movapd	%xmm0, %xmm3
 8169 80ba 660F28E8 		movapd	%xmm0, %xmm5
 8170 80be F20F5CA4 		subsd	-2432(%rbp,%rax,8), %xmm4
 8170      C580F6FF 
 8170      FF
 8171 80c7 4883C001 		addq	$1, %rax
 8172 80cb F20F59EA 		mulsd	%xmm2, %xmm5
 8173 80cf 4883F809 		cmpq	$9, %rax
 8174 80d3 48898598 		movq	%rax, -3688(%rbp)
 8174      F1FFFF
 8175 80da F20F59EF 		mulsd	%xmm7, %xmm5
 8176 80de F20F59E1 		mulsd	%xmm1, %xmm4
 8177 80e2 F20F108D 		movsd	-3304(%rbp), %xmm1
 8177      18F3FFFF 
 8178 80ea F20F59D9 		mulsd	%xmm1, %xmm3
 8179 80ee F20F58AD 		addsd	-2952(%rbp), %xmm5
 8179      78F4FFFF 
 8180 80f6 F2410F59 		mulsd	%xmm10, %xmm4
 8180      E2
 8181 80fb F20F59DE 		mulsd	%xmm6, %xmm3
 8182 80ff F20F58C4 		addsd	%xmm4, %xmm0
 8183 8103 660F28E1 		movapd	%xmm1, %xmm4
 8184 8107 F20F11AD 		movsd	%xmm5, -2952(%rbp)
 8184      78F4FFFF 
 8185 810f F20F59E1 		mulsd	%xmm1, %xmm4
 8186 8113 F20F59CA 		mulsd	%xmm2, %xmm1
GAS LISTING /tmp/cce5yULP.s 			page 222


 8187 8117 F20F589D 		addsd	-3000(%rbp), %xmm3
 8187      48F4FFFF 
 8188 811f F20F59D2 		mulsd	%xmm2, %xmm2
 8189 8123 F20F59E0 		mulsd	%xmm0, %xmm4
 8190 8127 F20F59C8 		mulsd	%xmm0, %xmm1
 8191 812b F20F59C2 		mulsd	%xmm2, %xmm0
 8192 812f F20F119D 		movsd	%xmm3, -3000(%rbp)
 8192      48F4FFFF 
 8193 8137 F20F58A5 		addsd	-2992(%rbp), %xmm4
 8193      50F4FFFF 
 8194 813f F2440F58 		addsd	%xmm1, %xmm8
 8194      C1
 8195 8144 F20F5885 		addsd	-2936(%rbp), %xmm0
 8195      88F4FFFF 
 8196 814c F20F588D 		addsd	-2944(%rbp), %xmm1
 8196      80F4FFFF 
 8197 8154 F2440F11 		movsd	%xmm8, -2984(%rbp)
 8197      8558F4FF 
 8197      FF
 8198 815d F20F11A5 		movsd	%xmm4, -2992(%rbp)
 8198      50F4FFFF 
 8199 8165 F20F1185 		movsd	%xmm0, -2936(%rbp)
 8199      88F4FFFF 
 8200 816d F20F118D 		movsd	%xmm1, -2944(%rbp)
 8200      80F4FFFF 
 8201 8175 0F8555FD 		jne	.L1533
 8201      FFFF
 8202 817b 488B8550 		movq	-3760(%rbp), %rax
 8202      F1FFFF
 8203 8182 66440F28 		movapd	%xmm6, %xmm11
 8203      DE
 8204 8187 F2440F10 		movsd	-1432(%rbp), %xmm9
 8204      8D68FAFF 
 8204      FF
 8205 8190 66440F28 		movapd	%xmm5, %xmm13
 8205      ED
 8206 8195 F2440F59 		mulsd	%xmm3, %xmm11
 8206      DB
 8207 819a 488B9560 		movq	-3744(%rbp), %rdx
 8207      F1FFFF
 8208 81a1 F20F1158 		movsd	%xmm3, 8(%rax)
 8208      08
 8209 81a6 F2410F58 		addsd	%xmm9, %xmm3
 8209      D9
 8210 81ab F20F59EF 		mulsd	%xmm7, %xmm5
 8211 81af F2450F58 		addsd	%xmm9, %xmm13
 8211      E9
 8212 81b4 66440F28 		movapd	%xmm6, %xmm10
 8212      D6
 8213 81b9 66440F28 		movapd	%xmm1, %xmm14
 8213      F1
 8214 81be F20F59CF 		mulsd	%xmm7, %xmm1
 8215 81c2 F2440F59 		mulsd	%xmm4, %xmm10
 8215      D4
 8216 81c7 66440F28 		movapd	%xmm6, %xmm12
 8216      E6
 8217 81cc F20F59DE 		mulsd	%xmm6, %xmm3
GAS LISTING /tmp/cce5yULP.s 			page 223


 8218 81d0 F2410F58 		addsd	%xmm11, %xmm5
 8218      EB
 8219 81d5 488B8D40 		movq	-3776(%rbp), %rcx
 8219      F1FFFF
 8220 81dc F2440F59 		mulsd	%xmm7, %xmm13
 8220      EF
 8221 81e1 83856CF1 		addl	$1, -3732(%rbp)
 8221      FFFF01
 8222 81e8 F2440F11 		movsd	%xmm11, 32(%rax)
 8222      5820
 8223 81ee F2450F59 		mulsd	%xmm8, %xmm12
 8223      E0
 8224 81f3 8BB56CF1 		movl	-3732(%rbp), %esi
 8224      FFFF
 8225 81f9 4883C028 		addq	$40, %rax
 8226 81fd F20F1095 		movsd	-3672(%rbp), %xmm2
 8226      A8F1FFFF 
 8227 8205 F2410F58 		addsd	%xmm10, %xmm1
 8227      CA
 8228 820a F2440F11 		movsd	%xmm10, -24(%rax)
 8228      50E8
 8229 8210 4883C228 		addq	$40, %rdx
 8230 8214 4883C128 		addq	$40, %rcx
 8231 8218 F2410F58 		addsd	%xmm13, %xmm3
 8231      DD
 8232 821d F2440F10 		movsd	-1424(%rbp), %xmm13
 8232      AD70FAFF 
 8232      FF
 8233 8226 F2440F11 		movsd	%xmm12, -16(%rax)
 8233      60F0
 8234 822c 48838558 		addq	$40, -3752(%rbp)
 8234      F1FFFF28 
 8235 8234 F2410F58 		addsd	%xmm13, %xmm4
 8235      E5
 8236 8239 660F5715 		xorpd	.LC17(%rip), %xmm2
 8236      00000000 
 8237 8241 F2450F58 		addsd	%xmm13, %xmm14
 8237      F5
 8238 8246 48898550 		movq	%rax, -3760(%rbp)
 8238      F1FFFF
 8239 824d F20F59E6 		mulsd	%xmm6, %xmm4
 8240 8251 F2440F59 		mulsd	%xmm7, %xmm14
 8240      F7
 8241 8256 F20F59DA 		mulsd	%xmm2, %xmm3
 8242 825a F20F59EA 		mulsd	%xmm2, %xmm5
 8243 825e F20F59CA 		mulsd	%xmm2, %xmm1
 8244 8262 F2410F58 		addsd	%xmm14, %xmm4
 8244      E6
 8245 8267 F2440F10 		movsd	-1416(%rbp), %xmm14
 8245      B578FAFF 
 8245      FF
 8246 8270 F20F589D 		addsd	-2904(%rbp), %xmm3
 8246      A8F4FFFF 
 8247 8278 F2450F58 		addsd	%xmm14, %xmm8
 8247      C6
 8248 827d F20F116A 		movsd	%xmm5, -32(%rdx)
 8248      E0
GAS LISTING /tmp/cce5yULP.s 			page 224


 8249 8282 F2440F58 		addsd	%xmm0, %xmm14
 8249      F0
 8250 8287 F20F59C7 		mulsd	%xmm7, %xmm0
 8251 828b F20F114A 		movsd	%xmm1, -24(%rdx)
 8251      E8
 8252 8290 F20F59E2 		mulsd	%xmm2, %xmm4
 8253 8294 F2440F59 		mulsd	%xmm6, %xmm8
 8253      C6
 8254 8299 F2440F59 		mulsd	%xmm7, %xmm14
 8254      F7
 8255 829e F2410F58 		addsd	%xmm12, %xmm0
 8255      C4
 8256 82a3 F20F119D 		movsd	%xmm3, -2904(%rbp)
 8256      A8F4FFFF 
 8257 82ab F20F58A5 		addsd	-2896(%rbp), %xmm4
 8257      B0F4FFFF 
 8258 82b3 F2450F58 		addsd	%xmm14, %xmm8
 8258      C6
 8259 82b8 F20F11A5 		movsd	%xmm4, -2896(%rbp)
 8259      B0F4FFFF 
 8260 82c0 F2440F59 		mulsd	%xmm2, %xmm8
 8260      C2
 8261 82c5 F20F59D0 		mulsd	%xmm0, %xmm2
 8262 82c9 660F28C6 		movapd	%xmm6, %xmm0
 8263 82cd F2410F59 		mulsd	%xmm13, %xmm6
 8263      F5
 8264 82d2 F2410F59 		mulsd	%xmm9, %xmm0
 8264      C1
 8265 82d7 F2440F59 		mulsd	%xmm7, %xmm9
 8265      CF
 8266 82dc F2440F58 		addsd	-2888(%rbp), %xmm8
 8266      85B8F4FF 
 8266      FF
 8267 82e5 F2410F59 		mulsd	%xmm13, %xmm7
 8267      FD
 8268 82ea F20F1152 		movsd	%xmm2, -16(%rdx)
 8268      F0
 8269 82ef 48899560 		movq	%rdx, -3744(%rbp)
 8269      F1FFFF
 8270 82f6 F2440F58 		addsd	%xmm0, %xmm9
 8270      C8
 8271 82fb F20F58F7 		addsd	%xmm7, %xmm6
 8272 82ff F2440F11 		movsd	%xmm8, -2888(%rbp)
 8272      85B8F4FF 
 8272      FF
 8273 8308 F2440F11 		movsd	%xmm9, -32(%rcx)
 8273      49E0
 8274 830e F20F1171 		movsd	%xmm6, -24(%rcx)
 8274      E8
 8275 8313 48898D40 		movq	%rcx, -3776(%rbp)
 8275      F1FFFF
 8276 831a 48838548 		addq	$40, -3768(%rbp)
 8276      F1FFFF28 
 8277 8322 83FE04   		cmpl	$4, %esi
 8278 8325 0F85F2F2 		jne	.L1534
 8278      FFFF
 8279 832b 448B8D34 		movl	-3788(%rbp), %r9d
GAS LISTING /tmp/cce5yULP.s 			page 225


 8279      F1FFFF
 8280 8332 4585C9   		testl	%r9d, %r9d
 8281 8335 0F84220D 		je	.L1940
 8281      0000
 8282 833b 83BD34F1 		cmpl	$1, -3788(%rbp)
 8282      FFFF01
 8283 8342 0F848D0C 		je	.L1941
 8283      0000
 8284 8348 F20F1085 		movsd	-2880(%rbp), %xmm0
 8284      C0F4FFFF 
 8285 8350 83BD34F1 		cmpl	$2, -3788(%rbp)
 8285      FFFF02
 8286 8357 4C89EE   		movq	%r13, %rsi
 8287 835a 488B8528 		movq	-3800(%rbp), %rax
 8287      F1FFFF
 8288 8361 F20F119D 		movsd	%xmm3, -3048(%rbp)
 8288      18F4FFFF 
 8289 8369 F20F11A5 		movsd	%xmm4, -3040(%rbp)
 8289      20F4FFFF 
 8290 8371 F2440F11 		movsd	%xmm8, -3032(%rbp)
 8290      8528F4FF 
 8290      FF
 8291 837a F20F1185 		movsd	%xmm0, -3024(%rbp)
 8291      30F4FFFF 
 8292 8382 F20F1068 		movsd	8(%rax), %xmm5
 8292      08
 8293 8387 F20F1048 		movsd	16(%rax), %xmm1
 8293      10
 8294 838c F20F1040 		movsd	24(%rax), %xmm0
 8294      18
 8295 8391 488B8518 		movq	-3816(%rbp), %rax
 8295      F1FFFF
 8296 8398 0F84D207 		je	.L1942
 8296      0000
 8297 839e 4C89EA   		movq	%r13, %rdx
 8298 83a1 4C89E9   		movq	%r13, %rcx
 8299 83a4 48037018 		addq	24(%rax), %rsi
 8300 83a8 48035010 		addq	16(%rax), %rdx
 8301 83ac 48034808 		addq	8(%rax), %rcx
 8302              	.L1539:
 8303 83b0 4D89E9   		movq	%r13, %r9
 8304 83b3 4D038FD8 		addq	216(%r15), %r9
 8304      000000
 8305 83ba 4C89E8   		movq	%r13, %rax
 8306 83bd 660F28F3 		movapd	%xmm3, %xmm6
 8307 83c1 48038528 		addq	-2776(%rbp), %rax
 8307      F5FFFF
 8308 83c8 F2440F10 		movsd	-3824(%rbp), %xmm11
 8308      9D10F1FF 
 8308      FF
 8309 83d1 488BBD00 		movq	-3840(%rbp), %rdi
 8309      F1FFFF
 8310 83d8 4D89E8   		movq	%r13, %r8
 8311 83db 4C038530 		addq	-2768(%rbp), %r8
 8311      F5FFFF
 8312 83e2 448B9D34 		movl	-3788(%rbp), %r11d
 8312      F1FFFF
GAS LISTING /tmp/cce5yULP.s 			page 226


 8313 83e9 F2410F10 		movsd	(%r9), %xmm7
 8313      39
 8314 83ee F20F58DD 		addsd	%xmm5, %xmm3
 8315 83f2 F20F1010 		movsd	(%rax), %xmm2
 8316 83f6 488B7F08 		movq	8(%rdi), %rdi
 8317 83fa F20F5EF7 		divsd	%xmm7, %xmm6
 8318 83fe 458D53FF 		leal	-1(%r11), %r10d
 8319 8402 F20F5EE7 		divsd	%xmm7, %xmm4
 8320 8406 F20F58F5 		addsd	%xmm5, %xmm6
 8321 840a F2440F5E 		divsd	%xmm7, %xmm8
 8321      C7
 8322 840f F20F58E1 		addsd	%xmm1, %xmm4
 8323 8413 F2410F59 		mulsd	%xmm11, %xmm6
 8323      F3
 8324 8418 F2410F10 		movsd	(%r8), %xmm1
 8324      08
 8325 841d F2440F58 		addsd	%xmm0, %xmm8
 8325      C0
 8326 8422 F20F59CA 		mulsd	%xmm2, %xmm1
 8327 8426 F20F58F2 		addsd	%xmm2, %xmm6
 8328 842a 66410F28 		movapd	%xmm8, %xmm0
 8328      C0
 8329 842f F20F11B5 		movsd	%xmm6, -3688(%rbp)
 8329      98F1FFFF 
 8330 8437 F2420F10 		movsd	(%rdi,%r13), %xmm6
 8330      342F
 8331 843d 488BBDD8 		movq	-2856(%rbp), %rdi
 8331      F4FFFF
 8332 8444 F2410F59 		mulsd	%xmm11, %xmm0
 8332      C3
 8333 8449 F20F59F7 		mulsd	%xmm7, %xmm6
 8334 844d F2420F59 		mulsd	(%rdi,%r13), %xmm6
 8334      342F
 8335 8453 4C89EF   		movq	%r13, %rdi
 8336 8456 4803BD38 		addq	-2760(%rbp), %rdi
 8336      F5FFFF
 8337 845d 4183FA02 		cmpl	$2, %r10d
 8338 8461 F20F5917 		mulsd	(%rdi), %xmm2
 8339 8465 F20F58E6 		addsd	%xmm6, %xmm4
 8340 8469 F2410F59 		mulsd	%xmm11, %xmm4
 8340      E3
 8341 846e 66440F28 		movapd	%xmm2, %xmm8
 8341      C2
 8342 8473 F2440F58 		addsd	%xmm0, %xmm8
 8342      C0
 8343 8478 F20F58E1 		addsd	%xmm1, %xmm4
 8344 847c 0F86F605 		jbe	.L1843
 8344      0000
 8345 8482 F20F10AD 		movsd	-3832(%rbp), %xmm5
 8345      08F1FFFF 
 8346 848a F20F59DD 		mulsd	%xmm5, %xmm3
 8347 848e F20F1119 		movsd	%xmm3, (%rcx)
 8348 8492 488B8D28 		movq	-3800(%rbp), %rcx
 8348      F1FFFF
 8349 8499 F20F1085 		movsd	-3040(%rbp), %xmm0
 8349      20F4FFFF 
 8350 84a1 F20F5841 		addsd	16(%rcx), %xmm0
GAS LISTING /tmp/cce5yULP.s 			page 227


 8350      10
 8351 84a6 F20F59C5 		mulsd	%xmm5, %xmm0
 8352 84aa F20F1102 		movsd	%xmm0, (%rdx)
 8353 84ae F20F1085 		movsd	-3032(%rbp), %xmm0
 8353      28F4FFFF 
 8354 84b6 F20F5841 		addsd	32(%rcx), %xmm0
 8354      20
 8355 84bb F20F59C5 		mulsd	%xmm5, %xmm0
 8356 84bf F20F1106 		movsd	%xmm0, (%rsi)
 8357 84c3 F20F1008 		movsd	(%rax), %xmm1
 8358              	.L1544:
 8359 84c7 F2440F5E 		divsd	%xmm1, %xmm8
 8359      C1
 8360 84cc 8BB568F1 		movl	-3736(%rbp), %esi
 8360      FFFF
 8361 84d2 488DBDD0 		leaq	-2864(%rbp), %rdi
 8361      F4FFFF
 8362 84d9 F20F5EE1 		divsd	%xmm1, %xmm4
 8363 84dd 66410F28 		movapd	%xmm8, %xmm2
 8363      D0
 8364 84e2 F2440F11 		movsd	%xmm8, -3704(%rbp)
 8364      8588F1FF 
 8364      FF
 8365 84eb 660FEFDB 		pxor	%xmm3, %xmm3
 8366 84ef F20F1085 		movsd	-3688(%rbp), %xmm0
 8366      98F1FFFF 
 8367 84f7 660F28CC 		movapd	%xmm4, %xmm1
 8368 84fb F20F11A5 		movsd	%xmm4, -3696(%rbp)
 8368      90F1FFFF 
 8369 8503 E8000000 		call	_ZN8Solution6updateEddddi
 8369      00
 8370 8508 83BD34F1 		cmpl	$3, -3788(%rbp)
 8370      FFFF03
 8371 850f 0F84CF06 		je	.L1943
 8371      0000
 8372              	.L1857:
 8373 8515 418B5710 		movl	16(%r15), %edx
 8374 8519 488B8D38 		movq	-3784(%rbp), %rcx
 8374      F1FFFF
 8375              	.L1531:
 8376 8520 89C8     		movl	%ecx, %eax
 8377 8522 48838528 		addq	$40, -3800(%rbp)
 8377      F1FFFF28 
 8378 852a 4883C101 		addq	$1, %rcx
 8379 852e 83C001   		addl	$1, %eax
 8380 8531 48898D38 		movq	%rcx, -3784(%rbp)
 8380      F1FFFF
 8381 8538 39D0     		cmpl	%edx, %eax
 8382 853a 0F8C00F0 		jl	.L1550
 8382      FFFF
 8383              	.L1530:
 8384 8540 838534F1 		addl	$1, -3788(%rbp)
 8384      FFFF01
 8385 8547 8B8534F1 		movl	-3788(%rbp), %eax
 8385      FFFF
 8386 854d 83F804   		cmpl	$4, %eax
 8387 8550 0F857DEF 		jne	.L1551
GAS LISTING /tmp/cce5yULP.s 			page 228


 8387      FFFF
 8388 8556 8BB530F1 		movl	-3792(%rbp), %esi
 8388      FFFF
 8389 855c 488DBD70 		leaq	-2704(%rbp), %rdi
 8389      F5FFFF
 8390 8563 E8000000 		call	_ZN9residuals16ansys_5_iter_rmsEi
 8390      00
 8391 8568 8B7528   		movl	40(%rbp), %esi
 8392 856b 85F6     		testl	%esi, %esi
 8393 856d 0F854A01 		jne	.L1557
 8393      0000
 8394 8573 F20F10BD 		movsd	-2680(%rbp), %xmm7
 8394      88F5FFFF 
 8395 857b 488DBD70 		leaq	-2704(%rbp), %rdi
 8395      F5FFFF
 8396 8582 F20F10AD 		movsd	-2688(%rbp), %xmm5
 8396      80F5FFFF 
 8397 858a F20F10A5 		movsd	-2696(%rbp), %xmm4
 8397      78F5FFFF 
 8398 8592 F20F11BD 		movsd	%xmm7, -3688(%rbp)
 8398      98F1FFFF 
 8399 859a F20F11AD 		movsd	%xmm5, -3696(%rbp)
 8399      90F1FFFF 
 8400 85a2 F20F11A5 		movsd	%xmm4, -3704(%rbp)
 8400      88F1FFFF 
 8401 85aa E8000000 		call	_ZN9residuals9max_errorEv
 8401      00
 8402 85af 8BB530F1 		movl	-3792(%rbp), %esi
 8402      FFFF
 8403 85b5 488DBDC0 		leaq	-1088(%rbp), %rdi
 8403      FBFFFF
 8404 85bc F20F1185 		movsd	%xmm0, -3712(%rbp)
 8404      80F1FFFF 
 8405 85c4 E8000000 		call	_ZNSolsEi
 8405      00
 8406 85c9 BA020000 		movl	$2, %edx
 8406      00
 8407 85ce BE000000 		movl	$.LC35, %esi
 8407      00
 8408 85d3 4889C7   		movq	%rax, %rdi
 8409 85d6 4989C5   		movq	%rax, %r13
 8410 85d9 E8000000 		call	_ZSt16__ostream_insertIcSt11char_traitsIcEERSt13basic_ostreamIT_T0_ES6_PKS3_l
 8410      00
 8411 85de F20F1085 		movsd	-3712(%rbp), %xmm0
 8411      80F1FFFF 
 8412 85e6 4C89EF   		movq	%r13, %rdi
 8413 85e9 E8000000 		call	_ZNSo9_M_insertIdEERSoT_
 8413      00
 8414 85ee BA020000 		movl	$2, %edx
 8414      00
 8415 85f3 BE000000 		movl	$.LC35, %esi
 8415      00
 8416 85f8 4889C7   		movq	%rax, %rdi
 8417 85fb 4989C5   		movq	%rax, %r13
 8418 85fe E8000000 		call	_ZSt16__ostream_insertIcSt11char_traitsIcEERSt13basic_ostreamIT_T0_ES6_PKS3_l
 8418      00
 8419 8603 F20F1085 		movsd	-3704(%rbp), %xmm0
GAS LISTING /tmp/cce5yULP.s 			page 229


 8419      88F1FFFF 
 8420 860b 4C89EF   		movq	%r13, %rdi
 8421 860e E8000000 		call	_ZNSo9_M_insertIdEERSoT_
 8421      00
 8422 8613 BA020000 		movl	$2, %edx
 8422      00
 8423 8618 BE000000 		movl	$.LC35, %esi
 8423      00
 8424 861d 4889C7   		movq	%rax, %rdi
 8425 8620 4989C5   		movq	%rax, %r13
 8426 8623 E8000000 		call	_ZSt16__ostream_insertIcSt11char_traitsIcEERSt13basic_ostreamIT_T0_ES6_PKS3_l
 8426      00
 8427 8628 F20F1085 		movsd	-3696(%rbp), %xmm0
 8427      90F1FFFF 
 8428 8630 4C89EF   		movq	%r13, %rdi
 8429 8633 E8000000 		call	_ZNSo9_M_insertIdEERSoT_
 8429      00
 8430 8638 BA020000 		movl	$2, %edx
 8430      00
 8431 863d BE000000 		movl	$.LC35, %esi
 8431      00
 8432 8642 4889C7   		movq	%rax, %rdi
 8433 8645 4989C5   		movq	%rax, %r13
 8434 8648 E8000000 		call	_ZSt16__ostream_insertIcSt11char_traitsIcEERSt13basic_ostreamIT_T0_ES6_PKS3_l
 8434      00
 8435 864d F20F1085 		movsd	-3688(%rbp), %xmm0
 8435      98F1FFFF 
 8436 8655 4C89EF   		movq	%r13, %rdi
 8437 8658 E8000000 		call	_ZNSo9_M_insertIdEERSoT_
 8437      00
 8438 865d BA0E0000 		movl	$14, %edx
 8438      00
 8439 8662 BE000000 		movl	$.LC36, %esi
 8439      00
 8440 8667 4889C7   		movq	%rax, %rdi
 8441 866a 4989C5   		movq	%rax, %r13
 8442 866d E8000000 		call	_ZSt16__ostream_insertIcSt11char_traitsIcEERSt13basic_ostreamIT_T0_ES6_PKS3_l
 8442      00
 8443 8672 8B7538   		movl	56(%rbp), %esi
 8444 8675 4C89EF   		movq	%r13, %rdi
 8445 8678 E8000000 		call	_ZNSolsEi
 8445      00
 8446 867d 4989C5   		movq	%rax, %r13
 8447 8680 488B00   		movq	(%rax), %rax
 8448 8683 488B40E8 		movq	-24(%rax), %rax
 8449 8687 498B8405 		movq	240(%r13,%rax), %rax
 8449      F0000000 
 8450 868f 4885C0   		testq	%rax, %rax
 8451 8692 48898598 		movq	%rax, -3688(%rbp)
 8451      F1FFFF
 8452 8699 0F844005 		je	.L1944
 8452      0000
 8453 869f 80783800 		cmpb	$0, 56(%rax)
 8454 86a3 0F84FE04 		je	.L1555
 8454      0000
 8455 86a9 0FBE7043 		movsbl	67(%rax), %esi
 8456              	.L1556:
GAS LISTING /tmp/cce5yULP.s 			page 230


 8457 86ad 4C89EF   		movq	%r13, %rdi
 8458 86b0 E8000000 		call	_ZNSo3putEc
 8458      00
 8459 86b5 4889C7   		movq	%rax, %rdi
 8460 86b8 E8000000 		call	_ZNSo5flushEv
 8460      00
 8461              	.L1557:
 8462 86bd 488DB5D0 		leaq	-2864(%rbp), %rsi
 8462      F4FFFF
 8463 86c4 4C89F7   		movq	%r14, %rdi
 8464 86c7 E8000000 		call	_ZN8Solution5cloneERS_
 8464      00
 8465 86cc 660FEFC0 		pxor	%xmm0, %xmm0
 8466 86d0 BA070000 		movl	$7, %edx
 8466      00
 8467 86d5 BE000000 		movl	$.LC37, %esi
 8467      00
 8468 86da BF000000 		movl	$_ZSt4cout, %edi
 8468      00
 8469 86df F20F2A85 		cvtsi2sd	-3792(%rbp), %xmm0
 8469      30F1FFFF 
 8470 86e7 F20F5985 		mulsd	-3848(%rbp), %xmm0
 8470      F8F0FFFF 
 8471 86ef F20F1185 		movsd	%xmm0, -3688(%rbp)
 8471      98F1FFFF 
 8472 86f7 E8000000 		call	_ZSt16__ostream_insertIcSt11char_traitsIcEERSt13basic_ostreamIT_T0_ES6_PKS3_l
 8472      00
 8473 86fc F20F1085 		movsd	-3688(%rbp), %xmm0
 8473      98F1FFFF 
 8474 8704 BF000000 		movl	$_ZSt4cout, %edi
 8474      00
 8475 8709 E8000000 		call	_ZNSo9_M_insertIdEERSoT_
 8475      00
 8476 870e 4989C5   		movq	%rax, %r13
 8477 8711 488B00   		movq	(%rax), %rax
 8478 8714 488B40E8 		movq	-24(%rax), %rax
 8479 8718 498B8405 		movq	240(%r13,%rax), %rax
 8479      F0000000 
 8480 8720 4885C0   		testq	%rax, %rax
 8481 8723 48898598 		movq	%rax, -3688(%rbp)
 8481      F1FFFF
 8482 872a 0F84710A 		je	.L1945
 8482      0000
 8483 8730 80783800 		cmpb	$0, 56(%rax)
 8484 8734 0F84FE03 		je	.L1559
 8484      0000
 8485 873a 0FBE7043 		movsbl	67(%rax), %esi
 8486              	.L1560:
 8487 873e 4C89EF   		movq	%r13, %rdi
 8488 8741 E8000000 		call	_ZNSo3putEc
 8488      00
 8489 8746 4889C7   		movq	%rax, %rdi
 8490 8749 E8000000 		call	_ZNSo5flushEv
 8490      00
 8491 874e 488DBD70 		leaq	-2704(%rbp), %rdi
 8491      F5FFFF
 8492 8755 E8000000 		call	_ZN9residuals9max_errorEv
GAS LISTING /tmp/cce5yULP.s 			page 231


 8492      00
 8493 875a F20F10BD 		movsd	-3872(%rbp), %xmm7
 8493      E0F0FFFF 
 8494 8762 660F2EF8 		ucomisd	%xmm0, %xmm7
 8495 8766 0F87EC04 		ja	.L1874
 8495      0000
 8496 876c 418B8424 		movl	128(%r12), %eax
 8496      80000000 
 8497 8774 3B4528   		cmpl	40(%rbp), %eax
 8498 8777 7E14     		jle	.L1563
 8499 8779 8B5538   		movl	56(%rbp), %edx
 8500 877c 85D2     		testl	%edx, %edx
 8501 877e 750D     		jne	.L1563
 8502 8780 83BD30F1 		cmpl	$3, -3792(%rbp)
 8502      FFFF03
 8503 8787 0F8F540A 		jg	.L1946
 8503      0000
 8504              	.L1563:
 8505 878d 838530F1 		addl	$1, -3792(%rbp)
 8505      FFFF01
 8506 8794 8B8530F1 		movl	-3792(%rbp), %eax
 8506      FFFF
 8507 879a 3B85DCF0 		cmpl	-3876(%rbp), %eax
 8507      FFFF
 8508 87a0 0F8C14ED 		jl	.L1597
 8508      FFFF
 8509              	.L1596:
 8510 87a6 488D85C0 		leaq	-1088(%rbp), %rax
 8510      FBFFFF
 8511 87ad 488D7808 		leaq	8(%rax), %rdi
 8512 87b1 E8000000 		call	_ZNSt13basic_filebufIcSt11char_traitsIcEE5closeEv
 8512      00
 8513              	.LEHE195:
 8514 87b6 4885C0   		testq	%rax, %rax
 8515 87b9 0F843B10 		je	.L1947
 8515      0000
 8516              	.L1601:
 8517 87bf 488B85E8 		movq	-3864(%rbp), %rax
 8517      F0FFFF
 8518 87c6 488B95F0 		movq	-3856(%rbp), %rdx
 8518      F0FFFF
 8519 87cd 488B00   		movq	(%rax), %rax
 8520 87d0 488D0480 		leaq	(%rax,%rax,4), %rax
 8521 87d4 488D1CC2 		leaq	(%rdx,%rax,8), %rbx
 8522 87d8 4839DA   		cmpq	%rbx, %rdx
 8523 87db 7415     		je	.L1599
 8524              	.L1603:
 8525 87dd 4883EB28 		subq	$40, %rbx
 8526 87e1 488B03   		movq	(%rbx), %rax
 8527 87e4 4889DF   		movq	%rbx, %rdi
 8528 87e7 FF10     		call	*(%rax)
 8529 87e9 48399DF0 		cmpq	%rbx, -3856(%rbp)
 8529      F0FFFF
 8530 87f0 75EB     		jne	.L1603
 8531              	.L1599:
 8532 87f2 488BBDE8 		movq	-3864(%rbp), %rdi
 8532      F0FFFF
GAS LISTING /tmp/cce5yULP.s 			page 232


 8533 87f9 E8000000 		call	_ZdaPv
 8533      00
 8534 87fe 488D8550 		leaq	-1712(%rbp), %rax
 8534      F9FFFF
 8535 8805 488D98A0 		leaq	160(%rax), %rbx
 8535      000000
 8536              	.L1602:
 8537 880c 4883EB28 		subq	$40, %rbx
 8538 8810 488B03   		movq	(%rbx), %rax
 8539 8813 4889DF   		movq	%rbx, %rdi
 8540 8816 FF10     		call	*(%rax)
 8541 8818 488D8550 		leaq	-1712(%rbp), %rax
 8541      F9FFFF
 8542 881f 4839C3   		cmpq	%rax, %rbx
 8543 8822 75E8     		jne	.L1602
 8544 8824 488D85B0 		leaq	-1872(%rbp), %rax
 8544      F8FFFF
 8545 882b 488D98A0 		leaq	160(%rax), %rbx
 8545      000000
 8546              	.L1607:
 8547 8832 4883EB28 		subq	$40, %rbx
 8548 8836 488B03   		movq	(%rbx), %rax
 8549 8839 4889DF   		movq	%rbx, %rdi
 8550 883c FF10     		call	*(%rax)
 8551 883e 488D85B0 		leaq	-1872(%rbp), %rax
 8551      F8FFFF
 8552 8845 4839C3   		cmpq	%rax, %rbx
 8553 8848 75E8     		jne	.L1607
 8554 884a 488D8510 		leaq	-2032(%rbp), %rax
 8554      F8FFFF
 8555 8851 488D98A0 		leaq	160(%rax), %rbx
 8555      000000
 8556              	.L1611:
 8557 8858 4883EB28 		subq	$40, %rbx
 8558 885c 488B03   		movq	(%rbx), %rax
 8559 885f 4889DF   		movq	%rbx, %rdi
 8560 8862 FF10     		call	*(%rax)
 8561 8864 488D8510 		leaq	-2032(%rbp), %rax
 8561      F8FFFF
 8562 886b 4839C3   		cmpq	%rax, %rbx
 8563 886e 75E8     		jne	.L1611
 8564 8870 488D8570 		leaq	-2192(%rbp), %rax
 8564      F7FFFF
 8565 8877 488D98A0 		leaq	160(%rax), %rbx
 8565      000000
 8566              	.L1615:
 8567 887e 4883EB28 		subq	$40, %rbx
 8568 8882 488B03   		movq	(%rbx), %rax
 8569 8885 4889DF   		movq	%rbx, %rdi
 8570 8888 FF10     		call	*(%rax)
 8571 888a 488D8570 		leaq	-2192(%rbp), %rax
 8571      F7FFFF
 8572 8891 4839C3   		cmpq	%rax, %rbx
 8573 8894 75E8     		jne	.L1615
 8574 8896 488D85D0 		leaq	-2352(%rbp), %rax
 8574      F6FFFF
 8575 889d 488D98A0 		leaq	160(%rax), %rbx
GAS LISTING /tmp/cce5yULP.s 			page 233


 8575      000000
 8576              	.L1619:
 8577 88a4 4883EB28 		subq	$40, %rbx
 8578 88a8 488B03   		movq	(%rbx), %rax
 8579 88ab 4889DF   		movq	%rbx, %rdi
 8580 88ae FF10     		call	*(%rax)
 8581 88b0 488D85D0 		leaq	-2352(%rbp), %rax
 8581      F6FFFF
 8582 88b7 4839C3   		cmpq	%rax, %rbx
 8583 88ba 75E8     		jne	.L1619
 8584 88bc 488DBDA0 		leaq	-2912(%rbp), %rdi
 8584      F4FFFF
 8585 88c3 E8000000 		call	_ZN8flux_varD1Ev
 8585      00
 8586 88c8 488DBD70 		leaq	-2960(%rbp), %rdi
 8586      F4FFFF
 8587 88cf E8000000 		call	_ZN8flux_varD1Ev
 8587      00
 8588 88d4 488DBD40 		leaq	-3008(%rbp), %rdi
 8588      F4FFFF
 8589 88db E8000000 		call	_ZN8flux_varD1Ev
 8589      00
 8590 88e0 488DBD70 		leaq	-2704(%rbp), %rdi
 8590      F5FFFF
 8591 88e7 E8000000 		call	_ZN9residualsD1Ev
 8591      00
 8592 88ec 488D85C0 		leaq	-576(%rbp), %rax
 8592      FDFFFF
 8593 88f3 48C785C0 		movq	$_ZTVSt14basic_ofstreamIcSt11char_traitsIcEE+24, -576(%rbp)
 8593      FDFFFF00 
 8593      000000
 8594 88fe 48C785B8 		movq	$_ZTVSt14basic_ofstreamIcSt11char_traitsIcEE+64, -328(%rbp)
 8594      FEFFFF00 
 8594      000000
 8595 8909 48C785C8 		movq	$_ZTVSt13basic_filebufIcSt11char_traitsIcEE+16, -568(%rbp)
 8595      FDFFFF00 
 8595      000000
 8596 8914 488D7808 		leaq	8(%rax), %rdi
 8597 8918 E8000000 		call	_ZNSt13basic_filebufIcSt11char_traitsIcEE5closeEv
 8597      00
 8598 891d 488D85C0 		leaq	-576(%rbp), %rax
 8598      FDFFFF
 8599 8924 488D7870 		leaq	112(%rax), %rdi
 8600 8928 E8000000 		call	_ZNSt12__basic_fileIcED1Ev
 8600      00
 8601 892d 488D85C0 		leaq	-576(%rbp), %rax
 8601      FDFFFF
 8602 8934 48C785C8 		movq	$_ZTVSt15basic_streambufIcSt11char_traitsIcEE+16, -568(%rbp)
 8602      FDFFFF00 
 8602      000000
 8603 893f 488D7840 		leaq	64(%rax), %rdi
 8604 8943 E8000000 		call	_ZNSt6localeD1Ev
 8604      00
 8605 8948 488B0500 		movq	_ZTTSt14basic_ofstreamIcSt11char_traitsIcEE+8(%rip), %rax
 8605      000000
 8606 894f 488B1500 		movq	_ZTTSt14basic_ofstreamIcSt11char_traitsIcEE+16(%rip), %rdx
 8606      000000
GAS LISTING /tmp/cce5yULP.s 			page 234


 8607 8956 488B40E8 		movq	-24(%rax), %rax
 8608 895a 48899405 		movq	%rdx, -576(%rbp,%rax)
 8608      C0FDFFFF 
 8609 8962 488D85C0 		leaq	-576(%rbp), %rax
 8609      FDFFFF
 8610 8969 48C785B8 		movq	$_ZTVSt9basic_iosIcSt11char_traitsIcEE+16, -328(%rbp)
 8610      FEFFFF00 
 8610      000000
 8611 8974 488DB8F8 		leaq	248(%rax), %rdi
 8611      000000
 8612 897b E8000000 		call	_ZNSt8ios_baseD2Ev
 8612      00
 8613 8980 488BBD00 		movq	-2560(%rbp), %rdi
 8613      F6FFFF
 8614 8987 488D8500 		leaq	-2560(%rbp), %rax
 8614      F6FFFF
 8615 898e 4883C010 		addq	$16, %rax
 8616 8992 4839C7   		cmpq	%rax, %rdi
 8617 8995 7405     		je	.L1622
 8618 8997 E8000000 		call	_ZdlPv
 8618      00
 8619              	.L1622:
 8620 899c 488D85C0 		leaq	-1088(%rbp), %rax
 8620      FBFFFF
 8621 89a3 48C785C0 		movq	$_ZTVSt14basic_ofstreamIcSt11char_traitsIcEE+24, -1088(%rbp)
 8621      FBFFFF00 
 8621      000000
 8622 89ae 48C785B8 		movq	$_ZTVSt14basic_ofstreamIcSt11char_traitsIcEE+64, -840(%rbp)
 8622      FCFFFF00 
 8622      000000
 8623 89b9 48C785C8 		movq	$_ZTVSt13basic_filebufIcSt11char_traitsIcEE+16, -1080(%rbp)
 8623      FBFFFF00 
 8623      000000
 8624 89c4 488D7808 		leaq	8(%rax), %rdi
 8625 89c8 E8000000 		call	_ZNSt13basic_filebufIcSt11char_traitsIcEE5closeEv
 8625      00
 8626 89cd E9600400 		jmp	.L1869
 8626      00
 8627              	.L1694:
 8628 89d2 4889C3   		movq	%rax, %rbx
 8629              	.L1646:
 8630 89d5 488DBD70 		leaq	-2960(%rbp), %rdi
 8630      F4FFFF
 8631 89dc E8000000 		call	_ZN8flux_varD1Ev
 8631      00
 8632              	.L1647:
 8633 89e1 488DBD40 		leaq	-3008(%rbp), %rdi
 8633      F4FFFF
 8634 89e8 E8000000 		call	_ZN8flux_varD1Ev
 8634      00
 8635              	.L1648:
 8636 89ed 488DBD70 		leaq	-2704(%rbp), %rdi
 8636      F5FFFF
 8637 89f4 E8000000 		call	_ZN9residualsD1Ev
 8637      00
 8638 89f9 E976E4FF 		jmp	.L1433
 8638      FF
GAS LISTING /tmp/cce5yULP.s 			page 235


 8639              	.L1692:
 8640 89fe 4889C3   		movq	%rax, %rbx
 8641 8a01 EBEA     		jmp	.L1648
 8642              	.L1691:
 8643 8a03 E969E4FF 		jmp	.L1864
 8643      FF
 8644              	.L1693:
 8645 8a08 4889C3   		movq	%rax, %rbx
 8646 8a0b EBD4     		jmp	.L1647
 8647              	.L1696:
 8648 8a0d 4883BDF0 		cmpq	$0, -3856(%rbp)
 8648      F0FFFF00 
 8649 8a15 4889C3   		movq	%rax, %rbx
 8650 8a18 743D     		je	.L1628
 8651 8a1a 488B8598 		movq	-3688(%rbp), %rax
 8651      F1FFFF
 8652 8a21 488B95F0 		movq	-3856(%rbp), %rdx
 8652      F0FFFF
 8653 8a28 4C29E8   		subq	%r13, %rax
 8654 8a2b 488D0480 		leaq	(%rax,%rax,4), %rax
 8655 8a2f 488D44C2 		leaq	-40(%rdx,%rax,8), %rax
 8655      D8
 8656 8a34 4839C2   		cmpq	%rax, %rdx
 8657 8a37 741E     		je	.L1628
 8658 8a39 4989C6   		movq	%rax, %r14
 8659              	.L1629:
 8660 8a3c 4C89F0   		movq	%r14, %rax
 8661 8a3f 4883E828 		subq	$40, %rax
 8662 8a43 4989C6   		movq	%rax, %r14
 8663 8a46 488B00   		movq	(%rax), %rax
 8664 8a49 4C89F7   		movq	%r14, %rdi
 8665 8a4c FF10     		call	*(%rax)
 8666 8a4e 4C39B5F0 		cmpq	%r14, -3856(%rbp)
 8666      F0FFFF
 8667 8a55 75E5     		jne	.L1629
 8668              	.L1628:
 8669 8a57 488BBDE8 		movq	-3864(%rbp), %rdi
 8669      F0FFFF
 8670 8a5e E8000000 		call	_ZdaPv
 8670      00
 8671              	.L1627:
 8672 8a63 488DBDA0 		leaq	-2912(%rbp), %rdi
 8672      F4FFFF
 8673 8a6a E8000000 		call	_ZN8flux_varD1Ev
 8673      00
 8674 8a6f E961FFFF 		jmp	.L1646
 8674      FF
 8675              		.p2align 4,,10
 8676 8a74 0F1F4000 		.p2align 3
 8677              	.L1843:
 8678 8a78 F20F10BD 		movsd	-3832(%rbp), %xmm7
 8678      08F1FFFF 
 8679 8a80 4C8B9528 		movq	-3800(%rbp), %r10
 8679      F1FFFF
 8680 8a87 83BD34F1 		cmpl	$3, -3788(%rbp)
 8680      FFFF03
 8681 8a8e F20F59DF 		mulsd	%xmm7, %xmm3
GAS LISTING /tmp/cce5yULP.s 			page 236


 8682 8a92 F20F5819 		addsd	(%rcx), %xmm3
 8683 8a96 F20F1119 		movsd	%xmm3, (%rcx)
 8684 8a9a F20F1085 		movsd	-3040(%rbp), %xmm0
 8684      20F4FFFF 
 8685 8aa2 F2410F58 		addsd	16(%r10), %xmm0
 8685      4210
 8686 8aa8 F20F59C7 		mulsd	%xmm7, %xmm0
 8687 8aac F20F5802 		addsd	(%rdx), %xmm0
 8688 8ab0 F20F1102 		movsd	%xmm0, (%rdx)
 8689 8ab4 F20F1085 		movsd	-3032(%rbp), %xmm0
 8689      28F4FFFF 
 8690 8abc F2410F58 		addsd	32(%r10), %xmm0
 8690      4220
 8691 8ac2 F20F59C7 		mulsd	%xmm7, %xmm0
 8692 8ac6 F20F5806 		addsd	(%rsi), %xmm0
 8693 8aca F20F1106 		movsd	%xmm0, (%rsi)
 8694 8ace F20F1008 		movsd	(%rax), %xmm1
 8695 8ad2 0F85EFF9 		jne	.L1544
 8695      FFFF
 8696 8ad8 F2410F10 		movsd	(%r9), %xmm3
 8696      19
 8697 8add F20F1011 		movsd	(%rcx), %xmm2
 8698 8ae1 F20F10BD 		movsd	-3848(%rbp), %xmm7
 8698      F8F0FFFF 
 8699 8ae9 F20F5ED3 		divsd	%xmm3, %xmm2
 8700 8aed F20F5EC3 		divsd	%xmm3, %xmm0
 8701 8af1 F20F59D7 		mulsd	%xmm7, %xmm2
 8702 8af5 F2410F10 		movsd	(%r8), %xmm4
 8702      20
 8703 8afa F2440F10 		movsd	(%rdi), %xmm8
 8703      07
 8704 8aff F20F59E1 		mulsd	%xmm1, %xmm4
 8705 8b03 F20F58D1 		addsd	%xmm1, %xmm2
 8706 8b07 F2440F59 		mulsd	%xmm1, %xmm8
 8706      C1
 8707 8b0c F20F59C7 		mulsd	%xmm7, %xmm0
 8708 8b10 F20F1195 		movsd	%xmm2, -3688(%rbp)
 8708      98F1FFFF 
 8709 8b18 F20F1012 		movsd	(%rdx), %xmm2
 8710 8b1c F2440F58 		addsd	%xmm0, %xmm8
 8710      C0
 8711 8b21 F20F5ED3 		divsd	%xmm3, %xmm2
 8712 8b25 F20F59D7 		mulsd	%xmm7, %xmm2
 8713 8b29 F20F58E2 		addsd	%xmm2, %xmm4
 8714 8b2d E995F9FF 		jmp	.L1544
 8714      FF
 8715              		.p2align 4,,10
 8716 8b32 660F1F44 		.p2align 3
 8716      0000
 8717              	.L1559:
 8718 8b38 4889C7   		movq	%rax, %rdi
 8719              	.LEHB196:
 8720 8b3b E8000000 		call	_ZNKSt5ctypeIcE13_M_widen_initEv
 8720      00
 8721 8b40 488B8598 		movq	-3688(%rbp), %rax
 8721      F1FFFF
 8722 8b47 BE0A0000 		movl	$10, %esi
GAS LISTING /tmp/cce5yULP.s 			page 237


 8722      00
 8723 8b4c 488B00   		movq	(%rax), %rax
 8724 8b4f 488B4030 		movq	48(%rax), %rax
 8725 8b53 483D0000 		cmpq	$_ZNKSt5ctypeIcE8do_widenEc, %rax
 8725      0000
 8726 8b59 0F84DFFB 		je	.L1560
 8726      FFFF
 8727 8b5f 488BBD98 		movq	-3688(%rbp), %rdi
 8727      F1FFFF
 8728 8b66 FFD0     		call	*%rax
 8729 8b68 0FBEF0   		movsbl	%al, %esi
 8730 8b6b E9CEFBFF 		jmp	.L1560
 8730      FF
 8731              	.L1942:
 8732 8b70 F20F10BD 		movsd	-3848(%rbp), %xmm7
 8732      F8F0FFFF 
 8733 8b78 4C89EA   		movq	%r13, %rdx
 8734 8b7b 4C89E9   		movq	%r13, %rcx
 8735 8b7e 48037018 		addq	24(%rax), %rsi
 8736 8b82 48035010 		addq	16(%rax), %rdx
 8737 8b86 F20F11BD 		movsd	%xmm7, -3824(%rbp)
 8737      10F1FFFF 
 8738 8b8e 48034808 		addq	8(%rax), %rcx
 8739 8b92 F20F103D 		movsd	.LC47(%rip), %xmm7
 8739      00000000 
 8740 8b9a F20F11BD 		movsd	%xmm7, -3832(%rbp)
 8740      08F1FFFF 
 8741 8ba2 E909F8FF 		jmp	.L1539
 8741      FF
 8742              	.L1555:
 8743 8ba7 4889C7   		movq	%rax, %rdi
 8744 8baa E8000000 		call	_ZNKSt5ctypeIcE13_M_widen_initEv
 8744      00
 8745 8baf 488B8598 		movq	-3688(%rbp), %rax
 8745      F1FFFF
 8746 8bb6 BE0A0000 		movl	$10, %esi
 8746      00
 8747 8bbb 488B00   		movq	(%rax), %rax
 8748 8bbe 488B4030 		movq	48(%rax), %rax
 8749 8bc2 483D0000 		cmpq	$_ZNKSt5ctypeIcE8do_widenEc, %rax
 8749      0000
 8750 8bc8 0F84DFFA 		je	.L1556
 8750      FFFF
 8751 8bce 488BBD98 		movq	-3688(%rbp), %rdi
 8751      F1FFFF
 8752 8bd5 FFD0     		call	*%rax
 8753 8bd7 0FBEF0   		movsbl	%al, %esi
 8754 8bda E9CEFAFF 		jmp	.L1556
 8754      FF
 8755              	.L1944:
 8756 8bdf E8000000 		call	_ZSt16__throw_bad_castv
 8756      00
 8757              	.L1943:
 8758 8be4 498B4E18 		movq	24(%r14), %rcx
 8759 8be8 498B5610 		movq	16(%r14), %rdx
 8760 8bec 488DBD70 		leaq	-2704(%rbp), %rdi
 8760      F5FFFF
GAS LISTING /tmp/cce5yULP.s 			page 238


 8761 8bf3 498B4608 		movq	8(%r14), %rax
 8762 8bf7 F20F10B5 		movsd	-3848(%rbp), %xmm6
 8762      F8F0FFFF 
 8763 8bff F20F10A5 		movsd	-3704(%rbp), %xmm4
 8763      88F1FFFF 
 8764 8c07 F2420F10 		movsd	(%rcx,%r13), %xmm5
 8764      2C29
 8765 8c0d F2420F10 		movsd	(%rdx,%r13), %xmm3
 8765      1C2A
 8766 8c13 F20F1095 		movsd	-3696(%rbp), %xmm2
 8766      90F1FFFF 
 8767 8c1b F2420F10 		movsd	(%rax,%r13), %xmm1
 8767      0C28
 8768 8c21 F20F1085 		movsd	-3688(%rbp), %xmm0
 8768      98F1FFFF 
 8769 8c29 E8000000 		call	_ZN9residuals27add_ansys_l2_norm_residualsEddddddd
 8769      00
 8770              	.LEHE196:
 8771 8c2e 488B85D8 		movq	-2856(%rbp), %rax
 8771      F4FFFF
 8772 8c35 F2420F10 		movsd	(%rax,%r13), %xmm0
 8772      0428
 8773 8c3b 660F2EC0 		ucomisd	%xmm0, %xmm0
 8774 8c3f 7A17     		jp	.L1874
 8775 8c41 488B85E0 		movq	-2848(%rbp), %rax
 8775      F4FFFF
 8776 8c48 F2420F10 		movsd	(%rax,%r13), %xmm0
 8776      0428
 8777 8c4e 660F2EC0 		ucomisd	%xmm0, %xmm0
 8778 8c52 0F8BBDF8 		jnp	.L1857
 8778      FFFF
 8779              	.L1874:
 8780 8c58 8B4D28   		movl	40(%rbp), %ecx
 8781 8c5b 85C9     		testl	%ecx, %ecx
 8782 8c5d 0F844305 		je	.L1948
 8782      0000
 8783              	.L1549:
 8784 8c63 488D8550 		leaq	-1712(%rbp), %rax
 8784      F9FFFF
 8785 8c6a 488D98A0 		leaq	160(%rax), %rbx
 8785      000000
 8786              	.L1548:
 8787 8c71 4883EB28 		subq	$40, %rbx
 8788 8c75 488B03   		movq	(%rbx), %rax
 8789 8c78 4889DF   		movq	%rbx, %rdi
 8790 8c7b FF10     		call	*(%rax)
 8791 8c7d 488D8550 		leaq	-1712(%rbp), %rax
 8791      F9FFFF
 8792 8c84 4839C3   		cmpq	%rax, %rbx
 8793 8c87 75E8     		jne	.L1548
 8794 8c89 488D85B0 		leaq	-1872(%rbp), %rax
 8794      F8FFFF
 8795 8c90 488D98A0 		leaq	160(%rax), %rbx
 8795      000000
 8796              	.L1609:
 8797 8c97 4883EB28 		subq	$40, %rbx
 8798 8c9b 488B03   		movq	(%rbx), %rax
GAS LISTING /tmp/cce5yULP.s 			page 239


 8799 8c9e 4889DF   		movq	%rbx, %rdi
 8800 8ca1 FF10     		call	*(%rax)
 8801 8ca3 488D85B0 		leaq	-1872(%rbp), %rax
 8801      F8FFFF
 8802 8caa 4839C3   		cmpq	%rax, %rbx
 8803 8cad 75E8     		jne	.L1609
 8804 8caf 488D8510 		leaq	-2032(%rbp), %rax
 8804      F8FFFF
 8805 8cb6 488D98A0 		leaq	160(%rax), %rbx
 8805      000000
 8806              	.L1613:
 8807 8cbd 4883EB28 		subq	$40, %rbx
 8808 8cc1 488B03   		movq	(%rbx), %rax
 8809 8cc4 4889DF   		movq	%rbx, %rdi
 8810 8cc7 FF10     		call	*(%rax)
 8811 8cc9 488D8510 		leaq	-2032(%rbp), %rax
 8811      F8FFFF
 8812 8cd0 4839C3   		cmpq	%rax, %rbx
 8813 8cd3 75E8     		jne	.L1613
 8814 8cd5 488D8570 		leaq	-2192(%rbp), %rax
 8814      F7FFFF
 8815 8cdc 488D98A0 		leaq	160(%rax), %rbx
 8815      000000
 8816              	.L1617:
 8817 8ce3 4883EB28 		subq	$40, %rbx
 8818 8ce7 488B03   		movq	(%rbx), %rax
 8819 8cea 4889DF   		movq	%rbx, %rdi
 8820 8ced FF10     		call	*(%rax)
 8821 8cef 488D8570 		leaq	-2192(%rbp), %rax
 8821      F7FFFF
 8822 8cf6 4839C3   		cmpq	%rax, %rbx
 8823 8cf9 75E8     		jne	.L1617
 8824 8cfb 488D85D0 		leaq	-2352(%rbp), %rax
 8824      F6FFFF
 8825 8d02 488D98A0 		leaq	160(%rax), %rbx
 8825      000000
 8826              	.L1621:
 8827 8d09 4883EB28 		subq	$40, %rbx
 8828 8d0d 488B03   		movq	(%rbx), %rax
 8829 8d10 4889DF   		movq	%rbx, %rdi
 8830 8d13 FF10     		call	*(%rax)
 8831 8d15 488D85D0 		leaq	-2352(%rbp), %rax
 8831      F6FFFF
 8832 8d1c 4839C3   		cmpq	%rax, %rbx
 8833 8d1f 75E8     		jne	.L1621
 8834 8d21 488DBDA0 		leaq	-2912(%rbp), %rdi
 8834      F4FFFF
 8835 8d28 E8000000 		call	_ZN8flux_varD1Ev
 8835      00
 8836 8d2d 488DBD70 		leaq	-2960(%rbp), %rdi
 8836      F4FFFF
 8837 8d34 E8000000 		call	_ZN8flux_varD1Ev
 8837      00
 8838 8d39 488DBD40 		leaq	-3008(%rbp), %rdi
 8838      F4FFFF
 8839 8d40 E8000000 		call	_ZN8flux_varD1Ev
 8839      00
GAS LISTING /tmp/cce5yULP.s 			page 240


 8840 8d45 488DBD70 		leaq	-2704(%rbp), %rdi
 8840      F5FFFF
 8841 8d4c E8000000 		call	_ZN9residualsD1Ev
 8841      00
 8842 8d51 488D85C0 		leaq	-576(%rbp), %rax
 8842      FDFFFF
 8843 8d58 48C785C0 		movq	$_ZTVSt14basic_ofstreamIcSt11char_traitsIcEE+24, -576(%rbp)
 8843      FDFFFF00 
 8843      000000
 8844 8d63 48C785B8 		movq	$_ZTVSt14basic_ofstreamIcSt11char_traitsIcEE+64, -328(%rbp)
 8844      FEFFFF00 
 8844      000000
 8845 8d6e 48C785C8 		movq	$_ZTVSt13basic_filebufIcSt11char_traitsIcEE+16, -568(%rbp)
 8845      FDFFFF00 
 8845      000000
 8846 8d79 488D7808 		leaq	8(%rax), %rdi
 8847 8d7d E8000000 		call	_ZNSt13basic_filebufIcSt11char_traitsIcEE5closeEv
 8847      00
 8848 8d82 488D85C0 		leaq	-576(%rbp), %rax
 8848      FDFFFF
 8849 8d89 488D7870 		leaq	112(%rax), %rdi
 8850 8d8d E8000000 		call	_ZNSt12__basic_fileIcED1Ev
 8850      00
 8851 8d92 488D85C0 		leaq	-576(%rbp), %rax
 8851      FDFFFF
 8852 8d99 48C785C8 		movq	$_ZTVSt15basic_streambufIcSt11char_traitsIcEE+16, -568(%rbp)
 8852      FDFFFF00 
 8852      000000
 8853 8da4 488D7840 		leaq	64(%rax), %rdi
 8854 8da8 E8000000 		call	_ZNSt6localeD1Ev
 8854      00
 8855 8dad 488B0500 		movq	_ZTTSt14basic_ofstreamIcSt11char_traitsIcEE+8(%rip), %rax
 8855      000000
 8856 8db4 488B1500 		movq	_ZTTSt14basic_ofstreamIcSt11char_traitsIcEE+16(%rip), %rdx
 8856      000000
 8857 8dbb 488B40E8 		movq	-24(%rax), %rax
 8858 8dbf 48899405 		movq	%rdx, -576(%rbp,%rax)
 8858      C0FDFFFF 
 8859 8dc7 488D85C0 		leaq	-576(%rbp), %rax
 8859      FDFFFF
 8860 8dce 48C785B8 		movq	$_ZTVSt9basic_iosIcSt11char_traitsIcEE+16, -328(%rbp)
 8860      FEFFFF00 
 8860      000000
 8861 8dd9 488DB8F8 		leaq	248(%rax), %rdi
 8861      000000
 8862 8de0 E8000000 		call	_ZNSt8ios_baseD2Ev
 8862      00
 8863 8de5 488BBD00 		movq	-2560(%rbp), %rdi
 8863      F6FFFF
 8864 8dec 488D8500 		leaq	-2560(%rbp), %rax
 8864      F6FFFF
 8865 8df3 4883C010 		addq	$16, %rax
 8866 8df7 4839C7   		cmpq	%rax, %rdi
 8867 8dfa 7405     		je	.L1624
 8868 8dfc E8000000 		call	_ZdlPv
 8868      00
 8869              	.L1624:
GAS LISTING /tmp/cce5yULP.s 			page 241


 8870 8e01 488D85C0 		leaq	-1088(%rbp), %rax
 8870      FBFFFF
 8871 8e08 48C785C0 		movq	$_ZTVSt14basic_ofstreamIcSt11char_traitsIcEE+24, -1088(%rbp)
 8871      FBFFFF00 
 8871      000000
 8872 8e13 48C785B8 		movq	$_ZTVSt14basic_ofstreamIcSt11char_traitsIcEE+64, -840(%rbp)
 8872      FCFFFF00 
 8872      000000
 8873 8e1e 48C785C8 		movq	$_ZTVSt13basic_filebufIcSt11char_traitsIcEE+16, -1080(%rbp)
 8873      FBFFFF00 
 8873      000000
 8874 8e29 488D7808 		leaq	8(%rax), %rdi
 8875 8e2d E8000000 		call	_ZNSt13basic_filebufIcSt11char_traitsIcEE5closeEv
 8875      00
 8876              	.L1869:
 8877 8e32 488D85C0 		leaq	-1088(%rbp), %rax
 8877      FBFFFF
 8878 8e39 488D7870 		leaq	112(%rax), %rdi
 8879 8e3d E8000000 		call	_ZNSt12__basic_fileIcED1Ev
 8879      00
 8880 8e42 488D85C0 		leaq	-1088(%rbp), %rax
 8880      FBFFFF
 8881 8e49 48C785C8 		movq	$_ZTVSt15basic_streambufIcSt11char_traitsIcEE+16, -1080(%rbp)
 8881      FBFFFF00 
 8881      000000
 8882 8e54 488D7840 		leaq	64(%rax), %rdi
 8883 8e58 E8000000 		call	_ZNSt6localeD1Ev
 8883      00
 8884 8e5d 488B0500 		movq	_ZTTSt14basic_ofstreamIcSt11char_traitsIcEE+8(%rip), %rax
 8884      000000
 8885 8e64 488B1500 		movq	_ZTTSt14basic_ofstreamIcSt11char_traitsIcEE+16(%rip), %rdx
 8885      000000
 8886 8e6b 488B40E8 		movq	-24(%rax), %rax
 8887 8e6f 48899405 		movq	%rdx, -1088(%rbp,%rax)
 8887      C0FBFFFF 
 8888 8e77 488D85C0 		leaq	-1088(%rbp), %rax
 8888      FBFFFF
 8889 8e7e 48C785B8 		movq	$_ZTVSt9basic_iosIcSt11char_traitsIcEE+16, -840(%rbp)
 8889      FCFFFF00 
 8889      000000
 8890 8e89 488DB8F8 		leaq	248(%rax), %rdi
 8890      000000
 8891 8e90 E8000000 		call	_ZNSt8ios_baseD2Ev
 8891      00
 8892 8e95 488DBD10 		leaq	-3056(%rbp), %rdi
 8892      F4FFFF
 8893 8e9c E8000000 		call	_ZN8flux_varD1Ev
 8893      00
 8894 8ea1 488DBDF0 		leaq	-1552(%rbp), %rdi
 8894      F9FFFF
 8895 8ea8 E8000000 		call	_ZN22artificial_dissipationD1Ev
 8895      00
 8896 8ead 488DBD20 		leaq	-2784(%rbp), %rdi
 8896      F5FFFF
 8897 8eb4 E8000000 		call	_ZN8SolutionD1Ev
 8897      00
 8898 8eb9 488DBDD0 		leaq	-2864(%rbp), %rdi
GAS LISTING /tmp/cce5yULP.s 			page 242


 8898      F4FFFF
 8899 8ec0 E8000000 		call	_ZN8SolutionD1Ev
 8899      00
 8900 8ec5 488B45C8 		movq	-56(%rbp), %rax
 8901 8ec9 64483304 		xorq	%fs:40, %rax
 8901      25280000 
 8901      00
 8902 8ed2 0F852505 		jne	.L1949
 8902      0000
 8903 8ed8 488D65D8 		leaq	-40(%rbp), %rsp
 8904 8edc 5B       		popq	%rbx
 8905 8edd 415C     		popq	%r12
 8906 8edf 415D     		popq	%r13
 8907 8ee1 415E     		popq	%r14
 8908 8ee3 415F     		popq	%r15
 8909 8ee5 5D       		popq	%rbp
 8910              		.cfi_remember_state
 8911              		.cfi_def_cfa 7, 8
 8912 8ee6 C3       		ret
 8913              	.L1698:
 8914              		.cfi_restore_state
 8915 8ee7 4889C3   		movq	%rax, %rbx
 8916              	.L1595:
 8917 8eea 488D8550 		leaq	-1712(%rbp), %rax
 8917      F9FFFF
 8918 8ef1 4805A000 		addq	$160, %rax
 8918      0000
 8919 8ef7 4989C6   		movq	%rax, %r14
 8920              	.L1640:
 8921 8efa 4C89F0   		movq	%r14, %rax
 8922 8efd 4883E828 		subq	$40, %rax
 8923 8f01 4989C6   		movq	%rax, %r14
 8924 8f04 488B00   		movq	(%rax), %rax
 8925 8f07 4C89F7   		movq	%r14, %rdi
 8926 8f0a FF10     		call	*(%rax)
 8927 8f0c 488D9550 		leaq	-1712(%rbp), %rdx
 8927      F9FFFF
 8928 8f13 4939D6   		cmpq	%rdx, %r14
 8929 8f16 75E2     		jne	.L1640
 8930 8f18 488D85B0 		leaq	-1872(%rbp), %rax
 8930      F8FFFF
 8931 8f1f 4805A000 		addq	$160, %rax
 8931      0000
 8932 8f25 4989C6   		movq	%rax, %r14
 8933              	.L1783:
 8934 8f28 4C89F0   		movq	%r14, %rax
 8935 8f2b 4883E828 		subq	$40, %rax
 8936 8f2f 4989C6   		movq	%rax, %r14
 8937 8f32 488B00   		movq	(%rax), %rax
 8938 8f35 4C89F7   		movq	%r14, %rdi
 8939 8f38 FF10     		call	*(%rax)
 8940 8f3a 488D95B0 		leaq	-1872(%rbp), %rdx
 8940      F8FFFF
 8941 8f41 4939D6   		cmpq	%rdx, %r14
 8942 8f44 75E2     		jne	.L1783
 8943 8f46 488D8510 		leaq	-2032(%rbp), %rax
 8943      F8FFFF
GAS LISTING /tmp/cce5yULP.s 			page 243


 8944 8f4d 4805A000 		addq	$160, %rax
 8944      0000
 8945 8f53 4989C6   		movq	%rax, %r14
 8946              	.L1784:
 8947 8f56 4C89F0   		movq	%r14, %rax
 8948 8f59 4883E828 		subq	$40, %rax
 8949 8f5d 4989C6   		movq	%rax, %r14
 8950 8f60 488B00   		movq	(%rax), %rax
 8951 8f63 4C89F7   		movq	%r14, %rdi
 8952 8f66 FF10     		call	*(%rax)
 8953 8f68 488D9510 		leaq	-2032(%rbp), %rdx
 8953      F8FFFF
 8954 8f6f 4939D6   		cmpq	%rdx, %r14
 8955 8f72 75E2     		jne	.L1784
 8956 8f74 488D8570 		leaq	-2192(%rbp), %rax
 8956      F7FFFF
 8957 8f7b 4805A000 		addq	$160, %rax
 8957      0000
 8958 8f81 4989C6   		movq	%rax, %r14
 8959              	.L1785:
 8960 8f84 4C89F0   		movq	%r14, %rax
 8961 8f87 4883E828 		subq	$40, %rax
 8962 8f8b 4989C6   		movq	%rax, %r14
 8963 8f8e 488B00   		movq	(%rax), %rax
 8964 8f91 4C89F7   		movq	%r14, %rdi
 8965 8f94 FF10     		call	*(%rax)
 8966 8f96 488D9570 		leaq	-2192(%rbp), %rdx
 8966      F7FFFF
 8967 8f9d 4939D6   		cmpq	%rdx, %r14
 8968 8fa0 75E2     		jne	.L1785
 8969 8fa2 488D85D0 		leaq	-2352(%rbp), %rax
 8969      F6FFFF
 8970 8fa9 4805A000 		addq	$160, %rax
 8970      0000
 8971 8faf 4989C6   		movq	%rax, %r14
 8972              	.L1786:
 8973 8fb2 4C89F0   		movq	%r14, %rax
 8974 8fb5 4883E828 		subq	$40, %rax
 8975 8fb9 4989C6   		movq	%rax, %r14
 8976 8fbc 488B00   		movq	(%rax), %rax
 8977 8fbf 4C89F7   		movq	%r14, %rdi
 8978 8fc2 FF10     		call	*(%rax)
 8979 8fc4 488D95D0 		leaq	-2352(%rbp), %rdx
 8979      F6FFFF
 8980 8fcb 4939D6   		cmpq	%rdx, %r14
 8981 8fce 75E2     		jne	.L1786
 8982 8fd0 E98EFAFF 		jmp	.L1627
 8982      FF
 8983              	.L1941:
 8984 8fd5 F20F10BD 		movsd	-3848(%rbp), %xmm7
 8984      F8F0FFFF 
 8985 8fdd 488B8528 		movq	-3800(%rbp), %rax
 8985      F1FFFF
 8986 8fe4 F20F1085 		movsd	-2880(%rbp), %xmm0
 8986      C0F4FFFF 
 8987 8fec 4C89EE   		movq	%r13, %rsi
 8988 8fef F20F593D 		mulsd	.LC20(%rip), %xmm7
GAS LISTING /tmp/cce5yULP.s 			page 244


 8988      00000000 
 8989 8ff7 F20F119D 		movsd	%xmm3, -3048(%rbp)
 8989      18F4FFFF 
 8990 8fff 4C89EA   		movq	%r13, %rdx
 8991 9002 F20F11A5 		movsd	%xmm4, -3040(%rbp)
 8991      20F4FFFF 
 8992 900a 4C89E9   		movq	%r13, %rcx
 8993 900d F2440F11 		movsd	%xmm8, -3032(%rbp)
 8993      8528F4FF 
 8993      FF
 8994 9016 F20F1185 		movsd	%xmm0, -3024(%rbp)
 8994      30F4FFFF 
 8995 901e F20F1068 		movsd	8(%rax), %xmm5
 8995      08
 8996 9023 F20F1048 		movsd	16(%rax), %xmm1
 8996      10
 8997 9028 F20F1040 		movsd	24(%rax), %xmm0
 8997      18
 8998 902d 488B8518 		movq	-3816(%rbp), %rax
 8998      F1FFFF
 8999 9034 F20F11BD 		movsd	%xmm7, -3824(%rbp)
 8999      10F1FFFF 
 9000 903c F20F103D 		movsd	.LC47(%rip), %xmm7
 9000      00000000 
 9001 9044 48037018 		addq	24(%rax), %rsi
 9002 9048 48035010 		addq	16(%rax), %rdx
 9003 904c 48034808 		addq	8(%rax), %rcx
 9004 9050 F20F11BD 		movsd	%xmm7, -3832(%rbp)
 9004      08F1FFFF 
 9005 9058 E953F3FF 		jmp	.L1539
 9005      FF
 9006              	.L1940:
 9007 905d 448B4528 		movl	40(%rbp), %r8d
 9008 9061 F20F1085 		movsd	-2880(%rbp), %xmm0
 9008      C0F4FFFF 
 9009 9069 F20F119D 		movsd	%xmm3, -3048(%rbp)
 9009      18F4FFFF 
 9010 9071 F20F11A5 		movsd	%xmm4, -3040(%rbp)
 9010      20F4FFFF 
 9011 9079 4585C0   		testl	%r8d, %r8d
 9012 907c F2440F11 		movsd	%xmm8, -3032(%rbp)
 9012      8528F4FF 
 9012      FF
 9013 9085 F20F1185 		movsd	%xmm0, -3024(%rbp)
 9013      30F4FFFF 
 9014 908d 0F8EC200 		jle	.L1536
 9014      0000
 9015 9093 8BBD30F1 		movl	-3792(%rbp), %edi
 9015      FFFF
 9016 9099 488B8518 		movq	-3816(%rbp), %rax
 9016      F1FFFF
 9017 90a0 85FF     		testl	%edi, %edi
 9018 90a2 7458     		je	.L1537
 9019 90a4 4C89EE   		movq	%r13, %rsi
 9020 90a7 4C89EA   		movq	%r13, %rdx
 9021 90aa 48037018 		addq	24(%rax), %rsi
 9022 90ae 48035010 		addq	16(%rax), %rdx
GAS LISTING /tmp/cce5yULP.s 			page 245


 9023 90b2 4C89E9   		movq	%r13, %rcx
 9024 90b5 48034808 		addq	8(%rax), %rcx
 9025 90b9 488B8528 		movq	-3800(%rbp), %rax
 9025      F1FFFF
 9026 90c0 F20F1068 		movsd	8(%rax), %xmm5
 9026      08
 9027 90c5 F20F1048 		movsd	16(%rax), %xmm1
 9027      10
 9028 90ca F20F1040 		movsd	24(%rax), %xmm0
 9028      18
 9029              	.L1538:
 9030 90cf F20F10BD 		movsd	-3848(%rbp), %xmm7
 9030      F8F0FFFF 
 9031 90d7 F20F593D 		mulsd	.LC20(%rip), %xmm7
 9031      00000000 
 9032 90df F20F11BD 		movsd	%xmm7, -3824(%rbp)
 9032      10F1FFFF 
 9033 90e7 F20F103D 		movsd	.LC46(%rip), %xmm7
 9033      00000000 
 9034 90ef F20F11BD 		movsd	%xmm7, -3832(%rbp)
 9034      08F1FFFF 
 9035 90f7 E9B4F2FF 		jmp	.L1539
 9035      FF
 9036              	.L1537:
 9037 90fc 4C89E9   		movq	%r13, %rcx
 9038 90ff 48034808 		addq	8(%rax), %rcx
 9039 9103 488BBD28 		movq	-3800(%rbp), %rdi
 9039      F1FFFF
 9040 910a F20F1005 		movsd	.LC53(%rip), %xmm0
 9040      00000000 
 9041 9112 4C89EA   		movq	%r13, %rdx
 9042 9115 48035010 		addq	16(%rax), %rdx
 9043 9119 4C89EE   		movq	%r13, %rsi
 9044 911c 48037018 		addq	24(%rax), %rsi
 9045 9120 F20F1029 		movsd	(%rcx), %xmm5
 9046 9124 F20F59E8 		mulsd	%xmm0, %xmm5
 9047 9128 F20F58EB 		addsd	%xmm3, %xmm5
 9048 912c F20F116F 		movsd	%xmm5, 8(%rdi)
 9048      08
 9049 9131 F20F100A 		movsd	(%rdx), %xmm1
 9050 9135 F20F59C8 		mulsd	%xmm0, %xmm1
 9051 9139 F20F58CC 		addsd	%xmm4, %xmm1
 9052 913d F20F114F 		movsd	%xmm1, 16(%rdi)
 9052      10
 9053 9142 F20F5906 		mulsd	(%rsi), %xmm0
 9054 9146 F2410F58 		addsd	%xmm8, %xmm0
 9054      C0
 9055 914b F20F1147 		movsd	%xmm0, 24(%rdi)
 9055      18
 9056 9150 E97AFFFF 		jmp	.L1538
 9056      FF
 9057              	.L1536:
 9058 9155 488B8528 		movq	-3800(%rbp), %rax
 9058      F1FFFF
 9059 915c 660FEFC0 		pxor	%xmm0, %xmm0
 9060 9160 4C89EE   		movq	%r13, %rsi
 9061 9163 4C89EA   		movq	%r13, %rdx
GAS LISTING /tmp/cce5yULP.s 			page 246


 9062 9166 4C89E9   		movq	%r13, %rcx
 9063 9169 48C74008 		movq	$0, 8(%rax)
 9063      00000000 
 9064 9171 48C74010 		movq	$0, 16(%rax)
 9064      00000000 
 9065 9179 48C74018 		movq	$0, 24(%rax)
 9065      00000000 
 9066 9181 488B8518 		movq	-3816(%rbp), %rax
 9066      F1FFFF
 9067 9188 660F28C8 		movapd	%xmm0, %xmm1
 9068 918c 660F28E8 		movapd	%xmm0, %xmm5
 9069 9190 48037018 		addq	24(%rax), %rsi
 9070 9194 48035010 		addq	16(%rax), %rdx
 9071 9198 48034808 		addq	8(%rax), %rcx
 9072 919c E92EFFFF 		jmp	.L1538
 9072      FF
 9073              	.L1945:
 9074              	.LEHB197:
 9075 91a1 E8000000 		call	_ZSt16__throw_bad_castv
 9075      00
 9076              	.L1948:
 9077 91a6 488D85C0 		leaq	-1088(%rbp), %rax
 9077      FBFFFF
 9078 91ad 488D7808 		leaq	8(%rax), %rdi
 9079 91b1 E8000000 		call	_ZNSt13basic_filebufIcSt11char_traitsIcEE5closeEv
 9079      00
 9080 91b6 4885C0   		testq	%rax, %rax
 9081 91b9 0F85A4FA 		jne	.L1549
 9081      FFFF
 9082 91bf 488B85C0 		movq	-1088(%rbp), %rax
 9082      FBFFFF
 9083 91c6 488DBDC0 		leaq	-1088(%rbp), %rdi
 9083      FBFFFF
 9084 91cd 480378E8 		addq	-24(%rax), %rdi
 9085 91d1 8B7720   		movl	32(%rdi), %esi
 9086 91d4 83CE04   		orl	$4, %esi
 9087 91d7 E8000000 		call	_ZNSt9basic_iosIcSt11char_traitsIcEE5clearESt12_Ios_Iostate
 9087      00
 9088 91dc E982FAFF 		jmp	.L1549
 9088      FF
 9089              	.L1946:
 9090 91e1 F2410F10 		movsd	24(%r12), %xmm0
 9090      442418
 9091 91e8 418B5424 		movl	8(%r12), %edx
 9091      08
 9092 91ed 48C785A0 		movq	$_ZTV16global_variables+16, -1376(%rbp)
 9092      FAFFFF00 
 9092      000000
 9093 91f8 F20F1185 		movsd	%xmm0, -1352(%rbp)
 9093      B8FAFFFF 
 9094 9200 F2410F10 		movsd	32(%r12), %xmm0
 9094      442420
 9095 9207 8995A8FA 		movl	%edx, -1368(%rbp)
 9095      FFFF
 9096 920d 418B5424 		movl	12(%r12), %edx
 9096      0C
 9097 9212 F20F1185 		movsd	%xmm0, -1344(%rbp)
GAS LISTING /tmp/cce5yULP.s 			page 247


 9097      C0FAFFFF 
 9098 921a F2410F10 		movsd	40(%r12), %xmm0
 9098      442428
 9099 9221 8995ACFA 		movl	%edx, -1364(%rbp)
 9099      FFFF
 9100 9227 F20F1185 		movsd	%xmm0, -1336(%rbp)
 9100      C8FAFFFF 
 9101 922f 418B5424 		movl	16(%r12), %edx
 9101      10
 9102 9234 F2410F10 		movsd	48(%r12), %xmm0
 9102      442430
 9103 923b F20F1185 		movsd	%xmm0, -1328(%rbp)
 9103      D0FAFFFF 
 9104 9243 8995B0FA 		movl	%edx, -1360(%rbp)
 9104      FFFF
 9105 9249 F2410F10 		movsd	56(%r12), %xmm0
 9105      442438
 9106 9250 F20F1185 		movsd	%xmm0, -1320(%rbp)
 9106      D8FAFFFF 
 9107 9258 F2410F10 		movsd	64(%r12), %xmm0
 9107      442440
 9108 925f F20F1185 		movsd	%xmm0, -1312(%rbp)
 9108      E0FAFFFF 
 9109 9267 F2410F10 		movsd	72(%r12), %xmm0
 9109      442448
 9110 926e F20F1185 		movsd	%xmm0, -1304(%rbp)
 9110      E8FAFFFF 
 9111 9276 F2410F10 		movsd	80(%r12), %xmm0
 9111      442450
 9112 927d F20F1185 		movsd	%xmm0, -1296(%rbp)
 9112      F0FAFFFF 
 9113 9285 F2410F10 		movsd	88(%r12), %xmm0
 9113      442458
 9114 928c F20F1185 		movsd	%xmm0, -1288(%rbp)
 9114      F8FAFFFF 
 9115 9294 F2410F10 		movsd	96(%r12), %xmm0
 9115      442460
 9116 929b F20F1185 		movsd	%xmm0, -1280(%rbp)
 9116      00FBFFFF 
 9117 92a3 F2410F10 		movsd	104(%r12), %xmm0
 9117      442468
 9118 92aa F20F1185 		movsd	%xmm0, -1272(%rbp)
 9118      08FBFFFF 
 9119 92b2 F2410F10 		movsd	112(%r12), %xmm0
 9119      442470
 9120 92b9 F20F1185 		movsd	%xmm0, -1264(%rbp)
 9120      10FBFFFF 
 9121 92c1 F2410F10 		movsd	120(%r12), %xmm0
 9121      442478
 9122 92c8 F20F1185 		movsd	%xmm0, -1256(%rbp)
 9122      18FBFFFF 
 9123 92d0 898520FB 		movl	%eax, -1248(%rbp)
 9123      FFFF
 9124 92d6 418B8424 		movl	132(%r12), %eax
 9124      84000000 
 9125 92de 4D8BAC24 		movq	160(%r12), %r13
 9125      A0000000 
GAS LISTING /tmp/cce5yULP.s 			page 248


 9126 92e6 F2410F10 		movsd	144(%r12), %xmm0
 9126      84249000 
 9126      0000
 9127 92f0 898524FB 		movl	%eax, -1244(%rbp)
 9127      FFFF
 9128 92f6 418B8424 		movl	136(%r12), %eax
 9128      88000000 
 9129 92fe F20F1185 		movsd	%xmm0, -1232(%rbp)
 9129      30FBFFFF 
 9130 9306 898528FB 		movl	%eax, -1240(%rbp)
 9130      FFFF
 9131 930c 418B8424 		movl	140(%r12), %eax
 9131      8C000000 
 9132 9314 89852CFB 		movl	%eax, -1236(%rbp)
 9132      FFFF
 9133 931a 488D85A0 		leaq	-1376(%rbp), %rax
 9133      FAFFFF
 9134 9321 4805A800 		addq	$168, %rax
 9134      0000
 9135 9327 48898538 		movq	%rax, -1224(%rbp)
 9135      FBFFFF
 9136 932e 498B8424 		movq	152(%r12), %rax
 9136      98000000 
 9137 9336 4889C2   		movq	%rax, %rdx
 9138 9339 48898598 		movq	%rax, -3688(%rbp)
 9138      F1FFFF
 9139 9340 4C01E8   		addq	%r13, %rax
 9140 9343 740F     		je	.L1566
 9141 9345 4885D2   		testq	%rdx, %rdx
 9142 9348 750A     		jne	.L1566
 9143 934a BF000000 		movl	$.LC39, %edi
 9143      00
 9144 934f E8000000 		call	_ZSt19__throw_logic_errorPKc
 9144      00
 9145              	.LEHE197:
 9146              	.L1566:
 9147 9354 4983FD0F 		cmpq	$15, %r13
 9148 9358 4C89ADD0 		movq	%r13, -3632(%rbp)
 9148      F1FFFF
 9149 935f 0F872401 		ja	.L1950
 9149      0000
 9150 9365 4983FD01 		cmpq	$1, %r13
 9151 9369 0F845A04 		je	.L1951
 9151      0000
 9152 936f 488D85A0 		leaq	-1376(%rbp), %rax
 9152      FAFFFF
 9153 9376 4805A800 		addq	$168, %rax
 9153      0000
 9154 937c 4D85ED   		testq	%r13, %r13
 9155 937f 0F853501 		jne	.L1567
 9155      0000
 9156              	.L1569:
 9157 9385 4C89AD40 		movq	%r13, -1216(%rbp)
 9157      FBFFFF
 9158 938c 42C60428 		movb	$0, (%rax,%r13)
 9158      00
 9159 9391 488D85A0 		leaq	-1376(%rbp), %rax
GAS LISTING /tmp/cce5yULP.s 			page 249


 9159      FAFFFF
 9160 9398 4D8BAC24 		movq	192(%r12), %r13
 9160      C0000000 
 9161 93a0 4805C800 		addq	$200, %rax
 9161      0000
 9162 93a6 48898558 		movq	%rax, -1192(%rbp)
 9162      FBFFFF
 9163 93ad 498B8424 		movq	184(%r12), %rax
 9163      B8000000 
 9164 93b5 4889C2   		movq	%rax, %rdx
 9165 93b8 48898598 		movq	%rax, -3688(%rbp)
 9165      F1FFFF
 9166 93bf 4C01E8   		addq	%r13, %rax
 9167 93c2 743E     		je	.L1572
 9168 93c4 4885D2   		testq	%rdx, %rdx
 9169 93c7 7539     		jne	.L1572
 9170 93c9 BF000000 		movl	$.LC39, %edi
 9170      00
 9171              	.LEHB198:
 9172 93ce E8000000 		call	_ZSt19__throw_logic_errorPKc
 9172      00
 9173              	.LEHE198:
 9174              	.L1708:
 9175 93d3 4889C3   		movq	%rax, %rbx
 9176              	.L1593:
 9177 93d6 488BBD38 		movq	-1224(%rbp), %rdi
 9177      FBFFFF
 9178 93dd 488D85A0 		leaq	-1376(%rbp), %rax
 9178      FAFFFF
 9179 93e4 4805A800 		addq	$168, %rax
 9179      0000
 9180 93ea 4839C7   		cmpq	%rax, %rdi
 9181 93ed 0F84F7FA 		je	.L1595
 9181      FFFF
 9182 93f3 E8000000 		call	_ZdlPv
 9182      00
 9183 93f8 E9EDFAFF 		jmp	.L1595
 9183      FF
 9184              	.L1949:
 9185 93fd E8000000 		call	__stack_chk_fail
 9185      00
 9186              	.L1572:
 9187 9402 4983FD0F 		cmpq	$15, %r13
 9188 9406 4C89ADD8 		movq	%r13, -3624(%rbp)
 9188      F1FFFF
 9189 940d 0F877D01 		ja	.L1952
 9189      0000
 9190 9413 4983FD01 		cmpq	$1, %r13
 9191 9417 0F848A03 		je	.L1953
 9191      0000
 9192 941d 488D85A0 		leaq	-1376(%rbp), %rax
 9192      FAFFFF
 9193 9424 4805C800 		addq	$200, %rax
 9193      0000
 9194 942a 4D85ED   		testq	%r13, %r13
 9195 942d 0F858E01 		jne	.L1573
 9195      0000
GAS LISTING /tmp/cce5yULP.s 			page 250


 9196              	.L1575:
 9197 9433 4C89AD60 		movq	%r13, -1184(%rbp)
 9197      FBFFFF
 9198 943a 42C60428 		movb	$0, (%rax,%r13)
 9198      00
 9199 943f 488D85A0 		leaq	-1376(%rbp), %rax
 9199      FAFFFF
 9200 9446 4D8BAC24 		movq	224(%r12), %r13
 9200      E0000000 
 9201 944e 4805E800 		addq	$232, %rax
 9201      0000
 9202 9454 48898578 		movq	%rax, -1160(%rbp)
 9202      FBFFFF
 9203 945b 498B8424 		movq	216(%r12), %rax
 9203      D8000000 
 9204 9463 4889C2   		movq	%rax, %rdx
 9205 9466 48898598 		movq	%rax, -3688(%rbp)
 9205      F1FFFF
 9206 946d 4C01E8   		addq	%r13, %rax
 9207 9470 0F849300 		je	.L1578
 9207      0000
 9208 9476 4885D2   		testq	%rdx, %rdx
 9209 9479 0F858A00 		jne	.L1578
 9209      0000
 9210 947f BF000000 		movl	$.LC39, %edi
 9210      00
 9211              	.LEHB199:
 9212 9484 E8000000 		call	_ZSt19__throw_logic_errorPKc
 9212      00
 9213              	.LEHE199:
 9214              	.L1950:
 9215 9489 488D85A0 		leaq	-1376(%rbp), %rax
 9215      FAFFFF
 9216 9490 488DB5D0 		leaq	-3632(%rbp), %rsi
 9216      F1FFFF
 9217 9497 31D2     		xorl	%edx, %edx
 9218 9499 488DB898 		leaq	152(%rax), %rdi
 9218      000000
 9219              	.LEHB200:
 9220 94a0 E8000000 		call	_ZNSt7__cxx1112basic_stringIcSt11char_traitsIcESaIcEE9_M_createERmm
 9220      00
 9221              	.LEHE200:
 9222 94a5 488B95D0 		movq	-3632(%rbp), %rdx
 9222      F1FFFF
 9223 94ac 48898538 		movq	%rax, -1224(%rbp)
 9223      FBFFFF
 9224 94b3 48899548 		movq	%rdx, -1208(%rbp)
 9224      FBFFFF
 9225              	.L1567:
 9226 94ba 488BB598 		movq	-3688(%rbp), %rsi
 9226      F1FFFF
 9227 94c1 4C89EA   		movq	%r13, %rdx
 9228 94c4 4889C7   		movq	%rax, %rdi
 9229 94c7 E8000000 		call	memcpy
 9229      00
 9230 94cc 4C8BADD0 		movq	-3632(%rbp), %r13
 9230      F1FFFF
GAS LISTING /tmp/cce5yULP.s 			page 251


 9231 94d3 488B8538 		movq	-1224(%rbp), %rax
 9231      FBFFFF
 9232 94da E9A6FEFF 		jmp	.L1569
 9232      FF
 9233              	.L1709:
 9234 94df 4889C3   		movq	%rax, %rbx
 9235              	.L1591:
 9236 94e2 488BBD58 		movq	-1192(%rbp), %rdi
 9236      FBFFFF
 9237 94e9 488D85A0 		leaq	-1376(%rbp), %rax
 9237      FAFFFF
 9238 94f0 4805C800 		addq	$200, %rax
 9238      0000
 9239 94f6 4839C7   		cmpq	%rax, %rdi
 9240 94f9 0F84D7FE 		je	.L1593
 9240      FFFF
 9241 94ff E8000000 		call	_ZdlPv
 9241      00
 9242 9504 E9CDFEFF 		jmp	.L1593
 9242      FF
 9243              	.L1578:
 9244 9509 4983FD0F 		cmpq	$15, %r13
 9245 950d 4C89ADE0 		movq	%r13, -3616(%rbp)
 9245      F1FFFF
 9246 9514 0F878901 		ja	.L1954
 9246      0000
 9247 951a 4983FD01 		cmpq	$1, %r13
 9248 951e 0F846102 		je	.L1955
 9248      0000
 9249 9524 488D85A0 		leaq	-1376(%rbp), %rax
 9249      FAFFFF
 9250 952b 4805E800 		addq	$232, %rax
 9250      0000
 9251 9531 4D85ED   		testq	%r13, %r13
 9252 9534 0F859A01 		jne	.L1579
 9252      0000
 9253              	.L1581:
 9254 953a 4C89AD80 		movq	%r13, -1152(%rbp)
 9254      FBFFFF
 9255 9541 42C60428 		movb	$0, (%rax,%r13)
 9255      00
 9256 9546 488D85A0 		leaq	-1376(%rbp), %rax
 9256      FAFFFF
 9257 954d 4D8BAC24 		movq	256(%r12), %r13
 9257      00010000 
 9258 9555 48050801 		addq	$264, %rax
 9258      0000
 9259 955b 48898598 		movq	%rax, -1128(%rbp)
 9259      FBFFFF
 9260 9562 498B8424 		movq	248(%r12), %rax
 9260      F8000000 
 9261 956a 4889C2   		movq	%rax, %rdx
 9262 956d 48898598 		movq	%rax, -3688(%rbp)
 9262      F1FFFF
 9263 9574 4C01E8   		addq	%r13, %rax
 9264 9577 0F849300 		je	.L1584
 9264      0000
GAS LISTING /tmp/cce5yULP.s 			page 252


 9265 957d 4885D2   		testq	%rdx, %rdx
 9266 9580 0F858A00 		jne	.L1584
 9266      0000
 9267 9586 BF000000 		movl	$.LC39, %edi
 9267      00
 9268              	.LEHB201:
 9269 958b E8000000 		call	_ZSt19__throw_logic_errorPKc
 9269      00
 9270              	.LEHE201:
 9271              	.L1952:
 9272 9590 488D85A0 		leaq	-1376(%rbp), %rax
 9272      FAFFFF
 9273 9597 488DB5D8 		leaq	-3624(%rbp), %rsi
 9273      F1FFFF
 9274 959e 31D2     		xorl	%edx, %edx
 9275 95a0 488DB8B8 		leaq	184(%rax), %rdi
 9275      000000
 9276              	.LEHB202:
 9277 95a7 E8000000 		call	_ZNSt7__cxx1112basic_stringIcSt11char_traitsIcESaIcEE9_M_createERmm
 9277      00
 9278              	.LEHE202:
 9279 95ac 488B95D8 		movq	-3624(%rbp), %rdx
 9279      F1FFFF
 9280 95b3 48898558 		movq	%rax, -1192(%rbp)
 9280      FBFFFF
 9281 95ba 48899568 		movq	%rdx, -1176(%rbp)
 9281      FBFFFF
 9282              	.L1573:
 9283 95c1 488BB598 		movq	-3688(%rbp), %rsi
 9283      F1FFFF
 9284 95c8 4C89EA   		movq	%r13, %rdx
 9285 95cb 4889C7   		movq	%rax, %rdi
 9286 95ce E8000000 		call	memcpy
 9286      00
 9287 95d3 4C8BADD8 		movq	-3624(%rbp), %r13
 9287      F1FFFF
 9288 95da 488B8558 		movq	-1192(%rbp), %rax
 9288      FBFFFF
 9289 95e1 E94DFEFF 		jmp	.L1575
 9289      FF
 9290              	.L1710:
 9291 95e6 4889C3   		movq	%rax, %rbx
 9292 95e9 488BBD78 		movq	-1160(%rbp), %rdi
 9292      FBFFFF
 9293 95f0 488D85A0 		leaq	-1376(%rbp), %rax
 9293      FAFFFF
 9294 95f7 4805E800 		addq	$232, %rax
 9294      0000
 9295 95fd 4839C7   		cmpq	%rax, %rdi
 9296 9600 0F84DCFE 		je	.L1591
 9296      FFFF
 9297 9606 E8000000 		call	_ZdlPv
 9297      00
 9298 960b E9D2FEFF 		jmp	.L1591
 9298      FF
 9299              	.L1584:
 9300 9610 4983FD0F 		cmpq	$15, %r13
GAS LISTING /tmp/cce5yULP.s 			page 253


 9301 9614 4C89ADE8 		movq	%r13, -3608(%rbp)
 9301      F1FFFF
 9302 961b 0F87EC00 		ja	.L1956
 9302      0000
 9303 9621 4983FD01 		cmpq	$1, %r13
 9304 9625 0F843801 		je	.L1957
 9304      0000
 9305 962b 488D85A0 		leaq	-1376(%rbp), %rax
 9305      FAFFFF
 9306 9632 48050801 		addq	$264, %rax
 9306      0000
 9307 9638 4D85ED   		testq	%r13, %r13
 9308 963b 0F85FD00 		jne	.L1585
 9308      0000
 9309              	.L1587:
 9310 9641 4C89ADA0 		movq	%r13, -1120(%rbp)
 9310      FBFFFF
 9311 9648 42C60428 		movb	$0, (%rax,%r13)
 9311      00
 9312 964d 488D85A0 		leaq	-1376(%rbp), %rax
 9312      FAFFFF
 9313 9654 4883EC08 		subq	$8, %rsp
 9314 9658 FFB520F1 		pushq	-3808(%rbp)
 9314      FFFF
 9315 965e FFB5D0F0 		pushq	-3888(%rbp)
 9315      FFFF
 9316 9664 50       		pushq	%rax
 9317 9665 488D4528 		leaq	40(%rbp), %rax
 9318 9669 4C8B8DC0 		movq	-3904(%rbp), %r9
 9318      F0FFFF
 9319 9670 488BB518 		movq	-3816(%rbp), %rsi
 9319      F1FFFF
 9320 9677 4D89F8   		movq	%r15, %r8
 9321 967a 31C9     		xorl	%ecx, %ecx
 9322 967c 50       		pushq	%rax
 9323 967d FFB5C8F0 		pushq	-3896(%rbp)
 9323      FFFF
 9324 9683 4C89F2   		movq	%r14, %rdx
 9325 9686 4889DF   		movq	%rbx, %rdi
 9326              	.LEHB203:
 9327              		.cfi_escape 0x2e,0x30
 9328 9689 E8000000 		call	_ZN6Solver24multi_grid_agglomorationER8SolutionS1_iR4MeshR13quad_bcs_plusR18initial_condition
 9328      00
 9329              	.LEHE203:
 9330 968e 488DBDA0 		leaq	-1376(%rbp), %rdi
 9330      FAFFFF
 9331 9695 4883C430 		addq	$48, %rsp
 9332 9699 E8000000 		call	_ZN16global_variablesD1Ev
 9332      00
 9333 969e E9EAF0FF 		jmp	.L1563
 9333      FF
 9334              	.L1954:
 9335 96a3 488D85A0 		leaq	-1376(%rbp), %rax
 9335      FAFFFF
 9336 96aa 488DB5E0 		leaq	-3616(%rbp), %rsi
 9336      F1FFFF
 9337 96b1 31D2     		xorl	%edx, %edx
GAS LISTING /tmp/cce5yULP.s 			page 254


 9338 96b3 488DB8D8 		leaq	216(%rax), %rdi
 9338      000000
 9339              	.LEHB204:
 9340              		.cfi_escape 0x2e,0
 9341 96ba E8000000 		call	_ZNSt7__cxx1112basic_stringIcSt11char_traitsIcESaIcEE9_M_createERmm
 9341      00
 9342              	.LEHE204:
 9343 96bf 488B95E0 		movq	-3616(%rbp), %rdx
 9343      F1FFFF
 9344 96c6 48898578 		movq	%rax, -1160(%rbp)
 9344      FBFFFF
 9345 96cd 48899588 		movq	%rdx, -1144(%rbp)
 9345      FBFFFF
 9346              	.L1579:
 9347 96d4 488BB598 		movq	-3688(%rbp), %rsi
 9347      F1FFFF
 9348 96db 4C89EA   		movq	%r13, %rdx
 9349 96de 4889C7   		movq	%rax, %rdi
 9350 96e1 E8000000 		call	memcpy
 9350      00
 9351 96e6 4C8BADE0 		movq	-3616(%rbp), %r13
 9351      F1FFFF
 9352 96ed 488B8578 		movq	-1160(%rbp), %rax
 9352      FBFFFF
 9353 96f4 E941FEFF 		jmp	.L1581
 9353      FF
 9354              	.L1697:
 9355 96f9 488DBDA0 		leaq	-1376(%rbp), %rdi
 9355      FAFFFF
 9356 9700 4889C3   		movq	%rax, %rbx
 9357 9703 E8000000 		call	_ZN16global_variablesD1Ev
 9357      00
 9358 9708 E9DDF7FF 		jmp	.L1595
 9358      FF
 9359              	.L1956:
 9360 970d 488D85A0 		leaq	-1376(%rbp), %rax
 9360      FAFFFF
 9361 9714 488DB5E8 		leaq	-3608(%rbp), %rsi
 9361      F1FFFF
 9362 971b 31D2     		xorl	%edx, %edx
 9363 971d 488DB8F8 		leaq	248(%rax), %rdi
 9363      000000
 9364              	.LEHB205:
 9365 9724 E8000000 		call	_ZNSt7__cxx1112basic_stringIcSt11char_traitsIcESaIcEE9_M_createERmm
 9365      00
 9366              	.LEHE205:
 9367 9729 488B95E8 		movq	-3608(%rbp), %rdx
 9367      F1FFFF
 9368 9730 48898598 		movq	%rax, -1128(%rbp)
 9368      FBFFFF
 9369 9737 488995A8 		movq	%rdx, -1112(%rbp)
 9369      FBFFFF
 9370              	.L1585:
 9371 973e 488BB598 		movq	-3688(%rbp), %rsi
 9371      F1FFFF
 9372 9745 4C89EA   		movq	%r13, %rdx
 9373 9748 4889C7   		movq	%rax, %rdi
GAS LISTING /tmp/cce5yULP.s 			page 255


 9374 974b E8000000 		call	memcpy
 9374      00
 9375 9750 4C8BADE8 		movq	-3608(%rbp), %r13
 9375      F1FFFF
 9376 9757 488B8598 		movq	-1128(%rbp), %rax
 9376      FBFFFF
 9377 975e E9DEFEFF 		jmp	.L1587
 9377      FF
 9378              	.L1957:
 9379 9763 488B8598 		movq	-3688(%rbp), %rax
 9379      F1FFFF
 9380 976a 0FB600   		movzbl	(%rax), %eax
 9381 976d 8885A8FB 		movb	%al, -1112(%rbp)
 9381      FFFF
 9382 9773 488D85A0 		leaq	-1376(%rbp), %rax
 9382      FAFFFF
 9383 977a 48050801 		addq	$264, %rax
 9383      0000
 9384 9780 E9BCFEFF 		jmp	.L1587
 9384      FF
 9385              	.L1955:
 9386 9785 488B8598 		movq	-3688(%rbp), %rax
 9386      F1FFFF
 9387 978c 0FB600   		movzbl	(%rax), %eax
 9388 978f 888588FB 		movb	%al, -1144(%rbp)
 9388      FFFF
 9389 9795 488D85A0 		leaq	-1376(%rbp), %rax
 9389      FAFFFF
 9390 979c 4805E800 		addq	$232, %rax
 9390      0000
 9391 97a2 E993FDFF 		jmp	.L1581
 9391      FF
 9392              	.L1953:
 9393 97a7 488B8598 		movq	-3688(%rbp), %rax
 9393      F1FFFF
 9394 97ae 0FB600   		movzbl	(%rax), %eax
 9395 97b1 888568FB 		movb	%al, -1176(%rbp)
 9395      FFFF
 9396 97b7 488D85A0 		leaq	-1376(%rbp), %rax
 9396      FAFFFF
 9397 97be 4805C800 		addq	$200, %rax
 9397      0000
 9398 97c4 E96AFCFF 		jmp	.L1575
 9398      FF
 9399              	.L1951:
 9400 97c9 488B8598 		movq	-3688(%rbp), %rax
 9400      F1FFFF
 9401 97d0 0FB600   		movzbl	(%rax), %eax
 9402 97d3 888548FB 		movb	%al, -1208(%rbp)
 9402      FFFF
 9403 97d9 488D85A0 		leaq	-1376(%rbp), %rax
 9403      FAFFFF
 9404 97e0 4805A800 		addq	$168, %rax
 9404      0000
 9405 97e6 E99AFBFF 		jmp	.L1569
 9405      FF
 9406              	.L1679:
GAS LISTING /tmp/cce5yULP.s 			page 256


 9407 97eb C785DCF0 		movl	$1, -3876(%rbp)
 9407      FFFF0100 
 9407      0000
 9408 97f5 E9B6DCFF 		jmp	.L1528
 9408      FF
 9409              	.L1947:
 9410 97fa 488B85C0 		movq	-1088(%rbp), %rax
 9410      FBFFFF
 9411 9801 488DBDC0 		leaq	-1088(%rbp), %rdi
 9411      FBFFFF
 9412 9808 480378E8 		addq	-24(%rax), %rdi
 9413 980c 8B7720   		movl	32(%rdi), %esi
 9414 980f 83CE04   		orl	$4, %esi
 9415              	.LEHB206:
 9416 9812 E8000000 		call	_ZNSt9basic_iosIcSt11char_traitsIcEE5clearESt12_Ios_Iostate
 9416      00
 9417              	.LEHE206:
 9418 9817 E9A3EFFF 		jmp	.L1601
 9418      FF
 9419              	.L1736:
 9420 981c 488D9550 		leaq	-1712(%rbp), %rdx
 9420      F9FFFF
 9421 9823 4889C3   		movq	%rax, %rbx
 9422 9826 4883C278 		addq	$120, %rdx
 9423 982a 4989D6   		movq	%rdx, %r14
 9424              	.L1840:
 9425 982d 4C89F0   		movq	%r14, %rax
 9426 9830 4883E828 		subq	$40, %rax
 9427 9834 488B10   		movq	(%rax), %rdx
 9428 9837 4989C6   		movq	%rax, %r14
 9429 983a 4889C7   		movq	%rax, %rdi
 9430 983d FF12     		call	*(%rdx)
 9431 983f 488D9550 		leaq	-1712(%rbp), %rdx
 9431      F9FFFF
 9432 9846 4939D6   		cmpq	%rdx, %r14
 9433 9849 75E2     		jne	.L1840
 9434 984b 4889D8   		movq	%rbx, %rax
 9435              	.L1860:
 9436 984e 4889C3   		movq	%rax, %rbx
 9437 9851 488D85B0 		leaq	-1872(%rbp), %rax
 9437      F8FFFF
 9438 9858 4805A000 		addq	$160, %rax
 9438      0000
 9439 985e 4989C6   		movq	%rax, %r14
 9440 9861 E9C2F6FF 		jmp	.L1783
 9440      FF
 9441              	.L1750:
 9442 9866 488D9550 		leaq	-1712(%rbp), %rdx
 9442      F9FFFF
 9443 986d 4889C3   		movq	%rax, %rbx
 9444 9870 4883C250 		addq	$80, %rdx
 9445 9874 4989D6   		movq	%rdx, %r14
 9446 9877 EBB4     		jmp	.L1840
 9447              	.L1749:
 9448 9879 488D9550 		leaq	-1712(%rbp), %rdx
 9448      F9FFFF
 9449 9880 4889C3   		movq	%rax, %rbx
GAS LISTING /tmp/cce5yULP.s 			page 257


 9450 9883 4883C228 		addq	$40, %rdx
 9451 9887 4989D6   		movq	%rdx, %r14
 9452 988a EBA1     		jmp	.L1840
 9453              	.L1735:
 9454 988c 488D95B0 		leaq	-1872(%rbp), %rdx
 9454      F8FFFF
 9455 9893 4889C3   		movq	%rax, %rbx
 9456 9896 4883C278 		addq	$120, %rdx
 9457 989a 4989D6   		movq	%rdx, %r14
 9458              	.L1835:
 9459 989d 4C89F0   		movq	%r14, %rax
 9460 98a0 4883E828 		subq	$40, %rax
 9461 98a4 488B10   		movq	(%rax), %rdx
 9462 98a7 4989C6   		movq	%rax, %r14
 9463 98aa 4889C7   		movq	%rax, %rdi
 9464 98ad FF12     		call	*(%rdx)
 9465 98af 488D95B0 		leaq	-1872(%rbp), %rdx
 9465      F8FFFF
 9466 98b6 4939D6   		cmpq	%rdx, %r14
 9467 98b9 75E2     		jne	.L1835
 9468 98bb 4889D8   		movq	%rbx, %rax
 9469              	.L1861:
 9470 98be 4889C3   		movq	%rax, %rbx
 9471 98c1 488D8510 		leaq	-2032(%rbp), %rax
 9471      F8FFFF
 9472 98c8 4805A000 		addq	$160, %rax
 9472      0000
 9473 98ce 4989C6   		movq	%rax, %r14
 9474 98d1 E980F6FF 		jmp	.L1784
 9474      FF
 9475              	.L1748:
 9476 98d6 488D95B0 		leaq	-1872(%rbp), %rdx
 9476      F8FFFF
 9477 98dd 4889C3   		movq	%rax, %rbx
 9478 98e0 4883C250 		addq	$80, %rdx
 9479 98e4 4989D6   		movq	%rdx, %r14
 9480 98e7 EBB4     		jmp	.L1835
 9481              	.L1740:
 9482 98e9 E960FFFF 		jmp	.L1860
 9482      FF
 9483              	.L1747:
 9484 98ee 488D95B0 		leaq	-1872(%rbp), %rdx
 9484      F8FFFF
 9485 98f5 4889C3   		movq	%rax, %rbx
 9486 98f8 4883C228 		addq	$40, %rdx
 9487 98fc 4989D6   		movq	%rdx, %r14
 9488 98ff EB9C     		jmp	.L1835
 9489              	.L1745:
 9490 9901 488D9510 		leaq	-2032(%rbp), %rdx
 9490      F8FFFF
 9491 9908 4889C3   		movq	%rax, %rbx
 9492 990b 4883C228 		addq	$40, %rdx
 9493 990f 4989D6   		movq	%rdx, %r14
 9494              	.L1830:
 9495 9912 4C89F0   		movq	%r14, %rax
 9496 9915 4883E828 		subq	$40, %rax
 9497 9919 488B10   		movq	(%rax), %rdx
GAS LISTING /tmp/cce5yULP.s 			page 258


 9498 991c 4989C6   		movq	%rax, %r14
 9499 991f 4889C7   		movq	%rax, %rdi
 9500 9922 FF12     		call	*(%rdx)
 9501 9924 488D9510 		leaq	-2032(%rbp), %rdx
 9501      F8FFFF
 9502 992b 4939D6   		cmpq	%rdx, %r14
 9503 992e 75E2     		jne	.L1830
 9504 9930 4889D8   		movq	%rbx, %rax
 9505 9933 EB00     		jmp	.L1862
 9506              	.L1738:
 9507              	.L1862:
 9508 9935 4889C3   		movq	%rax, %rbx
 9509 9938 488D8570 		leaq	-2192(%rbp), %rax
 9509      F7FFFF
 9510 993f 4805A000 		addq	$160, %rax
 9510      0000
 9511 9945 4989C6   		movq	%rax, %r14
 9512 9948 E937F6FF 		jmp	.L1785
 9512      FF
 9513              	.L1733:
 9514 994d 488D9570 		leaq	-2192(%rbp), %rdx
 9514      F7FFFF
 9515 9954 4889C3   		movq	%rax, %rbx
 9516 9957 4883C278 		addq	$120, %rdx
 9517 995b 4989D6   		movq	%rdx, %r14
 9518              	.L1825:
 9519 995e 4C89F0   		movq	%r14, %rax
 9520 9961 4883E828 		subq	$40, %rax
 9521 9965 488B10   		movq	(%rax), %rdx
 9522 9968 4989C6   		movq	%rax, %r14
 9523 996b 4889C7   		movq	%rax, %rdi
 9524 996e FF12     		call	*(%rdx)
 9525 9970 488D9570 		leaq	-2192(%rbp), %rdx
 9525      F7FFFF
 9526 9977 4939D6   		cmpq	%rdx, %r14
 9527 997a 75E2     		jne	.L1825
 9528 997c 4889D8   		movq	%rbx, %rax
 9529              	.L1863:
 9530 997f 4889C3   		movq	%rax, %rbx
 9531 9982 488D85D0 		leaq	-2352(%rbp), %rax
 9531      F6FFFF
 9532 9989 4805A000 		addq	$160, %rax
 9532      0000
 9533 998f 4989C6   		movq	%rax, %r14
 9534 9992 E91BF6FF 		jmp	.L1786
 9534      FF
 9535              	.L1744:
 9536 9997 488D9570 		leaq	-2192(%rbp), %rdx
 9536      F7FFFF
 9537 999e 4889C3   		movq	%rax, %rbx
 9538 99a1 4883C250 		addq	$80, %rdx
 9539 99a5 4989D6   		movq	%rdx, %r14
 9540 99a8 EBB4     		jmp	.L1825
 9541              	.L1734:
 9542 99aa 488D9510 		leaq	-2032(%rbp), %rdx
 9542      F8FFFF
 9543 99b1 4889C3   		movq	%rax, %rbx
GAS LISTING /tmp/cce5yULP.s 			page 259


 9544 99b4 4883C278 		addq	$120, %rdx
 9545 99b8 4989D6   		movq	%rdx, %r14
 9546 99bb E952FFFF 		jmp	.L1830
 9546      FF
 9547              	.L1746:
 9548 99c0 488D9510 		leaq	-2032(%rbp), %rdx
 9548      F8FFFF
 9549 99c7 4889C3   		movq	%rax, %rbx
 9550 99ca 4883C250 		addq	$80, %rdx
 9551 99ce 4989D6   		movq	%rdx, %r14
 9552 99d1 E93CFFFF 		jmp	.L1830
 9552      FF
 9553              	.L1739:
 9554 99d6 E9E3FEFF 		jmp	.L1861
 9554      FF
 9555              	.L1743:
 9556 99db 488D9570 		leaq	-2192(%rbp), %rdx
 9556      F7FFFF
 9557 99e2 4889C3   		movq	%rax, %rbx
 9558 99e5 4883C228 		addq	$40, %rdx
 9559 99e9 4989D6   		movq	%rdx, %r14
 9560 99ec E96DFFFF 		jmp	.L1825
 9560      FF
 9561              	.L1737:
 9562 99f1 EB8C     		jmp	.L1863
 9563              	.L1732:
 9564 99f3 488D95D0 		leaq	-2352(%rbp), %rdx
 9564      F6FFFF
 9565 99fa 4889C3   		movq	%rax, %rbx
 9566 99fd 4883C278 		addq	$120, %rdx
 9567 9a01 4989D6   		movq	%rdx, %r14
 9568              	.L1820:
 9569 9a04 4C89F0   		movq	%r14, %rax
 9570 9a07 4883E828 		subq	$40, %rax
 9571 9a0b 488B10   		movq	(%rax), %rdx
 9572 9a0e 4989C6   		movq	%rax, %r14
 9573 9a11 4889C7   		movq	%rax, %rdi
 9574 9a14 FF12     		call	*(%rdx)
 9575 9a16 488D95D0 		leaq	-2352(%rbp), %rdx
 9575      F6FFFF
 9576 9a1d 4939D6   		cmpq	%rdx, %r14
 9577 9a20 75E2     		jne	.L1820
 9578 9a22 E93CF0FF 		jmp	.L1627
 9578      FF
 9579              	.L1742:
 9580 9a27 488D95D0 		leaq	-2352(%rbp), %rdx
 9580      F6FFFF
 9581 9a2e 4889C3   		movq	%rax, %rbx
 9582 9a31 4883C250 		addq	$80, %rdx
 9583 9a35 4989D6   		movq	%rdx, %r14
 9584 9a38 EBCA     		jmp	.L1820
 9585              	.L1741:
 9586 9a3a 488D95D0 		leaq	-2352(%rbp), %rdx
 9586      F6FFFF
 9587 9a41 4889C3   		movq	%rax, %rbx
 9588 9a44 4883C228 		addq	$40, %rdx
 9589 9a48 4989D6   		movq	%rdx, %r14
GAS LISTING /tmp/cce5yULP.s 			page 260


 9590 9a4b EBB7     		jmp	.L1820
 9591              	.L1939:
 9592 9a4d BF010000 		movl	$1, %edi
 9592      00
 9593 9a52 E8000000 		call	exit
 9593      00
 9594              	.L1695:
 9595 9a57 4889C3   		movq	%rax, %rbx
 9596 9a5a E904F0FF 		jmp	.L1627
 9596      FF
 9597              	.L1731:
 9598 9a5f E90DD4FF 		jmp	.L1864
 9598      FF
 9599              	.L1938:
 9600 9a64 488B85C0 		movq	-576(%rbp), %rax
 9600      FDFFFF
 9601 9a6b 488DBDC0 		leaq	-576(%rbp), %rdi
 9601      FDFFFF
 9602 9a72 480378E8 		addq	-24(%rax), %rdi
 9603 9a76 8B7720   		movl	32(%rdi), %esi
 9604 9a79 83CE04   		orl	$4, %esi
 9605              	.LEHB207:
 9606 9a7c E8000000 		call	_ZNSt9basic_iosIcSt11char_traitsIcEE5clearESt12_Ios_Iostate
 9606      00
 9607              	.LEHE207:
 9608 9a81 E953D7FF 		jmp	.L1473
 9608      FF
 9609              	.L1729:
 9610 9a86 E9E6D3FF 		jmp	.L1864
 9610      FF
 9611              	.L1716:
 9612 9a8b E9E1D3FF 		jmp	.L1864
 9612      FF
 9613              	.L1730:
 9614 9a90 E9DCD3FF 		jmp	.L1864
 9614      FF
 9615              	.L1935:
 9616 9a95 488B85C0 		movq	-576(%rbp), %rax
 9616      FDFFFF
 9617 9a9c 488DBDC0 		leaq	-576(%rbp), %rdi
 9617      FDFFFF
 9618 9aa3 480378E8 		addq	-24(%rax), %rdi
 9619 9aa7 8B7720   		movl	32(%rdi), %esi
 9620 9aaa 83CE04   		orl	$4, %esi
 9621              	.LEHB208:
 9622 9aad E8000000 		call	_ZNSt9basic_iosIcSt11char_traitsIcEE5clearESt12_Ios_Iostate
 9622      00
 9623              	.LEHE208:
 9624 9ab2 E94AD5FF 		jmp	.L1437
 9624      FF
 9625              	.L1714:
 9626 9ab7 E9B5D3FF 		jmp	.L1864
 9626      FF
 9627              	.L1715:
 9628 9abc E9B0D3FF 		jmp	.L1864
 9628      FF
 9629              	.L1728:
GAS LISTING /tmp/cce5yULP.s 			page 261


 9630 9ac1 E9ABD3FF 		jmp	.L1864
 9630      FF
 9631              	.L1727:
 9632 9ac6 E9A6D3FF 		jmp	.L1864
 9632      FF
 9633              	.L1707:
 9634 9acb 4889C3   		movq	%rax, %rbx
 9635 9ace 488BBD60 		movq	-2464(%rbp), %rdi
 9635      F6FFFF
 9636 9ad5 488D8560 		leaq	-2464(%rbp), %rax
 9636      F6FFFF
 9637 9adc 4883C010 		addq	$16, %rax
 9638 9ae0 4839C7   		cmpq	%rax, %rdi
 9639 9ae3 0F848BD3 		je	.L1433
 9639      FFFF
 9640 9ae9 E8000000 		call	_ZdlPv
 9640      00
 9641 9aee E981D3FF 		jmp	.L1433
 9641      FF
 9642              	.L1934:
 9643 9af3 BF000000 		movl	$.LC33, %edi
 9643      00
 9644              	.LEHB209:
 9645 9af8 E8000000 		call	_ZSt20__throw_length_errorPKc
 9645      00
 9646              	.LEHE209:
 9647              	.L1932:
 9648 9afd 488DB5C8 		leaq	-3640(%rbp), %rsi
 9648      F1FFFF
 9649 9b04 488DBD60 		leaq	-2464(%rbp), %rdi
 9649      F6FFFF
 9650 9b0b 31D2     		xorl	%edx, %edx
 9651              	.LEHB210:
 9652 9b0d E8000000 		call	_ZNSt7__cxx1112basic_stringIcSt11char_traitsIcESaIcEE9_M_createERmm
 9652      00
 9653              	.LEHE210:
 9654 9b12 488B95C8 		movq	-3640(%rbp), %rdx
 9654      F1FFFF
 9655 9b19 48898560 		movq	%rax, -2464(%rbp)
 9655      F6FFFF
 9656 9b20 48899570 		movq	%rdx, -2448(%rbp)
 9656      F6FFFF
 9657              	.L1425:
 9658 9b27 488B9598 		movq	-3688(%rbp), %rdx
 9658      F1FFFF
 9659 9b2e 4C89EE   		movq	%r13, %rsi
 9660 9b31 4889C7   		movq	%rax, %rdi
 9661 9b34 E8000000 		call	memcpy
 9661      00
 9662 9b39 488B85C8 		movq	-3640(%rbp), %rax
 9662      F1FFFF
 9663 9b40 48898598 		movq	%rax, -3688(%rbp)
 9663      F1FFFF
 9664 9b47 488B8560 		movq	-2464(%rbp), %rax
 9664      F6FFFF
 9665 9b4e E9FED3FF 		jmp	.L1427
 9665      FF
GAS LISTING /tmp/cce5yULP.s 			page 262


 9666              	.L1933:
 9667 9b53 410FB645 		movzbl	0(%r13), %eax
 9667      00
 9668 9b58 888570F6 		movb	%al, -2448(%rbp)
 9668      FFFF
 9669 9b5e 488D8560 		leaq	-2464(%rbp), %rax
 9669      F6FFFF
 9670 9b65 4883C010 		addq	$16, %rax
 9671 9b69 E9E3D3FF 		jmp	.L1427
 9671      FF
 9672              	.L1706:
 9673 9b6e 4889C3   		movq	%rax, %rbx
 9674 9b71 488D85C0 		leaq	-576(%rbp), %rax
 9674      FDFFFF
 9675 9b78 488D7808 		leaq	8(%rax), %rdi
 9676 9b7c E8000000 		call	_ZNSt13basic_filebufIcSt11char_traitsIcEED1Ev
 9676      00
 9677 9b81 4889D8   		movq	%rbx, %rax
 9678              	.L1420:
 9679 9b84 488B1500 		movq	_ZTTSt14basic_ofstreamIcSt11char_traitsIcEE+8(%rip), %rdx
 9679      000000
 9680 9b8b 488B0D00 		movq	_ZTTSt14basic_ofstreamIcSt11char_traitsIcEE+16(%rip), %rcx
 9680      000000
 9681 9b92 4889C3   		movq	%rax, %rbx
 9682 9b95 488B52E8 		movq	-24(%rdx), %rdx
 9683 9b99 48898C15 		movq	%rcx, -576(%rbp,%rdx)
 9683      C0FDFFFF 
 9684 9ba1 E944D3FF 		jmp	.L1867
 9684      FF
 9685              	.L1705:
 9686 9ba6 EBDC     		jmp	.L1420
 9687              	.L1704:
 9688 9ba8 4889C3   		movq	%rax, %rbx
 9689 9bab E93AD3FF 		jmp	.L1867
 9689      FF
 9690              	.L1927:
 9691 9bb0 488D8520 		leaq	-2528(%rbp), %rax
 9691      F6FFFF
 9692 9bb7 4D8BAC24 		movq	216(%r12), %r13
 9692      D8000000 
 9693 9bbf 4883C010 		addq	$16, %rax
 9694 9bc3 48898520 		movq	%rax, -2528(%rbp)
 9694      F6FFFF
 9695 9bca 498B8424 		movq	224(%r12), %rax
 9695      E0000000 
 9696 9bd2 48898598 		movq	%rax, -3688(%rbp)
 9696      F1FFFF
 9697 9bd9 4C01E8   		addq	%r13, %rax
 9698 9bdc 7434     		je	.L1385
 9699 9bde 4D85ED   		testq	%r13, %r13
 9700 9be1 752F     		jne	.L1385
 9701 9be3 BF000000 		movl	$.LC39, %edi
 9701      00
 9702              	.LEHB211:
 9703 9be8 E8000000 		call	_ZSt19__throw_logic_errorPKc
 9703      00
 9704              	.LEHE211:
GAS LISTING /tmp/cce5yULP.s 			page 263


 9705              	.L1701:
 9706 9bed 4889C3   		movq	%rax, %rbx
 9707 9bf0 488D85C0 		leaq	-1088(%rbp), %rax
 9707      FBFFFF
 9708 9bf7 488D7808 		leaq	8(%rax), %rdi
 9709 9bfb E8000000 		call	_ZNSt13basic_filebufIcSt11char_traitsIcEED1Ev
 9709      00
 9710 9c00 E9CECFFF 		jmp	.L1872
 9710      FF
 9711              	.L1700:
 9712 9c05 4889C3   		movq	%rax, %rbx
 9713 9c08 E9C6CFFF 		jmp	.L1872
 9713      FF
 9714              	.L1752:
 9715 9c0d E946CFFF 		jmp	.L1865
 9715      FF
 9716              	.L1385:
 9717 9c12 488B8598 		movq	-3688(%rbp), %rax
 9717      F1FFFF
 9718 9c19 4883F80F 		cmpq	$15, %rax
 9719 9c1d 488985B8 		movq	%rax, -3656(%rbp)
 9719      F1FFFF
 9720 9c24 0F877601 		ja	.L1958
 9720      0000
 9721 9c2a 4883BD98 		cmpq	$1, -3688(%rbp)
 9721      F1FFFF01 
 9722 9c32 0F84BE01 		je	.L1959
 9722      0000
 9723 9c38 488D8520 		leaq	-2528(%rbp), %rax
 9723      F6FFFF
 9724 9c3f 4883C010 		addq	$16, %rax
 9725 9c43 4883BD98 		cmpq	$0, -3688(%rbp)
 9725      F1FFFF00 
 9726 9c4b 0F857901 		jne	.L1389
 9726      0000
 9727              	.L1391:
 9728 9c51 488B9598 		movq	-3688(%rbp), %rdx
 9728      F1FFFF
 9729 9c58 48899528 		movq	%rdx, -2520(%rbp)
 9729      F6FFFF
 9730 9c5f C6041000 		movb	$0, (%rax,%rdx)
 9731 9c63 48B8FFFF 		movabsq	$9223372036854775807, %rax
 9731      FFFFFFFF 
 9731      FF7F
 9732 9c6d 482B8528 		subq	-2520(%rbp), %rax
 9732      F6FFFF
 9733 9c74 4883F80D 		cmpq	$13, %rax
 9734 9c78 0F861801 		jbe	.L1960
 9734      0000
 9735 9c7e 488DBD20 		leaq	-2528(%rbp), %rdi
 9735      F6FFFF
 9736 9c85 BA0E0000 		movl	$14, %edx
 9736      00
 9737 9c8a BE000000 		movl	$.LC48, %esi
 9737      00
 9738              	.LEHB212:
 9739 9c8f E8000000 		call	_ZNSt7__cxx1112basic_stringIcSt11char_traitsIcESaIcEE9_M_appendEPKcm
GAS LISTING /tmp/cce5yULP.s 			page 264


 9739      00
 9740              	.LEHE212:
 9741 9c94 488DBD00 		leaq	-2560(%rbp), %rdi
 9741      F6FFFF
 9742 9c9b 488DB520 		leaq	-2528(%rbp), %rsi
 9742      F6FFFF
 9743 9ca2 E8000000 		call	_ZNSt7__cxx1112basic_stringIcSt11char_traitsIcESaIcEE4swapERS4_
 9743      00
 9744 9ca7 488BBD20 		movq	-2528(%rbp), %rdi
 9744      F6FFFF
 9745 9cae 488D8520 		leaq	-2528(%rbp), %rax
 9745      F6FFFF
 9746 9cb5 4883C010 		addq	$16, %rax
 9747 9cb9 4839C7   		cmpq	%rax, %rdi
 9748 9cbc 0F851ED0 		jne	.L1407
 9748      FFFF
 9749 9cc2 E91ED0FF 		jmp	.L1397
 9749      FF
 9750              	.L1930:
 9751 9cc7 BF000000 		movl	$.LC33, %edi
 9751      00
 9752              	.LEHB213:
 9753 9ccc E8000000 		call	_ZSt20__throw_length_errorPKc
 9753      00
 9754              	.LEHE213:
 9755              	.L1699:
 9756 9cd1 4889C3   		movq	%rax, %rbx
 9757 9cd4 E914CFFF 		jmp	.L1868
 9757      FF
 9758              	.L1374:
 9759 9cd9 F2410F10 		movsd	40(%r12), %xmm7
 9759      7C2428
 9760 9ce0 F20F11BD 		movsd	%xmm7, -3872(%rbp)
 9760      E0F0FFFF 
 9761 9ce8 E90BCDFF 		jmp	.L1375
 9761      FF
 9762              	.L1688:
 9763 9ced 4889C3   		movq	%rax, %rbx
 9764 9cf0 E922CFFF 		jmp	.L1651
 9764      FF
 9765              	.L1687:
 9766 9cf5 4889C3   		movq	%rax, %rbx
 9767 9cf8 E926CFFF 		jmp	.L1652
 9767      FF
 9768              	.L1929:
 9769 9cfd 410FB645 		movzbl	0(%r13), %eax
 9769      00
 9770 9d02 888550F6 		movb	%al, -2480(%rbp)
 9770      FFFF
 9771 9d08 488D8540 		leaq	-2496(%rbp), %rax
 9771      F6FFFF
 9772 9d0f 4883C010 		addq	$16, %rax
 9773 9d13 E95BCFFF 		jmp	.L1405
 9773      FF
 9774              	.L1928:
 9775 9d18 488DB5C0 		leaq	-3648(%rbp), %rsi
 9775      F1FFFF
GAS LISTING /tmp/cce5yULP.s 			page 265


 9776 9d1f 488DBD40 		leaq	-2496(%rbp), %rdi
 9776      F6FFFF
 9777 9d26 31D2     		xorl	%edx, %edx
 9778              	.LEHB214:
 9779 9d28 E8000000 		call	_ZNSt7__cxx1112basic_stringIcSt11char_traitsIcESaIcEE9_M_createERmm
 9779      00
 9780              	.LEHE214:
 9781 9d2d 488B95C0 		movq	-3648(%rbp), %rdx
 9781      F1FFFF
 9782 9d34 48898540 		movq	%rax, -2496(%rbp)
 9782      F6FFFF
 9783 9d3b 48899550 		movq	%rdx, -2480(%rbp)
 9783      F6FFFF
 9784              	.L1403:
 9785 9d42 488B9598 		movq	-3688(%rbp), %rdx
 9785      F1FFFF
 9786 9d49 4C89EE   		movq	%r13, %rsi
 9787 9d4c 4889C7   		movq	%rax, %rdi
 9788 9d4f E8000000 		call	memcpy
 9788      00
 9789 9d54 488B85C0 		movq	-3648(%rbp), %rax
 9789      F1FFFF
 9790 9d5b 48898598 		movq	%rax, -3688(%rbp)
 9790      F1FFFF
 9791 9d62 488B8540 		movq	-2496(%rbp), %rax
 9791      F6FFFF
 9792 9d69 E905CFFF 		jmp	.L1405
 9792      FF
 9793              	.L1702:
 9794 9d6e 4889C3   		movq	%rax, %rbx
 9795 9d71 488BBD20 		movq	-2528(%rbp), %rdi
 9795      F6FFFF
 9796 9d78 488D8520 		leaq	-2528(%rbp), %rax
 9796      F6FFFF
 9797 9d7f 4883C010 		addq	$16, %rax
 9798 9d83 4839C7   		cmpq	%rax, %rdi
 9799 9d86 0F85B9D0 		jne	.L1866
 9799      FFFF
 9800 9d8c E9CACDFF 		jmp	.L1388
 9800      FF
 9801              	.L1753:
 9802 9d91 E9C2CDFF 		jmp	.L1865
 9802      FF
 9803              	.L1960:
 9804 9d96 BF000000 		movl	$.LC33, %edi
 9804      00
 9805              	.LEHB215:
 9806 9d9b E8000000 		call	_ZSt20__throw_length_errorPKc
 9806      00
 9807              	.LEHE215:
 9808              	.L1958:
 9809 9da0 488DB5B8 		leaq	-3656(%rbp), %rsi
 9809      F1FFFF
 9810 9da7 488DBD20 		leaq	-2528(%rbp), %rdi
 9810      F6FFFF
 9811 9dae 31D2     		xorl	%edx, %edx
 9812              	.LEHB216:
GAS LISTING /tmp/cce5yULP.s 			page 266


 9813 9db0 E8000000 		call	_ZNSt7__cxx1112basic_stringIcSt11char_traitsIcESaIcEE9_M_createERmm
 9813      00
 9814              	.LEHE216:
 9815 9db5 488B95B8 		movq	-3656(%rbp), %rdx
 9815      F1FFFF
 9816 9dbc 48898520 		movq	%rax, -2528(%rbp)
 9816      F6FFFF
 9817 9dc3 48899530 		movq	%rdx, -2512(%rbp)
 9817      F6FFFF
 9818              	.L1389:
 9819 9dca 488B9598 		movq	-3688(%rbp), %rdx
 9819      F1FFFF
 9820 9dd1 4C89EE   		movq	%r13, %rsi
 9821 9dd4 4889C7   		movq	%rax, %rdi
 9822 9dd7 E8000000 		call	memcpy
 9822      00
 9823 9ddc 488B85B8 		movq	-3656(%rbp), %rax
 9823      F1FFFF
 9824 9de3 48898598 		movq	%rax, -3688(%rbp)
 9824      F1FFFF
 9825 9dea 488B8520 		movq	-2528(%rbp), %rax
 9825      F6FFFF
 9826 9df1 E95BFEFF 		jmp	.L1391
 9826      FF
 9827              	.L1959:
 9828 9df6 410FB645 		movzbl	0(%r13), %eax
 9828      00
 9829 9dfb 888530F6 		movb	%al, -2512(%rbp)
 9829      FFFF
 9830 9e01 488D8520 		leaq	-2528(%rbp), %rax
 9830      F6FFFF
 9831 9e08 4883C010 		addq	$16, %rax
 9832 9e0c E940FEFF 		jmp	.L1391
 9832      FF
 9833              	.L1751:
 9834 9e11 E942CDFF 		jmp	.L1865
 9834      FF
 9835              		.cfi_endproc
 9836              	.LFE8454:
 9837              		.section	.gcc_except_table
 9838              	.LLSDA8454:
 9839 0333 FF       		.byte	0xff
 9840 0334 FF       		.byte	0xff
 9841 0335 01       		.byte	0x1
 9842 0336 EE03     		.uleb128 .LLSDACSE8454-.LLSDACSB8454
 9843              	.LLSDACSB8454:
 9844 0338 9A01     		.uleb128 .LEHB135-.LFB8454
 9845 033a 05       		.uleb128 .LEHE135-.LEHB135
 9846 033b 00       		.uleb128 0
 9847 033c 00       		.uleb128 0
 9848 033d AA01     		.uleb128 .LEHB136-.LFB8454
 9849 033f 05       		.uleb128 .LEHE136-.LEHB136
 9850 0340 E104     		.uleb128 .L1686-.LFB8454
 9851 0342 00       		.uleb128 0
 9852 0343 BD01     		.uleb128 .LEHB137-.LFB8454
 9853 0345 05       		.uleb128 .LEHE137-.LEHB137
 9854 0346 9568     		.uleb128 .L1687-.LFB8454
GAS LISTING /tmp/cce5yULP.s 			page 267


 9855 0348 00       		.uleb128 0
 9856 0349 CC01     		.uleb128 .LEHB138-.LFB8454
 9857 034b 20       		.uleb128 .LEHE138-.LEHB138
 9858 034c 8D68     		.uleb128 .L1688-.LFB8454
 9859 034e 00       		.uleb128 0
 9860 034f A003     		.uleb128 .LEHB139-.LFB8454
 9861 0351 05       		.uleb128 .LEHE139-.LEHB139
 9862 0352 F167     		.uleb128 .L1699-.LFB8454
 9863 0354 00       		.uleb128 0
 9864 0355 C603     		.uleb128 .LEHB140-.LFB8454
 9865 0357 05       		.uleb128 .LEHE140-.LEHB140
 9866 0358 A566     		.uleb128 .L1700-.LFB8454
 9867 035a 00       		.uleb128 0
 9868 035b DD03     		.uleb128 .LEHB141-.LFB8454
 9869 035d 05       		.uleb128 .LEHE141-.LEHB141
 9870 035e 8D66     		.uleb128 .L1701-.LFB8454
 9871 0360 00       		.uleb128 0
 9872 0361 DC04     		.uleb128 .LEHB142-.LFB8454
 9873 0363 05       		.uleb128 .LEHE142-.LEHB142
 9874 0364 F804     		.uleb128 .L1689-.LFB8454
 9875 0366 00       		.uleb128 0
 9876 0367 F304     		.uleb128 .LEHB143-.LFB8454
 9877 0369 05       		.uleb128 .LEHE143-.LEHB143
 9878 036a 00       		.uleb128 0
 9879 036b 00       		.uleb128 0
 9880 036c D107     		.uleb128 .LEHB144-.LFB8454
 9881 036e 05       		.uleb128 .LEHE144-.LEHB144
 9882 036f C70A     		.uleb128 .L1703-.LFB8454
 9883 0371 00       		.uleb128 0
 9884 0372 9C08     		.uleb128 .LEHB145-.LFB8454
 9885 0374 05       		.uleb128 .LEHE145-.LEHB145
 9886 0375 C20A     		.uleb128 .L1711-.LFB8454
 9887 0377 00       		.uleb128 0
 9888 0378 BE08     		.uleb128 .LEHB146-.LFB8454
 9889 037a 05       		.uleb128 .LEHE146-.LEHB146
 9890 037b BD0A     		.uleb128 .L1713-.LFB8454
 9891 037d 00       		.uleb128 0
 9892 037e B609     		.uleb128 .LEHB147-.LFB8454
 9893 0380 05       		.uleb128 .LEHE147-.LEHB147
 9894 0381 C865     		.uleb128 .L1704-.LFB8454
 9895 0383 00       		.uleb128 0
 9896 0384 DC09     		.uleb128 .LEHB148-.LFB8454
 9897 0386 05       		.uleb128 .LEHE148-.LEHB148
 9898 0387 C665     		.uleb128 .L1705-.LFB8454
 9899 0389 00       		.uleb128 0
 9900 038a F309     		.uleb128 .LEHB149-.LFB8454
 9901 038c 05       		.uleb128 .LEHE149-.LEHB149
 9902 038d 8E65     		.uleb128 .L1706-.LFB8454
 9903 038f 00       		.uleb128 0
 9904 0390 B80A     		.uleb128 .LEHB150-.LFB8454
 9905 0392 05       		.uleb128 .LEHE150-.LEHB150
 9906 0393 910B     		.uleb128 .L1690-.LFB8454
 9907 0395 00       		.uleb128 0
 9908 0396 870B     		.uleb128 .LEHB151-.LFB8454
 9909 0398 05       		.uleb128 .LEHE151-.LEHB151
 9910 0399 AD0C     		.uleb128 .L1712-.LFB8454
 9911 039b 00       		.uleb128 0
GAS LISTING /tmp/cce5yULP.s 			page 268


 9912 039c AF0D     		.uleb128 .LEHB152-.LFB8454
 9913 039e 05       		.uleb128 .LEHE152-.LEHB152
 9914 039f EB63     		.uleb128 .L1707-.LFB8454
 9915 03a1 00       		.uleb128 0
 9916 03a2 FA0D     		.uleb128 .LEHB153-.LFB8454
 9917 03a4 05       		.uleb128 .LEHE153-.LEHB153
 9918 03a5 D763     		.uleb128 .L1714-.LFB8454
 9919 03a7 00       		.uleb128 0
 9920 03a8 9C0E     		.uleb128 .LEHB154-.LFB8454
 9921 03aa 05       		.uleb128 .LEHE154-.LEHB154
 9922 03ab AB63     		.uleb128 .L1716-.LFB8454
 9923 03ad 00       		.uleb128 0
 9924 03ae CB0E     		.uleb128 .LEHB155-.LFB8454
 9925 03b0 05       		.uleb128 .LEHE155-.LEHB155
 9926 03b1 E663     		.uleb128 .L1727-.LFB8454
 9927 03b3 00       		.uleb128 0
 9928 03b4 D30E     		.uleb128 .LEHB156-.LFB8454
 9929 03b6 05       		.uleb128 .LEHE156-.LEHB156
 9930 03b7 E163     		.uleb128 .L1728-.LFB8454
 9931 03b9 00       		.uleb128 0
 9932 03ba B60F     		.uleb128 .LEHB157-.LFB8454
 9933 03bc 05       		.uleb128 .LEHE157-.LEHB157
 9934 03bd DB11     		.uleb128 .L1717-.LFB8454
 9935 03bf 00       		.uleb128 0
 9936 03c0 CF0F     		.uleb128 .LEHB158-.LFB8454
 9937 03c2 05       		.uleb128 .LEHE158-.LEHB158
 9938 03c3 D611     		.uleb128 .L1718-.LFB8454
 9939 03c5 00       		.uleb128 0
 9940 03c6 E30F     		.uleb128 .LEHB159-.LFB8454
 9941 03c8 05       		.uleb128 .LEHE159-.LEHB159
 9942 03c9 D111     		.uleb128 .L1719-.LFB8454
 9943 03cb 00       		.uleb128 0
 9944 03cc FC0F     		.uleb128 .LEHB160-.LFB8454
 9945 03ce 05       		.uleb128 .LEHE160-.LEHB160
 9946 03cf CC11     		.uleb128 .L1720-.LFB8454
 9947 03d1 00       		.uleb128 0
 9948 03d2 9010     		.uleb128 .LEHB161-.LFB8454
 9949 03d4 05       		.uleb128 .LEHE161-.LEHB161
 9950 03d5 C711     		.uleb128 .L1721-.LFB8454
 9951 03d7 00       		.uleb128 0
 9952 03d8 A910     		.uleb128 .LEHB162-.LFB8454
 9953 03da 05       		.uleb128 .LEHE162-.LEHB162
 9954 03db C211     		.uleb128 .L1722-.LFB8454
 9955 03dd 00       		.uleb128 0
 9956 03de BD10     		.uleb128 .LEHB163-.LFB8454
 9957 03e0 05       		.uleb128 .LEHE163-.LEHB163
 9958 03e1 B811     		.uleb128 .L1723-.LFB8454
 9959 03e3 00       		.uleb128 0
 9960 03e4 F410     		.uleb128 .LEHB164-.LFB8454
 9961 03e6 05       		.uleb128 .LEHE164-.LEHB164
 9962 03e7 A911     		.uleb128 .L1725-.LFB8454
 9963 03e9 00       		.uleb128 0
 9964 03ea 9F11     		.uleb128 .LEHB165-.LFB8454
 9965 03ec 02       		.uleb128 .LEHE165-.LEHB165
 9966 03ed AE11     		.uleb128 .L1726-.LFB8454
 9967 03ef 00       		.uleb128 0
 9968 03f0 B311     		.uleb128 .LEHB166-.LFB8454
GAS LISTING /tmp/cce5yULP.s 			page 269


 9969 03f2 05       		.uleb128 .LEHE166-.LEHB166
 9970 03f3 BD11     		.uleb128 .L1724-.LFB8454
 9971 03f5 00       		.uleb128 0
 9972 03f6 EB11     		.uleb128 .LEHB167-.LFB8454
 9973 03f8 05       		.uleb128 .LEHE167-.LEHB167
 9974 03f9 A663     		.uleb128 .L1729-.LFB8454
 9975 03fb 00       		.uleb128 0
 9976 03fc 8012     		.uleb128 .LEHB168-.LFB8454
 9977 03fe 05       		.uleb128 .LEHE168-.LEHB168
 9978 03ff FF62     		.uleb128 .L1731-.LFB8454
 9979 0401 00       		.uleb128 0
 9980 0402 8C12     		.uleb128 .LEHB169-.LFB8454
 9981 0404 AD01     		.uleb128 .LEHE169-.LEHB169
 9982 0406 A342     		.uleb128 .L1691-.LFB8454
 9983 0408 00       		.uleb128 0
 9984 0409 C013     		.uleb128 .LEHB170-.LFB8454
 9985 040b 05       		.uleb128 .LEHE170-.LEHB170
 9986 040c 9E42     		.uleb128 .L1692-.LFB8454
 9987 040e 00       		.uleb128 0
 9988 040f CC13     		.uleb128 .LEHB171-.LFB8454
 9989 0411 05       		.uleb128 .LEHE171-.LEHB171
 9990 0412 A842     		.uleb128 .L1693-.LFB8454
 9991 0414 00       		.uleb128 0
 9992 0415 D813     		.uleb128 .LEHB172-.LFB8454
 9993 0417 05       		.uleb128 .LEHE172-.LEHB172
 9994 0418 F241     		.uleb128 .L1694-.LFB8454
 9995 041a 00       		.uleb128 0
 9996 041b 9214     		.uleb128 .LEHB173-.LFB8454
 9997 041d 05       		.uleb128 .LEHE173-.LEHB173
 9998 041e F762     		.uleb128 .L1695-.LFB8454
 9999 0420 00       		.uleb128 0
 10000 0421 CC14     		.uleb128 .LEHB174-.LFB8454
 10001 0423 05       		.uleb128 .LEHE174-.LEHB174
 10002 0424 AD42     		.uleb128 .L1696-.LFB8454
 10003 0426 00       		.uleb128 0
 10004 0427 F814     		.uleb128 .LEHB175-.LFB8454
 10005 0429 05       		.uleb128 .LEHE175-.LEHB175
 10006 042a F762     		.uleb128 .L1695-.LFB8454
 10007 042c 00       		.uleb128 0
 10008 042d 8815     		.uleb128 .LEHB176-.LFB8454
 10009 042f 05       		.uleb128 .LEHE176-.LEHB176
 10010 0430 DA62     		.uleb128 .L1741-.LFB8454
 10011 0432 00       		.uleb128 0
 10012 0433 9815     		.uleb128 .LEHB177-.LFB8454
 10013 0435 05       		.uleb128 .LEHE177-.LEHB177
 10014 0436 C762     		.uleb128 .L1742-.LFB8454
 10015 0438 00       		.uleb128 0
 10016 0439 A815     		.uleb128 .LEHB178-.LFB8454
 10017 043b 05       		.uleb128 .LEHE178-.LEHB178
 10018 043c 9362     		.uleb128 .L1732-.LFB8454
 10019 043e 00       		.uleb128 0
 10020 043f B415     		.uleb128 .LEHB179-.LFB8454
 10021 0441 05       		.uleb128 .LEHE179-.LEHB179
 10022 0442 9162     		.uleb128 .L1737-.LFB8454
 10023 0444 00       		.uleb128 0
 10024 0445 C415     		.uleb128 .LEHB180-.LFB8454
 10025 0447 05       		.uleb128 .LEHE180-.LEHB180
GAS LISTING /tmp/cce5yULP.s 			page 270


 10026 0448 FB61     		.uleb128 .L1743-.LFB8454
 10027 044a 00       		.uleb128 0
 10028 044b D415     		.uleb128 .LEHB181-.LFB8454
 10029 044d 05       		.uleb128 .LEHE181-.LEHB181
 10030 044e B761     		.uleb128 .L1744-.LFB8454
 10031 0450 00       		.uleb128 0
 10032 0451 E415     		.uleb128 .LEHB182-.LFB8454
 10033 0453 05       		.uleb128 .LEHE182-.LEHB182
 10034 0454 ED60     		.uleb128 .L1733-.LFB8454
 10035 0456 00       		.uleb128 0
 10036 0457 F015     		.uleb128 .LEHB183-.LFB8454
 10037 0459 05       		.uleb128 .LEHE183-.LEHB183
 10038 045a D560     		.uleb128 .L1738-.LFB8454
 10039 045c 00       		.uleb128 0
 10040 045d 8016     		.uleb128 .LEHB184-.LFB8454
 10041 045f 05       		.uleb128 .LEHE184-.LEHB184
 10042 0460 A160     		.uleb128 .L1745-.LFB8454
 10043 0462 00       		.uleb128 0
 10044 0463 9016     		.uleb128 .LEHB185-.LFB8454
 10045 0465 05       		.uleb128 .LEHE185-.LEHB185
 10046 0466 E061     		.uleb128 .L1746-.LFB8454
 10047 0468 00       		.uleb128 0
 10048 0469 A016     		.uleb128 .LEHB186-.LFB8454
 10049 046b 05       		.uleb128 .LEHE186-.LEHB186
 10050 046c CA61     		.uleb128 .L1734-.LFB8454
 10051 046e 00       		.uleb128 0
 10052 046f AC16     		.uleb128 .LEHB187-.LFB8454
 10053 0471 05       		.uleb128 .LEHE187-.LEHB187
 10054 0472 F661     		.uleb128 .L1739-.LFB8454
 10055 0474 00       		.uleb128 0
 10056 0475 BC16     		.uleb128 .LEHB188-.LFB8454
 10057 0477 05       		.uleb128 .LEHE188-.LEHB188
 10058 0478 8E60     		.uleb128 .L1747-.LFB8454
 10059 047a 00       		.uleb128 0
 10060 047b CC16     		.uleb128 .LEHB189-.LFB8454
 10061 047d 05       		.uleb128 .LEHE189-.LEHB189
 10062 047e F65F     		.uleb128 .L1748-.LFB8454
 10063 0480 00       		.uleb128 0
 10064 0481 DC16     		.uleb128 .LEHB190-.LFB8454
 10065 0483 05       		.uleb128 .LEHE190-.LEHB190
 10066 0484 AC5F     		.uleb128 .L1735-.LFB8454
 10067 0486 00       		.uleb128 0
 10068 0487 E816     		.uleb128 .LEHB191-.LFB8454
 10069 0489 05       		.uleb128 .LEHE191-.LEHB191
 10070 048a 8960     		.uleb128 .L1740-.LFB8454
 10071 048c 00       		.uleb128 0
 10072 048d F816     		.uleb128 .LEHB192-.LFB8454
 10073 048f 05       		.uleb128 .LEHE192-.LEHB192
 10074 0490 995F     		.uleb128 .L1749-.LFB8454
 10075 0492 00       		.uleb128 0
 10076 0493 8817     		.uleb128 .LEHB193-.LFB8454
 10077 0495 05       		.uleb128 .LEHE193-.LEHB193
 10078 0496 865F     		.uleb128 .L1750-.LFB8454
 10079 0498 00       		.uleb128 0
 10080 0499 9817     		.uleb128 .LEHB194-.LFB8454
 10081 049b 05       		.uleb128 .LEHE194-.LEHB194
 10082 049c BC5E     		.uleb128 .L1736-.LFB8454
GAS LISTING /tmp/cce5yULP.s 			page 271


 10083 049e 00       		.uleb128 0
 10084 049f E417     		.uleb128 .LEHB195-.LFB8454
 10085 04a1 F225     		.uleb128 .LEHE195-.LEHB195
 10086 04a3 874C     		.uleb128 .L1698-.LFB8454
 10087 04a5 00       		.uleb128 0
 10088 04a6 DB44     		.uleb128 .LEHB196-.LFB8454
 10089 04a8 F301     		.uleb128 .LEHE196-.LEHB196
 10090 04aa 874C     		.uleb128 .L1698-.LFB8454
 10091 04ac 00       		.uleb128 0
 10092 04ad C151     		.uleb128 .LEHB197-.LFB8454
 10093 04af B303     		.uleb128 .LEHE197-.LEHB197
 10094 04b1 874C     		.uleb128 .L1698-.LFB8454
 10095 04b3 00       		.uleb128 0
 10096 04b4 EE55     		.uleb128 .LEHB198-.LFB8454
 10097 04b6 05       		.uleb128 .LEHE198-.LEHB198
 10098 04b7 F355     		.uleb128 .L1708-.LFB8454
 10099 04b9 00       		.uleb128 0
 10100 04ba A457     		.uleb128 .LEHB199-.LFB8454
 10101 04bc 05       		.uleb128 .LEHE199-.LEHB199
 10102 04bd FF57     		.uleb128 .L1709-.LFB8454
 10103 04bf 00       		.uleb128 0
 10104 04c0 C057     		.uleb128 .LEHB200-.LFB8454
 10105 04c2 05       		.uleb128 .LEHE200-.LEHB200
 10106 04c3 874C     		.uleb128 .L1698-.LFB8454
 10107 04c5 00       		.uleb128 0
 10108 04c6 AB59     		.uleb128 .LEHB201-.LFB8454
 10109 04c8 05       		.uleb128 .LEHE201-.LEHB201
 10110 04c9 865A     		.uleb128 .L1710-.LFB8454
 10111 04cb 00       		.uleb128 0
 10112 04cc C759     		.uleb128 .LEHB202-.LFB8454
 10113 04ce 05       		.uleb128 .LEHE202-.LEHB202
 10114 04cf F355     		.uleb128 .L1708-.LFB8454
 10115 04d1 00       		.uleb128 0
 10116 04d2 A95B     		.uleb128 .LEHB203-.LFB8454
 10117 04d4 05       		.uleb128 .LEHE203-.LEHB203
 10118 04d5 995C     		.uleb128 .L1697-.LFB8454
 10119 04d7 00       		.uleb128 0
 10120 04d8 DA5B     		.uleb128 .LEHB204-.LFB8454
 10121 04da 05       		.uleb128 .LEHE204-.LEHB204
 10122 04db FF57     		.uleb128 .L1709-.LFB8454
 10123 04dd 00       		.uleb128 0
 10124 04de C45C     		.uleb128 .LEHB205-.LFB8454
 10125 04e0 05       		.uleb128 .LEHE205-.LEHB205
 10126 04e1 865A     		.uleb128 .L1710-.LFB8454
 10127 04e3 00       		.uleb128 0
 10128 04e4 B25E     		.uleb128 .LEHB206-.LFB8454
 10129 04e6 05       		.uleb128 .LEHE206-.LEHB206
 10130 04e7 874C     		.uleb128 .L1698-.LFB8454
 10131 04e9 00       		.uleb128 0
 10132 04ea 9C63     		.uleb128 .LEHB207-.LFB8454
 10133 04ec 05       		.uleb128 .LEHE207-.LEHB207
 10134 04ed B063     		.uleb128 .L1730-.LFB8454
 10135 04ef 00       		.uleb128 0
 10136 04f0 CD63     		.uleb128 .LEHB208-.LFB8454
 10137 04f2 05       		.uleb128 .LEHE208-.LEHB208
 10138 04f3 DC63     		.uleb128 .L1715-.LFB8454
 10139 04f5 00       		.uleb128 0
GAS LISTING /tmp/cce5yULP.s 			page 272


 10140 04f6 9864     		.uleb128 .LEHB209-.LFB8454
 10141 04f8 05       		.uleb128 .LEHE209-.LEHB209
 10142 04f9 EB63     		.uleb128 .L1707-.LFB8454
 10143 04fb 00       		.uleb128 0
 10144 04fc AD64     		.uleb128 .LEHB210-.LFB8454
 10145 04fe 05       		.uleb128 .LEHE210-.LEHB210
 10146 04ff 910B     		.uleb128 .L1690-.LFB8454
 10147 0501 00       		.uleb128 0
 10148 0502 8866     		.uleb128 .LEHB211-.LFB8454
 10149 0504 05       		.uleb128 .LEHE211-.LEHB211
 10150 0505 AD66     		.uleb128 .L1752-.LFB8454
 10151 0507 00       		.uleb128 0
 10152 0508 AF67     		.uleb128 .LEHB212-.LFB8454
 10153 050a 05       		.uleb128 .LEHE212-.LEHB212
 10154 050b 8E69     		.uleb128 .L1702-.LFB8454
 10155 050d 00       		.uleb128 0
 10156 050e EC67     		.uleb128 .LEHB213-.LFB8454
 10157 0510 05       		.uleb128 .LEHE213-.LEHB213
 10158 0511 C70A     		.uleb128 .L1703-.LFB8454
 10159 0513 00       		.uleb128 0
 10160 0514 C868     		.uleb128 .LEHB214-.LFB8454
 10161 0516 05       		.uleb128 .LEHE214-.LEHB214
 10162 0517 B169     		.uleb128 .L1753-.LFB8454
 10163 0519 00       		.uleb128 0
 10164 051a BB69     		.uleb128 .LEHB215-.LFB8454
 10165 051c 05       		.uleb128 .LEHE215-.LEHB215
 10166 051d 8E69     		.uleb128 .L1702-.LFB8454
 10167 051f 00       		.uleb128 0
 10168 0520 D069     		.uleb128 .LEHB216-.LFB8454
 10169 0522 05       		.uleb128 .LEHE216-.LEHB216
 10170 0523 B16A     		.uleb128 .L1751-.LFB8454
 10171 0525 00       		.uleb128 0
 10172              	.LLSDACSE8454:
 10173              		.text
 10175              		.section	.text.unlikely
 10176              	.LCOLDE54:
 10177              		.text
 10178              	.LHOTE54:
 10179              		.weak	_ZTS10vector_var
 10180              		.section	.rodata._ZTS10vector_var,"aG",@progbits,_ZTS10vector_var,comdat
 10181              		.align 8
 10184              	_ZTS10vector_var:
 10185 0000 31307665 		.string	"10vector_var"
 10185      63746F72 
 10185      5F766172 
 10185      00
 10186              		.weak	_ZTI10vector_var
 10187              		.section	.rodata._ZTI10vector_var,"aG",@progbits,_ZTI10vector_var,comdat
 10188              		.align 8
 10191              	_ZTI10vector_var:
 10192 0000 00000000 		.quad	_ZTVN10__cxxabiv117__class_type_infoE+16
 10192      00000000 
 10193 0008 00000000 		.quad	_ZTS10vector_var
 10193      00000000 
 10194              		.weak	_ZTS6Solver
 10195              		.section	.rodata._ZTS6Solver,"aG",@progbits,_ZTS6Solver,comdat
 10196              		.align 8
GAS LISTING /tmp/cce5yULP.s 			page 273


 10199              	_ZTS6Solver:
 10200 0000 36536F6C 		.string	"6Solver"
 10200      76657200 
 10201              		.weak	_ZTI6Solver
 10202              		.section	.rodata._ZTI6Solver,"aG",@progbits,_ZTI6Solver,comdat
 10203              		.align 8
 10206              	_ZTI6Solver:
 10207 0000 00000000 		.quad	_ZTVN10__cxxabiv117__class_type_infoE+16
 10207      00000000 
 10208 0008 00000000 		.quad	_ZTS6Solver
 10208      00000000 
 10209              		.weak	_ZTV10vector_var
 10210              		.section	.rodata._ZTV10vector_var,"aG",@progbits,_ZTV10vector_var,comdat
 10211              		.align 8
 10214              	_ZTV10vector_var:
 10215 0000 00000000 		.quad	0
 10215      00000000 
 10216 0008 00000000 		.quad	_ZTI10vector_var
 10216      00000000 
 10217 0010 00000000 		.quad	_ZN10vector_varD1Ev
 10217      00000000 
 10218 0018 00000000 		.quad	_ZN10vector_varD0Ev
 10218      00000000 
 10219              		.weak	_ZTV6Solver
 10220              		.section	.rodata._ZTV6Solver,"aG",@progbits,_ZTV6Solver,comdat
 10221              		.align 8
 10224              	_ZTV6Solver:
 10225 0000 00000000 		.quad	0
 10225      00000000 
 10226 0008 00000000 		.quad	_ZTI6Solver
 10226      00000000 
 10227 0010 00000000 		.quad	_ZN6SolverD1Ev
 10227      00000000 
 10228 0018 00000000 		.quad	_ZN6SolverD0Ev
 10228      00000000 
 10229              		.local	_ZStL8__ioinit
 10230              		.comm	_ZStL8__ioinit,1,1
 10231              		.section	.rodata.cst8,"aM",@progbits,8
 10232              		.align 8
 10233              	.LC9:
 10234 0000 00000000 		.long	0
 10235 0004 00000840 		.long	1074266112
 10236              		.align 8
 10237              	.LC10:
 10238 0008 00000000 		.long	0
 10239 000c 00001240 		.long	1074921472
 10240              		.align 8
 10241              	.LC12:
 10242 0010 00000000 		.long	0
 10243 0014 0000F03F 		.long	1072693248
 10244              		.section	.rodata.cst16,"aM",@progbits,16
 10245              		.align 16
 10246              	.LC14:
 10247 0000 FFFFFFFF 		.long	4294967295
 10248 0004 FFFFFF7F 		.long	2147483647
 10249 0008 00000000 		.long	0
 10250 000c 00000000 		.long	0
GAS LISTING /tmp/cce5yULP.s 			page 274


 10251              		.section	.rodata.cst8
 10252              		.align 8
 10253              	.LC15:
 10254 0018 00000000 		.long	0
 10255 001c 0000B03C 		.long	1018167296
 10256              		.align 8
 10257              	.LC16:
 10258 0020 00000020 		.long	536870912
 10259 0024 5FA00242 		.long	1107468383
 10260              		.section	.rodata.cst16
 10261              		.align 16
 10262              	.LC17:
 10263 0010 00000000 		.long	0
 10264 0014 00000080 		.long	-2147483648
 10265 0018 00000000 		.long	0
 10266 001c 00000000 		.long	0
 10267              		.section	.rodata.cst8
 10268              		.align 8
 10269              	.LC20:
 10270 0028 00000000 		.long	0
 10271 002c 0000E03F 		.long	1071644672
 10272              		.align 8
 10273              	.LC21:
 10274 0030 1CC7711C 		.long	477218588
 10275 0034 C771BC3F 		.long	1069314503
 10276              		.align 8
 10277              	.LC22:
 10278 0038 00000000 		.long	0
 10279 003c 0000D03F 		.long	1070596096
 10280              		.align 8
 10281              	.LC23:
 10282 0040 CD3B7F66 		.long	1719614413
 10283 0044 9EA0F63F 		.long	1073127582
 10284              		.align 8
 10285              	.LC24:
 10286 0048 1CC7711C 		.long	477218588
 10287 004c C7719C3F 		.long	1067217351
 10288              		.align 8
 10289              	.LC25:
 10290 0050 1CC7711C 		.long	477218588
 10291 0054 C771DC3F 		.long	1071411655
 10292              		.align 8
 10293              	.LC32:
 10294 0058 1D339045 		.long	1167078173
 10295 005c A779E23F 		.long	1071806887
 10296              		.align 8
 10297              	.LC41:
 10298 0060 00000000 		.long	0
 10299 0064 0000F8BF 		.long	-1074266112
 10300              		.align 8
 10301              	.LC42:
 10302 0068 00000000 		.long	0
 10303 006c 0000F83F 		.long	1073217536
 10304              		.align 8
 10305              	.LC43:
 10306 0070 00000000 		.long	0
 10307 0074 000008C0 		.long	-1073217536
GAS LISTING /tmp/cce5yULP.s 			page 275


 10308              		.align 8
 10309              	.LC46:
 10310 0078 55555555 		.long	1431655765
 10311 007c 5555C53F 		.long	1069897045
 10312              		.align 8
 10313              	.LC47:
 10314 0080 55555555 		.long	1431655765
 10315 0084 5555D53F 		.long	1070945621
 10316              		.align 8
 10317              	.LC51:
 10318 0088 00000000 		.long	0
 10319 008c 0000F0BF 		.long	-1074790400
 10320              		.align 8
 10321              	.LC52:
 10322 0090 00000000 		.long	0
 10323 0094 00001040 		.long	1074790400
 10324              		.align 8
 10325              	.LC53:
 10326 0098 00000000 		.long	0
 10327 009c 000000C0 		.long	-1073741824
 10328              		.hidden	__dso_handle
 10329              		.ident	"GCC: (Ubuntu 5.4.0-6ubuntu1~16.04.4) 5.4.0 20160609"
 10330              		.section	.note.GNU-stack,"",@progbits
GAS LISTING /tmp/cce5yULP.s 			page 276


DEFINED SYMBOLS
                            *ABS*:0000000000000000 Solver.cpp
     /tmp/cce5yULP.s:11     .text._ZN10vector_varD2Ev:0000000000000000 _ZN10vector_varD2Ev
     /tmp/cce5yULP.s:11     .text._ZN10vector_varD2Ev:0000000000000000 _ZN10vector_varD1Ev
     /tmp/cce5yULP.s:33     .text._ZNKSt5ctypeIcE8do_widenEc:0000000000000000 _ZNKSt5ctypeIcE8do_widenEc
     /tmp/cce5yULP.s:54     .text:0000000000000000 _ZN6SolverD2Ev
     /tmp/cce5yULP.s:54     .text:0000000000000000 _ZN6SolverD1Ev
     /tmp/cce5yULP.s:76     .text:0000000000000010 _ZN6SolverD0Ev
     /tmp/cce5yULP.s:96     .text._ZN10vector_varD0Ev:0000000000000000 _ZN10vector_varD0Ev
     /tmp/cce5yULP.s:115    .text:0000000000000020 _ZN6Solver24cell_interface_variablesEiiR10vector_varRiRdS1_R19Boundary_ConditionsRNS_6bc_varER4MeshS1_.constprop.95
     /tmp/cce5yULP.s:273    .text:00000000000002d0 _ZN6SolverC2Ev
     /tmp/cce5yULP.s:10224  .rodata._ZTV6Solver:0000000000000000 _ZTV6Solver
     /tmp/cce5yULP.s:273    .text:00000000000002d0 _ZN6SolverC1Ev
     /tmp/cce5yULP.s:296    .text:00000000000002e0 _ZN6Solver26cell_interface_initialiserERdR10vector_varR8flux_varS4_
     /tmp/cce5yULP.s:329    .text:0000000000000330 _ZN6Solver15feq_calc_incompEd10vector_varS0_ddddi
     /tmp/cce5yULP.s:10214  .rodata._ZTV10vector_var:0000000000000000 _ZTV10vector_var
     /tmp/cce5yULP.s:418    .text:0000000000000450 _ZN6Solver8feq_calcEd10vector_varS0_ddd
     /tmp/cce5yULP.s:503    .text:0000000000000570 _ZN6Solver13truncate_fluxER8flux_var
     /tmp/cce5yULP.s:634    .text:0000000000000740 _ZN6Solver13truncate_fluxERd
     /tmp/cce5yULP.s:699    .text:00000000000007d0 _ZN6Solver11get_e_alphaEiRddd
     /tmp/cce5yULP.s:821    .text:0000000000000970 _ZN6Solver24cell_interface_variablesEiiR10vector_varRiRdS1_R19Boundary_ConditionsRNS_6bc_varER4MeshS1_
     /tmp/cce5yULP.s:981    .text._ZNSt6vectorI10vector_varSaIS0_EE19_M_emplace_back_auxIJRKS0_EEEvDpOT_:0000000000000000 _ZNSt6vectorI10vector_varSaIS0_EE19_M_emplace_back_auxIJRKS0_EEEvDpOT_
     /tmp/cce5yULP.s:981    .text._ZNSt6vectorI10vector_varSaIS0_EE19_M_emplace_back_auxIJRKS0_EEEvDpOT_:0000000000000000 _ZNSt6vectorI10vector_varSaIS0_EE19_M_emplace_back_auxIIRKS0_EEEvDpOT_
     /tmp/cce5yULP.s:1149   .text:0000000000000c20 _ZN6Solver16populate_e_alphaERSt6vectorI10vector_varSaIS1_EEPdddi
     /tmp/cce5yULP.s:1322   .text:0000000000000e70 _ZN6Solver16populate_e_alphaERSt6vectorI10vector_varSaIS1_EEPdddi.constprop.93
     /tmp/cce5yULP.s:1483   .text.startup:0000000000000000 _GLOBAL__sub_I__ZN6SolverC2Ev
                             .bss:0000000000000000 _ZStL8__ioinit
     /tmp/cce5yULP.s:1532   .text:00000000000010b0 _ZN6Solver17Mesh_Solver_CleanER4MeshR8SolutionR19Boundary_ConditionsR15external_forcesR16global_variablesR15domain_geometryR18initial_conditionsR13quad_bcs_plusiS3_i
     /tmp/cce5yULP.s:3853   .text:00000000000036f0 _ZN6Solver25Uniform_Mesh_Solver_CleanER4MeshR8SolutionR19Boundary_ConditionsR15external_forcesR16global_variablesR15domain_geometryR18initial_conditionsR13quad_bcs_plusiS3_i
     /tmp/cce5yULP.s:6275   .text:0000000000005df0 _ZN6Solver24multi_grid_agglomorationER8SolutionS1_iR4MeshR13quad_bcs_plusR18initial_conditionsRi16global_variablesR15domain_geometryR19Boundary_Conditions
     /tmp/cce5yULP.s:6999   .text:00000000000068e0 _ZN6Solver11Mesh_SolverER4MeshR8SolutionR19Boundary_ConditionsR15external_forcesR16global_variablesR15domain_geometryR18initial_conditionsR13quad_bcs_plusiS3_i
     /tmp/cce5yULP.s:10184  .rodata._ZTS10vector_var:0000000000000000 _ZTS10vector_var
     /tmp/cce5yULP.s:10191  .rodata._ZTI10vector_var:0000000000000000 _ZTI10vector_var
     /tmp/cce5yULP.s:10199  .rodata._ZTS6Solver:0000000000000000 _ZTS6Solver
     /tmp/cce5yULP.s:10206  .rodata._ZTI6Solver:0000000000000000 _ZTI6Solver
     /tmp/cce5yULP.s:10233  .rodata.cst8:0000000000000000 .LC9
     /tmp/cce5yULP.s:10237  .rodata.cst8:0000000000000008 .LC10
     /tmp/cce5yULP.s:10241  .rodata.cst8:0000000000000010 .LC12
     /tmp/cce5yULP.s:10253  .rodata.cst8:0000000000000018 .LC15
     /tmp/cce5yULP.s:10246  .rodata.cst16:0000000000000000 .LC14
     /tmp/cce5yULP.s:10257  .rodata.cst8:0000000000000020 .LC16
     /tmp/cce5yULP.s:10262  .rodata.cst16:0000000000000010 .LC17
     /tmp/cce5yULP.s:10289  .rodata.cst8:0000000000000050 .LC25
     /tmp/cce5yULP.s:10277  .rodata.cst8:0000000000000038 .LC22
     /tmp/cce5yULP.s:10269  .rodata.cst8:0000000000000028 .LC20
     /tmp/cce5yULP.s:10281  .rodata.cst8:0000000000000040 .LC23
     /tmp/cce5yULP.s:10285  .rodata.cst8:0000000000000048 .LC24
     /tmp/cce5yULP.s:10273  .rodata.cst8:0000000000000030 .LC21
     /tmp/cce5yULP.s:10293  .rodata.cst8:0000000000000058 .LC32
     /tmp/cce5yULP.s:10305  .rodata.cst8:0000000000000070 .LC43
     /tmp/cce5yULP.s:10301  .rodata.cst8:0000000000000068 .LC42
     /tmp/cce5yULP.s:10297  .rodata.cst8:0000000000000060 .LC41
     /tmp/cce5yULP.s:10317  .rodata.cst8:0000000000000088 .LC51
     /tmp/cce5yULP.s:10321  .rodata.cst8:0000000000000090 .LC52
     /tmp/cce5yULP.s:10313  .rodata.cst8:0000000000000080 .LC47
     /tmp/cce5yULP.s:10309  .rodata.cst8:0000000000000078 .LC46
     /tmp/cce5yULP.s:10325  .rodata.cst8:0000000000000098 .LC53
GAS LISTING /tmp/cce5yULP.s 			page 277


                           .group:0000000000000000 _ZN10vector_varD5Ev

UNDEFINED SYMBOLS
_ZdlPv
_ZN10vector_var11Dot_ProductES_
__stack_chk_fail
trunc
_ZN10vector_varC1Ev
sincos
round
_Znwm
_ZNSt8ios_base4InitC1Ev
__dso_handle
_ZNSt8ios_base4InitD1Ev
__cxa_atexit
__gxx_personality_v0
_ZN10RungeKuttaC1Ev
_ZN8SolutionC1Ei
_ZN8flux_varC1Ev
_ZNSt8ios_baseC2Ev
_ZTTSt14basic_ofstreamIcSt11char_traitsIcEE
_ZTVSt9basic_iosIcSt11char_traitsIcEE
_ZNSt9basic_iosIcSt11char_traitsIcEE4initEPSt15basic_streambufIcS1_E
_ZTVSt14basic_ofstreamIcSt11char_traitsIcEE
_ZNSt13basic_filebufIcSt11char_traitsIcEEC1Ev
_ZN9residualsC1Ev
_ZN8Solution5cloneERS_
ceil
_ZSt19__throw_logic_errorPKc
_ZN10RungeKuttaD1Ev
_Unwind_Resume
_ZTVSt13basic_filebufIcSt11char_traitsIcEE
_ZNSt13basic_filebufIcSt11char_traitsIcEE5closeEv
_ZNSt12__basic_fileIcED1Ev
_ZTVSt15basic_streambufIcSt11char_traitsIcEE
_ZNSt6localeD1Ev
_ZNSt8ios_baseD2Ev
_ZN8flux_varD1Ev
_ZN8SolutionD1Ev
_ZNSt7__cxx1112basic_stringIcSt11char_traitsIcESaIcEE9_M_appendEPKcm
_ZNSt7__cxx1112basic_stringIcSt11char_traitsIcESaIcEE4swapERS4_
_ZNSt13basic_filebufIcSt11char_traitsIcEE4openEPKcSt13_Ios_Openmode
_ZNSt9basic_iosIcSt11char_traitsIcEE5clearESt12_Ios_Iostate
_ZN9residuals5resetEv
_ZN8Solution10update_bcsER19Boundary_ConditionsR4MeshR15domain_geometry
_ZN8Solution10InitialiseEv
_ZN10vector_var12Get_GradientEddS_S_
_ZN10vector_var16relative_vectorsES_S_S_d
_ZN10vector_var9MagnitudeEv
_ZN8Solution6updateEddddi
_ZN9residuals27add_ansys_l2_norm_residualsEddddddd
_ZN9residuals16ansys_5_iter_rmsEi
_ZN9residuals9max_errorEv
_ZN9residualsD1Ev
_ZNSolsEi
_ZSt16__ostream_insertIcSt11char_traitsIcEERSt13basic_ostreamIT_T0_ES6_PKS3_l
_ZNSo9_M_insertIdEERSoT_
GAS LISTING /tmp/cce5yULP.s 			page 278


_ZNSo3putEc
_ZNSo5flushEv
_ZSt4cout
_ZN14tecplot_outputC1ER16global_variablesR4MeshR8SolutionR19Boundary_Conditionsid
_ZN14tecplot_outputD1Ev
_ZNKSt5ctypeIcE13_M_widen_initEv
_ZSt16__throw_bad_castv
_ZSt20__throw_length_errorPKc
_ZNSt7__cxx1112basic_stringIcSt11char_traitsIcESaIcEE9_M_createERmm
memcpy
_ZNSt13basic_filebufIcSt11char_traitsIcEED1Ev
_ZN4Mesh25create_coarse_mesh_domainEv
_ZTV16global_variables
_ZTV15domain_geometry
_ZN4MeshC1E15domain_geometry16global_variables
_ZN15domain_geometryD1Ev
_ZN16global_variablesD1Ev
_ZN19Boundary_ConditionsC1Eii
_ZTV13quad_bcs_plus
_ZN19Boundary_Conditions26assign_boundary_conditionsEii13quad_bcs_plus
_ZN13quad_bcs_plusD1Ev
_ZN15external_forcesC1Ei
_ZN15external_forces17set_uniform_forceEd
_ZN8Solution11restrictionERS_R4MeshS2_R19Boundary_Conditions
_ZN8Solution12prolongationERS_S0_S0_R4MeshS2_R19Boundary_Conditionsb
_ZN15external_forcesD1Ev
_ZN19Boundary_ConditionsD1Ev
_ZN4MeshD1Ev
_ZN22artificial_dissipationC1EiR16global_variables
_ZN22artificial_dissipationD1Ev
_Znam
pow
_ZdaPv
exit
_ZTVN10__cxxabiv117__class_type_infoE
